///////////////////////////////////////////////////////////////////////////////
//
// IAR C/C++ Compiler V9.30.1.3056 for 8051               21/Nov/2018  13:52:04
// Copyright 2004-2015 IAR Systems AB.
// Standalone license - IAR Embedded Workbench for 8051
//
//    Core               =  plain
//    Code model         =  banked
//    Data model         =  large
//    Calling convention =  xdata reentrant
//    Constant location  =  data_rom
//    Dptr setup         =  1,16
//                          
//    Source file        =  
//        D:\1.embedded\kit\cc2530\Reference\Z-Stack Mesh
//        1.0.0\Components\stack\af\AF.c
//    Command line       =  
//        -f "D:\1.embedded\kit\cc2530\Reference\Z-Stack Mesh
//        1.0.0\Projects\zstack\ZNP\CC253x\..\Source\znp.cfg"
//        (-DMAC_CFG_APP_PENDING_QUEUE=TRUE
//        "-DZSTACK_DEVICE_BUILD=(DEVICE_BUILD_COORDINATOR |
//        DEVICE_BUILD_ROUTER | DEVICE_BUILD_ENDDEVICE)" -DNWK_AUTO_POLL
//        -DZNP_RUN_WDOG=FALSE -DZNP_UART_BAUD=HAL_UART_BR_115200 -DZIGBEEPRO
//        -DZIGBEE_FRAGMENTATION -DINTER_PAN -DOSAL_CLOCK -DOSAL_SAPI=FALSE
//        -DSAPI_CB_FUNC=FALSE -DHOLD_AUTO_START -DNV_RESTORE -DNV_INIT
//        -DNUM_DISC_ATTEMPTS=0 -DMT_UTIL_FUNC -DMT_SYS_FUNC -DMT_AF_FUNC
//        -DMT_SAPI_FUNC -DMT_SAPI_CB_FUNC -DMT_ZDO_CB_FUNC -DMT_ZDO_FUNC
//        -DMT_ZDO_MGMT -DMT_ZDO_EXTENSIONS -DMT_APP_FUNC) -f
//        "D:\1.embedded\kit\cc2530\Reference\Z-Stack Mesh
//        1.0.0\Projects\zstack\ZNP\CC253x\..\..\Tools\CC2530DB\f8wConfig.cfg"
//        (-DZIGBEEPRO -DSECURE=1 -DZG_SECURE_DYNAMIC=0 -DREFLECTOR
//        -DDEFAULT_CHANLIST=0x00000800 -DZDAPP_CONFIG_PAN_ID=0xFFFF
//        -DNWK_START_DELAY=100 -DEXTENDED_JOINING_RANDOM_MASK=0x007F
//        -DBEACON_REQUEST_DELAY=100 -DBEACON_REQ_DELAY_MASK=0x00FF
//        -DLINK_STATUS_JITTER_MASK=0x007F -DROUTE_EXPIRY_TIME=30
//        -DAPSC_ACK_WAIT_DURATION_POLLED=3000 -DNWK_INDIRECT_MSG_TIMEOUT=7
//        -DMAX_RREQ_ENTRIES=8 -DAPSC_MAX_FRAME_RETRIES=3
//        -DNWK_MAX_DATA_RETRIES=2 -DMAX_POLL_FAILURE_RETRIES=2 -DMAX_BCAST=9
//        -DAPS_MAX_GROUPS=16 -DMAX_RTG_ENTRIES=40 -DNWK_MAX_BINDING_ENTRIES=4
//        -DMAX_BINDING_CLUSTER_IDS=4 "-DDEFAULT_KEY={0x01, 0x03, 0x05, 0x07,
//        0x09, 0x0B, 0x0D, 0x0F, 0x00, 0x02, 0x04, 0x06, 0x08, 0x0A, 0x0C,
//        0x0D}" -DMAC_MAX_FRAME_SIZE=116 -DZDNWKMGR_MIN_TRANSMISSIONS=20
//        "-DCONST=const __code" -DGENERIC=__generic -DRFD_RCVC_ALWAYS_ON=FALSE
//        -DPOLL_RATE=1000 -DQUEUED_POLL_RATE=100 -DRESPONSE_POLL_RATE=100
//        -DREJOIN_POLL_RATE=440) -f
//        "D:\1.embedded\kit\cc2530\Reference\Z-Stack Mesh
//        1.0.0\Projects\zstack\ZNP\CC253x\..\..\Tools\CC2530DB\f8wZCL.cfg"
//        "D:\1.embedded\kit\cc2530\Reference\Z-Stack Mesh
//        1.0.0\Components\stack\af\AF.c" -D FEATURE_SYSTEM_STATS -D
//        POWER_SAVING -lC "D:\1.embedded\kit\cc2530\Reference\Z-Stack Mesh
//        1.0.0\Projects\zstack\ZNP\CC253x\CC2530-Debug\List" -lA
//        "D:\1.embedded\kit\cc2530\Reference\Z-Stack Mesh
//        1.0.0\Projects\zstack\ZNP\CC253x\CC2530-Debug\List" --diag_suppress
//        Pe001,Pa010 -o "D:\1.embedded\kit\cc2530\Reference\Z-Stack Mesh
//        1.0.0\Projects\zstack\ZNP\CC253x\CC2530-Debug\Obj" -e
//        --no_code_motion --debug --core=plain --dptr=16,1 --data_model=large
//        --code_model=banked --calling_convention=xdata_reentrant
//        --place_constants=data_rom --nr_virtual_regs 16 -I
//        "D:\1.embedded\kit\cc2530\Reference\Z-Stack Mesh
//        1.0.0\Projects\zstack\ZNP\CC253x\" -I
//        "D:\1.embedded\kit\cc2530\Reference\Z-Stack Mesh
//        1.0.0\Projects\zstack\ZNP\CC253x\Source\" -I
//        "D:\1.embedded\kit\cc2530\Reference\Z-Stack Mesh
//        1.0.0\Projects\zstack\ZNP\CC253x\..\Source\" -I
//        "D:\1.embedded\kit\cc2530\Reference\Z-Stack Mesh
//        1.0.0\Projects\zstack\ZNP\CC253x\..\..\SE\Source\" -I
//        "D:\1.embedded\kit\cc2530\Reference\Z-Stack Mesh
//        1.0.0\Projects\zstack\ZNP\CC253x\..\..\ZMain\TI2530ZNP\" -I
//        "D:\1.embedded\kit\cc2530\Reference\Z-Stack Mesh
//        1.0.0\Projects\zstack\ZNP\CC253x\..\..\..\..\Components\hal\include\"
//        -I "D:\1.embedded\kit\cc2530\Reference\Z-Stack Mesh
//        1.0.0\Projects\zstack\ZNP\CC253x\..\..\..\..\Components\hal\target\CC2530ZNP\"
//        -I "D:\1.embedded\kit\cc2530\Reference\Z-Stack Mesh
//        1.0.0\Projects\zstack\ZNP\CC253x\..\..\..\..\Components\mac\include\"
//        -I "D:\1.embedded\kit\cc2530\Reference\Z-Stack Mesh
//        1.0.0\Projects\zstack\ZNP\CC253x\..\..\..\..\Components\mac\high_level\"
//        -I "D:\1.embedded\kit\cc2530\Reference\Z-Stack Mesh
//        1.0.0\Projects\zstack\ZNP\CC253x\..\..\..\..\Components\mac\low_level\srf04\"
//        -I "D:\1.embedded\kit\cc2530\Reference\Z-Stack Mesh
//        1.0.0\Projects\zstack\ZNP\CC253x\..\..\..\..\Components\mac\low_level\srf04\single_chip\"
//        -I "D:\1.embedded\kit\cc2530\Reference\Z-Stack Mesh
//        1.0.0\Projects\zstack\ZNP\CC253x\..\..\..\..\Components\mt\" -I
//        "D:\1.embedded\kit\cc2530\Reference\Z-Stack Mesh
//        1.0.0\Projects\zstack\ZNP\CC253x\..\..\..\..\Components\osal\include\"
//        -I "D:\1.embedded\kit\cc2530\Reference\Z-Stack Mesh
//        1.0.0\Projects\zstack\ZNP\CC253x\..\..\..\..\Components\services\saddr\"
//        -I "D:\1.embedded\kit\cc2530\Reference\Z-Stack Mesh
//        1.0.0\Projects\zstack\ZNP\CC253x\..\..\..\..\Components\services\sdata\"
//        -I "D:\1.embedded\kit\cc2530\Reference\Z-Stack Mesh
//        1.0.0\Projects\zstack\ZNP\CC253x\..\..\..\..\Components\stack\af\" -I
//        "D:\1.embedded\kit\cc2530\Reference\Z-Stack Mesh
//        1.0.0\Projects\zstack\ZNP\CC253x\..\..\..\..\Components\stack\nwk\"
//        -I "D:\1.embedded\kit\cc2530\Reference\Z-Stack Mesh
//        1.0.0\Projects\zstack\ZNP\CC253x\..\..\..\..\Components\stack\sapi\"
//        -I "D:\1.embedded\kit\cc2530\Reference\Z-Stack Mesh
//        1.0.0\Projects\zstack\ZNP\CC253x\..\..\..\..\Components\stack\sec\"
//        -I "D:\1.embedded\kit\cc2530\Reference\Z-Stack Mesh
//        1.0.0\Projects\zstack\ZNP\CC253x\..\..\..\..\Components\stack\sys\"
//        -I "D:\1.embedded\kit\cc2530\Reference\Z-Stack Mesh
//        1.0.0\Projects\zstack\ZNP\CC253x\..\..\..\..\Components\stack\zcl\"
//        -I "D:\1.embedded\kit\cc2530\Reference\Z-Stack Mesh
//        1.0.0\Projects\zstack\ZNP\CC253x\..\..\..\..\Components\stack\zdo\"
//        -I "D:\1.embedded\kit\cc2530\Reference\Z-Stack Mesh
//        1.0.0\Projects\zstack\ZNP\CC253x\..\..\..\..\Components\zmac\" -I
//        "D:\1.embedded\kit\cc2530\Reference\Z-Stack Mesh
//        1.0.0\Projects\zstack\ZNP\CC253x\..\..\..\..\Components\zmac\f8w\"
//        -Ohz --require_prototypes
//    List file          =  
//        D:\1.embedded\kit\cc2530\Reference\Z-Stack Mesh
//        1.0.0\Projects\zstack\ZNP\CC253x\CC2530-Debug\List\AF.s51
//
///////////////////////////////////////////////////////////////////////////////

        NAME AF

        RTMODEL "__SystemLibrary", "CLib"
        RTMODEL "__calling_convention", "xdata_reentrant"
        RTMODEL "__code_model", "banked"
        RTMODEL "__core", "plain"
        RTMODEL "__data_model", "large"
        RTMODEL "__dptr_size", "16"
        RTMODEL "__extended_stack", "disabled"
        RTMODEL "__location_for_constants", "data"
        RTMODEL "__number_of_dptrs", "1"
        RTMODEL "__rt_version", "1"

        RSEG DOVERLAY:DATA:NOROOT(0)
        RSEG IOVERLAY:IDATA:NOROOT(0)
        RSEG ISTACK:IDATA:NOROOT(0)
        RSEG PSTACK:XDATA:NOROOT(0)
        RSEG XSTACK:XDATA:NOROOT(0)

        EXTERN ?V0
        EXTERN ?V1
        EXTERN ?V2
        EXTERN ?V3
        EXTERN ?V4
        EXTERN ?V5
        EXTERN ?V6
        EXTERN ?V7
        EXTERN ?V8
        EXTERN ?V9
        EXTERN ?V10
        EXTERN ?V11
        EXTERN ?V12
        EXTERN ?V13
        EXTERN ?V14
        EXTERN ?V15
        EXTERN ?ALLOC_XSTACK8
        EXTERN ?BANKED_ENTER_XDATA
        EXTERN ?BANKED_LEAVE_XDATA
        EXTERN ?BDISPATCH
        EXTERN ?BRET
        EXTERN ?CALL_IND
        EXTERN ?DEALLOC_XSTACK8
        EXTERN ?L_MOV_X
        EXTERN ?PUSH_XSTACK8_X_TWO
        EXTERN ?PUSH_XSTACK_I_FOUR
        EXTERN ?PUSH_XSTACK_I_ONE
        EXTERN ?PUSH_XSTACK_I_THREE
        EXTERN ?PUSH_XSTACK_I_TWO
        EXTERN ?XLOAD_R0123
        EXTERN ?XSP
        EXTERN ?XSTACK_DISP0_8
        EXTERN ?XSTACK_DISP101_8
        EXTERN ?XSTORE_R0123
        EXTERN __INIT_XDATA_I
        EXTERN __INIT_XDATA_Z

        PUBLIC `??AF_DataRequest::?relay`
        FUNCTION `??AF_DataRequest::?relay`,0203H
        PUBLIC `??AF_DataRequestSrcRtg::?relay`
        FUNCTION `??AF_DataRequestSrcRtg::?relay`,0203H
        PUBLIC `??afAPSF_ConfigGet::?relay`
        FUNCTION `??afAPSF_ConfigGet::?relay`,0203H
        PUBLIC `??afAPSF_ConfigSet::?relay`
        FUNCTION `??afAPSF_ConfigSet::?relay`,0203H
        FUNCTION `??afBuildMSGIncoming::?relay`,0203H
        PUBLIC `??afCopyAddress::?relay`
        FUNCTION `??afCopyAddress::?relay`,0203H
        PUBLIC `??afDataConfirm::?relay`
        FUNCTION `??afDataConfirm::?relay`,0203H
        PUBLIC `??afDataReqMTU::?relay`
        FUNCTION `??afDataReqMTU::?relay`,0203H
        PUBLIC `??afDelete::?relay`
        FUNCTION `??afDelete::?relay`,0203H
        PUBLIC `??afEndPoints::?relay`
        FUNCTION `??afEndPoints::?relay`,0203H
        PUBLIC `??afFindEndPointDesc::?relay`
        FUNCTION `??afFindEndPointDesc::?relay`,0203H
        FUNCTION `??afFindEndPointDescList::?relay`,0203H
        PUBLIC `??afFindSimpleDesc::?relay`
        FUNCTION `??afFindSimpleDesc::?relay`,0203H
        PUBLIC `??afGetMatch::?relay`
        FUNCTION `??afGetMatch::?relay`,0203H
        PUBLIC `??afIncomingData::?relay`
        FUNCTION `??afIncomingData::?relay`,0203H
        PUBLIC `??afNumEndPoints::?relay`
        FUNCTION `??afNumEndPoints::?relay`,0203H
        PUBLIC `??afReflectError::?relay`
        FUNCTION `??afReflectError::?relay`,0203H
        PUBLIC `??afRegister::?relay`
        FUNCTION `??afRegister::?relay`,0203H
        PUBLIC `??afRegisterExtended::?relay`
        FUNCTION `??afRegisterExtended::?relay`,0203H
        PUBLIC `??afSetApplCB::?relay`
        FUNCTION `??afSetApplCB::?relay`,0203H
        PUBLIC `??afSetMatch::?relay`
        FUNCTION `??afSetMatch::?relay`,0203H
        PUBLIC AF_DataRequest
        FUNCTION AF_DataRequest,0a1203H
        ARGFRAME XSTACK, 21, STACK
        ARGFRAME IOVERLAY, 0, STATIC
        ARGFRAME DOVERLAY, 0, STATIC
        LOCFRAME ISTACK, 1, STACK
        LOCFRAME XSTACK, 48, STACK
        PUBLIC AF_DataRequestDiscoverRoute
        PUBLIC AF_DataRequestSrcRtg
        FUNCTION AF_DataRequestSrcRtg,0a1203H
        ARGFRAME XSTACK, 12, STACK
        LOCFRAME XSTACK, 21, STACK
        PUBLIC afAPSF_ConfigGet
        FUNCTION afAPSF_ConfigGet,0a1203H
        ARGFRAME XSTACK, 0, STACK
        LOCFRAME XSTACK, 15, STACK
        PUBLIC afAPSF_ConfigSet
        FUNCTION afAPSF_ConfigSet,0a1203H
        ARGFRAME XSTACK, 0, STACK
        LOCFRAME XSTACK, 15, STACK
        FUNCTION afBuildMSGIncoming,0a1203H
        ARGFRAME XSTACK, 40, STACK
        ARGFRAME IOVERLAY, 0, STATIC
        ARGFRAME DOVERLAY, 0, STATIC
        LOCFRAME ISTACK, 1, STACK
        LOCFRAME XSTACK, 22, STACK
        PUBLIC afCopyAddress
        FUNCTION afCopyAddress,021203H
        ARGFRAME XSTACK, 19, STACK
        ARGFRAME IOVERLAY, 0, STATIC
        ARGFRAME DOVERLAY, 0, STATIC
        LOCFRAME ISTACK, 1, STACK
        LOCFRAME XSTACK, 9, STACK
        PUBLIC afDataConfirm
        FUNCTION afDataConfirm,0a1203H
        ARGFRAME XSTACK, 48, STACK
        ARGFRAME IOVERLAY, 0, STATIC
        ARGFRAME DOVERLAY, 0, STATIC
        LOCFRAME ISTACK, 1, STACK
        LOCFRAME XSTACK, 14, STACK
        PUBLIC afDataReqMTU
        FUNCTION afDataReqMTU,021203H
        ARGFRAME XSTACK, 48, STACK
        ARGFRAME IOVERLAY, 0, STATIC
        ARGFRAME DOVERLAY, 0, STATIC
        LOCFRAME XSTACK, 9, STACK
        PUBLIC afDelete
        FUNCTION afDelete,021203H
        ARGFRAME XSTACK, 0, STACK
        LOCFRAME XSTACK, 9, STACK
        PUBLIC afEndPoints
        FUNCTION afEndPoints,0203H
        ARGFRAME XSTACK, 0, STACK
        LOCFRAME ISTACK, 3, STACK
        PUBLIC afFindEndPointDesc
        FUNCTION afFindEndPointDesc,0a1203H
        ARGFRAME XSTACK, 28, STACK
        ARGFRAME IOVERLAY, 0, STATIC
        ARGFRAME DOVERLAY, 0, STATIC
        LOCFRAME XSTACK, 10, STACK
        FUNCTION afFindEndPointDescList,0203H
        ARGFRAME XSTACK, 48, STACK
        ARGFRAME IOVERLAY, 0, STATIC
        ARGFRAME DOVERLAY, 0, STATIC
        LOCFRAME ISTACK, 2, STACK
        PUBLIC afFindSimpleDesc
        FUNCTION afFindSimpleDesc,0a1203H
        ARGFRAME XSTACK, 0, STACK
        LOCFRAME XSTACK, 12, STACK
        PUBLIC afGetMatch
        FUNCTION afGetMatch,0a1203H
        ARGFRAME XSTACK, 0, STACK
        LOCFRAME XSTACK, 10, STACK
        PUBLIC afIncomingData
        FUNCTION afIncomingData,0a1203H
        ARGFRAME XSTACK, 10, STACK
        LOCFRAME ISTACK, 1, STACK
        LOCFRAME XSTACK, 40, STACK
        PUBLIC afNumEndPoints
        FUNCTION afNumEndPoints,0203H
        ARGFRAME XSTACK, 0, STACK
        LOCFRAME ISTACK, 2, STACK
        PUBLIC afReflectError
        FUNCTION afReflectError,0a1203H
        ARGFRAME XSTACK, 1, STACK
        LOCFRAME ISTACK, 1, STACK
        LOCFRAME XSTACK, 16, STACK
        PUBLIC afRegister
        FUNCTION afRegister,0a1203H
        ARGFRAME XSTACK, 0, STACK
        LOCFRAME XSTACK, 12, STACK
        PUBLIC afRegisterExtended
        FUNCTION afRegisterExtended,0a1203H
        ARGFRAME XSTACK, 12, STACK
        ARGFRAME IOVERLAY, 0, STATIC
        ARGFRAME DOVERLAY, 0, STATIC
        LOCFRAME XSTACK, 12, STACK
        PUBLIC afSetApplCB
        FUNCTION afSetApplCB,0a1203H
        ARGFRAME XSTACK, 0, STACK
        LOCFRAME XSTACK, 12, STACK
        PUBLIC afSetMatch
        FUNCTION afSetMatch,0a1203H
        ARGFRAME XSTACK, 0, STACK
        LOCFRAME XSTACK, 10, STACK
        PUBLIC epList
        
          CFI Names cfiNames0
          CFI StackFrame CFA_SP SP IDATA
          CFI StackFrame CFA_PSP16 PSP16 XDATA
          CFI StackFrame CFA_XSP16 XSP16 XDATA
          CFI StaticOverlayFrame CFA_IOVERLAY IOVERLAY
          CFI StaticOverlayFrame CFA_DOVERLAY DOVERLAY
          CFI Resource `PSW.CY`:1, `B.BR0`:1, `B.BR1`:1, `B.BR2`:1, `B.BR3`:1
          CFI Resource `B.BR4`:1, `B.BR5`:1, `B.BR6`:1, `B.BR7`:1, `VB.BR8`:1
          CFI Resource `VB.BR9`:1, `VB.BR10`:1, `VB.BR11`:1, `VB.BR12`:1
          CFI Resource `VB.BR13`:1, `VB.BR14`:1, `VB.BR15`:1, VB:8, B:8, A:8
          CFI Resource PSW:8, DPL0:8, DPH0:8, R0:8, R1:8, R2:8, R3:8, R4:8, R5:8
          CFI Resource R6:8, R7:8, V0:8, V1:8, V2:8, V3:8, V4:8, V5:8, V6:8, V7:8
          CFI Resource V8:8, V9:8, V10:8, V11:8, V12:8, V13:8, V14:8, V15:8, SP:8
          CFI Resource PSPH:8, PSPL:8, PSP16:16, XSPH:8, XSPL:8, XSP16:16
          CFI VirtualResource ?RET:24
          CFI Resource ?BRET_EXT:8
          CFI VirtualResource ?RET_HIGH:8, ?RET_LOW:8
          CFI ResourceParts PSP16 PSPH, PSPL
          CFI ResourceParts XSP16 XSPH, XSPL
          CFI ResourceParts ?RET ?BRET_EXT, ?RET_HIGH, ?RET_LOW
          CFI EndNames cfiNames0
        
          CFI Common cfiCommon0 Using cfiNames0
          CFI CodeAlign 1
          CFI DataAlign -1
          CFI ReturnAddress ?RET CODE
          CFI CFA_DOVERLAY Used
          CFI CFA_IOVERLAY Used
          CFI CFA_SP SP+-3
          CFI CFA_PSP16 PSP16+0
          CFI CFA_XSP16 XSP16+0
          CFI `PSW.CY` SameValue
          CFI `B.BR0` SameValue
          CFI `B.BR1` SameValue
          CFI `B.BR2` SameValue
          CFI `B.BR3` SameValue
          CFI `B.BR4` SameValue
          CFI `B.BR5` SameValue
          CFI `B.BR6` SameValue
          CFI `B.BR7` SameValue
          CFI `VB.BR8` SameValue
          CFI `VB.BR9` SameValue
          CFI `VB.BR10` SameValue
          CFI `VB.BR11` SameValue
          CFI `VB.BR12` SameValue
          CFI `VB.BR13` SameValue
          CFI `VB.BR14` SameValue
          CFI `VB.BR15` SameValue
          CFI VB SameValue
          CFI B Undefined
          CFI A Undefined
          CFI PSW SameValue
          CFI DPL0 SameValue
          CFI DPH0 SameValue
          CFI R0 Undefined
          CFI R1 Undefined
          CFI R2 Undefined
          CFI R3 Undefined
          CFI R4 Undefined
          CFI R5 Undefined
          CFI R6 SameValue
          CFI R7 SameValue
          CFI V0 SameValue
          CFI V1 SameValue
          CFI V2 SameValue
          CFI V3 SameValue
          CFI V4 SameValue
          CFI V5 SameValue
          CFI V6 SameValue
          CFI V7 SameValue
          CFI V8 SameValue
          CFI V9 SameValue
          CFI V10 SameValue
          CFI V11 SameValue
          CFI V12 SameValue
          CFI V13 SameValue
          CFI V14 SameValue
          CFI V15 SameValue
          CFI PSPH Undefined
          CFI PSPL Undefined
          CFI XSPH Undefined
          CFI XSPL Undefined
          CFI ?RET Concat
          CFI ?BRET_EXT Frame(CFA_SP, 3)
          CFI ?RET_HIGH Frame(CFA_SP, 2)
          CFI ?RET_LOW Frame(CFA_SP, 1)
          CFI EndCommon cfiCommon0
        
        
          CFI Common cfiCommon1 Using cfiNames0
          CFI CodeAlign 1
          CFI DataAlign -1
          CFI ReturnAddress ?RET CODE
          CFI CFA_DOVERLAY Used
          CFI CFA_IOVERLAY Used
          CFI CFA_SP SP+-2
          CFI CFA_PSP16 PSP16+0
          CFI CFA_XSP16 XSP16+0
          CFI `PSW.CY` SameValue
          CFI `B.BR0` SameValue
          CFI `B.BR1` SameValue
          CFI `B.BR2` SameValue
          CFI `B.BR3` SameValue
          CFI `B.BR4` SameValue
          CFI `B.BR5` SameValue
          CFI `B.BR6` SameValue
          CFI `B.BR7` SameValue
          CFI `VB.BR8` SameValue
          CFI `VB.BR9` SameValue
          CFI `VB.BR10` SameValue
          CFI `VB.BR11` SameValue
          CFI `VB.BR12` SameValue
          CFI `VB.BR13` SameValue
          CFI `VB.BR14` SameValue
          CFI `VB.BR15` SameValue
          CFI VB SameValue
          CFI B SameValue
          CFI A SameValue
          CFI PSW SameValue
          CFI DPL0 SameValue
          CFI DPH0 SameValue
          CFI R0 SameValue
          CFI R1 SameValue
          CFI R2 SameValue
          CFI R3 SameValue
          CFI R4 SameValue
          CFI R5 SameValue
          CFI R6 SameValue
          CFI R7 SameValue
          CFI V0 SameValue
          CFI V1 SameValue
          CFI V2 SameValue
          CFI V3 SameValue
          CFI V4 SameValue
          CFI V5 SameValue
          CFI V6 SameValue
          CFI V7 SameValue
          CFI V8 SameValue
          CFI V9 SameValue
          CFI V10 SameValue
          CFI V11 SameValue
          CFI V12 SameValue
          CFI V13 SameValue
          CFI V14 SameValue
          CFI V15 SameValue
          CFI PSPH Undefined
          CFI PSPL Undefined
          CFI XSPH Undefined
          CFI XSPL Undefined
          CFI ?RET Concat
          CFI ?BRET_EXT SameValue
          CFI ?RET_HIGH Frame(CFA_SP, 2)
          CFI ?RET_LOW Frame(CFA_SP, 1)
          CFI EndCommon cfiCommon1
        
APSDE_DataReq       SYMBOL "APSDE_DataReq"
`??APSDE_DataReq::?relay` SYMBOL "?relay", APSDE_DataReq
APSDE_DataReqMTU    SYMBOL "APSDE_DataReqMTU"
`??APSDE_DataReqMTU::?relay` SYMBOL "?relay", APSDE_DataReqMTU
INTERP_DataReq      SYMBOL "INTERP_DataReq"
`??INTERP_DataReq::?relay` SYMBOL "?relay", INTERP_DataReq
INTERP_DataReqMTU   SYMBOL "INTERP_DataReqMTU"
`??INTERP_DataReqMTU::?relay` SYMBOL "?relay", INTERP_DataReqMTU
NLME_GetShortAddr   SYMBOL "NLME_GetShortAddr"
`??NLME_GetShortAddr::?relay` SYMBOL "?relay", NLME_GetShortAddr
NLME_IsAddressBroadcast SYMBOL "NLME_IsAddressBroadcast"
`??NLME_IsAddressBroadcast::?relay` SYMBOL "?relay", NLME_IsAddressBroadcast
RTG_AddSrcRtgEntry_Guaranteed SYMBOL "RTG_AddSrcRtgEntry_Guaranteed"
`??RTG_AddSrcRtgEntry_Guaranteed::?relay` SYMBOL "?relay", RTG_AddSrcRtgEntry_Guaranteed
RTG_CheckRtStatus   SYMBOL "RTG_CheckRtStatus"
`??RTG_CheckRtStatus::?relay` SYMBOL "?relay", RTG_CheckRtStatus
StubAPS_InterPan    SYMBOL "StubAPS_InterPan"
`??StubAPS_InterPan::?relay` SYMBOL "?relay", StubAPS_InterPan
aps_FindGroupForEndpoint SYMBOL "aps_FindGroupForEndpoint"
`??aps_FindGroupForEndpoint::?relay` SYMBOL "?relay", aps_FindGroupForEndpoint
osal_mem_alloc      SYMBOL "osal_mem_alloc"
`??osal_mem_alloc::?relay` SYMBOL "?relay", osal_mem_alloc
osal_mem_free       SYMBOL "osal_mem_free"
`??osal_mem_free::?relay` SYMBOL "?relay", osal_mem_free
osal_memcpy         SYMBOL "osal_memcpy"
`??osal_memcpy::?relay` SYMBOL "?relay", osal_memcpy
osal_msg_allocate   SYMBOL "osal_msg_allocate"
`??osal_msg_allocate::?relay` SYMBOL "?relay", osal_msg_allocate
osal_msg_send       SYMBOL "osal_msg_send"
`??osal_msg_send::?relay` SYMBOL "?relay", osal_msg_send
sAddrExtCpy         SYMBOL "sAddrExtCpy"
`??sAddrExtCpy::?relay` SYMBOL "?relay", sAddrExtCpy
AF_DataRequest      SYMBOL "AF_DataRequest"
`??AF_DataRequest::?relay` SYMBOL "?relay", AF_DataRequest
AF_DataRequestSrcRtg SYMBOL "AF_DataRequestSrcRtg"
`??AF_DataRequestSrcRtg::?relay` SYMBOL "?relay", AF_DataRequestSrcRtg
afAPSF_ConfigGet    SYMBOL "afAPSF_ConfigGet"
`??afAPSF_ConfigGet::?relay` SYMBOL "?relay", afAPSF_ConfigGet
afAPSF_ConfigSet    SYMBOL "afAPSF_ConfigSet"
`??afAPSF_ConfigSet::?relay` SYMBOL "?relay", afAPSF_ConfigSet
afCopyAddress       SYMBOL "afCopyAddress"
`??afCopyAddress::?relay` SYMBOL "?relay", afCopyAddress
afDataConfirm       SYMBOL "afDataConfirm"
`??afDataConfirm::?relay` SYMBOL "?relay", afDataConfirm
afDataReqMTU        SYMBOL "afDataReqMTU"
`??afDataReqMTU::?relay` SYMBOL "?relay", afDataReqMTU
afDelete            SYMBOL "afDelete"
`??afDelete::?relay` SYMBOL "?relay", afDelete
afEndPoints         SYMBOL "afEndPoints"
`??afEndPoints::?relay` SYMBOL "?relay", afEndPoints
afFindEndPointDesc  SYMBOL "afFindEndPointDesc"
`??afFindEndPointDesc::?relay` SYMBOL "?relay", afFindEndPointDesc
afFindSimpleDesc    SYMBOL "afFindSimpleDesc"
`??afFindSimpleDesc::?relay` SYMBOL "?relay", afFindSimpleDesc
afGetMatch          SYMBOL "afGetMatch"
`??afGetMatch::?relay` SYMBOL "?relay", afGetMatch
afIncomingData      SYMBOL "afIncomingData"
`??afIncomingData::?relay` SYMBOL "?relay", afIncomingData
afNumEndPoints      SYMBOL "afNumEndPoints"
`??afNumEndPoints::?relay` SYMBOL "?relay", afNumEndPoints
afReflectError      SYMBOL "afReflectError"
`??afReflectError::?relay` SYMBOL "?relay", afReflectError
afRegister          SYMBOL "afRegister"
`??afRegister::?relay` SYMBOL "?relay", afRegister
afRegisterExtended  SYMBOL "afRegisterExtended"
`??afRegisterExtended::?relay` SYMBOL "?relay", afRegisterExtended
afSetApplCB         SYMBOL "afSetApplCB"
`??afSetApplCB::?relay` SYMBOL "?relay", afSetApplCB
afSetMatch          SYMBOL "afSetMatch"
`??afSetMatch::?relay` SYMBOL "?relay", afSetMatch

        EXTERN `??APSDE_DataReq::?relay`
        FUNCTION `??APSDE_DataReq::?relay`,00H
        EXTERN `??APSDE_DataReqMTU::?relay`
        FUNCTION `??APSDE_DataReqMTU::?relay`,00H
        EXTERN `??INTERP_DataReq::?relay`
        FUNCTION `??INTERP_DataReq::?relay`,00H
        EXTERN `??INTERP_DataReqMTU::?relay`
        FUNCTION `??INTERP_DataReqMTU::?relay`,00H
        EXTERN `??NLME_GetShortAddr::?relay`
        FUNCTION `??NLME_GetShortAddr::?relay`,00H
        EXTERN `??NLME_IsAddressBroadcast::?relay`
        FUNCTION `??NLME_IsAddressBroadcast::?relay`,00H
        EXTERN `??RTG_AddSrcRtgEntry_Guaranteed::?relay`
        FUNCTION `??RTG_AddSrcRtgEntry_Guaranteed::?relay`,00H
        EXTERN `??RTG_CheckRtStatus::?relay`
        FUNCTION `??RTG_CheckRtStatus::?relay`,00H
        EXTERN `??StubAPS_InterPan::?relay`
        FUNCTION `??StubAPS_InterPan::?relay`,00H
        EXTERN `??aps_FindGroupForEndpoint::?relay`
        FUNCTION `??aps_FindGroupForEndpoint::?relay`,00H
        EXTERN `??osal_mem_alloc::?relay`
        FUNCTION `??osal_mem_alloc::?relay`,00H
        EXTERN `??osal_mem_free::?relay`
        FUNCTION `??osal_mem_free::?relay`,00H
        EXTERN `??osal_memcpy::?relay`
        FUNCTION `??osal_memcpy::?relay`,00H
        EXTERN `??osal_msg_allocate::?relay`
        FUNCTION `??osal_msg_allocate::?relay`,00H
        EXTERN `??osal_msg_send::?relay`
        FUNCTION `??osal_msg_send::?relay`,00H
        EXTERN `??sAddrExtCpy::?relay`
        FUNCTION `??sAddrExtCpy::?relay`,00H
        EXTERN APSDE_DataReq
        FUNCTION APSDE_DataReq,0202H
        ARGFRAME ISTACK, 0, STACK
        ARGFRAME PSTACK, 0, STACK
        ARGFRAME XSTACK, 48, STACK
        ARGFRAME IOVERLAY, 0, STATIC
        ARGFRAME DOVERLAY, 0, STATIC
        EXTERN APSDE_DataReqMTU
        FUNCTION APSDE_DataReqMTU,0202H
        ARGFRAME ISTACK, 0, STACK
        ARGFRAME PSTACK, 0, STACK
        ARGFRAME XSTACK, 9, STACK
        ARGFRAME IOVERLAY, 0, STATIC
        ARGFRAME DOVERLAY, 0, STATIC
        EXTERN INTERP_DataReq
        FUNCTION INTERP_DataReq,0202H
        ARGFRAME ISTACK, 0, STACK
        ARGFRAME PSTACK, 0, STACK
        ARGFRAME XSTACK, 48, STACK
        ARGFRAME IOVERLAY, 0, STATIC
        ARGFRAME DOVERLAY, 0, STATIC
        EXTERN INTERP_DataReqMTU
        FUNCTION INTERP_DataReqMTU,0202H
        ARGFRAME ISTACK, 0, STACK
        ARGFRAME PSTACK, 0, STACK
        ARGFRAME XSTACK, 48, STACK
        ARGFRAME IOVERLAY, 0, STATIC
        ARGFRAME DOVERLAY, 0, STATIC
        EXTERN NLME_GetShortAddr
        FUNCTION NLME_GetShortAddr,0202H
        ARGFRAME ISTACK, 0, STACK
        ARGFRAME PSTACK, 0, STACK
        ARGFRAME XSTACK, 48, STACK
        ARGFRAME IOVERLAY, 0, STATIC
        ARGFRAME DOVERLAY, 0, STATIC
        EXTERN NLME_IsAddressBroadcast
        FUNCTION NLME_IsAddressBroadcast,0202H
        ARGFRAME ISTACK, 0, STACK
        ARGFRAME PSTACK, 0, STACK
        ARGFRAME XSTACK, 48, STACK
        ARGFRAME IOVERLAY, 0, STATIC
        ARGFRAME DOVERLAY, 0, STATIC
        EXTERN RTG_AddSrcRtgEntry_Guaranteed
        FUNCTION RTG_AddSrcRtgEntry_Guaranteed,0202H
        ARGFRAME ISTACK, 0, STACK
        ARGFRAME PSTACK, 0, STACK
        ARGFRAME XSTACK, 12, STACK
        ARGFRAME IOVERLAY, 0, STATIC
        ARGFRAME DOVERLAY, 0, STATIC
        EXTERN RTG_CheckRtStatus
        FUNCTION RTG_CheckRtStatus,0202H
        ARGFRAME ISTACK, 0, STACK
        ARGFRAME PSTACK, 0, STACK
        ARGFRAME XSTACK, 48, STACK
        ARGFRAME IOVERLAY, 0, STATIC
        ARGFRAME DOVERLAY, 0, STATIC
        EXTERN StubAPS_InterPan
        FUNCTION StubAPS_InterPan,0202H
        ARGFRAME ISTACK, 0, STACK
        ARGFRAME PSTACK, 0, STACK
        ARGFRAME XSTACK, 48, STACK
        ARGFRAME IOVERLAY, 0, STATIC
        ARGFRAME DOVERLAY, 0, STATIC
        EXTERN aps_FindGroupForEndpoint
        FUNCTION aps_FindGroupForEndpoint,0202H
        ARGFRAME ISTACK, 0, STACK
        ARGFRAME PSTACK, 0, STACK
        ARGFRAME XSTACK, 28, STACK
        ARGFRAME IOVERLAY, 0, STATIC
        ARGFRAME DOVERLAY, 0, STATIC
        EXTERN apsfSendFragmented
        EXTERN osal_mem_alloc
        FUNCTION osal_mem_alloc,0202H
        ARGFRAME ISTACK, 0, STACK
        ARGFRAME PSTACK, 0, STACK
        ARGFRAME XSTACK, 12, STACK
        ARGFRAME IOVERLAY, 0, STATIC
        ARGFRAME DOVERLAY, 0, STATIC
        EXTERN osal_mem_free
        FUNCTION osal_mem_free,0202H
        ARGFRAME ISTACK, 0, STACK
        ARGFRAME PSTACK, 0, STACK
        ARGFRAME XSTACK, 48, STACK
        ARGFRAME IOVERLAY, 0, STATIC
        ARGFRAME DOVERLAY, 0, STATIC
        EXTERN osal_memcpy
        FUNCTION osal_memcpy,0202H
        ARGFRAME ISTACK, 0, STACK
        ARGFRAME PSTACK, 0, STACK
        ARGFRAME XSTACK, 22, STACK
        ARGFRAME IOVERLAY, 0, STATIC
        ARGFRAME DOVERLAY, 0, STATIC
        EXTERN osal_msg_allocate
        FUNCTION osal_msg_allocate,0202H
        ARGFRAME ISTACK, 0, STACK
        ARGFRAME PSTACK, 0, STACK
        ARGFRAME XSTACK, 19, STACK
        ARGFRAME IOVERLAY, 0, STATIC
        ARGFRAME DOVERLAY, 0, STATIC
        EXTERN osal_msg_send
        FUNCTION osal_msg_send,0202H
        ARGFRAME ISTACK, 0, STACK
        ARGFRAME PSTACK, 0, STACK
        ARGFRAME XSTACK, 19, STACK
        ARGFRAME IOVERLAY, 0, STATIC
        ARGFRAME DOVERLAY, 0, STATIC
        EXTERN sAddrExtCpy
        FUNCTION sAddrExtCpy,0202H
        ARGFRAME ISTACK, 0, STACK
        ARGFRAME PSTACK, 0, STACK
        ARGFRAME XSTACK, 48, STACK
        ARGFRAME IOVERLAY, 0, STATIC
        ARGFRAME DOVERLAY, 0, STATIC

// D:\1.embedded\kit\cc2530\Reference\Z-Stack Mesh 1.0.0\Components\stack\af\AF.c
//    1 /**************************************************************************************************
//    2   Filename:       AF.c
//    3   Revised:        $Date: 2014-06-30 16:29:17 -0700 (Mon, 30 Jun 2014) $
//    4   Revision:       $Revision: 39295 $
//    5 
//    6   Description:    Application Framework - Device Description helper functions
//    7 
//    8 
//    9   Copyright 2004-2014 Texas Instruments Incorporated. All rights reserved.
//   10 
//   11   IMPORTANT: Your use of this Software is limited to those specific rights
//   12   granted under the terms of a software license agreement between the user
//   13   who downloaded the software, his/her employer (which must be your employer)
//   14   and Texas Instruments Incorporated (the "License").  You may not use this
//   15   Software unless you agree to abide by the terms of the License. The License
//   16   limits your use, and you acknowledge, that the Software may not be modified,
//   17   copied or distributed unless embedded on a Texas Instruments microcontroller
//   18   or used solely and exclusively in conjunction with a Texas Instruments radio
//   19   frequency transceiver, which is integrated into your product.  Other than for
//   20   the foregoing purpose, you may not use, reproduce, copy, prepare derivative
//   21   works of, modify, distribute, perform, display or sell this Software and/or
//   22   its documentation for any purpose.
//   23 
//   24   YOU FURTHER ACKNOWLEDGE AND AGREE THAT THE SOFTWARE AND DOCUMENTATION ARE
//   25   PROVIDED "AS IS" WITHOUT WARRANTY OF ANY KIND, EITHER EXPRESS OR IMPLIED,
//   26   INCLUDING WITHOUT LIMITATION, ANY WARRANTY OF MERCHANTABILITY, TITLE,
//   27   NON-INFRINGEMENT AND FITNESS FOR A PARTICULAR PURPOSE. IN NO EVENT SHALL
//   28   TEXAS INSTRUMENTS OR ITS LICENSORS BE LIABLE OR OBLIGATED UNDER CONTRACT,
//   29   NEGLIGENCE, STRICT LIABILITY, CONTRIBUTION, BREACH OF WARRANTY, OR OTHER
//   30   LEGAL EQUITABLE THEORY ANY DIRECT OR INDIRECT DAMAGES OR EXPENSES
//   31   INCLUDING BUT NOT LIMITED TO ANY INCIDENTAL, SPECIAL, INDIRECT, PUNITIVE
//   32   OR CONSEQUENTIAL DAMAGES, LOST PROFITS OR LOST DATA, COST OF PROCUREMENT
//   33   OF SUBSTITUTE GOODS, TECHNOLOGY, SERVICES, OR ANY CLAIMS BY THIRD PARTIES
//   34   (INCLUDING BUT NOT LIMITED TO ANY DEFENSE THEREOF), OR OTHER SIMILAR COSTS.
//   35 
//   36   Should you have any questions regarding your right to use this Software,
//   37   contact Texas Instruments Incorporated at www.TI.com.
//   38 **************************************************************************************************/
//   39 
//   40 /*********************************************************************
//   41  * INCLUDES
//   42  */
//   43 
//   44 #include "OSAL.h"
//   45 #include "AF.h"
//   46 #include "nwk_globals.h"
//   47 #include "nwk_util.h"
//   48 #include "aps_groups.h"
//   49 #include "ZDProfile.h"
//   50 #include "aps_frag.h"
//   51 #include "rtg.h"
//   52 
//   53 #if defined ( MT_AF_CB_FUNC )
//   54   #include "MT_AF.h"
//   55 #endif
//   56 
//   57 #if defined ( INTER_PAN )
//   58   #include "stub_aps.h"
//   59 #endif
//   60 
//   61 /*********************************************************************
//   62  * MACROS
//   63  */
//   64 
//   65 /*********************************************************************
//   66  * @fn      afSend
//   67  *
//   68  * @brief   Helper macro for V1 API to invoke V2 API.
//   69  *
//   70  * input parameters
//   71  *
//   72  * @param  *dstAddr - Full ZB destination address: Nwk Addr + End Point.
//   73  * @param   srcEP - Origination (i.e. respond to or ack to) End Point.
//   74  * @param   cID - A valid cluster ID as specified by the Profile.
//   75  * @param   len - Number of bytes of data pointed to by next param.
//   76  * @param  *buf - A pointer to the data bytes to send.
//   77  * @param   options - Valid bit mask of AF Tx Options as defined in AF.h.
//   78  * @param  *transID - A pointer to a byte which can be modified and which will
//   79  *                    be used as the transaction sequence number of the msg.
//   80  *
//   81  * output parameters
//   82  *
//   83  * @param  *transID - Incremented by one if the return value is success.
//   84  *
//   85  * @return  afStatus_t - See previous definition of afStatus_... types.
//   86  */
//   87 #define afSend( dstAddr, srcEP, cID, len, buf, transID, options, radius ) \ 
//   88         AF_DataRequest( (dstAddr), afFindEndPointDesc( (srcEP) ), \ 
//   89                           (cID), (len), (buf), (transID), (options), (radius) )
//   90 
//   91 /*********************************************************************
//   92  * GLOBAL VARIABLES
//   93  */
//   94 

        RSEG XDATA_Z:XDATA:NOROOT(0)
        DATA16
//   95 epList_t *epList;
epList:
        DS 2
        REQUIRE __INIT_XDATA_Z
//   96 
//   97 /*********************************************************************
//   98  * LOCAL FUNCTIONS
//   99  */
//  100 
//  101 static void afBuildMSGIncoming( aps_FrameFormat_t *aff, endPointDesc_t *epDesc,
//  102                 zAddrType_t *SrcAddress, uint16 SrcPanId, NLDE_Signal_t *sig,
//  103                 uint8 nwkSeqNum, uint8 SecurityUse, uint32 timestamp, uint8 radius );
//  104 
//  105 static epList_t *afFindEndPointDescList( uint8 EndPoint );
//  106 
//  107 static pDescCB afGetDescCB( endPointDesc_t *epDesc );
//  108 
//  109 /*********************************************************************
//  110  * PUBLIC FUNCTIONS
//  111  */
//  112 
//  113 /*********************************************************************
//  114  * @fn      afInit
//  115  *
//  116  * @brief   Initialization function for the AF.
//  117  *
//  118  * @param   none
//  119  *
//  120  * @return  none
//  121 void afInit( void )
//  122 {
//  123 }
//  124  */
//  125 
//  126 /*********************************************************************
//  127  * @fn      afRegisterExtended
//  128  *
//  129  * @brief   Register an Application's EndPoint description.
//  130  *
//  131  * @param   epDesc - pointer to the Application's endpoint descriptor.
//  132  * @param   descFn - pointer to descriptor callback function
//  133  * @param   applFn - pointer to the Application callback function
//  134  *
//  135  * NOTE:  The memory that epDesc is pointing to must exist after this call.
//  136  *
//  137  * @return  Pointer to epList_t on success, NULL otherwise.
//  138  */

        RSEG BANKED_CODE:CODE:NOROOT(0)
//  139 epList_t *afRegisterExtended( endPointDesc_t *epDesc, pDescCB descFn, pApplCB applFn )
afRegisterExtended:
          CFI Block cfiBlock0 Using cfiCommon0
          CFI Function afRegisterExtended
        CODE
//  140 {
        FUNCALL afRegisterExtended, osal_mem_alloc
        LOCFRAME ISTACK, 0, STACK
        LOCFRAME PSTACK, 0, STACK
        LOCFRAME XSTACK, 12, STACK
        LOCFRAME IOVERLAY, 0, STATIC
        LOCFRAME DOVERLAY, 0, STATIC
        ARGFRAME ISTACK, 0, STACK
        ARGFRAME PSTACK, 0, STACK
        ARGFRAME XSTACK, 12, STACK
        ARGFRAME IOVERLAY, 0, STATIC
        ARGFRAME DOVERLAY, 0, STATIC
        REQUIRE ?V0
        REQUIRE ?V1
        REQUIRE ?V2
        REQUIRE ?V3
        MOV     A,#-0xc
        LCALL   ?BANKED_ENTER_XDATA
          CFI DPH0 load(1, XDATA, add(CFA_XSP16, literal(-1)))
          CFI DPL0 load(1, XDATA, add(CFA_XSP16, literal(-2)))
          CFI ?BRET_EXT load(1, XDATA, add(CFA_XSP16, literal(-3)))
          CFI ?RET_HIGH load(1, XDATA, add(CFA_XSP16, literal(-4)))
          CFI ?RET_LOW load(1, XDATA, add(CFA_XSP16, literal(-5)))
          CFI R7 load(1, XDATA, add(CFA_XSP16, literal(-6)))
          CFI V3 load(1, XDATA, add(CFA_XSP16, literal(-7)))
          CFI V2 load(1, XDATA, add(CFA_XSP16, literal(-8)))
          CFI V1 load(1, XDATA, add(CFA_XSP16, literal(-9)))
          CFI V0 load(1, XDATA, add(CFA_XSP16, literal(-10)))
          CFI VB load(1, XDATA, add(CFA_XSP16, literal(-11)))
          CFI R6 load(1, XDATA, add(CFA_XSP16, literal(-12)))
          CFI CFA_SP SP+0
          CFI CFA_XSP16 add(XSP16, 12)
        ; Saved register size: 12
        ; Auto size: 0
        MOV     A,R2
        MOV     R6,A
        MOV     A,R3
        MOV     R7,A
        MOV     ?V0,R4
        MOV     ?V1,R5
//  141   epList_t *ep = osal_mem_alloc(sizeof(epList_t));
        ; Setup parameters for call to function osal_mem_alloc
        MOV     R2,#0xb
        MOV     R3,#0x0
        LCALL   `??osal_mem_alloc::?relay`; Banked call to: osal_mem_alloc
//  142 
//  143   if (ep != NULL)
        MOV     A,R2
        ORL     A,R3
        JZ      ??CrossCallReturnLabel_68
//  144   {
//  145     ep->nextDesc = epList;
        MOV     DPTR,#epList
        LCALL   ?Subroutine12 & 0xFFFF
??CrossCallReturnLabel_12:
        LCALL   ??Subroutine38_0 & 0xFFFF
//  146     epList = ep;
??CrossCallReturnLabel_67:
        MOV     DPTR,#epList
        MOV     A,R2
        MOVX    @DPTR,A
        INC     DPTR
        MOV     A,R3
        LCALL   ?Subroutine34 & 0xFFFF
//  147     ep->epDesc = epDesc;
??CrossCallReturnLabel_52:
        MOV     A,R6
        MOVX    @DPTR,A
        INC     DPTR
        MOV     A,R7
        LCALL   ?Subroutine24 & 0xFFFF
//  148     ep->pfnDescCB = descFn;
??CrossCallReturnLabel_31:
        INC     DPTR
        MOV     A,?V0
        MOVX    @DPTR,A
        LCALL   ?Subroutine23 & 0xFFFF
//  149     ep->apsfCfg.frameDelay = APSF_DEFAULT_INTERFRAME_DELAY;
??CrossCallReturnLabel_29:
        INC     DPTR
        MOV     A,#0x32
        LCALL   ?Subroutine21 & 0xFFFF
//  150     ep->apsfCfg.windowSize = APSF_DEFAULT_WINDOW_SIZE;
??CrossCallReturnLabel_25:
        MOV     A,#0x1
        LCALL   ?Subroutine21 & 0xFFFF
//  151     ep->flags = eEP_AllowMatch;  // Default to allow Match Descriptor.
??CrossCallReturnLabel_26:
        INC     DPTR
        MOVX    @DPTR,A
//  152     ep->pfnApplCB = applFn;
        MOV     A,#0xc
        LCALL   ?XSTACK_DISP0_8
        LCALL   ?Subroutine12 & 0xFFFF
//  153   }
??CrossCallReturnLabel_13:
        INC     DPTR
        INC     DPTR
        INC     DPTR
        INC     DPTR
        INC     DPTR
        INC     DPTR
        INC     DPTR
        INC     DPTR
        INC     DPTR
        LCALL   ??Subroutine38_0 & 0xFFFF
//  154 
//  155   return ep;
??CrossCallReturnLabel_68:
        LJMP    ?Subroutine0 & 0xFFFF
//  156 }
          CFI EndBlock cfiBlock0

        RSEG BANKED_CODE:CODE:NOROOT(0)
?Subroutine21:
          CFI Block cfiCond1 Using cfiCommon0
          CFI Function afRegisterExtended
          CFI Conditional ??CrossCallReturnLabel_25
          CFI R6 load(1, XDATA, add(CFA_XSP16, literal(-12)))
          CFI VB load(1, XDATA, add(CFA_XSP16, literal(-11)))
          CFI V0 load(1, XDATA, add(CFA_XSP16, literal(-10)))
          CFI V1 load(1, XDATA, add(CFA_XSP16, literal(-9)))
          CFI V2 load(1, XDATA, add(CFA_XSP16, literal(-8)))
          CFI V3 load(1, XDATA, add(CFA_XSP16, literal(-7)))
          CFI R7 load(1, XDATA, add(CFA_XSP16, literal(-6)))
          CFI ?RET_LOW load(1, XDATA, add(CFA_XSP16, literal(-5)))
          CFI ?RET_HIGH load(1, XDATA, add(CFA_XSP16, literal(-4)))
          CFI ?BRET_EXT load(1, XDATA, add(CFA_XSP16, literal(-3)))
          CFI DPL0 load(1, XDATA, add(CFA_XSP16, literal(-2)))
          CFI DPH0 load(1, XDATA, add(CFA_XSP16, literal(-1)))
          CFI CFA_SP SP+-2
          CFI CFA_XSP16 add(XSP16, 12)
          CFI Block cfiCond2 Using cfiCommon0
          CFI (cfiCond2) Function afRegisterExtended
          CFI (cfiCond2) Conditional ??CrossCallReturnLabel_26
          CFI (cfiCond2) R6 load(1, XDATA, add(CFA_XSP16, literal(-12)))
          CFI (cfiCond2) VB load(1, XDATA, add(CFA_XSP16, literal(-11)))
          CFI (cfiCond2) V0 load(1, XDATA, add(CFA_XSP16, literal(-10)))
          CFI (cfiCond2) V1 load(1, XDATA, add(CFA_XSP16, literal(-9)))
          CFI (cfiCond2) V2 load(1, XDATA, add(CFA_XSP16, literal(-8)))
          CFI (cfiCond2) V3 load(1, XDATA, add(CFA_XSP16, literal(-7)))
          CFI (cfiCond2) R7 load(1, XDATA, add(CFA_XSP16, literal(-6)))
          CFI (cfiCond2) ?RET_LOW load(1, XDATA, add(CFA_XSP16, literal(-5)))
          CFI (cfiCond2) ?RET_HIGH load(1, XDATA, add(CFA_XSP16, literal(-4)))
          CFI (cfiCond2) ?BRET_EXT load(1, XDATA, add(CFA_XSP16, literal(-3)))
          CFI (cfiCond2) DPL0 load(1, XDATA, add(CFA_XSP16, literal(-2)))
          CFI (cfiCond2) DPH0 load(1, XDATA, add(CFA_XSP16, literal(-1)))
          CFI (cfiCond2) CFA_SP SP+-2
          CFI (cfiCond2) CFA_XSP16 add(XSP16, 12)
          CFI Block cfiPicker3 Using cfiCommon1
          CFI (cfiPicker3) NoFunction
          CFI (cfiPicker3) Picker
        LCALL   ?Subroutine29 & 0xFFFF
??CrossCallReturnLabel_42:
        INC     DPTR
        INC     DPTR
        RET
          CFI EndBlock cfiCond1
          CFI EndBlock cfiCond2
          CFI EndBlock cfiPicker3

        RSEG BANKED_CODE:CODE:NOROOT(0)
?Subroutine12:
          CFI Block cfiCond4 Using cfiCommon0
          CFI Function afRegisterExtended
          CFI Conditional ??CrossCallReturnLabel_12
          CFI R6 load(1, XDATA, add(CFA_XSP16, literal(-12)))
          CFI VB load(1, XDATA, add(CFA_XSP16, literal(-11)))
          CFI V0 load(1, XDATA, add(CFA_XSP16, literal(-10)))
          CFI V1 load(1, XDATA, add(CFA_XSP16, literal(-9)))
          CFI V2 load(1, XDATA, add(CFA_XSP16, literal(-8)))
          CFI V3 load(1, XDATA, add(CFA_XSP16, literal(-7)))
          CFI R7 load(1, XDATA, add(CFA_XSP16, literal(-6)))
          CFI ?RET_LOW load(1, XDATA, add(CFA_XSP16, literal(-5)))
          CFI ?RET_HIGH load(1, XDATA, add(CFA_XSP16, literal(-4)))
          CFI ?BRET_EXT load(1, XDATA, add(CFA_XSP16, literal(-3)))
          CFI DPL0 load(1, XDATA, add(CFA_XSP16, literal(-2)))
          CFI DPH0 load(1, XDATA, add(CFA_XSP16, literal(-1)))
          CFI CFA_SP SP+-2
          CFI CFA_XSP16 add(XSP16, 12)
          CFI Block cfiCond5 Using cfiCommon0
          CFI (cfiCond5) Function afRegisterExtended
          CFI (cfiCond5) Conditional ??CrossCallReturnLabel_13
          CFI (cfiCond5) R6 load(1, XDATA, add(CFA_XSP16, literal(-12)))
          CFI (cfiCond5) VB load(1, XDATA, add(CFA_XSP16, literal(-11)))
          CFI (cfiCond5) V0 load(1, XDATA, add(CFA_XSP16, literal(-10)))
          CFI (cfiCond5) V1 load(1, XDATA, add(CFA_XSP16, literal(-9)))
          CFI (cfiCond5) V2 load(1, XDATA, add(CFA_XSP16, literal(-8)))
          CFI (cfiCond5) V3 load(1, XDATA, add(CFA_XSP16, literal(-7)))
          CFI (cfiCond5) R7 load(1, XDATA, add(CFA_XSP16, literal(-6)))
          CFI (cfiCond5) ?RET_LOW load(1, XDATA, add(CFA_XSP16, literal(-5)))
          CFI (cfiCond5) ?RET_HIGH load(1, XDATA, add(CFA_XSP16, literal(-4)))
          CFI (cfiCond5) ?BRET_EXT load(1, XDATA, add(CFA_XSP16, literal(-3)))
          CFI (cfiCond5) DPL0 load(1, XDATA, add(CFA_XSP16, literal(-2)))
          CFI (cfiCond5) DPH0 load(1, XDATA, add(CFA_XSP16, literal(-1)))
          CFI (cfiCond5) CFA_SP SP+-2
          CFI (cfiCond5) CFA_XSP16 add(XSP16, 12)
          CFI Block cfiPicker6 Using cfiCommon1
          CFI (cfiPicker6) NoFunction
          CFI (cfiPicker6) Picker
        LCALL   ?Subroutine32 & 0xFFFF
??CrossCallReturnLabel_87:
        MOV     DPL,R2
        MOV     DPH,R3
        RET
          CFI EndBlock cfiCond4
          CFI EndBlock cfiCond5
          CFI EndBlock cfiPicker6
//  157 
//  158 /*********************************************************************
//  159  * @fn      afRegister
//  160  *
//  161  * @brief   Register an Application's EndPoint description.
//  162  *
//  163  * @param   epDesc - pointer to the Application's endpoint descriptor.
//  164  *
//  165  * NOTE:  The memory that epDesc is pointing to must exist after this call.
//  166  *
//  167  * @return  afStatus_SUCCESS - Registered
//  168  *          afStatus_MEM_FAIL - not enough memory to add descriptor
//  169  *          afStatus_INVALID_PARAMETER - duplicate endpoint
//  170  */

        RSEG BANKED_CODE:CODE:NOROOT(0)
//  171 afStatus_t afRegister( endPointDesc_t *epDesc )
afRegister:
          CFI Block cfiBlock7 Using cfiCommon0
          CFI Function afRegister
        CODE
//  172 {
        FUNCALL afRegister, afFindEndPointDescList
        LOCFRAME ISTACK, 0, STACK
        LOCFRAME PSTACK, 0, STACK
        LOCFRAME XSTACK, 10, STACK
        LOCFRAME IOVERLAY, 0, STATIC
        LOCFRAME DOVERLAY, 0, STATIC
        ARGFRAME ISTACK, 0, STACK
        ARGFRAME PSTACK, 0, STACK
        ARGFRAME XSTACK, 10, STACK
        ARGFRAME IOVERLAY, 0, STATIC
        ARGFRAME DOVERLAY, 0, STATIC
        FUNCALL afRegister, afRegisterExtended
        LOCFRAME ISTACK, 0, STACK
        LOCFRAME PSTACK, 0, STACK
        LOCFRAME XSTACK, 12, STACK
        LOCFRAME IOVERLAY, 0, STATIC
        LOCFRAME DOVERLAY, 0, STATIC
        ARGFRAME ISTACK, 0, STACK
        ARGFRAME PSTACK, 0, STACK
        ARGFRAME XSTACK, 12, STACK
        ARGFRAME IOVERLAY, 0, STATIC
        ARGFRAME DOVERLAY, 0, STATIC
        REQUIRE ?V0
        REQUIRE ?V1
        MOV     A,#-0xa
        LCALL   ?BANKED_ENTER_XDATA
          CFI DPH0 load(1, XDATA, add(CFA_XSP16, literal(-1)))
          CFI DPL0 load(1, XDATA, add(CFA_XSP16, literal(-2)))
          CFI ?BRET_EXT load(1, XDATA, add(CFA_XSP16, literal(-3)))
          CFI ?RET_HIGH load(1, XDATA, add(CFA_XSP16, literal(-4)))
          CFI ?RET_LOW load(1, XDATA, add(CFA_XSP16, literal(-5)))
          CFI R7 load(1, XDATA, add(CFA_XSP16, literal(-6)))
          CFI V1 load(1, XDATA, add(CFA_XSP16, literal(-7)))
          CFI V0 load(1, XDATA, add(CFA_XSP16, literal(-8)))
          CFI VB load(1, XDATA, add(CFA_XSP16, literal(-9)))
          CFI R6 load(1, XDATA, add(CFA_XSP16, literal(-10)))
          CFI CFA_SP SP+0
          CFI CFA_XSP16 add(XSP16, 10)
        ; Saved register size: 10
        ; Auto size: 0
        MOV     A,R2
        MOV     R6,A
        MOV     A,R3
        MOV     R7,A
//  173   if (afFindEndPointDescList(epDesc->endPoint))  // Look for duplicate endpoint.
        ; Setup parameters for call to function afFindEndPointDescList
        MOV     DPL,R6
        MOV     DPH,R7
        MOVX    A,@DPTR
        MOV     R1,A
        LCALL   `??afFindEndPointDescList::?relay`; Banked call to: afFindEndPointDescList
        MOV     ?V1,R3
        MOV     A,R2
        ORL     A,?V1
        JZ      ??afRegister_0
//  174   {
//  175     return afStatus_INVALID_PARAMETER;
        MOV     R1,#0x2
        SJMP    ??afRegister_1
//  176   }
//  177 
//  178   return ((NULL == afRegisterExtended(epDesc, NULL, NULL)) ? afStatus_MEM_FAIL : afStatus_SUCCESS);
??afRegister_0:
        ; Setup parameters for call to function afRegisterExtended
        CLR     A
        MOV     ?V0,A
        MOV     ?V1,A
        MOV     R0,#?V0
        LCALL   ?PUSH_XSTACK_I_TWO
          CFI CFA_XSP16 add(XSP16, 12)
        MOV     R4,#0x0
        MOV     R5,#0x0
        MOV     A,R6
        MOV     R2,A
        MOV     A,R7
        MOV     R3,A
        LCALL   `??afRegisterExtended::?relay`; Banked call to: afRegisterExtended
        MOV     A,#0x2
        LCALL   ?DEALLOC_XSTACK8
          CFI CFA_XSP16 add(XSP16, 10)
        MOV     ?V1,R3
        MOV     A,R2
        ORL     A,?V1
        JNZ     ??afRegister_2
        MOV     R1,#0x10
        SJMP    ??afRegister_1
??afRegister_2:
        MOV     R1,#0x0
??afRegister_1:
        LJMP    ?Subroutine1 & 0xFFFF
//  179 }
          CFI EndBlock cfiBlock7
//  180 
//  181 /*********************************************************************
//  182  * @fn      afDelete
//  183  *
//  184  * @brief   Delete an Application's EndPoint descriptor and frees the memory
//  185  *
//  186  * @param   EndPoint - Application Endpoint to delete
//  187  *
//  188  * @return  afStatus_SUCCESS - endpoint deleted
//  189  *          afStatus_INVALID_PARAMETER - endpoint not found
//  190  *          afStatus_FAILED - endpoint list empty
//  191  */

        RSEG BANKED_CODE:CODE:NOROOT(0)
//  192 afStatus_t afDelete( uint8 EndPoint )
afDelete:
          CFI Block cfiBlock8 Using cfiCommon0
          CFI Function afDelete
        CODE
//  193 {
        FUNCALL afDelete, osal_mem_free
        LOCFRAME ISTACK, 0, STACK
        LOCFRAME PSTACK, 0, STACK
        LOCFRAME XSTACK, 9, STACK
        LOCFRAME IOVERLAY, 0, STATIC
        LOCFRAME DOVERLAY, 0, STATIC
        ARGFRAME ISTACK, 0, STACK
        ARGFRAME PSTACK, 0, STACK
        ARGFRAME XSTACK, 9, STACK
        ARGFRAME IOVERLAY, 0, STATIC
        ARGFRAME DOVERLAY, 0, STATIC
        FUNCALL afDelete, osal_mem_free
        LOCFRAME ISTACK, 0, STACK
        LOCFRAME PSTACK, 0, STACK
        LOCFRAME XSTACK, 9, STACK
        LOCFRAME IOVERLAY, 0, STATIC
        LOCFRAME DOVERLAY, 0, STATIC
        ARGFRAME ISTACK, 0, STACK
        ARGFRAME PSTACK, 0, STACK
        ARGFRAME XSTACK, 9, STACK
        ARGFRAME IOVERLAY, 0, STATIC
        ARGFRAME DOVERLAY, 0, STATIC
        MOV     A,#-0x9
        LCALL   ?BANKED_ENTER_XDATA
          CFI DPH0 load(1, XDATA, add(CFA_XSP16, literal(-1)))
          CFI DPL0 load(1, XDATA, add(CFA_XSP16, literal(-2)))
          CFI ?BRET_EXT load(1, XDATA, add(CFA_XSP16, literal(-3)))
          CFI ?RET_HIGH load(1, XDATA, add(CFA_XSP16, literal(-4)))
          CFI ?RET_LOW load(1, XDATA, add(CFA_XSP16, literal(-5)))
          CFI R7 load(1, XDATA, add(CFA_XSP16, literal(-6)))
          CFI V0 load(1, XDATA, add(CFA_XSP16, literal(-7)))
          CFI VB load(1, XDATA, add(CFA_XSP16, literal(-8)))
          CFI R6 load(1, XDATA, add(CFA_XSP16, literal(-9)))
          CFI CFA_SP SP+0
          CFI CFA_XSP16 add(XSP16, 9)
        ; Saved register size: 9
        ; Auto size: 0
        MOV     A,R1
        MOV     R6,A
//  194   epList_t *epCurrent;
//  195   epList_t *epPrevious;
//  196 
//  197   if ( epList != NULL )
        MOV     DPTR,#epList
        LCALL   ??Subroutine37_0 & 0xFFFF
??CrossCallReturnLabel_59:
        JZ      ??afDelete_0
//  198   {
//  199     epPrevious = epCurrent = epList;
        MOV     DPTR,#epList
        LCALL   ??Subroutine47_0 & 0xFFFF
??CrossCallReturnLabel_104:
        MOV     R1,A
//  200 
//  201     // first element of the list matches
//  202     if ( epCurrent->epDesc->endPoint == EndPoint )
        LCALL   ?Subroutine11 & 0xFFFF
??CrossCallReturnLabel_10:
        JNZ     ??afDelete_1
//  203     {
//  204       epList = epCurrent->nextDesc;
        MOV     DPL,R2
        MOV     DPH,R3
        LCALL   ??Subroutine40_0 & 0xFFFF
//  205       osal_mem_free( epCurrent );
//  206 
//  207       return ( afStatus_SUCCESS );
//  208     }
??CrossCallReturnLabel_78:
        MOV     DPTR,#epList
        MOV     A,R0
        MOVX    @DPTR,A
        INC     DPTR
        MOV     A,R1
        SJMP    ??afDelete_2
//  209     else
//  210     {
//  211       // search the list
//  212       for ( epCurrent = epPrevious->nextDesc;
??afDelete_1:
        MOV     DPL,R0
        MOV     DPH,R1
        SJMP    ??afDelete_3
//  213             epCurrent != NULL;
//  214             epCurrent = epCurrent->nextDesc )
//  215       {
//  216         if ( epCurrent->epDesc->endPoint == EndPoint )
//  217         {
//  218           epPrevious->nextDesc = epCurrent->nextDesc;
//  219           osal_mem_free( epCurrent );
//  220 
//  221           // delete the entry and free the memory
//  222           return ( afStatus_SUCCESS );
//  223         }
//  224         epPrevious = epCurrent;
??afDelete_4:
        MOV     A,R2
        MOV     R0,A
        MOV     A,R3
        MOV     R1,A
        MOV     DPL,R2
        MOV     DPH,R3
??afDelete_3:
        LCALL   ?Subroutine7 & 0xFFFF
??CrossCallReturnLabel_2:
        JZ      ??afDelete_5
        LCALL   ?Subroutine11 & 0xFFFF
??CrossCallReturnLabel_11:
        JNZ     ??afDelete_4
        MOV     DPL,R2
        MOV     DPH,R3
        LCALL   ?Subroutine10 & 0xFFFF
??CrossCallReturnLabel_5:
        MOV     DPL,R0
        MOV     DPH,R1
        MOV     A,R4
        MOVX    @DPTR,A
        INC     DPTR
        MOV     A,R5
??afDelete_2:
        MOVX    @DPTR,A
        ; Setup parameters for call to function osal_mem_free
        LCALL   `??osal_mem_free::?relay`; Banked call to: osal_mem_free
        MOV     R1,#0x0
        SJMP    ??afDelete_6
//  225       }
//  226     }
//  227 
//  228     // no endpoint found
//  229     return ( afStatus_INVALID_PARAMETER );
??afDelete_5:
        MOV     R1,#0x2
        SJMP    ??afDelete_6
//  230   }
//  231   else
//  232   {
//  233     // epList is empty
//  234     return ( afStatus_FAILED );
??afDelete_0:
        MOV     R1,#0x1
//  235   }
??afDelete_6:
          CFI EndBlock cfiBlock8
        REQUIRE ?Subroutine2
        ; // Fall through to label ?Subroutine2
//  236 }

        RSEG BANKED_CODE:CODE:NOROOT(0)
?Subroutine2:
          CFI Block cfiBlock9 Using cfiCommon0
          CFI NoFunction
          CFI CFA_SP SP+0
          CFI CFA_XSP16 add(XSP16, 9)
          CFI VB load(1, XDATA, add(CFA_XSP16, literal(-8)))
          CFI DPL0 load(1, XDATA, add(CFA_XSP16, literal(-2)))
          CFI DPH0 load(1, XDATA, add(CFA_XSP16, literal(-1)))
          CFI R6 load(1, XDATA, add(CFA_XSP16, literal(-9)))
          CFI R7 load(1, XDATA, add(CFA_XSP16, literal(-6)))
          CFI V0 load(1, XDATA, add(CFA_XSP16, literal(-7)))
          CFI ?BRET_EXT load(1, XDATA, add(CFA_XSP16, literal(-3)))
          CFI ?RET_HIGH load(1, XDATA, add(CFA_XSP16, literal(-4)))
          CFI ?RET_LOW load(1, XDATA, add(CFA_XSP16, literal(-5)))
        MOV     R7,#0x1
        LJMP    ?BANKED_LEAVE_XDATA
          CFI EndBlock cfiBlock9

        RSEG BANKED_CODE:CODE:NOROOT(0)
?Subroutine11:
          CFI Block cfiCond10 Using cfiCommon0
          CFI Function afDelete
          CFI Conditional ??CrossCallReturnLabel_10
          CFI R6 load(1, XDATA, add(CFA_XSP16, literal(-9)))
          CFI VB load(1, XDATA, add(CFA_XSP16, literal(-8)))
          CFI V0 load(1, XDATA, add(CFA_XSP16, literal(-7)))
          CFI R7 load(1, XDATA, add(CFA_XSP16, literal(-6)))
          CFI ?RET_LOW load(1, XDATA, add(CFA_XSP16, literal(-5)))
          CFI ?RET_HIGH load(1, XDATA, add(CFA_XSP16, literal(-4)))
          CFI ?BRET_EXT load(1, XDATA, add(CFA_XSP16, literal(-3)))
          CFI DPL0 load(1, XDATA, add(CFA_XSP16, literal(-2)))
          CFI DPH0 load(1, XDATA, add(CFA_XSP16, literal(-1)))
          CFI CFA_SP SP+-2
          CFI CFA_XSP16 add(XSP16, 9)
          CFI Block cfiCond11 Using cfiCommon0
          CFI (cfiCond11) Function afDelete
          CFI (cfiCond11) Conditional ??CrossCallReturnLabel_11
          CFI (cfiCond11) R6 load(1, XDATA, add(CFA_XSP16, literal(-9)))
          CFI (cfiCond11) VB load(1, XDATA, add(CFA_XSP16, literal(-8)))
          CFI (cfiCond11) V0 load(1, XDATA, add(CFA_XSP16, literal(-7)))
          CFI (cfiCond11) R7 load(1, XDATA, add(CFA_XSP16, literal(-6)))
          CFI (cfiCond11) ?RET_LOW load(1, XDATA, add(CFA_XSP16, literal(-5)))
          CFI (cfiCond11) ?RET_HIGH load(1, XDATA, add(CFA_XSP16, literal(-4)))
          CFI (cfiCond11) ?BRET_EXT load(1, XDATA, add(CFA_XSP16, literal(-3)))
          CFI (cfiCond11) DPL0 load(1, XDATA, add(CFA_XSP16, literal(-2)))
          CFI (cfiCond11) DPH0 load(1, XDATA, add(CFA_XSP16, literal(-1)))
          CFI (cfiCond11) CFA_SP SP+-2
          CFI (cfiCond11) CFA_XSP16 add(XSP16, 9)
          CFI Block cfiPicker12 Using cfiCommon1
          CFI (cfiPicker12) NoFunction
          CFI (cfiPicker12) Picker
        MOV     DPL,R2
        MOV     DPH,R3
        INC     DPTR
        INC     DPTR
        MOVX    A,@DPTR
        MOV     R4,A
        INC     DPTR
        MOVX    A,@DPTR
        MOV     DPH,A
        MOV     DPL,R4
        MOVX    A,@DPTR
        XRL     A,R6
        RET
          CFI EndBlock cfiCond10
          CFI EndBlock cfiCond11
          CFI EndBlock cfiPicker12
//  237 
//  238 /*********************************************************************
//  239  * @fn          afDataConfirm
//  240  *
//  241  * @brief       This function will generate the Data Confirm back to
//  242  *              the application.
//  243  *
//  244  * @param       endPoint - confirm end point
//  245  * @param       transID - transaction ID from APSDE_DATA_REQUEST
//  246  * @param       status - status of APSDE_DATA_REQUEST
//  247  *
//  248  * @return      none
//  249  */

        RSEG BANKED_CODE:CODE:NOROOT(0)
//  250 void afDataConfirm( uint8 endPoint, uint8 transID, ZStatus_t status )
afDataConfirm:
          CFI Block cfiBlock13 Using cfiCommon0
          CFI Function afDataConfirm
        CODE
//  251 {
        FUNCALL afDataConfirm, afFindEndPointDesc
        LOCFRAME ISTACK, 0, STACK
        LOCFRAME PSTACK, 0, STACK
        LOCFRAME XSTACK, 14, STACK
        LOCFRAME IOVERLAY, 0, STATIC
        LOCFRAME DOVERLAY, 0, STATIC
        ARGFRAME ISTACK, 0, STACK
        ARGFRAME PSTACK, 0, STACK
        ARGFRAME XSTACK, 14, STACK
        ARGFRAME IOVERLAY, 0, STATIC
        ARGFRAME DOVERLAY, 0, STATIC
        FUNCALL afDataConfirm, osal_msg_allocate
        LOCFRAME ISTACK, 0, STACK
        LOCFRAME PSTACK, 0, STACK
        LOCFRAME XSTACK, 14, STACK
        LOCFRAME IOVERLAY, 0, STATIC
        LOCFRAME DOVERLAY, 0, STATIC
        ARGFRAME ISTACK, 0, STACK
        ARGFRAME PSTACK, 0, STACK
        ARGFRAME XSTACK, 14, STACK
        ARGFRAME IOVERLAY, 0, STATIC
        ARGFRAME DOVERLAY, 0, STATIC
        FUNCALL afDataConfirm, osal_msg_send
        LOCFRAME ISTACK, 0, STACK
        LOCFRAME PSTACK, 0, STACK
        LOCFRAME XSTACK, 14, STACK
        LOCFRAME IOVERLAY, 0, STATIC
        LOCFRAME DOVERLAY, 0, STATIC
        ARGFRAME ISTACK, 0, STACK
        ARGFRAME PSTACK, 0, STACK
        ARGFRAME XSTACK, 14, STACK
        ARGFRAME IOVERLAY, 0, STATIC
        ARGFRAME DOVERLAY, 0, STATIC
        REQUIRE ?V0
        REQUIRE ?V1
        REQUIRE ?V2
        REQUIRE ?V4
        REQUIRE ?V5
        MOV     A,#-0xe
        LCALL   ?BANKED_ENTER_XDATA
          CFI DPH0 load(1, XDATA, add(CFA_XSP16, literal(-1)))
          CFI DPL0 load(1, XDATA, add(CFA_XSP16, literal(-2)))
          CFI ?BRET_EXT load(1, XDATA, add(CFA_XSP16, literal(-3)))
          CFI ?RET_HIGH load(1, XDATA, add(CFA_XSP16, literal(-4)))
          CFI ?RET_LOW load(1, XDATA, add(CFA_XSP16, literal(-5)))
          CFI R7 load(1, XDATA, add(CFA_XSP16, literal(-6)))
          CFI V5 load(1, XDATA, add(CFA_XSP16, literal(-7)))
          CFI V4 load(1, XDATA, add(CFA_XSP16, literal(-8)))
          CFI V3 load(1, XDATA, add(CFA_XSP16, literal(-9)))
          CFI V2 load(1, XDATA, add(CFA_XSP16, literal(-10)))
          CFI V1 load(1, XDATA, add(CFA_XSP16, literal(-11)))
          CFI V0 load(1, XDATA, add(CFA_XSP16, literal(-12)))
          CFI VB load(1, XDATA, add(CFA_XSP16, literal(-13)))
          CFI R6 load(1, XDATA, add(CFA_XSP16, literal(-14)))
          CFI CFA_SP SP+0
          CFI CFA_XSP16 add(XSP16, 14)
        ; Saved register size: 14
        ; Auto size: 0
        MOV     ?V0,R1
        MOV     ?V1,R2
        MOV     ?V2,R3
//  252   endPointDesc_t *epDesc;
//  253   afDataConfirm_t *msgPtr;
//  254 
//  255   // Find the endpoint description
//  256   epDesc = afFindEndPointDesc( endPoint );
        ; Setup parameters for call to function afFindEndPointDesc
        LCALL   `??afFindEndPointDesc::?relay`; Banked call to: afFindEndPointDesc
        MOV     ?V4,R2
        MOV     ?V5,R3
        MOV     R6,?V4
        MOV     R7,?V5
//  257   if ( epDesc == NULL )
        MOV     A,R6
        ORL     A,R7
        JZ      ??afDataConfirm_0
//  258     return;
//  259 
//  260   // Determine the incoming command type
//  261   msgPtr = (afDataConfirm_t *)osal_msg_allocate( sizeof(afDataConfirm_t) );
        ; Setup parameters for call to function osal_msg_allocate
        MOV     R2,#0x4
        MOV     R3,#0x0
        LCALL   `??osal_msg_allocate::?relay`; Banked call to: osal_msg_allocate
//  262   if ( msgPtr )
        MOV     A,R2
        ORL     A,R3
        JZ      ??afDataConfirm_0
//  263   {
//  264     // Build the Data Confirm message
//  265     msgPtr->hdr.event = AF_DATA_CONFIRM_CMD;
        MOV     DPL,R2
        MOV     DPH,R3
        MOV     A,#-0x3
        MOVX    @DPTR,A
//  266     msgPtr->hdr.status = status;
        INC     DPTR
        MOV     A,?V2
        LCALL   ?Subroutine18 & 0xFFFF
//  267     msgPtr->endpoint = endPoint;
//  268     msgPtr->transID = transID;
//  269 
//  270 #if defined ( MT_AF_CB_FUNC )
//  271     /* If MT has subscribed for this callback, don't send as a message. */
//  272     if ( AFCB_CHECK(CB_ID_AF_DATA_CNF,*(epDesc->task_id)) )
//  273     {
//  274       /* Send callback if it's subscribed */
//  275       MT_AfDataConfirm ((void *)msgPtr);
//  276       /* Release the memory. */
//  277       osal_msg_deallocate( (void *)msgPtr );
//  278     }
//  279     else
//  280 #endif
//  281     {
//  282       /* send message through task message */
//  283       osal_msg_send( *(epDesc->task_id), (uint8 *)msgPtr );
//  284     }
//  285   }
??CrossCallReturnLabel_21:
        MOV     A,?V1
        LCALL   ?Subroutine5 & 0xFFFF
??CrossCallReturnLabel_55:
        LCALL   `??osal_msg_send::?relay`; Banked call to: osal_msg_send
//  286 }
??afDataConfirm_0:
        MOV     R7,#0x6
        LJMP    ?BANKED_LEAVE_XDATA
          CFI EndBlock cfiBlock13

        RSEG BANKED_CODE:CODE:NOROOT(0)
?Subroutine5:
          CFI Block cfiCond14 Using cfiCommon0
          CFI Function afDataConfirm
          CFI Conditional ??CrossCallReturnLabel_55
          CFI R6 load(1, XDATA, add(CFA_XSP16, literal(-14)))
          CFI VB load(1, XDATA, add(CFA_XSP16, literal(-13)))
          CFI V0 load(1, XDATA, add(CFA_XSP16, literal(-12)))
          CFI V1 load(1, XDATA, add(CFA_XSP16, literal(-11)))
          CFI V2 load(1, XDATA, add(CFA_XSP16, literal(-10)))
          CFI V3 load(1, XDATA, add(CFA_XSP16, literal(-9)))
          CFI V4 load(1, XDATA, add(CFA_XSP16, literal(-8)))
          CFI V5 load(1, XDATA, add(CFA_XSP16, literal(-7)))
          CFI R7 load(1, XDATA, add(CFA_XSP16, literal(-6)))
          CFI ?RET_LOW load(1, XDATA, add(CFA_XSP16, literal(-5)))
          CFI ?RET_HIGH load(1, XDATA, add(CFA_XSP16, literal(-4)))
          CFI ?BRET_EXT load(1, XDATA, add(CFA_XSP16, literal(-3)))
          CFI DPL0 load(1, XDATA, add(CFA_XSP16, literal(-2)))
          CFI DPH0 load(1, XDATA, add(CFA_XSP16, literal(-1)))
          CFI CFA_SP SP+-2
          CFI CFA_XSP16 add(XSP16, 14)
          CFI Block cfiCond15 Using cfiCommon0
          CFI (cfiCond15) Function afReflectError
          CFI (cfiCond15) Conditional ??CrossCallReturnLabel_56
          CFI (cfiCond15) R6 load(1, XDATA, add(CFA_XSP16, literal(-16)))
          CFI (cfiCond15) VB load(1, XDATA, add(CFA_XSP16, literal(-15)))
          CFI (cfiCond15) V0 load(1, XDATA, add(CFA_XSP16, literal(-14)))
          CFI (cfiCond15) V1 load(1, XDATA, add(CFA_XSP16, literal(-13)))
          CFI (cfiCond15) V2 load(1, XDATA, add(CFA_XSP16, literal(-12)))
          CFI (cfiCond15) V3 load(1, XDATA, add(CFA_XSP16, literal(-11)))
          CFI (cfiCond15) V4 load(1, XDATA, add(CFA_XSP16, literal(-10)))
          CFI (cfiCond15) V5 load(1, XDATA, add(CFA_XSP16, literal(-9)))
          CFI (cfiCond15) V6 load(1, XDATA, add(CFA_XSP16, literal(-8)))
          CFI (cfiCond15) V7 load(1, XDATA, add(CFA_XSP16, literal(-7)))
          CFI (cfiCond15) R7 load(1, XDATA, add(CFA_XSP16, literal(-6)))
          CFI (cfiCond15) ?RET_LOW load(1, XDATA, add(CFA_XSP16, literal(-5)))
          CFI (cfiCond15) ?RET_HIGH load(1, XDATA, add(CFA_XSP16, literal(-4)))
          CFI (cfiCond15) ?BRET_EXT load(1, XDATA, add(CFA_XSP16, literal(-3)))
          CFI (cfiCond15) DPL0 load(1, XDATA, add(CFA_XSP16, literal(-2)))
          CFI (cfiCond15) DPH0 load(1, XDATA, add(CFA_XSP16, literal(-1)))
          CFI (cfiCond15) CFA_SP SP+-2
          CFI (cfiCond15) CFA_XSP16 add(XSP16, 16)
          CFI Block cfiPicker16 Using cfiCommon1
          CFI (cfiPicker16) NoFunction
          CFI (cfiPicker16) Picker
        MOVX    @DPTR,A
        ; Setup parameters for call to function osal_msg_send
        ; Setup parameters for call to function osal_msg_send
        MOV     DPL,R6
        MOV     DPH,R7
          CFI EndBlock cfiCond14
          CFI EndBlock cfiCond15
          CFI EndBlock cfiPicker16
        REQUIRE ??Subroutine35_0
        ; // Fall through to label ??Subroutine35_0

        RSEG BANKED_CODE:CODE:NOROOT(0)
??Subroutine35_0:
          CFI Block cfiCond17 Using cfiCommon0
          CFI Function afBuildMSGIncoming
          CFI Conditional ??CrossCallReturnLabel_57
          CFI R6 load(1, XDATA, add(CFA_XSP16, literal(-19)))
          CFI VB load(1, XDATA, add(CFA_XSP16, literal(-18)))
          CFI V0 load(1, XDATA, add(CFA_XSP16, literal(-17)))
          CFI V1 load(1, XDATA, add(CFA_XSP16, literal(-16)))
          CFI V2 load(1, XDATA, add(CFA_XSP16, literal(-15)))
          CFI V3 load(1, XDATA, add(CFA_XSP16, literal(-14)))
          CFI V4 load(1, XDATA, add(CFA_XSP16, literal(-13)))
          CFI V5 load(1, XDATA, add(CFA_XSP16, literal(-12)))
          CFI V6 load(1, XDATA, add(CFA_XSP16, literal(-11)))
          CFI V7 load(1, XDATA, add(CFA_XSP16, literal(-10)))
          CFI V8 load(1, XDATA, add(CFA_XSP16, literal(-9)))
          CFI V9 load(1, XDATA, add(CFA_XSP16, literal(-8)))
          CFI V10 load(1, XDATA, add(CFA_XSP16, literal(-7)))
          CFI R7 load(1, XDATA, add(CFA_XSP16, literal(-6)))
          CFI ?RET_LOW load(1, XDATA, add(CFA_XSP16, literal(-5)))
          CFI ?RET_HIGH load(1, XDATA, add(CFA_XSP16, literal(-4)))
          CFI ?BRET_EXT load(1, XDATA, add(CFA_XSP16, literal(-3)))
          CFI DPL0 load(1, XDATA, add(CFA_XSP16, literal(-2)))
          CFI DPH0 load(1, XDATA, add(CFA_XSP16, literal(-1)))
          CFI CFA_SP SP+-2
          CFI CFA_XSP16 add(XSP16, 19)
          CFI Block cfiCond18 Using cfiCommon0
          CFI (cfiCond18) Function afDataConfirm
          CFI (cfiCond18) Conditional ??CrossCallReturnLabel_55
          CFI (cfiCond18) R6 load(1, XDATA, add(CFA_XSP16, literal(-14)))
          CFI (cfiCond18) VB load(1, XDATA, add(CFA_XSP16, literal(-13)))
          CFI (cfiCond18) V0 load(1, XDATA, add(CFA_XSP16, literal(-12)))
          CFI (cfiCond18) V1 load(1, XDATA, add(CFA_XSP16, literal(-11)))
          CFI (cfiCond18) V2 load(1, XDATA, add(CFA_XSP16, literal(-10)))
          CFI (cfiCond18) V3 load(1, XDATA, add(CFA_XSP16, literal(-9)))
          CFI (cfiCond18) V4 load(1, XDATA, add(CFA_XSP16, literal(-8)))
          CFI (cfiCond18) V5 load(1, XDATA, add(CFA_XSP16, literal(-7)))
          CFI (cfiCond18) R7 load(1, XDATA, add(CFA_XSP16, literal(-6)))
          CFI (cfiCond18) ?RET_LOW load(1, XDATA, add(CFA_XSP16, literal(-5)))
          CFI (cfiCond18) ?RET_HIGH load(1, XDATA, add(CFA_XSP16, literal(-4)))
          CFI (cfiCond18) ?BRET_EXT load(1, XDATA, add(CFA_XSP16, literal(-3)))
          CFI (cfiCond18) DPL0 load(1, XDATA, add(CFA_XSP16, literal(-2)))
          CFI (cfiCond18) DPH0 load(1, XDATA, add(CFA_XSP16, literal(-1)))
          CFI (cfiCond18) CFA_SP SP+-2
          CFI (cfiCond18) CFA_XSP16 add(XSP16, 14)
          CFI Block cfiCond19 Using cfiCommon0
          CFI (cfiCond19) Function afReflectError
          CFI (cfiCond19) Conditional ??CrossCallReturnLabel_56
          CFI (cfiCond19) R6 load(1, XDATA, add(CFA_XSP16, literal(-16)))
          CFI (cfiCond19) VB load(1, XDATA, add(CFA_XSP16, literal(-15)))
          CFI (cfiCond19) V0 load(1, XDATA, add(CFA_XSP16, literal(-14)))
          CFI (cfiCond19) V1 load(1, XDATA, add(CFA_XSP16, literal(-13)))
          CFI (cfiCond19) V2 load(1, XDATA, add(CFA_XSP16, literal(-12)))
          CFI (cfiCond19) V3 load(1, XDATA, add(CFA_XSP16, literal(-11)))
          CFI (cfiCond19) V4 load(1, XDATA, add(CFA_XSP16, literal(-10)))
          CFI (cfiCond19) V5 load(1, XDATA, add(CFA_XSP16, literal(-9)))
          CFI (cfiCond19) V6 load(1, XDATA, add(CFA_XSP16, literal(-8)))
          CFI (cfiCond19) V7 load(1, XDATA, add(CFA_XSP16, literal(-7)))
          CFI (cfiCond19) R7 load(1, XDATA, add(CFA_XSP16, literal(-6)))
          CFI (cfiCond19) ?RET_LOW load(1, XDATA, add(CFA_XSP16, literal(-5)))
          CFI (cfiCond19) ?RET_HIGH load(1, XDATA, add(CFA_XSP16, literal(-4)))
          CFI (cfiCond19) ?BRET_EXT load(1, XDATA, add(CFA_XSP16, literal(-3)))
          CFI (cfiCond19) DPL0 load(1, XDATA, add(CFA_XSP16, literal(-2)))
          CFI (cfiCond19) DPH0 load(1, XDATA, add(CFA_XSP16, literal(-1)))
          CFI (cfiCond19) CFA_SP SP+-2
          CFI (cfiCond19) CFA_XSP16 add(XSP16, 16)
          CFI Block cfiPicker20 Using cfiCommon1
          CFI (cfiPicker20) NoFunction
          CFI (cfiPicker20) Picker
        INC     DPTR
        MOVX    A,@DPTR
        MOV     R0,A
        INC     DPTR
        MOVX    A,@DPTR
        MOV     DPH,A
        MOV     DPL,R0
        MOVX    A,@DPTR
        MOV     R1,A
        RET
          CFI EndBlock cfiCond17
          CFI EndBlock cfiCond18
          CFI EndBlock cfiCond19
          CFI EndBlock cfiPicker20
//  287 
//  288 /*********************************************************************
//  289  * @fn          afReflectError
//  290  *
//  291  * @brief       This function will generate the Reflect Error message to
//  292  *              the application.
//  293  *
//  294  * @param       dstAddrMode - mode of dstAdd - 0 - normal short addr, 1 - group Address
//  295  * @param       dstAddr - intended destination
//  296  * @param       endPoint - confirm end point
//  297  * @param       transID - transaction ID from APSDE_DATA_REQUEST
//  298  * @param       status - status of APSDE_DATA_REQUEST
//  299  *
//  300  * @return      none
//  301  */

        RSEG BANKED_CODE:CODE:NOROOT(0)
//  302 void afReflectError( uint8 dstAddrMode, uint16 dstAddr, uint8 endPoint, uint8 transID, ZStatus_t status )
afReflectError:
          CFI Block cfiBlock21 Using cfiCommon0
          CFI Function afReflectError
        CODE
//  303 {
        FUNCALL afReflectError, afFindEndPointDesc
        LOCFRAME ISTACK, 0, STACK
        LOCFRAME PSTACK, 0, STACK
        LOCFRAME XSTACK, 16, STACK
        LOCFRAME IOVERLAY, 0, STATIC
        LOCFRAME DOVERLAY, 0, STATIC
        ARGFRAME ISTACK, 0, STACK
        ARGFRAME PSTACK, 0, STACK
        ARGFRAME XSTACK, 16, STACK
        ARGFRAME IOVERLAY, 0, STATIC
        ARGFRAME DOVERLAY, 0, STATIC
        FUNCALL afReflectError, osal_msg_allocate
        LOCFRAME ISTACK, 0, STACK
        LOCFRAME PSTACK, 0, STACK
        LOCFRAME XSTACK, 16, STACK
        LOCFRAME IOVERLAY, 0, STATIC
        LOCFRAME DOVERLAY, 0, STATIC
        ARGFRAME ISTACK, 0, STACK
        ARGFRAME PSTACK, 0, STACK
        ARGFRAME XSTACK, 16, STACK
        ARGFRAME IOVERLAY, 0, STATIC
        ARGFRAME DOVERLAY, 0, STATIC
        FUNCALL afReflectError, osal_msg_send
        LOCFRAME ISTACK, 0, STACK
        LOCFRAME PSTACK, 0, STACK
        LOCFRAME XSTACK, 16, STACK
        LOCFRAME IOVERLAY, 0, STATIC
        LOCFRAME DOVERLAY, 0, STATIC
        ARGFRAME ISTACK, 0, STACK
        ARGFRAME PSTACK, 0, STACK
        ARGFRAME XSTACK, 16, STACK
        ARGFRAME IOVERLAY, 0, STATIC
        ARGFRAME DOVERLAY, 0, STATIC
        REQUIRE ?V0
        REQUIRE ?V1
        REQUIRE ?V2
        REQUIRE ?V3
        REQUIRE ?V4
        REQUIRE ?V6
        REQUIRE ?V7
        MOV     A,#-0x10
        LCALL   ?BANKED_ENTER_XDATA
          CFI DPH0 load(1, XDATA, add(CFA_XSP16, literal(-1)))
          CFI DPL0 load(1, XDATA, add(CFA_XSP16, literal(-2)))
          CFI ?BRET_EXT load(1, XDATA, add(CFA_XSP16, literal(-3)))
          CFI ?RET_HIGH load(1, XDATA, add(CFA_XSP16, literal(-4)))
          CFI ?RET_LOW load(1, XDATA, add(CFA_XSP16, literal(-5)))
          CFI R7 load(1, XDATA, add(CFA_XSP16, literal(-6)))
          CFI V7 load(1, XDATA, add(CFA_XSP16, literal(-7)))
          CFI V6 load(1, XDATA, add(CFA_XSP16, literal(-8)))
          CFI V5 load(1, XDATA, add(CFA_XSP16, literal(-9)))
          CFI V4 load(1, XDATA, add(CFA_XSP16, literal(-10)))
          CFI V3 load(1, XDATA, add(CFA_XSP16, literal(-11)))
          CFI V2 load(1, XDATA, add(CFA_XSP16, literal(-12)))
          CFI V1 load(1, XDATA, add(CFA_XSP16, literal(-13)))
          CFI V0 load(1, XDATA, add(CFA_XSP16, literal(-14)))
          CFI VB load(1, XDATA, add(CFA_XSP16, literal(-15)))
          CFI R6 load(1, XDATA, add(CFA_XSP16, literal(-16)))
          CFI CFA_SP SP+0
          CFI CFA_XSP16 add(XSP16, 16)
        ; Saved register size: 16
        ; Auto size: 0
        MOV     ?V1,R1
        MOV     ?V2,R2
        MOV     ?V3,R3
        MOV     ?V0,R4
        MOV     ?V4,R5
//  304   endPointDesc_t *epDesc;
//  305   afReflectError_t *msgPtr;
//  306 
//  307   // Find the endpoint description
//  308   epDesc = afFindEndPointDesc( endPoint );
        ; Setup parameters for call to function afFindEndPointDesc
        MOV     R1,?V0
        LCALL   `??afFindEndPointDesc::?relay`; Banked call to: afFindEndPointDesc
        MOV     ?V6,R2
        MOV     ?V7,R3
        MOV     R6,?V6
        MOV     R7,?V7
//  309   if ( epDesc == NULL )
        MOV     A,R6
        ORL     A,R7
        JZ      ??afReflectError_0
//  310     return;
//  311 
//  312   // Determine the incoming command type
//  313   msgPtr = (afReflectError_t *)osal_msg_allocate( sizeof(afReflectError_t) );
        ; Setup parameters for call to function osal_msg_allocate
        MOV     R2,#0x7
        MOV     R3,#0x0
        LCALL   `??osal_msg_allocate::?relay`; Banked call to: osal_msg_allocate
//  314   if ( msgPtr )
        MOV     A,R2
        ORL     A,R3
        JZ      ??afReflectError_0
//  315   {
//  316     // Build the Data Confirm message
//  317     msgPtr->hdr.event = AF_REFLECT_ERROR_CMD;
        MOV     DPL,R2
        MOV     DPH,R3
        MOV     A,#-0x2
        MOVX    @DPTR,A
//  318     msgPtr->hdr.status = status;
        MOV     A,#0x10
        LCALL   ?XSTACK_DISP0_8
        MOVX    A,@DPTR
        MOV     DPL,R2
        MOV     DPH,R3
        INC     DPTR
        LCALL   ?Subroutine18 & 0xFFFF
//  319     msgPtr->endpoint = endPoint;
//  320     msgPtr->transID = transID;
//  321     msgPtr->dstAddrMode = dstAddrMode;
//  322     msgPtr->dstAddr = dstAddr;
//  323 
//  324 #if defined ( MT_AF_CB_FUNC )
//  325     /* If MT has subscribed for this callback, don't send as a message. */
//  326     if ( AFCB_CHECK( CB_ID_AF_REFLECT_ERROR, *(epDesc->task_id) ) )
//  327     {
//  328       /* Send callback if it's subscribed */
//  329       MT_AfReflectError( (void *)msgPtr );
//  330       /* Release the memory. */
//  331       osal_msg_deallocate( (void *)msgPtr );
//  332     }
//  333     else
//  334 #endif
//  335     {
//  336       /* send message through task message */
//  337       osal_msg_send( *(epDesc->task_id), (uint8 *)msgPtr );
//  338     }
//  339   }
??CrossCallReturnLabel_22:
        MOV     A,?V4
        LCALL   ?Subroutine24 & 0xFFFF
??CrossCallReturnLabel_32:
        LCALL   ?Subroutine23 & 0xFFFF
??CrossCallReturnLabel_30:
        MOV     A,?V2
        MOVX    @DPTR,A
        INC     DPTR
        MOV     A,?V3
        LCALL   ?Subroutine5 & 0xFFFF
??CrossCallReturnLabel_56:
        LCALL   `??osal_msg_send::?relay`; Banked call to: osal_msg_send
//  340 }
??afReflectError_0:
        MOV     R7,#0x8
        LJMP    ?BANKED_LEAVE_XDATA
          CFI EndBlock cfiBlock21

        RSEG BANKED_CODE:CODE:NOROOT(0)
?Subroutine24:
          CFI Block cfiCond22 Using cfiCommon0
          CFI Function afRegisterExtended
          CFI Conditional ??CrossCallReturnLabel_31
          CFI R6 load(1, XDATA, add(CFA_XSP16, literal(-12)))
          CFI VB load(1, XDATA, add(CFA_XSP16, literal(-11)))
          CFI V0 load(1, XDATA, add(CFA_XSP16, literal(-10)))
          CFI V1 load(1, XDATA, add(CFA_XSP16, literal(-9)))
          CFI V2 load(1, XDATA, add(CFA_XSP16, literal(-8)))
          CFI V3 load(1, XDATA, add(CFA_XSP16, literal(-7)))
          CFI R7 load(1, XDATA, add(CFA_XSP16, literal(-6)))
          CFI ?RET_LOW load(1, XDATA, add(CFA_XSP16, literal(-5)))
          CFI ?RET_HIGH load(1, XDATA, add(CFA_XSP16, literal(-4)))
          CFI ?BRET_EXT load(1, XDATA, add(CFA_XSP16, literal(-3)))
          CFI DPL0 load(1, XDATA, add(CFA_XSP16, literal(-2)))
          CFI DPH0 load(1, XDATA, add(CFA_XSP16, literal(-1)))
          CFI CFA_SP SP+-2
          CFI CFA_XSP16 add(XSP16, 12)
          CFI Block cfiCond23 Using cfiCommon0
          CFI (cfiCond23) Function afReflectError
          CFI (cfiCond23) Conditional ??CrossCallReturnLabel_32
          CFI (cfiCond23) R6 load(1, XDATA, add(CFA_XSP16, literal(-16)))
          CFI (cfiCond23) VB load(1, XDATA, add(CFA_XSP16, literal(-15)))
          CFI (cfiCond23) V0 load(1, XDATA, add(CFA_XSP16, literal(-14)))
          CFI (cfiCond23) V1 load(1, XDATA, add(CFA_XSP16, literal(-13)))
          CFI (cfiCond23) V2 load(1, XDATA, add(CFA_XSP16, literal(-12)))
          CFI (cfiCond23) V3 load(1, XDATA, add(CFA_XSP16, literal(-11)))
          CFI (cfiCond23) V4 load(1, XDATA, add(CFA_XSP16, literal(-10)))
          CFI (cfiCond23) V5 load(1, XDATA, add(CFA_XSP16, literal(-9)))
          CFI (cfiCond23) V6 load(1, XDATA, add(CFA_XSP16, literal(-8)))
          CFI (cfiCond23) V7 load(1, XDATA, add(CFA_XSP16, literal(-7)))
          CFI (cfiCond23) R7 load(1, XDATA, add(CFA_XSP16, literal(-6)))
          CFI (cfiCond23) ?RET_LOW load(1, XDATA, add(CFA_XSP16, literal(-5)))
          CFI (cfiCond23) ?RET_HIGH load(1, XDATA, add(CFA_XSP16, literal(-4)))
          CFI (cfiCond23) ?BRET_EXT load(1, XDATA, add(CFA_XSP16, literal(-3)))
          CFI (cfiCond23) DPL0 load(1, XDATA, add(CFA_XSP16, literal(-2)))
          CFI (cfiCond23) DPH0 load(1, XDATA, add(CFA_XSP16, literal(-1)))
          CFI (cfiCond23) CFA_SP SP+-2
          CFI (cfiCond23) CFA_XSP16 add(XSP16, 16)
          CFI Block cfiPicker24 Using cfiCommon1
          CFI (cfiPicker24) NoFunction
          CFI (cfiPicker24) Picker
        LCALL   ?Subroutine31 & 0xFFFF
??CrossCallReturnLabel_48:
        RET
          CFI EndBlock cfiCond22
          CFI EndBlock cfiCond23
          CFI EndBlock cfiPicker24

        RSEG BANKED_CODE:CODE:NOROOT(0)
?Subroutine23:
          CFI Block cfiCond25 Using cfiCommon0
          CFI Function afRegisterExtended
          CFI Conditional ??CrossCallReturnLabel_29
          CFI R6 load(1, XDATA, add(CFA_XSP16, literal(-12)))
          CFI VB load(1, XDATA, add(CFA_XSP16, literal(-11)))
          CFI V0 load(1, XDATA, add(CFA_XSP16, literal(-10)))
          CFI V1 load(1, XDATA, add(CFA_XSP16, literal(-9)))
          CFI V2 load(1, XDATA, add(CFA_XSP16, literal(-8)))
          CFI V3 load(1, XDATA, add(CFA_XSP16, literal(-7)))
          CFI R7 load(1, XDATA, add(CFA_XSP16, literal(-6)))
          CFI ?RET_LOW load(1, XDATA, add(CFA_XSP16, literal(-5)))
          CFI ?RET_HIGH load(1, XDATA, add(CFA_XSP16, literal(-4)))
          CFI ?BRET_EXT load(1, XDATA, add(CFA_XSP16, literal(-3)))
          CFI DPL0 load(1, XDATA, add(CFA_XSP16, literal(-2)))
          CFI DPH0 load(1, XDATA, add(CFA_XSP16, literal(-1)))
          CFI CFA_SP SP+-2
          CFI CFA_XSP16 add(XSP16, 12)
          CFI Block cfiCond26 Using cfiCommon0
          CFI (cfiCond26) Function afReflectError
          CFI (cfiCond26) Conditional ??CrossCallReturnLabel_30
          CFI (cfiCond26) R6 load(1, XDATA, add(CFA_XSP16, literal(-16)))
          CFI (cfiCond26) VB load(1, XDATA, add(CFA_XSP16, literal(-15)))
          CFI (cfiCond26) V0 load(1, XDATA, add(CFA_XSP16, literal(-14)))
          CFI (cfiCond26) V1 load(1, XDATA, add(CFA_XSP16, literal(-13)))
          CFI (cfiCond26) V2 load(1, XDATA, add(CFA_XSP16, literal(-12)))
          CFI (cfiCond26) V3 load(1, XDATA, add(CFA_XSP16, literal(-11)))
          CFI (cfiCond26) V4 load(1, XDATA, add(CFA_XSP16, literal(-10)))
          CFI (cfiCond26) V5 load(1, XDATA, add(CFA_XSP16, literal(-9)))
          CFI (cfiCond26) V6 load(1, XDATA, add(CFA_XSP16, literal(-8)))
          CFI (cfiCond26) V7 load(1, XDATA, add(CFA_XSP16, literal(-7)))
          CFI (cfiCond26) R7 load(1, XDATA, add(CFA_XSP16, literal(-6)))
          CFI (cfiCond26) ?RET_LOW load(1, XDATA, add(CFA_XSP16, literal(-5)))
          CFI (cfiCond26) ?RET_HIGH load(1, XDATA, add(CFA_XSP16, literal(-4)))
          CFI (cfiCond26) ?BRET_EXT load(1, XDATA, add(CFA_XSP16, literal(-3)))
          CFI (cfiCond26) DPL0 load(1, XDATA, add(CFA_XSP16, literal(-2)))
          CFI (cfiCond26) DPH0 load(1, XDATA, add(CFA_XSP16, literal(-1)))
          CFI (cfiCond26) CFA_SP SP+-2
          CFI (cfiCond26) CFA_XSP16 add(XSP16, 16)
          CFI Block cfiPicker27 Using cfiCommon1
          CFI (cfiPicker27) NoFunction
          CFI (cfiPicker27) Picker
        INC     DPTR
        MOV     A,?V1
        LCALL   ?Subroutine29 & 0xFFFF
??CrossCallReturnLabel_43:
        RET
          CFI EndBlock cfiCond25
          CFI EndBlock cfiCond26
          CFI EndBlock cfiPicker27

        RSEG BANKED_CODE:CODE:NOROOT(0)
?Subroutine29:
          CFI Block cfiCond28 Using cfiCommon0
          CFI Function afRegisterExtended
          CFI Conditional ??CrossCallReturnLabel_42, ??CrossCallReturnLabel_25
          CFI R6 load(1, XDATA, add(CFA_XSP16, literal(-12)))
          CFI VB load(1, XDATA, add(CFA_XSP16, literal(-11)))
          CFI V0 load(1, XDATA, add(CFA_XSP16, literal(-10)))
          CFI V1 load(1, XDATA, add(CFA_XSP16, literal(-9)))
          CFI V2 load(1, XDATA, add(CFA_XSP16, literal(-8)))
          CFI V3 load(1, XDATA, add(CFA_XSP16, literal(-7)))
          CFI R7 load(1, XDATA, add(CFA_XSP16, literal(-6)))
          CFI ?RET_LOW load(1, XDATA, add(CFA_XSP16, literal(-5)))
          CFI ?RET_HIGH load(1, XDATA, add(CFA_XSP16, literal(-4)))
          CFI ?BRET_EXT load(1, XDATA, add(CFA_XSP16, literal(-3)))
          CFI DPL0 load(1, XDATA, add(CFA_XSP16, literal(-2)))
          CFI DPH0 load(1, XDATA, add(CFA_XSP16, literal(-1)))
          CFI CFA_SP SP+-4
          CFI CFA_XSP16 add(XSP16, 12)
          CFI Block cfiCond29 Using cfiCommon0
          CFI (cfiCond29) Function afRegisterExtended
          CFI (cfiCond29) Conditional ??CrossCallReturnLabel_42, ??CrossCallReturnLabel_26
          CFI (cfiCond29) R6 load(1, XDATA, add(CFA_XSP16, literal(-12)))
          CFI (cfiCond29) VB load(1, XDATA, add(CFA_XSP16, literal(-11)))
          CFI (cfiCond29) V0 load(1, XDATA, add(CFA_XSP16, literal(-10)))
          CFI (cfiCond29) V1 load(1, XDATA, add(CFA_XSP16, literal(-9)))
          CFI (cfiCond29) V2 load(1, XDATA, add(CFA_XSP16, literal(-8)))
          CFI (cfiCond29) V3 load(1, XDATA, add(CFA_XSP16, literal(-7)))
          CFI (cfiCond29) R7 load(1, XDATA, add(CFA_XSP16, literal(-6)))
          CFI (cfiCond29) ?RET_LOW load(1, XDATA, add(CFA_XSP16, literal(-5)))
          CFI (cfiCond29) ?RET_HIGH load(1, XDATA, add(CFA_XSP16, literal(-4)))
          CFI (cfiCond29) ?BRET_EXT load(1, XDATA, add(CFA_XSP16, literal(-3)))
          CFI (cfiCond29) DPL0 load(1, XDATA, add(CFA_XSP16, literal(-2)))
          CFI (cfiCond29) DPH0 load(1, XDATA, add(CFA_XSP16, literal(-1)))
          CFI (cfiCond29) CFA_SP SP+-4
          CFI (cfiCond29) CFA_XSP16 add(XSP16, 12)
          CFI Block cfiCond30 Using cfiCommon0
          CFI (cfiCond30) Function afRegisterExtended
          CFI (cfiCond30) Conditional ??CrossCallReturnLabel_43, ??CrossCallReturnLabel_29
          CFI (cfiCond30) R6 load(1, XDATA, add(CFA_XSP16, literal(-12)))
          CFI (cfiCond30) VB load(1, XDATA, add(CFA_XSP16, literal(-11)))
          CFI (cfiCond30) V0 load(1, XDATA, add(CFA_XSP16, literal(-10)))
          CFI (cfiCond30) V1 load(1, XDATA, add(CFA_XSP16, literal(-9)))
          CFI (cfiCond30) V2 load(1, XDATA, add(CFA_XSP16, literal(-8)))
          CFI (cfiCond30) V3 load(1, XDATA, add(CFA_XSP16, literal(-7)))
          CFI (cfiCond30) R7 load(1, XDATA, add(CFA_XSP16, literal(-6)))
          CFI (cfiCond30) ?RET_LOW load(1, XDATA, add(CFA_XSP16, literal(-5)))
          CFI (cfiCond30) ?RET_HIGH load(1, XDATA, add(CFA_XSP16, literal(-4)))
          CFI (cfiCond30) ?BRET_EXT load(1, XDATA, add(CFA_XSP16, literal(-3)))
          CFI (cfiCond30) DPL0 load(1, XDATA, add(CFA_XSP16, literal(-2)))
          CFI (cfiCond30) DPH0 load(1, XDATA, add(CFA_XSP16, literal(-1)))
          CFI (cfiCond30) CFA_SP SP+-4
          CFI (cfiCond30) CFA_XSP16 add(XSP16, 12)
          CFI Block cfiCond31 Using cfiCommon0
          CFI (cfiCond31) Function afReflectError
          CFI (cfiCond31) Conditional ??CrossCallReturnLabel_43, ??CrossCallReturnLabel_30
          CFI (cfiCond31) R6 load(1, XDATA, add(CFA_XSP16, literal(-16)))
          CFI (cfiCond31) VB load(1, XDATA, add(CFA_XSP16, literal(-15)))
          CFI (cfiCond31) V0 load(1, XDATA, add(CFA_XSP16, literal(-14)))
          CFI (cfiCond31) V1 load(1, XDATA, add(CFA_XSP16, literal(-13)))
          CFI (cfiCond31) V2 load(1, XDATA, add(CFA_XSP16, literal(-12)))
          CFI (cfiCond31) V3 load(1, XDATA, add(CFA_XSP16, literal(-11)))
          CFI (cfiCond31) V4 load(1, XDATA, add(CFA_XSP16, literal(-10)))
          CFI (cfiCond31) V5 load(1, XDATA, add(CFA_XSP16, literal(-9)))
          CFI (cfiCond31) V6 load(1, XDATA, add(CFA_XSP16, literal(-8)))
          CFI (cfiCond31) V7 load(1, XDATA, add(CFA_XSP16, literal(-7)))
          CFI (cfiCond31) R7 load(1, XDATA, add(CFA_XSP16, literal(-6)))
          CFI (cfiCond31) ?RET_LOW load(1, XDATA, add(CFA_XSP16, literal(-5)))
          CFI (cfiCond31) ?RET_HIGH load(1, XDATA, add(CFA_XSP16, literal(-4)))
          CFI (cfiCond31) ?BRET_EXT load(1, XDATA, add(CFA_XSP16, literal(-3)))
          CFI (cfiCond31) DPL0 load(1, XDATA, add(CFA_XSP16, literal(-2)))
          CFI (cfiCond31) DPH0 load(1, XDATA, add(CFA_XSP16, literal(-1)))
          CFI (cfiCond31) CFA_SP SP+-4
          CFI (cfiCond31) CFA_XSP16 add(XSP16, 16)
          CFI Block cfiPicker32 Using cfiCommon1
          CFI (cfiPicker32) NoFunction
          CFI (cfiPicker32) Picker
        LCALL   ?Subroutine33 & 0xFFFF
??CrossCallReturnLabel_50:
        INC     DPTR
        INC     DPTR
        RET
          CFI EndBlock cfiCond28
          CFI EndBlock cfiCond29
          CFI EndBlock cfiCond30
          CFI EndBlock cfiCond31
          CFI EndBlock cfiPicker32

        RSEG BANKED_CODE:CODE:NOROOT(0)
?Subroutine18:
          CFI Block cfiCond33 Using cfiCommon0
          CFI Function afDataConfirm
          CFI Conditional ??CrossCallReturnLabel_21
          CFI R6 load(1, XDATA, add(CFA_XSP16, literal(-14)))
          CFI VB load(1, XDATA, add(CFA_XSP16, literal(-13)))
          CFI V0 load(1, XDATA, add(CFA_XSP16, literal(-12)))
          CFI V1 load(1, XDATA, add(CFA_XSP16, literal(-11)))
          CFI V2 load(1, XDATA, add(CFA_XSP16, literal(-10)))
          CFI V3 load(1, XDATA, add(CFA_XSP16, literal(-9)))
          CFI V4 load(1, XDATA, add(CFA_XSP16, literal(-8)))
          CFI V5 load(1, XDATA, add(CFA_XSP16, literal(-7)))
          CFI R7 load(1, XDATA, add(CFA_XSP16, literal(-6)))
          CFI ?RET_LOW load(1, XDATA, add(CFA_XSP16, literal(-5)))
          CFI ?RET_HIGH load(1, XDATA, add(CFA_XSP16, literal(-4)))
          CFI ?BRET_EXT load(1, XDATA, add(CFA_XSP16, literal(-3)))
          CFI DPL0 load(1, XDATA, add(CFA_XSP16, literal(-2)))
          CFI DPH0 load(1, XDATA, add(CFA_XSP16, literal(-1)))
          CFI CFA_SP SP+-2
          CFI CFA_XSP16 add(XSP16, 14)
          CFI Block cfiCond34 Using cfiCommon0
          CFI (cfiCond34) Function afReflectError
          CFI (cfiCond34) Conditional ??CrossCallReturnLabel_22
          CFI (cfiCond34) R6 load(1, XDATA, add(CFA_XSP16, literal(-16)))
          CFI (cfiCond34) VB load(1, XDATA, add(CFA_XSP16, literal(-15)))
          CFI (cfiCond34) V0 load(1, XDATA, add(CFA_XSP16, literal(-14)))
          CFI (cfiCond34) V1 load(1, XDATA, add(CFA_XSP16, literal(-13)))
          CFI (cfiCond34) V2 load(1, XDATA, add(CFA_XSP16, literal(-12)))
          CFI (cfiCond34) V3 load(1, XDATA, add(CFA_XSP16, literal(-11)))
          CFI (cfiCond34) V4 load(1, XDATA, add(CFA_XSP16, literal(-10)))
          CFI (cfiCond34) V5 load(1, XDATA, add(CFA_XSP16, literal(-9)))
          CFI (cfiCond34) V6 load(1, XDATA, add(CFA_XSP16, literal(-8)))
          CFI (cfiCond34) V7 load(1, XDATA, add(CFA_XSP16, literal(-7)))
          CFI (cfiCond34) R7 load(1, XDATA, add(CFA_XSP16, literal(-6)))
          CFI (cfiCond34) ?RET_LOW load(1, XDATA, add(CFA_XSP16, literal(-5)))
          CFI (cfiCond34) ?RET_HIGH load(1, XDATA, add(CFA_XSP16, literal(-4)))
          CFI (cfiCond34) ?BRET_EXT load(1, XDATA, add(CFA_XSP16, literal(-3)))
          CFI (cfiCond34) DPL0 load(1, XDATA, add(CFA_XSP16, literal(-2)))
          CFI (cfiCond34) DPH0 load(1, XDATA, add(CFA_XSP16, literal(-1)))
          CFI (cfiCond34) CFA_SP SP+-2
          CFI (cfiCond34) CFA_XSP16 add(XSP16, 16)
          CFI Block cfiPicker35 Using cfiCommon1
          CFI (cfiPicker35) NoFunction
          CFI (cfiPicker35) Picker
        LCALL   ?Subroutine34 & 0xFFFF
??CrossCallReturnLabel_53:
        MOV     A,?V0
        LCALL   ?Subroutine31 & 0xFFFF
??CrossCallReturnLabel_49:
        RET
          CFI EndBlock cfiCond33
          CFI EndBlock cfiCond34
          CFI EndBlock cfiPicker35

        RSEG BANKED_CODE:CODE:NOROOT(0)
?Subroutine34:
          CFI Block cfiCond36 Using cfiCommon0
          CFI Function afRegisterExtended
          CFI Conditional ??CrossCallReturnLabel_52
          CFI R6 load(1, XDATA, add(CFA_XSP16, literal(-12)))
          CFI VB load(1, XDATA, add(CFA_XSP16, literal(-11)))
          CFI V0 load(1, XDATA, add(CFA_XSP16, literal(-10)))
          CFI V1 load(1, XDATA, add(CFA_XSP16, literal(-9)))
          CFI V2 load(1, XDATA, add(CFA_XSP16, literal(-8)))
          CFI V3 load(1, XDATA, add(CFA_XSP16, literal(-7)))
          CFI R7 load(1, XDATA, add(CFA_XSP16, literal(-6)))
          CFI ?RET_LOW load(1, XDATA, add(CFA_XSP16, literal(-5)))
          CFI ?RET_HIGH load(1, XDATA, add(CFA_XSP16, literal(-4)))
          CFI ?BRET_EXT load(1, XDATA, add(CFA_XSP16, literal(-3)))
          CFI DPL0 load(1, XDATA, add(CFA_XSP16, literal(-2)))
          CFI DPH0 load(1, XDATA, add(CFA_XSP16, literal(-1)))
          CFI CFA_SP SP+-2
          CFI CFA_XSP16 add(XSP16, 12)
          CFI Block cfiCond37 Using cfiCommon0
          CFI (cfiCond37) Function afDataConfirm
          CFI (cfiCond37) Conditional ??CrossCallReturnLabel_53, ??CrossCallReturnLabel_21
          CFI (cfiCond37) R6 load(1, XDATA, add(CFA_XSP16, literal(-14)))
          CFI (cfiCond37) VB load(1, XDATA, add(CFA_XSP16, literal(-13)))
          CFI (cfiCond37) V0 load(1, XDATA, add(CFA_XSP16, literal(-12)))
          CFI (cfiCond37) V1 load(1, XDATA, add(CFA_XSP16, literal(-11)))
          CFI (cfiCond37) V2 load(1, XDATA, add(CFA_XSP16, literal(-10)))
          CFI (cfiCond37) V3 load(1, XDATA, add(CFA_XSP16, literal(-9)))
          CFI (cfiCond37) V4 load(1, XDATA, add(CFA_XSP16, literal(-8)))
          CFI (cfiCond37) V5 load(1, XDATA, add(CFA_XSP16, literal(-7)))
          CFI (cfiCond37) R7 load(1, XDATA, add(CFA_XSP16, literal(-6)))
          CFI (cfiCond37) ?RET_LOW load(1, XDATA, add(CFA_XSP16, literal(-5)))
          CFI (cfiCond37) ?RET_HIGH load(1, XDATA, add(CFA_XSP16, literal(-4)))
          CFI (cfiCond37) ?BRET_EXT load(1, XDATA, add(CFA_XSP16, literal(-3)))
          CFI (cfiCond37) DPL0 load(1, XDATA, add(CFA_XSP16, literal(-2)))
          CFI (cfiCond37) DPH0 load(1, XDATA, add(CFA_XSP16, literal(-1)))
          CFI (cfiCond37) CFA_SP SP+-4
          CFI (cfiCond37) CFA_XSP16 add(XSP16, 14)
          CFI Block cfiCond38 Using cfiCommon0
          CFI (cfiCond38) Function afReflectError
          CFI (cfiCond38) Conditional ??CrossCallReturnLabel_53, ??CrossCallReturnLabel_22
          CFI (cfiCond38) R6 load(1, XDATA, add(CFA_XSP16, literal(-16)))
          CFI (cfiCond38) VB load(1, XDATA, add(CFA_XSP16, literal(-15)))
          CFI (cfiCond38) V0 load(1, XDATA, add(CFA_XSP16, literal(-14)))
          CFI (cfiCond38) V1 load(1, XDATA, add(CFA_XSP16, literal(-13)))
          CFI (cfiCond38) V2 load(1, XDATA, add(CFA_XSP16, literal(-12)))
          CFI (cfiCond38) V3 load(1, XDATA, add(CFA_XSP16, literal(-11)))
          CFI (cfiCond38) V4 load(1, XDATA, add(CFA_XSP16, literal(-10)))
          CFI (cfiCond38) V5 load(1, XDATA, add(CFA_XSP16, literal(-9)))
          CFI (cfiCond38) V6 load(1, XDATA, add(CFA_XSP16, literal(-8)))
          CFI (cfiCond38) V7 load(1, XDATA, add(CFA_XSP16, literal(-7)))
          CFI (cfiCond38) R7 load(1, XDATA, add(CFA_XSP16, literal(-6)))
          CFI (cfiCond38) ?RET_LOW load(1, XDATA, add(CFA_XSP16, literal(-5)))
          CFI (cfiCond38) ?RET_HIGH load(1, XDATA, add(CFA_XSP16, literal(-4)))
          CFI (cfiCond38) ?BRET_EXT load(1, XDATA, add(CFA_XSP16, literal(-3)))
          CFI (cfiCond38) DPL0 load(1, XDATA, add(CFA_XSP16, literal(-2)))
          CFI (cfiCond38) DPH0 load(1, XDATA, add(CFA_XSP16, literal(-1)))
          CFI (cfiCond38) CFA_SP SP+-4
          CFI (cfiCond38) CFA_XSP16 add(XSP16, 16)
          CFI Block cfiCond39 Using cfiCommon0
          CFI (cfiCond39) Function afRegisterExtended
          CFI (cfiCond39) Conditional ??CrossCallReturnLabel_54, ??CrossCallReturnLabel_50, ??CrossCallReturnLabel_42, ??CrossCallReturnLabel_25
          CFI (cfiCond39) R6 load(1, XDATA, add(CFA_XSP16, literal(-12)))
          CFI (cfiCond39) VB load(1, XDATA, add(CFA_XSP16, literal(-11)))
          CFI (cfiCond39) V0 load(1, XDATA, add(CFA_XSP16, literal(-10)))
          CFI (cfiCond39) V1 load(1, XDATA, add(CFA_XSP16, literal(-9)))
          CFI (cfiCond39) V2 load(1, XDATA, add(CFA_XSP16, literal(-8)))
          CFI (cfiCond39) V3 load(1, XDATA, add(CFA_XSP16, literal(-7)))
          CFI (cfiCond39) R7 load(1, XDATA, add(CFA_XSP16, literal(-6)))
          CFI (cfiCond39) ?RET_LOW load(1, XDATA, add(CFA_XSP16, literal(-5)))
          CFI (cfiCond39) ?RET_HIGH load(1, XDATA, add(CFA_XSP16, literal(-4)))
          CFI (cfiCond39) ?BRET_EXT load(1, XDATA, add(CFA_XSP16, literal(-3)))
          CFI (cfiCond39) DPL0 load(1, XDATA, add(CFA_XSP16, literal(-2)))
          CFI (cfiCond39) DPH0 load(1, XDATA, add(CFA_XSP16, literal(-1)))
          CFI (cfiCond39) CFA_SP SP+-8
          CFI (cfiCond39) CFA_XSP16 add(XSP16, 12)
          CFI Block cfiCond40 Using cfiCommon0
          CFI (cfiCond40) Function afRegisterExtended
          CFI (cfiCond40) Conditional ??CrossCallReturnLabel_54, ??CrossCallReturnLabel_50, ??CrossCallReturnLabel_42, ??CrossCallReturnLabel_26
          CFI (cfiCond40) R6 load(1, XDATA, add(CFA_XSP16, literal(-12)))
          CFI (cfiCond40) VB load(1, XDATA, add(CFA_XSP16, literal(-11)))
          CFI (cfiCond40) V0 load(1, XDATA, add(CFA_XSP16, literal(-10)))
          CFI (cfiCond40) V1 load(1, XDATA, add(CFA_XSP16, literal(-9)))
          CFI (cfiCond40) V2 load(1, XDATA, add(CFA_XSP16, literal(-8)))
          CFI (cfiCond40) V3 load(1, XDATA, add(CFA_XSP16, literal(-7)))
          CFI (cfiCond40) R7 load(1, XDATA, add(CFA_XSP16, literal(-6)))
          CFI (cfiCond40) ?RET_LOW load(1, XDATA, add(CFA_XSP16, literal(-5)))
          CFI (cfiCond40) ?RET_HIGH load(1, XDATA, add(CFA_XSP16, literal(-4)))
          CFI (cfiCond40) ?BRET_EXT load(1, XDATA, add(CFA_XSP16, literal(-3)))
          CFI (cfiCond40) DPL0 load(1, XDATA, add(CFA_XSP16, literal(-2)))
          CFI (cfiCond40) DPH0 load(1, XDATA, add(CFA_XSP16, literal(-1)))
          CFI (cfiCond40) CFA_SP SP+-8
          CFI (cfiCond40) CFA_XSP16 add(XSP16, 12)
          CFI Block cfiCond41 Using cfiCommon0
          CFI (cfiCond41) Function afRegisterExtended
          CFI (cfiCond41) Conditional ??CrossCallReturnLabel_54, ??CrossCallReturnLabel_50, ??CrossCallReturnLabel_43, ??CrossCallReturnLabel_29
          CFI (cfiCond41) R6 load(1, XDATA, add(CFA_XSP16, literal(-12)))
          CFI (cfiCond41) VB load(1, XDATA, add(CFA_XSP16, literal(-11)))
          CFI (cfiCond41) V0 load(1, XDATA, add(CFA_XSP16, literal(-10)))
          CFI (cfiCond41) V1 load(1, XDATA, add(CFA_XSP16, literal(-9)))
          CFI (cfiCond41) V2 load(1, XDATA, add(CFA_XSP16, literal(-8)))
          CFI (cfiCond41) V3 load(1, XDATA, add(CFA_XSP16, literal(-7)))
          CFI (cfiCond41) R7 load(1, XDATA, add(CFA_XSP16, literal(-6)))
          CFI (cfiCond41) ?RET_LOW load(1, XDATA, add(CFA_XSP16, literal(-5)))
          CFI (cfiCond41) ?RET_HIGH load(1, XDATA, add(CFA_XSP16, literal(-4)))
          CFI (cfiCond41) ?BRET_EXT load(1, XDATA, add(CFA_XSP16, literal(-3)))
          CFI (cfiCond41) DPL0 load(1, XDATA, add(CFA_XSP16, literal(-2)))
          CFI (cfiCond41) DPH0 load(1, XDATA, add(CFA_XSP16, literal(-1)))
          CFI (cfiCond41) CFA_SP SP+-8
          CFI (cfiCond41) CFA_XSP16 add(XSP16, 12)
          CFI Block cfiCond42 Using cfiCommon0
          CFI (cfiCond42) Function afReflectError
          CFI (cfiCond42) Conditional ??CrossCallReturnLabel_54, ??CrossCallReturnLabel_50, ??CrossCallReturnLabel_43, ??CrossCallReturnLabel_30
          CFI (cfiCond42) R6 load(1, XDATA, add(CFA_XSP16, literal(-16)))
          CFI (cfiCond42) VB load(1, XDATA, add(CFA_XSP16, literal(-15)))
          CFI (cfiCond42) V0 load(1, XDATA, add(CFA_XSP16, literal(-14)))
          CFI (cfiCond42) V1 load(1, XDATA, add(CFA_XSP16, literal(-13)))
          CFI (cfiCond42) V2 load(1, XDATA, add(CFA_XSP16, literal(-12)))
          CFI (cfiCond42) V3 load(1, XDATA, add(CFA_XSP16, literal(-11)))
          CFI (cfiCond42) V4 load(1, XDATA, add(CFA_XSP16, literal(-10)))
          CFI (cfiCond42) V5 load(1, XDATA, add(CFA_XSP16, literal(-9)))
          CFI (cfiCond42) V6 load(1, XDATA, add(CFA_XSP16, literal(-8)))
          CFI (cfiCond42) V7 load(1, XDATA, add(CFA_XSP16, literal(-7)))
          CFI (cfiCond42) R7 load(1, XDATA, add(CFA_XSP16, literal(-6)))
          CFI (cfiCond42) ?RET_LOW load(1, XDATA, add(CFA_XSP16, literal(-5)))
          CFI (cfiCond42) ?RET_HIGH load(1, XDATA, add(CFA_XSP16, literal(-4)))
          CFI (cfiCond42) ?BRET_EXT load(1, XDATA, add(CFA_XSP16, literal(-3)))
          CFI (cfiCond42) DPL0 load(1, XDATA, add(CFA_XSP16, literal(-2)))
          CFI (cfiCond42) DPH0 load(1, XDATA, add(CFA_XSP16, literal(-1)))
          CFI (cfiCond42) CFA_SP SP+-8
          CFI (cfiCond42) CFA_XSP16 add(XSP16, 16)
          CFI Block cfiCond43 Using cfiCommon0
          CFI (cfiCond43) Function afRegisterExtended
          CFI (cfiCond43) Conditional ??CrossCallReturnLabel_54, ??CrossCallReturnLabel_51, ??CrossCallReturnLabel_48, ??CrossCallReturnLabel_31
          CFI (cfiCond43) R6 load(1, XDATA, add(CFA_XSP16, literal(-12)))
          CFI (cfiCond43) VB load(1, XDATA, add(CFA_XSP16, literal(-11)))
          CFI (cfiCond43) V0 load(1, XDATA, add(CFA_XSP16, literal(-10)))
          CFI (cfiCond43) V1 load(1, XDATA, add(CFA_XSP16, literal(-9)))
          CFI (cfiCond43) V2 load(1, XDATA, add(CFA_XSP16, literal(-8)))
          CFI (cfiCond43) V3 load(1, XDATA, add(CFA_XSP16, literal(-7)))
          CFI (cfiCond43) R7 load(1, XDATA, add(CFA_XSP16, literal(-6)))
          CFI (cfiCond43) ?RET_LOW load(1, XDATA, add(CFA_XSP16, literal(-5)))
          CFI (cfiCond43) ?RET_HIGH load(1, XDATA, add(CFA_XSP16, literal(-4)))
          CFI (cfiCond43) ?BRET_EXT load(1, XDATA, add(CFA_XSP16, literal(-3)))
          CFI (cfiCond43) DPL0 load(1, XDATA, add(CFA_XSP16, literal(-2)))
          CFI (cfiCond43) DPH0 load(1, XDATA, add(CFA_XSP16, literal(-1)))
          CFI (cfiCond43) CFA_SP SP+-8
          CFI (cfiCond43) CFA_XSP16 add(XSP16, 12)
          CFI Block cfiCond44 Using cfiCommon0
          CFI (cfiCond44) Function afReflectError
          CFI (cfiCond44) Conditional ??CrossCallReturnLabel_54, ??CrossCallReturnLabel_51, ??CrossCallReturnLabel_48, ??CrossCallReturnLabel_32
          CFI (cfiCond44) R6 load(1, XDATA, add(CFA_XSP16, literal(-16)))
          CFI (cfiCond44) VB load(1, XDATA, add(CFA_XSP16, literal(-15)))
          CFI (cfiCond44) V0 load(1, XDATA, add(CFA_XSP16, literal(-14)))
          CFI (cfiCond44) V1 load(1, XDATA, add(CFA_XSP16, literal(-13)))
          CFI (cfiCond44) V2 load(1, XDATA, add(CFA_XSP16, literal(-12)))
          CFI (cfiCond44) V3 load(1, XDATA, add(CFA_XSP16, literal(-11)))
          CFI (cfiCond44) V4 load(1, XDATA, add(CFA_XSP16, literal(-10)))
          CFI (cfiCond44) V5 load(1, XDATA, add(CFA_XSP16, literal(-9)))
          CFI (cfiCond44) V6 load(1, XDATA, add(CFA_XSP16, literal(-8)))
          CFI (cfiCond44) V7 load(1, XDATA, add(CFA_XSP16, literal(-7)))
          CFI (cfiCond44) R7 load(1, XDATA, add(CFA_XSP16, literal(-6)))
          CFI (cfiCond44) ?RET_LOW load(1, XDATA, add(CFA_XSP16, literal(-5)))
          CFI (cfiCond44) ?RET_HIGH load(1, XDATA, add(CFA_XSP16, literal(-4)))
          CFI (cfiCond44) ?BRET_EXT load(1, XDATA, add(CFA_XSP16, literal(-3)))
          CFI (cfiCond44) DPL0 load(1, XDATA, add(CFA_XSP16, literal(-2)))
          CFI (cfiCond44) DPH0 load(1, XDATA, add(CFA_XSP16, literal(-1)))
          CFI (cfiCond44) CFA_SP SP+-8
          CFI (cfiCond44) CFA_XSP16 add(XSP16, 16)
          CFI Block cfiCond45 Using cfiCommon0
          CFI (cfiCond45) Function afDataConfirm
          CFI (cfiCond45) Conditional ??CrossCallReturnLabel_54, ??CrossCallReturnLabel_51, ??CrossCallReturnLabel_49, ??CrossCallReturnLabel_21
          CFI (cfiCond45) R6 load(1, XDATA, add(CFA_XSP16, literal(-14)))
          CFI (cfiCond45) VB load(1, XDATA, add(CFA_XSP16, literal(-13)))
          CFI (cfiCond45) V0 load(1, XDATA, add(CFA_XSP16, literal(-12)))
          CFI (cfiCond45) V1 load(1, XDATA, add(CFA_XSP16, literal(-11)))
          CFI (cfiCond45) V2 load(1, XDATA, add(CFA_XSP16, literal(-10)))
          CFI (cfiCond45) V3 load(1, XDATA, add(CFA_XSP16, literal(-9)))
          CFI (cfiCond45) V4 load(1, XDATA, add(CFA_XSP16, literal(-8)))
          CFI (cfiCond45) V5 load(1, XDATA, add(CFA_XSP16, literal(-7)))
          CFI (cfiCond45) R7 load(1, XDATA, add(CFA_XSP16, literal(-6)))
          CFI (cfiCond45) ?RET_LOW load(1, XDATA, add(CFA_XSP16, literal(-5)))
          CFI (cfiCond45) ?RET_HIGH load(1, XDATA, add(CFA_XSP16, literal(-4)))
          CFI (cfiCond45) ?BRET_EXT load(1, XDATA, add(CFA_XSP16, literal(-3)))
          CFI (cfiCond45) DPL0 load(1, XDATA, add(CFA_XSP16, literal(-2)))
          CFI (cfiCond45) DPH0 load(1, XDATA, add(CFA_XSP16, literal(-1)))
          CFI (cfiCond45) CFA_SP SP+-8
          CFI (cfiCond45) CFA_XSP16 add(XSP16, 14)
          CFI Block cfiCond46 Using cfiCommon0
          CFI (cfiCond46) Function afReflectError
          CFI (cfiCond46) Conditional ??CrossCallReturnLabel_54, ??CrossCallReturnLabel_51, ??CrossCallReturnLabel_49, ??CrossCallReturnLabel_22
          CFI (cfiCond46) R6 load(1, XDATA, add(CFA_XSP16, literal(-16)))
          CFI (cfiCond46) VB load(1, XDATA, add(CFA_XSP16, literal(-15)))
          CFI (cfiCond46) V0 load(1, XDATA, add(CFA_XSP16, literal(-14)))
          CFI (cfiCond46) V1 load(1, XDATA, add(CFA_XSP16, literal(-13)))
          CFI (cfiCond46) V2 load(1, XDATA, add(CFA_XSP16, literal(-12)))
          CFI (cfiCond46) V3 load(1, XDATA, add(CFA_XSP16, literal(-11)))
          CFI (cfiCond46) V4 load(1, XDATA, add(CFA_XSP16, literal(-10)))
          CFI (cfiCond46) V5 load(1, XDATA, add(CFA_XSP16, literal(-9)))
          CFI (cfiCond46) V6 load(1, XDATA, add(CFA_XSP16, literal(-8)))
          CFI (cfiCond46) V7 load(1, XDATA, add(CFA_XSP16, literal(-7)))
          CFI (cfiCond46) R7 load(1, XDATA, add(CFA_XSP16, literal(-6)))
          CFI (cfiCond46) ?RET_LOW load(1, XDATA, add(CFA_XSP16, literal(-5)))
          CFI (cfiCond46) ?RET_HIGH load(1, XDATA, add(CFA_XSP16, literal(-4)))
          CFI (cfiCond46) ?BRET_EXT load(1, XDATA, add(CFA_XSP16, literal(-3)))
          CFI (cfiCond46) DPL0 load(1, XDATA, add(CFA_XSP16, literal(-2)))
          CFI (cfiCond46) DPH0 load(1, XDATA, add(CFA_XSP16, literal(-1)))
          CFI (cfiCond46) CFA_SP SP+-8
          CFI (cfiCond46) CFA_XSP16 add(XSP16, 16)
          CFI Block cfiPicker47 Using cfiCommon1
          CFI (cfiPicker47) NoFunction
          CFI (cfiPicker47) Picker
        MOVX    @DPTR,A
        MOV     DPL,R2
        MOV     DPH,R3
        INC     DPTR
        INC     DPTR
        RET
          CFI EndBlock cfiCond36
          CFI EndBlock cfiCond37
          CFI EndBlock cfiCond38
          CFI EndBlock cfiCond39
          CFI EndBlock cfiCond40
          CFI EndBlock cfiCond41
          CFI EndBlock cfiCond42
          CFI EndBlock cfiCond43
          CFI EndBlock cfiCond44
          CFI EndBlock cfiCond45
          CFI EndBlock cfiCond46
          CFI EndBlock cfiPicker47

        RSEG BANKED_CODE:CODE:NOROOT(0)
?Subroutine31:
          CFI Block cfiCond48 Using cfiCommon0
          CFI Function afRegisterExtended
          CFI Conditional ??CrossCallReturnLabel_48, ??CrossCallReturnLabel_31
          CFI R6 load(1, XDATA, add(CFA_XSP16, literal(-12)))
          CFI VB load(1, XDATA, add(CFA_XSP16, literal(-11)))
          CFI V0 load(1, XDATA, add(CFA_XSP16, literal(-10)))
          CFI V1 load(1, XDATA, add(CFA_XSP16, literal(-9)))
          CFI V2 load(1, XDATA, add(CFA_XSP16, literal(-8)))
          CFI V3 load(1, XDATA, add(CFA_XSP16, literal(-7)))
          CFI R7 load(1, XDATA, add(CFA_XSP16, literal(-6)))
          CFI ?RET_LOW load(1, XDATA, add(CFA_XSP16, literal(-5)))
          CFI ?RET_HIGH load(1, XDATA, add(CFA_XSP16, literal(-4)))
          CFI ?BRET_EXT load(1, XDATA, add(CFA_XSP16, literal(-3)))
          CFI DPL0 load(1, XDATA, add(CFA_XSP16, literal(-2)))
          CFI DPH0 load(1, XDATA, add(CFA_XSP16, literal(-1)))
          CFI CFA_SP SP+-4
          CFI CFA_XSP16 add(XSP16, 12)
          CFI Block cfiCond49 Using cfiCommon0
          CFI (cfiCond49) Function afReflectError
          CFI (cfiCond49) Conditional ??CrossCallReturnLabel_48, ??CrossCallReturnLabel_32
          CFI (cfiCond49) R6 load(1, XDATA, add(CFA_XSP16, literal(-16)))
          CFI (cfiCond49) VB load(1, XDATA, add(CFA_XSP16, literal(-15)))
          CFI (cfiCond49) V0 load(1, XDATA, add(CFA_XSP16, literal(-14)))
          CFI (cfiCond49) V1 load(1, XDATA, add(CFA_XSP16, literal(-13)))
          CFI (cfiCond49) V2 load(1, XDATA, add(CFA_XSP16, literal(-12)))
          CFI (cfiCond49) V3 load(1, XDATA, add(CFA_XSP16, literal(-11)))
          CFI (cfiCond49) V4 load(1, XDATA, add(CFA_XSP16, literal(-10)))
          CFI (cfiCond49) V5 load(1, XDATA, add(CFA_XSP16, literal(-9)))
          CFI (cfiCond49) V6 load(1, XDATA, add(CFA_XSP16, literal(-8)))
          CFI (cfiCond49) V7 load(1, XDATA, add(CFA_XSP16, literal(-7)))
          CFI (cfiCond49) R7 load(1, XDATA, add(CFA_XSP16, literal(-6)))
          CFI (cfiCond49) ?RET_LOW load(1, XDATA, add(CFA_XSP16, literal(-5)))
          CFI (cfiCond49) ?RET_HIGH load(1, XDATA, add(CFA_XSP16, literal(-4)))
          CFI (cfiCond49) ?BRET_EXT load(1, XDATA, add(CFA_XSP16, literal(-3)))
          CFI (cfiCond49) DPL0 load(1, XDATA, add(CFA_XSP16, literal(-2)))
          CFI (cfiCond49) DPH0 load(1, XDATA, add(CFA_XSP16, literal(-1)))
          CFI (cfiCond49) CFA_SP SP+-4
          CFI (cfiCond49) CFA_XSP16 add(XSP16, 16)
          CFI Block cfiCond50 Using cfiCommon0
          CFI (cfiCond50) Function afDataConfirm
          CFI (cfiCond50) Conditional ??CrossCallReturnLabel_49, ??CrossCallReturnLabel_21
          CFI (cfiCond50) R6 load(1, XDATA, add(CFA_XSP16, literal(-14)))
          CFI (cfiCond50) VB load(1, XDATA, add(CFA_XSP16, literal(-13)))
          CFI (cfiCond50) V0 load(1, XDATA, add(CFA_XSP16, literal(-12)))
          CFI (cfiCond50) V1 load(1, XDATA, add(CFA_XSP16, literal(-11)))
          CFI (cfiCond50) V2 load(1, XDATA, add(CFA_XSP16, literal(-10)))
          CFI (cfiCond50) V3 load(1, XDATA, add(CFA_XSP16, literal(-9)))
          CFI (cfiCond50) V4 load(1, XDATA, add(CFA_XSP16, literal(-8)))
          CFI (cfiCond50) V5 load(1, XDATA, add(CFA_XSP16, literal(-7)))
          CFI (cfiCond50) R7 load(1, XDATA, add(CFA_XSP16, literal(-6)))
          CFI (cfiCond50) ?RET_LOW load(1, XDATA, add(CFA_XSP16, literal(-5)))
          CFI (cfiCond50) ?RET_HIGH load(1, XDATA, add(CFA_XSP16, literal(-4)))
          CFI (cfiCond50) ?BRET_EXT load(1, XDATA, add(CFA_XSP16, literal(-3)))
          CFI (cfiCond50) DPL0 load(1, XDATA, add(CFA_XSP16, literal(-2)))
          CFI (cfiCond50) DPH0 load(1, XDATA, add(CFA_XSP16, literal(-1)))
          CFI (cfiCond50) CFA_SP SP+-4
          CFI (cfiCond50) CFA_XSP16 add(XSP16, 14)
          CFI Block cfiCond51 Using cfiCommon0
          CFI (cfiCond51) Function afReflectError
          CFI (cfiCond51) Conditional ??CrossCallReturnLabel_49, ??CrossCallReturnLabel_22
          CFI (cfiCond51) R6 load(1, XDATA, add(CFA_XSP16, literal(-16)))
          CFI (cfiCond51) VB load(1, XDATA, add(CFA_XSP16, literal(-15)))
          CFI (cfiCond51) V0 load(1, XDATA, add(CFA_XSP16, literal(-14)))
          CFI (cfiCond51) V1 load(1, XDATA, add(CFA_XSP16, literal(-13)))
          CFI (cfiCond51) V2 load(1, XDATA, add(CFA_XSP16, literal(-12)))
          CFI (cfiCond51) V3 load(1, XDATA, add(CFA_XSP16, literal(-11)))
          CFI (cfiCond51) V4 load(1, XDATA, add(CFA_XSP16, literal(-10)))
          CFI (cfiCond51) V5 load(1, XDATA, add(CFA_XSP16, literal(-9)))
          CFI (cfiCond51) V6 load(1, XDATA, add(CFA_XSP16, literal(-8)))
          CFI (cfiCond51) V7 load(1, XDATA, add(CFA_XSP16, literal(-7)))
          CFI (cfiCond51) R7 load(1, XDATA, add(CFA_XSP16, literal(-6)))
          CFI (cfiCond51) ?RET_LOW load(1, XDATA, add(CFA_XSP16, literal(-5)))
          CFI (cfiCond51) ?RET_HIGH load(1, XDATA, add(CFA_XSP16, literal(-4)))
          CFI (cfiCond51) ?BRET_EXT load(1, XDATA, add(CFA_XSP16, literal(-3)))
          CFI (cfiCond51) DPL0 load(1, XDATA, add(CFA_XSP16, literal(-2)))
          CFI (cfiCond51) DPH0 load(1, XDATA, add(CFA_XSP16, literal(-1)))
          CFI (cfiCond51) CFA_SP SP+-4
          CFI (cfiCond51) CFA_XSP16 add(XSP16, 16)
          CFI Block cfiPicker52 Using cfiCommon1
          CFI (cfiPicker52) NoFunction
          CFI (cfiPicker52) Picker
        LCALL   ?Subroutine33 & 0xFFFF
??CrossCallReturnLabel_51:
        RET
          CFI EndBlock cfiCond48
          CFI EndBlock cfiCond49
          CFI EndBlock cfiCond50
          CFI EndBlock cfiCond51
          CFI EndBlock cfiPicker52

        RSEG BANKED_CODE:CODE:NOROOT(0)
?Subroutine33:
          CFI Block cfiCond53 Using cfiCommon0
          CFI Function afRegisterExtended
          CFI Conditional ??CrossCallReturnLabel_50, ??CrossCallReturnLabel_42, ??CrossCallReturnLabel_25
          CFI R6 load(1, XDATA, add(CFA_XSP16, literal(-12)))
          CFI VB load(1, XDATA, add(CFA_XSP16, literal(-11)))
          CFI V0 load(1, XDATA, add(CFA_XSP16, literal(-10)))
          CFI V1 load(1, XDATA, add(CFA_XSP16, literal(-9)))
          CFI V2 load(1, XDATA, add(CFA_XSP16, literal(-8)))
          CFI V3 load(1, XDATA, add(CFA_XSP16, literal(-7)))
          CFI R7 load(1, XDATA, add(CFA_XSP16, literal(-6)))
          CFI ?RET_LOW load(1, XDATA, add(CFA_XSP16, literal(-5)))
          CFI ?RET_HIGH load(1, XDATA, add(CFA_XSP16, literal(-4)))
          CFI ?BRET_EXT load(1, XDATA, add(CFA_XSP16, literal(-3)))
          CFI DPL0 load(1, XDATA, add(CFA_XSP16, literal(-2)))
          CFI DPH0 load(1, XDATA, add(CFA_XSP16, literal(-1)))
          CFI CFA_SP SP+-6
          CFI CFA_XSP16 add(XSP16, 12)
          CFI Block cfiCond54 Using cfiCommon0
          CFI (cfiCond54) Function afRegisterExtended
          CFI (cfiCond54) Conditional ??CrossCallReturnLabel_50, ??CrossCallReturnLabel_42, ??CrossCallReturnLabel_26
          CFI (cfiCond54) R6 load(1, XDATA, add(CFA_XSP16, literal(-12)))
          CFI (cfiCond54) VB load(1, XDATA, add(CFA_XSP16, literal(-11)))
          CFI (cfiCond54) V0 load(1, XDATA, add(CFA_XSP16, literal(-10)))
          CFI (cfiCond54) V1 load(1, XDATA, add(CFA_XSP16, literal(-9)))
          CFI (cfiCond54) V2 load(1, XDATA, add(CFA_XSP16, literal(-8)))
          CFI (cfiCond54) V3 load(1, XDATA, add(CFA_XSP16, literal(-7)))
          CFI (cfiCond54) R7 load(1, XDATA, add(CFA_XSP16, literal(-6)))
          CFI (cfiCond54) ?RET_LOW load(1, XDATA, add(CFA_XSP16, literal(-5)))
          CFI (cfiCond54) ?RET_HIGH load(1, XDATA, add(CFA_XSP16, literal(-4)))
          CFI (cfiCond54) ?BRET_EXT load(1, XDATA, add(CFA_XSP16, literal(-3)))
          CFI (cfiCond54) DPL0 load(1, XDATA, add(CFA_XSP16, literal(-2)))
          CFI (cfiCond54) DPH0 load(1, XDATA, add(CFA_XSP16, literal(-1)))
          CFI (cfiCond54) CFA_SP SP+-6
          CFI (cfiCond54) CFA_XSP16 add(XSP16, 12)
          CFI Block cfiCond55 Using cfiCommon0
          CFI (cfiCond55) Function afRegisterExtended
          CFI (cfiCond55) Conditional ??CrossCallReturnLabel_50, ??CrossCallReturnLabel_43, ??CrossCallReturnLabel_29
          CFI (cfiCond55) R6 load(1, XDATA, add(CFA_XSP16, literal(-12)))
          CFI (cfiCond55) VB load(1, XDATA, add(CFA_XSP16, literal(-11)))
          CFI (cfiCond55) V0 load(1, XDATA, add(CFA_XSP16, literal(-10)))
          CFI (cfiCond55) V1 load(1, XDATA, add(CFA_XSP16, literal(-9)))
          CFI (cfiCond55) V2 load(1, XDATA, add(CFA_XSP16, literal(-8)))
          CFI (cfiCond55) V3 load(1, XDATA, add(CFA_XSP16, literal(-7)))
          CFI (cfiCond55) R7 load(1, XDATA, add(CFA_XSP16, literal(-6)))
          CFI (cfiCond55) ?RET_LOW load(1, XDATA, add(CFA_XSP16, literal(-5)))
          CFI (cfiCond55) ?RET_HIGH load(1, XDATA, add(CFA_XSP16, literal(-4)))
          CFI (cfiCond55) ?BRET_EXT load(1, XDATA, add(CFA_XSP16, literal(-3)))
          CFI (cfiCond55) DPL0 load(1, XDATA, add(CFA_XSP16, literal(-2)))
          CFI (cfiCond55) DPH0 load(1, XDATA, add(CFA_XSP16, literal(-1)))
          CFI (cfiCond55) CFA_SP SP+-6
          CFI (cfiCond55) CFA_XSP16 add(XSP16, 12)
          CFI Block cfiCond56 Using cfiCommon0
          CFI (cfiCond56) Function afReflectError
          CFI (cfiCond56) Conditional ??CrossCallReturnLabel_50, ??CrossCallReturnLabel_43, ??CrossCallReturnLabel_30
          CFI (cfiCond56) R6 load(1, XDATA, add(CFA_XSP16, literal(-16)))
          CFI (cfiCond56) VB load(1, XDATA, add(CFA_XSP16, literal(-15)))
          CFI (cfiCond56) V0 load(1, XDATA, add(CFA_XSP16, literal(-14)))
          CFI (cfiCond56) V1 load(1, XDATA, add(CFA_XSP16, literal(-13)))
          CFI (cfiCond56) V2 load(1, XDATA, add(CFA_XSP16, literal(-12)))
          CFI (cfiCond56) V3 load(1, XDATA, add(CFA_XSP16, literal(-11)))
          CFI (cfiCond56) V4 load(1, XDATA, add(CFA_XSP16, literal(-10)))
          CFI (cfiCond56) V5 load(1, XDATA, add(CFA_XSP16, literal(-9)))
          CFI (cfiCond56) V6 load(1, XDATA, add(CFA_XSP16, literal(-8)))
          CFI (cfiCond56) V7 load(1, XDATA, add(CFA_XSP16, literal(-7)))
          CFI (cfiCond56) R7 load(1, XDATA, add(CFA_XSP16, literal(-6)))
          CFI (cfiCond56) ?RET_LOW load(1, XDATA, add(CFA_XSP16, literal(-5)))
          CFI (cfiCond56) ?RET_HIGH load(1, XDATA, add(CFA_XSP16, literal(-4)))
          CFI (cfiCond56) ?BRET_EXT load(1, XDATA, add(CFA_XSP16, literal(-3)))
          CFI (cfiCond56) DPL0 load(1, XDATA, add(CFA_XSP16, literal(-2)))
          CFI (cfiCond56) DPH0 load(1, XDATA, add(CFA_XSP16, literal(-1)))
          CFI (cfiCond56) CFA_SP SP+-6
          CFI (cfiCond56) CFA_XSP16 add(XSP16, 16)
          CFI Block cfiCond57 Using cfiCommon0
          CFI (cfiCond57) Function afRegisterExtended
          CFI (cfiCond57) Conditional ??CrossCallReturnLabel_51, ??CrossCallReturnLabel_48, ??CrossCallReturnLabel_31
          CFI (cfiCond57) R6 load(1, XDATA, add(CFA_XSP16, literal(-12)))
          CFI (cfiCond57) VB load(1, XDATA, add(CFA_XSP16, literal(-11)))
          CFI (cfiCond57) V0 load(1, XDATA, add(CFA_XSP16, literal(-10)))
          CFI (cfiCond57) V1 load(1, XDATA, add(CFA_XSP16, literal(-9)))
          CFI (cfiCond57) V2 load(1, XDATA, add(CFA_XSP16, literal(-8)))
          CFI (cfiCond57) V3 load(1, XDATA, add(CFA_XSP16, literal(-7)))
          CFI (cfiCond57) R7 load(1, XDATA, add(CFA_XSP16, literal(-6)))
          CFI (cfiCond57) ?RET_LOW load(1, XDATA, add(CFA_XSP16, literal(-5)))
          CFI (cfiCond57) ?RET_HIGH load(1, XDATA, add(CFA_XSP16, literal(-4)))
          CFI (cfiCond57) ?BRET_EXT load(1, XDATA, add(CFA_XSP16, literal(-3)))
          CFI (cfiCond57) DPL0 load(1, XDATA, add(CFA_XSP16, literal(-2)))
          CFI (cfiCond57) DPH0 load(1, XDATA, add(CFA_XSP16, literal(-1)))
          CFI (cfiCond57) CFA_SP SP+-6
          CFI (cfiCond57) CFA_XSP16 add(XSP16, 12)
          CFI Block cfiCond58 Using cfiCommon0
          CFI (cfiCond58) Function afReflectError
          CFI (cfiCond58) Conditional ??CrossCallReturnLabel_51, ??CrossCallReturnLabel_48, ??CrossCallReturnLabel_32
          CFI (cfiCond58) R6 load(1, XDATA, add(CFA_XSP16, literal(-16)))
          CFI (cfiCond58) VB load(1, XDATA, add(CFA_XSP16, literal(-15)))
          CFI (cfiCond58) V0 load(1, XDATA, add(CFA_XSP16, literal(-14)))
          CFI (cfiCond58) V1 load(1, XDATA, add(CFA_XSP16, literal(-13)))
          CFI (cfiCond58) V2 load(1, XDATA, add(CFA_XSP16, literal(-12)))
          CFI (cfiCond58) V3 load(1, XDATA, add(CFA_XSP16, literal(-11)))
          CFI (cfiCond58) V4 load(1, XDATA, add(CFA_XSP16, literal(-10)))
          CFI (cfiCond58) V5 load(1, XDATA, add(CFA_XSP16, literal(-9)))
          CFI (cfiCond58) V6 load(1, XDATA, add(CFA_XSP16, literal(-8)))
          CFI (cfiCond58) V7 load(1, XDATA, add(CFA_XSP16, literal(-7)))
          CFI (cfiCond58) R7 load(1, XDATA, add(CFA_XSP16, literal(-6)))
          CFI (cfiCond58) ?RET_LOW load(1, XDATA, add(CFA_XSP16, literal(-5)))
          CFI (cfiCond58) ?RET_HIGH load(1, XDATA, add(CFA_XSP16, literal(-4)))
          CFI (cfiCond58) ?BRET_EXT load(1, XDATA, add(CFA_XSP16, literal(-3)))
          CFI (cfiCond58) DPL0 load(1, XDATA, add(CFA_XSP16, literal(-2)))
          CFI (cfiCond58) DPH0 load(1, XDATA, add(CFA_XSP16, literal(-1)))
          CFI (cfiCond58) CFA_SP SP+-6
          CFI (cfiCond58) CFA_XSP16 add(XSP16, 16)
          CFI Block cfiCond59 Using cfiCommon0
          CFI (cfiCond59) Function afDataConfirm
          CFI (cfiCond59) Conditional ??CrossCallReturnLabel_51, ??CrossCallReturnLabel_49, ??CrossCallReturnLabel_21
          CFI (cfiCond59) R6 load(1, XDATA, add(CFA_XSP16, literal(-14)))
          CFI (cfiCond59) VB load(1, XDATA, add(CFA_XSP16, literal(-13)))
          CFI (cfiCond59) V0 load(1, XDATA, add(CFA_XSP16, literal(-12)))
          CFI (cfiCond59) V1 load(1, XDATA, add(CFA_XSP16, literal(-11)))
          CFI (cfiCond59) V2 load(1, XDATA, add(CFA_XSP16, literal(-10)))
          CFI (cfiCond59) V3 load(1, XDATA, add(CFA_XSP16, literal(-9)))
          CFI (cfiCond59) V4 load(1, XDATA, add(CFA_XSP16, literal(-8)))
          CFI (cfiCond59) V5 load(1, XDATA, add(CFA_XSP16, literal(-7)))
          CFI (cfiCond59) R7 load(1, XDATA, add(CFA_XSP16, literal(-6)))
          CFI (cfiCond59) ?RET_LOW load(1, XDATA, add(CFA_XSP16, literal(-5)))
          CFI (cfiCond59) ?RET_HIGH load(1, XDATA, add(CFA_XSP16, literal(-4)))
          CFI (cfiCond59) ?BRET_EXT load(1, XDATA, add(CFA_XSP16, literal(-3)))
          CFI (cfiCond59) DPL0 load(1, XDATA, add(CFA_XSP16, literal(-2)))
          CFI (cfiCond59) DPH0 load(1, XDATA, add(CFA_XSP16, literal(-1)))
          CFI (cfiCond59) CFA_SP SP+-6
          CFI (cfiCond59) CFA_XSP16 add(XSP16, 14)
          CFI Block cfiCond60 Using cfiCommon0
          CFI (cfiCond60) Function afReflectError
          CFI (cfiCond60) Conditional ??CrossCallReturnLabel_51, ??CrossCallReturnLabel_49, ??CrossCallReturnLabel_22
          CFI (cfiCond60) R6 load(1, XDATA, add(CFA_XSP16, literal(-16)))
          CFI (cfiCond60) VB load(1, XDATA, add(CFA_XSP16, literal(-15)))
          CFI (cfiCond60) V0 load(1, XDATA, add(CFA_XSP16, literal(-14)))
          CFI (cfiCond60) V1 load(1, XDATA, add(CFA_XSP16, literal(-13)))
          CFI (cfiCond60) V2 load(1, XDATA, add(CFA_XSP16, literal(-12)))
          CFI (cfiCond60) V3 load(1, XDATA, add(CFA_XSP16, literal(-11)))
          CFI (cfiCond60) V4 load(1, XDATA, add(CFA_XSP16, literal(-10)))
          CFI (cfiCond60) V5 load(1, XDATA, add(CFA_XSP16, literal(-9)))
          CFI (cfiCond60) V6 load(1, XDATA, add(CFA_XSP16, literal(-8)))
          CFI (cfiCond60) V7 load(1, XDATA, add(CFA_XSP16, literal(-7)))
          CFI (cfiCond60) R7 load(1, XDATA, add(CFA_XSP16, literal(-6)))
          CFI (cfiCond60) ?RET_LOW load(1, XDATA, add(CFA_XSP16, literal(-5)))
          CFI (cfiCond60) ?RET_HIGH load(1, XDATA, add(CFA_XSP16, literal(-4)))
          CFI (cfiCond60) ?BRET_EXT load(1, XDATA, add(CFA_XSP16, literal(-3)))
          CFI (cfiCond60) DPL0 load(1, XDATA, add(CFA_XSP16, literal(-2)))
          CFI (cfiCond60) DPH0 load(1, XDATA, add(CFA_XSP16, literal(-1)))
          CFI (cfiCond60) CFA_SP SP+-6
          CFI (cfiCond60) CFA_XSP16 add(XSP16, 16)
          CFI Block cfiPicker61 Using cfiCommon1
          CFI (cfiPicker61) NoFunction
          CFI (cfiPicker61) Picker
        LCALL   ?Subroutine34 & 0xFFFF
??CrossCallReturnLabel_54:
        INC     DPTR
        RET
          CFI EndBlock cfiCond53
          CFI EndBlock cfiCond54
          CFI EndBlock cfiCond55
          CFI EndBlock cfiCond56
          CFI EndBlock cfiCond57
          CFI EndBlock cfiCond58
          CFI EndBlock cfiCond59
          CFI EndBlock cfiCond60
          CFI EndBlock cfiPicker61
//  341 
//  342 /*********************************************************************
//  343  * @fn          afIncomingData
//  344  *
//  345  * @brief       Transfer a data PDU (ASDU) from the APS sub-layer to the AF.
//  346  *
//  347  * @param       aff  - pointer to APS frame format
//  348  * @param       SrcAddress  - Source address
//  349  * @param       SrcPanId  - Source PAN ID
//  350  * @param       sig - incoming message's link quality
//  351  * @param       nwkSeqNum - incoming network sequence number (from nwk header frame)
//  352  * @param       SecurityUse - Security enable/disable
//  353  * @param       timestamp - the MAC Timer2 timestamp at Rx.
//  354  * @param       radius - incoming messages received radius
//  355  *
//  356  * @return      none
//  357  */

        RSEG BANKED_CODE:CODE:NOROOT(0)
//  358 void afIncomingData( aps_FrameFormat_t *aff, zAddrType_t *SrcAddress, uint16 SrcPanId,
afIncomingData:
          CFI Block cfiBlock62 Using cfiCommon0
          CFI Function afIncomingData
        CODE
//  359                      NLDE_Signal_t *sig, uint8 nwkSeqNum, uint8 SecurityUse,
//  360                      uint32 timestamp, uint8 radius )
//  361 {
        FUNCALL afIncomingData, aps_FindGroupForEndpoint
        LOCFRAME ISTACK, 0, STACK
        LOCFRAME PSTACK, 0, STACK
        LOCFRAME XSTACK, 28, STACK
        LOCFRAME IOVERLAY, 0, STATIC
        LOCFRAME DOVERLAY, 0, STATIC
        ARGFRAME ISTACK, 0, STACK
        ARGFRAME PSTACK, 0, STACK
        ARGFRAME XSTACK, 28, STACK
        ARGFRAME IOVERLAY, 0, STATIC
        ARGFRAME DOVERLAY, 0, STATIC
        FUNCALL afIncomingData, afFindEndPointDesc
        LOCFRAME ISTACK, 0, STACK
        LOCFRAME PSTACK, 0, STACK
        LOCFRAME XSTACK, 28, STACK
        LOCFRAME IOVERLAY, 0, STATIC
        LOCFRAME DOVERLAY, 0, STATIC
        ARGFRAME ISTACK, 0, STACK
        ARGFRAME PSTACK, 0, STACK
        ARGFRAME XSTACK, 28, STACK
        ARGFRAME IOVERLAY, 0, STATIC
        ARGFRAME DOVERLAY, 0, STATIC
        FUNCALL afIncomingData, afFindEndPointDesc
        LOCFRAME ISTACK, 0, STACK
        LOCFRAME PSTACK, 0, STACK
        LOCFRAME XSTACK, 28, STACK
        LOCFRAME IOVERLAY, 0, STATIC
        LOCFRAME DOVERLAY, 0, STATIC
        ARGFRAME ISTACK, 0, STACK
        ARGFRAME PSTACK, 0, STACK
        ARGFRAME XSTACK, 28, STACK
        ARGFRAME IOVERLAY, 0, STATIC
        ARGFRAME DOVERLAY, 0, STATIC
        FUNCALL afIncomingData, afFindEndPointDescList
        LOCFRAME ISTACK, 0, STACK
        LOCFRAME PSTACK, 0, STACK
        LOCFRAME XSTACK, 28, STACK
        LOCFRAME IOVERLAY, 0, STATIC
        LOCFRAME DOVERLAY, 0, STATIC
        ARGFRAME ISTACK, 0, STACK
        ARGFRAME PSTACK, 0, STACK
        ARGFRAME XSTACK, 28, STACK
        ARGFRAME IOVERLAY, 0, STATIC
        ARGFRAME DOVERLAY, 0, STATIC
        FUNCALL afIncomingData, afFindEndPointDescList
        LOCFRAME ISTACK, 0, STACK
        LOCFRAME PSTACK, 0, STACK
        LOCFRAME XSTACK, 28, STACK
        LOCFRAME IOVERLAY, 0, STATIC
        LOCFRAME DOVERLAY, 0, STATIC
        ARGFRAME ISTACK, 0, STACK
        ARGFRAME PSTACK, 0, STACK
        ARGFRAME XSTACK, 28, STACK
        ARGFRAME IOVERLAY, 0, STATIC
        ARGFRAME DOVERLAY, 0, STATIC
        FUNCALL afIncomingData, osal_mem_free
        LOCFRAME ISTACK, 0, STACK
        LOCFRAME PSTACK, 0, STACK
        LOCFRAME XSTACK, 28, STACK
        LOCFRAME IOVERLAY, 0, STATIC
        LOCFRAME DOVERLAY, 0, STATIC
        ARGFRAME ISTACK, 0, STACK
        ARGFRAME PSTACK, 0, STACK
        ARGFRAME XSTACK, 28, STACK
        ARGFRAME IOVERLAY, 0, STATIC
        ARGFRAME DOVERLAY, 0, STATIC
        FUNCALL afIncomingData, afBuildMSGIncoming
        LOCFRAME ISTACK, 0, STACK
        LOCFRAME PSTACK, 0, STACK
        LOCFRAME XSTACK, 40, STACK
        LOCFRAME IOVERLAY, 0, STATIC
        LOCFRAME DOVERLAY, 0, STATIC
        ARGFRAME ISTACK, 0, STACK
        ARGFRAME PSTACK, 0, STACK
        ARGFRAME XSTACK, 40, STACK
        ARGFRAME IOVERLAY, 0, STATIC
        ARGFRAME DOVERLAY, 0, STATIC
        FUNCALL afIncomingData, aps_FindGroupForEndpoint
        LOCFRAME ISTACK, 0, STACK
        LOCFRAME PSTACK, 0, STACK
        LOCFRAME XSTACK, 28, STACK
        LOCFRAME IOVERLAY, 0, STATIC
        LOCFRAME DOVERLAY, 0, STATIC
        ARGFRAME ISTACK, 0, STACK
        ARGFRAME PSTACK, 0, STACK
        ARGFRAME XSTACK, 28, STACK
        ARGFRAME IOVERLAY, 0, STATIC
        ARGFRAME DOVERLAY, 0, STATIC
        FUNCALL afIncomingData, afFindEndPointDesc
        LOCFRAME ISTACK, 0, STACK
        LOCFRAME PSTACK, 0, STACK
        LOCFRAME XSTACK, 28, STACK
        LOCFRAME IOVERLAY, 0, STATIC
        LOCFRAME DOVERLAY, 0, STATIC
        ARGFRAME ISTACK, 0, STACK
        ARGFRAME PSTACK, 0, STACK
        ARGFRAME XSTACK, 28, STACK
        ARGFRAME IOVERLAY, 0, STATIC
        ARGFRAME DOVERLAY, 0, STATIC
        REQUIRE ?V0
        REQUIRE ?V1
        REQUIRE ?V2
        REQUIRE ?V3
        REQUIRE ?V4
        REQUIRE ?V5
        REQUIRE ?V6
        REQUIRE ?V7
        REQUIRE ?V8
        REQUIRE ?V9
        REQUIRE ?V10
        REQUIRE ?V11
        REQUIRE ?V12
        REQUIRE ?V13
        REQUIRE ?V14
        REQUIRE ?V15
        MOV     A,#-0x18
        LCALL   ?BANKED_ENTER_XDATA
          CFI DPH0 load(1, XDATA, add(CFA_XSP16, literal(-1)))
          CFI DPL0 load(1, XDATA, add(CFA_XSP16, literal(-2)))
          CFI ?BRET_EXT load(1, XDATA, add(CFA_XSP16, literal(-3)))
          CFI ?RET_HIGH load(1, XDATA, add(CFA_XSP16, literal(-4)))
          CFI ?RET_LOW load(1, XDATA, add(CFA_XSP16, literal(-5)))
          CFI R7 load(1, XDATA, add(CFA_XSP16, literal(-6)))
          CFI V15 load(1, XDATA, add(CFA_XSP16, literal(-7)))
          CFI V14 load(1, XDATA, add(CFA_XSP16, literal(-8)))
          CFI V13 load(1, XDATA, add(CFA_XSP16, literal(-9)))
          CFI V12 load(1, XDATA, add(CFA_XSP16, literal(-10)))
          CFI V11 load(1, XDATA, add(CFA_XSP16, literal(-11)))
          CFI V10 load(1, XDATA, add(CFA_XSP16, literal(-12)))
          CFI V9 load(1, XDATA, add(CFA_XSP16, literal(-13)))
          CFI V8 load(1, XDATA, add(CFA_XSP16, literal(-14)))
          CFI V7 load(1, XDATA, add(CFA_XSP16, literal(-15)))
          CFI V6 load(1, XDATA, add(CFA_XSP16, literal(-16)))
          CFI V5 load(1, XDATA, add(CFA_XSP16, literal(-17)))
          CFI V4 load(1, XDATA, add(CFA_XSP16, literal(-18)))
          CFI V3 load(1, XDATA, add(CFA_XSP16, literal(-19)))
          CFI V2 load(1, XDATA, add(CFA_XSP16, literal(-20)))
          CFI V1 load(1, XDATA, add(CFA_XSP16, literal(-21)))
          CFI V0 load(1, XDATA, add(CFA_XSP16, literal(-22)))
          CFI VB load(1, XDATA, add(CFA_XSP16, literal(-23)))
          CFI R6 load(1, XDATA, add(CFA_XSP16, literal(-24)))
          CFI CFA_SP SP+0
          CFI CFA_XSP16 add(XSP16, 24)
        ; Saved register size: 24
        ; Auto size: 4
        MOV     A,#-0x4
        LCALL   ?ALLOC_XSTACK8
          CFI CFA_XSP16 add(XSP16, 28)
        MOV     A,#0x2
        LCALL   ?XSTACK_DISP0_8
        MOV     A,R4
        MOVX    @DPTR,A
        INC     DPTR
        MOV     A,R5
        MOVX    @DPTR,A
        MOV     A,#0x1
        LCALL   ?XSTACK_DISP0_8
        MOV     A,R1
        MOVX    @DPTR,A
        MOV     ?V2,R2
        MOV     ?V3,R3
//  362   endPointDesc_t *epDesc = NULL;
//  363   epList_t *pList = epList;
        MOV     DPTR,#epList
        MOVX    A,@DPTR
        MOV     ?V0,A
        INC     DPTR
        MOVX    A,@DPTR
        MOV     ?V1,A
//  364 #if !defined ( APS_NO_GROUPS )
//  365   uint8 grpEp = APS_GROUPS_EP_NOT_FOUND;
        MOV     ?V8,#-0x2
//  366 #endif
//  367 
//  368   if ( ((aff->FrmCtrl & APS_DELIVERYMODE_MASK) == APS_FC_DM_GROUP) )
        MOV     DPL,R2
        MOV     DPH,R3
        MOVX    A,@DPTR
        ANL     A,#0xc
        XRL     A,#0xc
        JNZ     ??afIncomingData_0
//  369   {
//  370 #if !defined ( APS_NO_GROUPS )
//  371     // Find the first endpoint for this group
//  372     grpEp = aps_FindGroupForEndpoint( aff->GroupID, APS_GROUPS_FIND_FIRST );
        ; Setup parameters for call to function aps_FindGroupForEndpoint
        MOV     R1,#-0x2
        LCALL   ?Subroutine8 & 0xFFFF
??CrossCallReturnLabel_112:
        LCALL   `??aps_FindGroupForEndpoint::?relay`; Banked call to: aps_FindGroupForEndpoint
        MOV     A,R1
        MOV     ?V8,A
//  373     if ( grpEp == APS_GROUPS_EP_NOT_FOUND )
        MOV     A,#-0x2
        XRL     A,?V8
        JNZ     $+5
        LJMP    ??afIncomingData_1 & 0xFFFF
//  374       return;   // No endpoint found
//  375 
//  376     epDesc = afFindEndPointDesc( grpEp );
        ; Setup parameters for call to function afFindEndPointDesc
        LCALL   `??afFindEndPointDesc::?relay`; Banked call to: afFindEndPointDesc
        MOV     ?V0,R2
        MOV     ?V1,R3
        MOV     R6,?V0
        MOV     R7,?V1
//  377     if ( epDesc == NULL )
        MOV     A,R6
        ORL     A,R7
        JNZ     ??afIncomingData_2
//  378       return;   // Endpoint descriptor not found
        LJMP    ??afIncomingData_1 & 0xFFFF
//  379 
//  380     pList = afFindEndPointDescList( epDesc->endPoint );
//  381 #else
//  382     return; // Not supported
//  383 #endif
//  384   }
//  385   else if ( aff->DstEndPoint == AF_BROADCAST_ENDPOINT )
??afIncomingData_0:
        INC     DPTR
        INC     DPTR
        MOVX    A,@DPTR
        CPL     A
        JNZ     ??afIncomingData_3
//  386   {
//  387     // Set the list
//  388     if ( pList != NULL )
        MOV     A,?V0
        ORL     A,?V1
        JNZ     $+5
        LJMP    ??afIncomingData_1 & 0xFFFF
//  389     {
//  390       epDesc = pList->epDesc;
        MOV     DPL,?V0
        MOV     DPH,?V1
        INC     DPTR
        INC     DPTR
        MOVX    A,@DPTR
        MOV     R6,A
        INC     DPTR
        MOVX    A,@DPTR
        MOV     R7,A
??afIncomingData_4:
        MOV     A,#0x1c
        LCALL   ?XSTACK_DISP0_8
        MOVX    A,@DPTR
        MOV     ?V14,A
        INC     DPTR
        MOVX    A,@DPTR
        MOV     ?V15,A
        MOV     A,#0x21
        LCALL   ?XSTACK_DISP0_8
        MOV     R0,#?V4
        LCALL   ?L_MOV_X
        SJMP    ??afIncomingData_5
//  391     }
//  392   }
//  393   else if ( (epDesc = afFindEndPointDesc( aff->DstEndPoint )) )
??afIncomingData_3:
        ; Setup parameters for call to function afFindEndPointDesc
        MOV     DPL,R2
        MOV     DPH,R3
        INC     DPTR
        INC     DPTR
        MOVX    A,@DPTR
        MOV     R1,A
        LCALL   `??afFindEndPointDesc::?relay`; Banked call to: afFindEndPointDesc
        MOV     ?V4,R2
        MOV     ?V5,R3
        MOV     R0,?V4
        MOV     R1,?V5
        MOV     A,R0
        MOV     R6,A
        MOV     A,R1
        MOV     R7,A
        MOV     A,R0
        ORL     A,R1
        JZ      ??afIncomingData_4
//  394   {
//  395     pList = afFindEndPointDescList( epDesc->endPoint );
??afIncomingData_2:
        ; Setup parameters for call to function afFindEndPointDescList
        MOV     DPL,R6
        MOV     DPH,R7
        MOVX    A,@DPTR
        MOV     R1,A
        LCALL   `??afFindEndPointDescList::?relay`; Banked call to: afFindEndPointDescList
        MOV     ?V0,R2
        MOV     ?V1,R3
        SJMP    ??afIncomingData_4
//  396   }
//  397 
//  398   while ( epDesc )
//  399   {
//  400     uint16 epProfileID = 0xFFFE;  // Invalid Profile ID
//  401 
//  402     if ( pList->pfnDescCB )
//  403     {
//  404       uint16 *pID = (uint16 *)(pList->pfnDescCB(
//  405                                  AF_DESCRIPTOR_PROFILE_ID, epDesc->endPoint ));
//  406       if ( pID )
//  407       {
//  408         epProfileID = *pID;
//  409         osal_mem_free( pID );
//  410       }
//  411     }
//  412     else if ( epDesc->simpleDesc )
//  413     {
//  414       epProfileID = epDesc->simpleDesc->AppProfId;
//  415     }
//  416 
//  417     // First part of verification is to make sure that:
//  418     // the local Endpoint ProfileID matches the received ProfileID OR
//  419     // the message is specifically send to ZDO (this excludes the broadcast endpoint) OR
//  420     // if the Wildcard ProfileID is received the message should not be sent to ZDO endpoint
//  421     if ( (aff->ProfileID == epProfileID) ||
//  422          ((epDesc->endPoint == ZDO_EP) && (aff->ProfileID == ZDO_PROFILE_ID)) ||
//  423          ((epDesc->endPoint != ZDO_EP) && ( aff->ProfileID == ZDO_WILDCARD_PROFILE_ID )) )
//  424     {
//  425       // Save original endpoint
//  426       uint8 endpoint = aff->DstEndPoint;
//  427 
//  428       // overwrite with descriptor's endpoint
//  429       aff->DstEndPoint = epDesc->endPoint;
//  430 
//  431       afBuildMSGIncoming( aff, epDesc, SrcAddress, SrcPanId, sig,
//  432                          nwkSeqNum, SecurityUse, timestamp, radius );
//  433 
//  434       // Restore with original endpoint
//  435       aff->DstEndPoint = endpoint;
//  436     }
//  437 
//  438     if ( ((aff->FrmCtrl & APS_DELIVERYMODE_MASK) == APS_FC_DM_GROUP) )
//  439     {
//  440 #if !defined ( APS_NO_GROUPS )
//  441       // Find the next endpoint for this group
//  442       grpEp = aps_FindGroupForEndpoint( aff->GroupID, grpEp );
//  443       if ( grpEp == APS_GROUPS_EP_NOT_FOUND )
//  444         return;   // No endpoint found
//  445 
//  446       epDesc = afFindEndPointDesc( grpEp );
//  447       if ( epDesc == NULL )
//  448         return;   // Endpoint descriptor not found
//  449 
//  450       pList = afFindEndPointDescList( epDesc->endPoint );
//  451 #else
//  452       return;
//  453 #endif
//  454     }
//  455     else if ( aff->DstEndPoint == AF_BROADCAST_ENDPOINT )
//  456     {
//  457       pList = pList->nextDesc;
//  458       if ( pList )
//  459         epDesc = pList->epDesc;
??afIncomingData_6:
        MOV     DPL,?V0
        MOV     DPH,?V1
        INC     DPTR
        INC     DPTR
        MOVX    A,@DPTR
        MOV     R6,A
        INC     DPTR
        MOVX    A,@DPTR
        MOV     R7,A
??afIncomingData_5:
        MOV     A,R6
        ORL     A,R7
        JNZ     $+5
        LJMP    ??afIncomingData_1 & 0xFFFF
        SJMP    ??afIncomingData_7
??afIncomingData_8:
        ; Setup parameters for call to function afFindEndPointDescList
        MOV     DPL,R6
        MOV     DPH,R7
        MOVX    A,@DPTR
        MOV     R1,A
        LCALL   `??afFindEndPointDescList::?relay`; Banked call to: afFindEndPointDescList
        MOV     ?V0,R2
        MOV     ?V1,R3
??afIncomingData_7:
        MOV     ?V10,#-0x2
        MOV     ?V11,#-0x1
        MOV     DPL,?V0
        MOV     DPH,?V1
        LCALL   ?Subroutine4 & 0xFFFF
??CrossCallReturnLabel_65:
        MOV     DPL,R6
        MOV     DPH,R7
        JZ      ??afIncomingData_9
        ; Setup parameters for indirect call
        MOVX    A,@DPTR
        MOV     R2,A
        MOV     R1,#0x2
        MOV     DPL,?V0
        MOV     DPH,?V1
        INC     DPTR
        INC     DPTR
        INC     DPTR
        INC     DPTR
        LCALL   ??Subroutine43_0 & 0xFFFF
??CrossCallReturnLabel_96:
        LCALL   ?CALL_IND
        MOV     A,R2
        ORL     A,R3
        JZ      ??afIncomingData_10
        MOV     DPL,R2
        MOV     DPH,R3
        MOVX    A,@DPTR
        MOV     ?V10,A
        INC     DPTR
        MOVX    A,@DPTR
        MOV     ?V11,A
        ; Setup parameters for call to function osal_mem_free
        LCALL   `??osal_mem_free::?relay`; Banked call to: osal_mem_free
        SJMP    ??afIncomingData_10
??afIncomingData_9:
        LCALL   ??Subroutine36_0 & 0xFFFF
??CrossCallReturnLabel_63:
        JZ      ??afIncomingData_10
        MOV     DPL,R6
        MOV     DPH,R7
        INC     DPTR
        INC     DPTR
        INC     DPTR
        LCALL   ??Subroutine43_0 & 0xFFFF
??CrossCallReturnLabel_97:
        INC     DPTR
        MOVX    A,@DPTR
        MOV     ?V10,A
        INC     DPTR
        MOVX    A,@DPTR
        MOV     ?V11,A
??afIncomingData_10:
        MOV     DPL,?V2
        MOV     DPH,?V3
        INC     DPTR
        INC     DPTR
        INC     DPTR
        INC     DPTR
        INC     DPTR
        INC     DPTR
        INC     DPTR
        INC     DPTR
        MOVX    A,@DPTR
        XRL     A,?V10
        JNZ     ??afIncomingData_11
        INC     DPTR
        MOVX    A,@DPTR
        XRL     A,?V11
??afIncomingData_11:
        JZ      ??afIncomingData_12
        MOV     DPL,R6
        MOV     DPH,R7
        MOVX    A,@DPTR
        MOV     DPL,?V2
        MOV     DPH,?V3
        INC     DPTR
        INC     DPTR
        INC     DPTR
        INC     DPTR
        INC     DPTR
        INC     DPTR
        INC     DPTR
        INC     DPTR
        JNZ     ??afIncomingData_13
        LCALL   ??Subroutine37_0 & 0xFFFF
??CrossCallReturnLabel_60:
        JNZ     ??CrossCallReturnLabel_20
        SJMP    ??afIncomingData_12
??afIncomingData_13:
        MOVX    A,@DPTR
        CPL     A
        JNZ     ??afIncomingData_14
        INC     DPTR
        MOVX    A,@DPTR
        CPL     A
??afIncomingData_14:
        JNZ     ??CrossCallReturnLabel_20
??afIncomingData_12:
        MOV     A,?V2
        ADD     A,#0x2
        MOV     ?V10,A
        CLR     A
        ADDC    A,?V3
        MOV     ?V11,A
        MOV     DPL,?V10
        MOV     DPH,A
        MOVX    A,@DPTR
        MOV     DPL,?XSP + 0
        MOV     DPH,?XSP + 1
        MOVX    @DPTR,A
        MOV     DPL,R6
        MOV     DPH,R7
        LCALL   ?Subroutine17 & 0xFFFF
??CrossCallReturnLabel_19:
        ; Setup parameters for call to function afBuildMSGIncoming
        MOV     A,#0x25
        LCALL   ?XSTACK_DISP0_8
        MOVX    A,@DPTR
        MOV     ?V9,A
        MOV     R0,#?V9
        LCALL   ?PUSH_XSTACK_I_ONE
          CFI CFA_XSP16 add(XSP16, 29)
        MOV     R0,#?V4
        LCALL   ?PUSH_XSTACK_I_FOUR
          CFI CFA_XSP16 add(XSP16, 33)
        MOV     A,#0x25
        LCALL   ?XSTACK_DISP0_8
        MOVX    A,@DPTR
        MOV     ?V9,A
        MOV     R0,#?V9
        LCALL   ?PUSH_XSTACK_I_ONE
          CFI CFA_XSP16 add(XSP16, 34)
        MOV     A,#0x24
        LCALL   ?XSTACK_DISP0_8
        LCALL   ?PUSH_XSTACK8_X_TWO
          CFI CFA_XSP16 add(XSP16, 36)
        MOV     R0,#?V14
        LCALL   ?PUSH_XSTACK_I_TWO
          CFI CFA_XSP16 add(XSP16, 38)
        MOV     A,#0xc
        LCALL   ?XSTACK_DISP0_8
        LCALL   ?PUSH_XSTACK8_X_TWO
          CFI CFA_XSP16 add(XSP16, 40)
        MOV     A,#0xd
        LCALL   ?XSTACK_DISP0_8
        MOVX    A,@DPTR
        MOV     R1,A
        MOV     A,R6
        MOV     R4,A
        MOV     A,R7
        MOV     R5,A
        MOV     R2,?V2
        MOV     R3,?V3
        LCALL   `??afBuildMSGIncoming::?relay`; Banked call to: afBuildMSGIncoming
        MOV     A,#0xc
        LCALL   ?DEALLOC_XSTACK8
          CFI CFA_XSP16 add(XSP16, 28)
        MOV     DPL,?XSP + 0
        MOV     DPH,?XSP + 1
        LCALL   ?Subroutine17 & 0xFFFF
??CrossCallReturnLabel_20:
        MOV     DPL,?V2
        MOV     DPH,?V3
        MOVX    A,@DPTR
        ANL     A,#0xc
        XRL     A,#0xc
        JNZ     ??afIncomingData_15
        ; Setup parameters for call to function aps_FindGroupForEndpoint
        MOV     R1,?V8
        LCALL   ?Subroutine8 & 0xFFFF
??CrossCallReturnLabel_113:
        LCALL   `??aps_FindGroupForEndpoint::?relay`; Banked call to: aps_FindGroupForEndpoint
        MOV     A,R1
        MOV     ?V8,A
        MOV     A,#-0x2
        XRL     A,?V8
        JZ      ??afIncomingData_1
        ; Setup parameters for call to function afFindEndPointDesc
        LCALL   `??afFindEndPointDesc::?relay`; Banked call to: afFindEndPointDesc
        MOV     ?V0,R2
        MOV     ?V1,R3
        MOV     R6,?V0
        MOV     R7,?V1
        MOV     A,R6
        ORL     A,R7
        JZ      $+5
        LJMP    ??afIncomingData_8 & 0xFFFF
        SJMP    ??afIncomingData_1
??afIncomingData_15:
        INC     DPTR
        INC     DPTR
        MOVX    A,@DPTR
        CPL     A
        JNZ     ??afIncomingData_1
        MOV     DPL,?V0
        MOV     DPH,?V1
        MOVX    A,@DPTR
        MOV     ?V0,A
        INC     DPTR
        MOVX    A,@DPTR
        MOV     ?V1,A
        MOV     A,?V0
        ORL     A,?V1
        JZ      $+5
        LJMP    ??afIncomingData_6 & 0xFFFF
//  460       else
//  461         epDesc = NULL;
//  462     }
//  463     else
//  464       epDesc = NULL;
//  465   }
//  466 }
??afIncomingData_1:
        MOV     A,#0x4
        LCALL   ?DEALLOC_XSTACK8
          CFI CFA_XSP16 add(XSP16, 24)
        MOV     R7,#0x10
        LJMP    ?BANKED_LEAVE_XDATA
          CFI EndBlock cfiBlock62

        RSEG BANKED_CODE:CODE:NOROOT(0)
?Subroutine17:
          CFI Block cfiCond63 Using cfiCommon0
          CFI Function afIncomingData
          CFI Conditional ??CrossCallReturnLabel_19
          CFI R6 load(1, XDATA, add(CFA_XSP16, literal(-24)))
          CFI VB load(1, XDATA, add(CFA_XSP16, literal(-23)))
          CFI V0 load(1, XDATA, add(CFA_XSP16, literal(-22)))
          CFI V1 load(1, XDATA, add(CFA_XSP16, literal(-21)))
          CFI V2 load(1, XDATA, add(CFA_XSP16, literal(-20)))
          CFI V3 load(1, XDATA, add(CFA_XSP16, literal(-19)))
          CFI V4 load(1, XDATA, add(CFA_XSP16, literal(-18)))
          CFI V5 load(1, XDATA, add(CFA_XSP16, literal(-17)))
          CFI V6 load(1, XDATA, add(CFA_XSP16, literal(-16)))
          CFI V7 load(1, XDATA, add(CFA_XSP16, literal(-15)))
          CFI V8 load(1, XDATA, add(CFA_XSP16, literal(-14)))
          CFI V9 load(1, XDATA, add(CFA_XSP16, literal(-13)))
          CFI V10 load(1, XDATA, add(CFA_XSP16, literal(-12)))
          CFI V11 load(1, XDATA, add(CFA_XSP16, literal(-11)))
          CFI V12 load(1, XDATA, add(CFA_XSP16, literal(-10)))
          CFI V13 load(1, XDATA, add(CFA_XSP16, literal(-9)))
          CFI V14 load(1, XDATA, add(CFA_XSP16, literal(-8)))
          CFI V15 load(1, XDATA, add(CFA_XSP16, literal(-7)))
          CFI R7 load(1, XDATA, add(CFA_XSP16, literal(-6)))
          CFI ?RET_LOW load(1, XDATA, add(CFA_XSP16, literal(-5)))
          CFI ?RET_HIGH load(1, XDATA, add(CFA_XSP16, literal(-4)))
          CFI ?BRET_EXT load(1, XDATA, add(CFA_XSP16, literal(-3)))
          CFI DPL0 load(1, XDATA, add(CFA_XSP16, literal(-2)))
          CFI DPH0 load(1, XDATA, add(CFA_XSP16, literal(-1)))
          CFI CFA_SP SP+-2
          CFI CFA_XSP16 add(XSP16, 28)
          CFI Block cfiCond64 Using cfiCommon0
          CFI (cfiCond64) Function afIncomingData
          CFI (cfiCond64) Conditional ??CrossCallReturnLabel_20
          CFI (cfiCond64) R6 load(1, XDATA, add(CFA_XSP16, literal(-24)))
          CFI (cfiCond64) VB load(1, XDATA, add(CFA_XSP16, literal(-23)))
          CFI (cfiCond64) V0 load(1, XDATA, add(CFA_XSP16, literal(-22)))
          CFI (cfiCond64) V1 load(1, XDATA, add(CFA_XSP16, literal(-21)))
          CFI (cfiCond64) V2 load(1, XDATA, add(CFA_XSP16, literal(-20)))
          CFI (cfiCond64) V3 load(1, XDATA, add(CFA_XSP16, literal(-19)))
          CFI (cfiCond64) V4 load(1, XDATA, add(CFA_XSP16, literal(-18)))
          CFI (cfiCond64) V5 load(1, XDATA, add(CFA_XSP16, literal(-17)))
          CFI (cfiCond64) V6 load(1, XDATA, add(CFA_XSP16, literal(-16)))
          CFI (cfiCond64) V7 load(1, XDATA, add(CFA_XSP16, literal(-15)))
          CFI (cfiCond64) V8 load(1, XDATA, add(CFA_XSP16, literal(-14)))
          CFI (cfiCond64) V9 load(1, XDATA, add(CFA_XSP16, literal(-13)))
          CFI (cfiCond64) V10 load(1, XDATA, add(CFA_XSP16, literal(-12)))
          CFI (cfiCond64) V11 load(1, XDATA, add(CFA_XSP16, literal(-11)))
          CFI (cfiCond64) V12 load(1, XDATA, add(CFA_XSP16, literal(-10)))
          CFI (cfiCond64) V13 load(1, XDATA, add(CFA_XSP16, literal(-9)))
          CFI (cfiCond64) V14 load(1, XDATA, add(CFA_XSP16, literal(-8)))
          CFI (cfiCond64) V15 load(1, XDATA, add(CFA_XSP16, literal(-7)))
          CFI (cfiCond64) R7 load(1, XDATA, add(CFA_XSP16, literal(-6)))
          CFI (cfiCond64) ?RET_LOW load(1, XDATA, add(CFA_XSP16, literal(-5)))
          CFI (cfiCond64) ?RET_HIGH load(1, XDATA, add(CFA_XSP16, literal(-4)))
          CFI (cfiCond64) ?BRET_EXT load(1, XDATA, add(CFA_XSP16, literal(-3)))
          CFI (cfiCond64) DPL0 load(1, XDATA, add(CFA_XSP16, literal(-2)))
          CFI (cfiCond64) DPH0 load(1, XDATA, add(CFA_XSP16, literal(-1)))
          CFI (cfiCond64) CFA_SP SP+-2
          CFI (cfiCond64) CFA_XSP16 add(XSP16, 28)
          CFI Block cfiPicker65 Using cfiCommon1
          CFI (cfiPicker65) NoFunction
          CFI (cfiPicker65) Picker
        MOVX    A,@DPTR
        MOV     DPL,?V10
        MOV     DPH,?V11
        MOVX    @DPTR,A
        RET
          CFI EndBlock cfiCond63
          CFI EndBlock cfiCond64
          CFI EndBlock cfiPicker65
//  467 
//  468 /*********************************************************************
//  469  * @fn          afBuildMSGIncoming
//  470  *
//  471  * @brief       Build the message for the app
//  472  *
//  473  * @param
//  474  *
//  475  * @return      pointer to next in data buffer
//  476  */

        RSEG BANKED_CODE:CODE:NOROOT(0)
//  477 static void afBuildMSGIncoming( aps_FrameFormat_t *aff, endPointDesc_t *epDesc,
afBuildMSGIncoming:
          CFI Block cfiBlock66 Using cfiCommon0
          CFI Function afBuildMSGIncoming
        CODE
//  478                  zAddrType_t *SrcAddress, uint16 SrcPanId, NLDE_Signal_t *sig,
//  479                  uint8 nwkSeqNum, uint8 SecurityUse, uint32 timestamp, uint8 radius )
//  480 {
        FUNCALL afBuildMSGIncoming, osal_msg_allocate
        LOCFRAME ISTACK, 0, STACK
        LOCFRAME PSTACK, 0, STACK
        LOCFRAME XSTACK, 19, STACK
        LOCFRAME IOVERLAY, 0, STATIC
        LOCFRAME DOVERLAY, 0, STATIC
        ARGFRAME ISTACK, 0, STACK
        ARGFRAME PSTACK, 0, STACK
        ARGFRAME XSTACK, 19, STACK
        ARGFRAME IOVERLAY, 0, STATIC
        ARGFRAME DOVERLAY, 0, STATIC
        FUNCALL afBuildMSGIncoming, afCopyAddress
        LOCFRAME ISTACK, 0, STACK
        LOCFRAME PSTACK, 0, STACK
        LOCFRAME XSTACK, 19, STACK
        LOCFRAME IOVERLAY, 0, STATIC
        LOCFRAME DOVERLAY, 0, STATIC
        ARGFRAME ISTACK, 0, STACK
        ARGFRAME PSTACK, 0, STACK
        ARGFRAME XSTACK, 19, STACK
        ARGFRAME IOVERLAY, 0, STATIC
        ARGFRAME DOVERLAY, 0, STATIC
        FUNCALL afBuildMSGIncoming, osal_memcpy
        LOCFRAME ISTACK, 0, STACK
        LOCFRAME PSTACK, 0, STACK
        LOCFRAME XSTACK, 22, STACK
        LOCFRAME IOVERLAY, 0, STATIC
        LOCFRAME DOVERLAY, 0, STATIC
        ARGFRAME ISTACK, 0, STACK
        ARGFRAME PSTACK, 0, STACK
        ARGFRAME XSTACK, 22, STACK
        ARGFRAME IOVERLAY, 0, STATIC
        ARGFRAME DOVERLAY, 0, STATIC
        FUNCALL afBuildMSGIncoming, osal_msg_send
        LOCFRAME ISTACK, 0, STACK
        LOCFRAME PSTACK, 0, STACK
        LOCFRAME XSTACK, 19, STACK
        LOCFRAME IOVERLAY, 0, STATIC
        LOCFRAME DOVERLAY, 0, STATIC
        ARGFRAME ISTACK, 0, STACK
        ARGFRAME PSTACK, 0, STACK
        ARGFRAME XSTACK, 19, STACK
        ARGFRAME IOVERLAY, 0, STATIC
        ARGFRAME DOVERLAY, 0, STATIC
        REQUIRE ?V0
        REQUIRE ?V1
        REQUIRE ?V2
        REQUIRE ?V3
        REQUIRE ?V4
        REQUIRE ?V5
        REQUIRE ?V6
        REQUIRE ?V8
        REQUIRE ?V9
        REQUIRE ?V10
        MOV     A,#-0x13
        LCALL   ?BANKED_ENTER_XDATA
          CFI DPH0 load(1, XDATA, add(CFA_XSP16, literal(-1)))
          CFI DPL0 load(1, XDATA, add(CFA_XSP16, literal(-2)))
          CFI ?BRET_EXT load(1, XDATA, add(CFA_XSP16, literal(-3)))
          CFI ?RET_HIGH load(1, XDATA, add(CFA_XSP16, literal(-4)))
          CFI ?RET_LOW load(1, XDATA, add(CFA_XSP16, literal(-5)))
          CFI R7 load(1, XDATA, add(CFA_XSP16, literal(-6)))
          CFI V10 load(1, XDATA, add(CFA_XSP16, literal(-7)))
          CFI V9 load(1, XDATA, add(CFA_XSP16, literal(-8)))
          CFI V8 load(1, XDATA, add(CFA_XSP16, literal(-9)))
          CFI V7 load(1, XDATA, add(CFA_XSP16, literal(-10)))
          CFI V6 load(1, XDATA, add(CFA_XSP16, literal(-11)))
          CFI V5 load(1, XDATA, add(CFA_XSP16, literal(-12)))
          CFI V4 load(1, XDATA, add(CFA_XSP16, literal(-13)))
          CFI V3 load(1, XDATA, add(CFA_XSP16, literal(-14)))
          CFI V2 load(1, XDATA, add(CFA_XSP16, literal(-15)))
          CFI V1 load(1, XDATA, add(CFA_XSP16, literal(-16)))
          CFI V0 load(1, XDATA, add(CFA_XSP16, literal(-17)))
          CFI VB load(1, XDATA, add(CFA_XSP16, literal(-18)))
          CFI R6 load(1, XDATA, add(CFA_XSP16, literal(-19)))
          CFI CFA_SP SP+0
          CFI CFA_XSP16 add(XSP16, 19)
        ; Saved register size: 19
        ; Auto size: 0
        MOV     ?V0,R2
        MOV     ?V1,R3
        MOV     ?V2,R4
        MOV     ?V3,R5
        MOV     ?V6,R1
//  481   afIncomingMSGPacket_t *MSGpkt;
//  482   const uint8 len = sizeof( afIncomingMSGPacket_t ) + aff->asduLength;
//  483   uint8 *asdu = aff->asdu;
        MOV     A,R2
        ADD     A,#0xe
        MOV     DPL,A
        CLR     A
        ADDC    A,?V1
        MOV     DPH,A
        MOVX    A,@DPTR
        MOV     ?V4,A
        INC     DPTR
        MOVX    A,@DPTR
        MOV     ?V5,A
//  484   MSGpkt = (afIncomingMSGPacket_t *)osal_msg_allocate( len );
        ; Setup parameters for call to function osal_msg_allocate
        MOV     A,R2
        LCALL   ?Subroutine26 & 0xFFFF
??CrossCallReturnLabel_35:
        ADD     A,#0x27
        MOV     R2,A
        MOV     R3,#0x0
        LCALL   `??osal_msg_allocate::?relay`; Banked call to: osal_msg_allocate
        MOV     ?V8,R2
        MOV     ?V9,R3
        MOV     R6,?V8
        MOV     R7,?V9
//  485 
//  486   if ( MSGpkt == NULL )
        MOV     A,R6
        ORL     A,R7
        JNZ     $+5
        LJMP    ??afBuildMSGIncoming_0 & 0xFFFF
//  487   {
//  488     return;
//  489   }
//  490 
//  491   MSGpkt->hdr.event = AF_INCOMING_MSG_CMD;
        MOV     DPL,R6
        MOV     DPH,R7
        MOV     A,#0x1a
        LCALL   ?Subroutine28 & 0xFFFF
//  492   MSGpkt->groupId = aff->GroupID;
??CrossCallReturnLabel_39:
        LCALL   ?Subroutine6 & 0xFFFF
??CrossCallReturnLabel_0:
        LCALL   ?Subroutine19 & 0xFFFF
//  493   MSGpkt->clusterId = aff->ClusterID;
??CrossCallReturnLabel_23:
        LCALL   ?Subroutine6 & 0xFFFF
??CrossCallReturnLabel_1:
        INC     DPTR
        INC     DPTR
        LCALL   ??Subroutine38_0 & 0xFFFF
//  494   afCopyAddress( &MSGpkt->srcAddr, SrcAddress );
??CrossCallReturnLabel_69:
        ; Setup parameters for call to function afCopyAddress
        MOV     A,#0x13
        LCALL   ?XSTACK_DISP0_8
        LCALL   ?Subroutine10 & 0xFFFF
??CrossCallReturnLabel_6:
        MOV     A,R6
        ADD     A,#0x6
        MOV     R2,A
        CLR     A
        ADDC    A,R7
        MOV     R3,A
        LCALL   `??afCopyAddress::?relay`; Banked call to: afCopyAddress
//  495   MSGpkt->srcAddr.endPoint = aff->SrcEndPoint;
        MOV     DPL,?V0
        MOV     DPH,?V1
        INC     DPTR
        INC     DPTR
        INC     DPTR
        MOVX    A,@DPTR
        PUSH    A
          CFI CFA_SP SP+-1
        MOV     A,R6
        ADD     A,#0xf
        MOV     DPL,A
        CLR     A
        ADDC    A,R7
        MOV     DPH,A
        POP     A
          CFI CFA_SP SP+0
        MOVX    @DPTR,A
//  496   MSGpkt->endPoint = epDesc->endPoint;
        MOV     DPL,?V2
        MOV     DPH,?V3
        MOVX    A,@DPTR
        PUSH    A
          CFI CFA_SP SP+-1
        MOV     A,R6
        ADD     A,#0x14
        MOV     DPL,A
        CLR     A
        ADDC    A,R7
        MOV     DPH,A
        POP     A
          CFI CFA_SP SP+0
        MOVX    @DPTR,A
//  497   MSGpkt->wasBroadcast = aff->wasBroadcast;
        MOV     A,?V0
        ADD     A,#0xc
        MOV     DPL,A
        CLR     A
        ADDC    A,?V1
        MOV     DPH,A
        MOVX    A,@DPTR
        PUSH    A
          CFI CFA_SP SP+-1
        MOV     A,R6
        ADD     A,#0x15
        MOV     DPL,A
        CLR     A
        ADDC    A,R7
        MOV     DPH,A
        POP     A
          CFI CFA_SP SP+0
        MOVX    @DPTR,A
        MOV     A,#0x17
        LCALL   ?XSTACK_DISP0_8
        LCALL   ?Subroutine14 & 0xFFFF
//  498   MSGpkt->LinkQuality = sig->LinkQuality;
??CrossCallReturnLabel_14:
        MOVX    A,@DPTR
        PUSH    A
          CFI CFA_SP SP+-1
        MOV     A,R6
        ADD     A,#0x16
        MOV     DPL,A
        CLR     A
        ADDC    A,R7
        MOV     DPH,A
        POP     A
          CFI CFA_SP SP+0
        LCALL   ?Subroutine30 & 0xFFFF
//  499   MSGpkt->correlation = sig->correlation;
??CrossCallReturnLabel_44:
        INC     DPTR
        MOVX    A,@DPTR
        PUSH    A
          CFI CFA_SP SP+-1
        MOV     A,R6
        ADD     A,#0x17
        MOV     DPL,A
        CLR     A
        ADDC    A,R7
        MOV     DPH,A
        POP     A
          CFI CFA_SP SP+0
        LCALL   ?Subroutine30 & 0xFFFF
//  500   MSGpkt->rssi = sig->rssi;
??CrossCallReturnLabel_45:
        INC     DPTR
        INC     DPTR
        MOVX    A,@DPTR
        PUSH    A
          CFI CFA_SP SP+-1
        MOV     A,R6
        ADD     A,#0x18
        MOV     DPL,A
        CLR     A
        ADDC    A,R7
        MOV     DPH,A
        POP     A
          CFI CFA_SP SP+0
        MOVX    @DPTR,A
//  501   MSGpkt->SecurityUse = SecurityUse;
        MOV     A,#0x19
        LCALL   ?XSTACK_DISP0_8
        MOVX    A,@DPTR
        PUSH    A
          CFI CFA_SP SP+-1
        MOV     A,R6
        ADD     A,#0x19
        MOV     DPL,A
        CLR     A
        ADDC    A,R7
        MOV     DPH,A
        POP     A
          CFI CFA_SP SP+0
        MOVX    @DPTR,A
//  502   MSGpkt->timestamp = timestamp;
        MOV     A,#0x1a
        LCALL   ?XSTACK_DISP0_8
        LCALL   ?XLOAD_R0123
        MOV     A,R6
        ADD     A,#0x1a
        MOV     DPL,A
        CLR     A
        ADDC    A,R7
        MOV     DPH,A
        LCALL   ?XSTORE_R0123
//  503   MSGpkt->nwkSeqNum = nwkSeqNum;
        MOV     A,R6
        ADD     A,#0x1e
        MOV     DPL,A
        CLR     A
        ADDC    A,R7
        MOV     DPH,A
        MOV     A,?V6
        MOVX    @DPTR,A
//  504   MSGpkt->macSrcAddr = aff->macSrcAddr;
        MOV     A,?V0
        ADD     A,#0x15
        MOV     DPL,A
        CLR     A
        ADDC    A,?V1
        MOV     DPH,A
        LCALL   ?Subroutine15 & 0xFFFF
??CrossCallReturnLabel_16:
        ADD     A,#0x24
        MOV     DPL,A
        CLR     A
        ADDC    A,R7
        MOV     DPH,A
        LCALL   ?Subroutine19 & 0xFFFF
//  505   MSGpkt->macDestAddr = aff->macDestAddr;
??CrossCallReturnLabel_24:
        INC     DPTR
        INC     DPTR
        INC     DPTR
        INC     DPTR
        INC     DPTR
        INC     DPTR
        INC     DPTR
        INC     DPTR
        LCALL   ?Subroutine15 & 0xFFFF
??CrossCallReturnLabel_17:
        ADD     A,#0x12
        LCALL   ?Subroutine20 & 0xFFFF
//  506   MSGpkt->srcAddr.panId = SrcPanId;
??CrossCallReturnLabel_76:
        MOV     A,#0x15
        LCALL   ?XSTACK_DISP0_8
        LCALL   ?Subroutine15 & 0xFFFF
??CrossCallReturnLabel_18:
        ADD     A,#0x10
        LCALL   ?Subroutine20 & 0xFFFF
//  507   MSGpkt->cmd.TransSeqNumber = 0;
??CrossCallReturnLabel_77:
        MOV     A,R6
        ADD     A,#0x1f
        MOV     DPL,A
        CLR     A
        ADDC    A,R7
        MOV     DPH,A
        CLR     A
        MOVX    @DPTR,A
//  508   MSGpkt->cmd.DataLength = aff->asduLength;
        MOV     A,R6
        ADD     A,#0x20
        MOV     R0,A
        CLR     A
        ADDC    A,R7
        MOV     R1,A
        MOV     A,?V0
        LCALL   ?Subroutine26 & 0xFFFF
??CrossCallReturnLabel_36:
        MOV     DPL,R0
        MOV     DPH,R1
        MOVX    @DPTR,A
        INC     DPTR
        CLR     A
        MOVX    @DPTR,A
//  509   MSGpkt->radius = radius;
        MOV     A,#0x1e
        LCALL   ?XSTACK_DISP0_8
        MOVX    A,@DPTR
        PUSH    A
          CFI CFA_SP SP+-1
        MOV     A,R6
        ADD     A,#0x26
        MOV     DPL,A
        CLR     A
        ADDC    A,R7
        MOV     DPH,A
        POP     A
          CFI CFA_SP SP+0
        LCALL   ?Subroutine30 & 0xFFFF
//  510 
//  511   if ( MSGpkt->cmd.DataLength )
??CrossCallReturnLabel_46:
        LCALL   ??Subroutine37_0 & 0xFFFF
??CrossCallReturnLabel_61:
        JZ      ??afBuildMSGIncoming_1
//  512   {
//  513     MSGpkt->cmd.Data = (uint8 *)(MSGpkt + 1);
        MOV     A,R6
        ADD     A,#0x27
        MOV     R2,A
        CLR     A
        ADDC    A,R7
        MOV     R3,A
        LCALL   ?Subroutine27 & 0xFFFF
??CrossCallReturnLabel_37:
        MOV     A,R2
        MOVX    @DPTR,A
        INC     DPTR
        MOV     A,R3
        MOVX    @DPTR,A
//  514     osal_memcpy( MSGpkt->cmd.Data, asdu, MSGpkt->cmd.DataLength );
        ; Setup parameters for call to function osal_memcpy
        MOV     ?V8,?V4
        MOV     ?V9,?V5
        MOV     ?V10,#0x0
        MOV     R0,#?V8
        LCALL   ?PUSH_XSTACK_I_THREE
          CFI CFA_XSP16 add(XSP16, 22)
        MOV     A,R6
        ADD     A,#0x20
        MOV     DPL,A
        CLR     A
        ADDC    A,R7
        MOV     DPH,A
        LCALL   ?Subroutine10 & 0xFFFF
//  515   }
??CrossCallReturnLabel_7:
        LCALL   `??osal_memcpy::?relay`; Banked call to: osal_memcpy
        MOV     A,#0x3
        LCALL   ?DEALLOC_XSTACK8
          CFI CFA_XSP16 add(XSP16, 19)
        SJMP    ??afBuildMSGIncoming_2
//  516   else
//  517   {
//  518     MSGpkt->cmd.Data = NULL;
??afBuildMSGIncoming_1:
        LCALL   ?Subroutine27 & 0xFFFF
//  519   }
??CrossCallReturnLabel_38:
        CLR     A
        MOVX    @DPTR,A
        INC     DPTR
        MOVX    @DPTR,A
//  520 
//  521 #if defined ( MT_AF_CB_FUNC )
//  522   // If ZDO or SAPI have registered for this endpoint, dont intercept it here
//  523   if (AFCB_CHECK(CB_ID_AF_DATA_IND, *(epDesc->task_id)))
//  524   {
//  525     MT_AfIncomingMsg( (void *)MSGpkt );
//  526     // Release the memory.
//  527     osal_msg_deallocate( (void *)MSGpkt );
//  528   }
//  529   else
//  530 #endif
//  531   {
//  532     // Send message through task message.
//  533     osal_msg_send( *(epDesc->task_id), (uint8 *)MSGpkt );
??afBuildMSGIncoming_2:
        ; Setup parameters for call to function osal_msg_send
        MOV     A,R6
        MOV     R2,A
        MOV     A,R7
        MOV     R3,A
        MOV     DPL,?V2
        MOV     DPH,?V3
        LCALL   ??Subroutine35_0 & 0xFFFF
//  534   }
??CrossCallReturnLabel_57:
        LCALL   `??osal_msg_send::?relay`; Banked call to: osal_msg_send
//  535 }
??afBuildMSGIncoming_0:
        MOV     R7,#0xb
        LJMP    ?BANKED_LEAVE_XDATA
          CFI EndBlock cfiBlock66

        RSEG BANKED_CODE:CODE:NOROOT(0)
?Subroutine27:
          CFI Block cfiCond67 Using cfiCommon0
          CFI Function afBuildMSGIncoming
          CFI Conditional ??CrossCallReturnLabel_37
          CFI R6 load(1, XDATA, add(CFA_XSP16, literal(-19)))
          CFI VB load(1, XDATA, add(CFA_XSP16, literal(-18)))
          CFI V0 load(1, XDATA, add(CFA_XSP16, literal(-17)))
          CFI V1 load(1, XDATA, add(CFA_XSP16, literal(-16)))
          CFI V2 load(1, XDATA, add(CFA_XSP16, literal(-15)))
          CFI V3 load(1, XDATA, add(CFA_XSP16, literal(-14)))
          CFI V4 load(1, XDATA, add(CFA_XSP16, literal(-13)))
          CFI V5 load(1, XDATA, add(CFA_XSP16, literal(-12)))
          CFI V6 load(1, XDATA, add(CFA_XSP16, literal(-11)))
          CFI V7 load(1, XDATA, add(CFA_XSP16, literal(-10)))
          CFI V8 load(1, XDATA, add(CFA_XSP16, literal(-9)))
          CFI V9 load(1, XDATA, add(CFA_XSP16, literal(-8)))
          CFI V10 load(1, XDATA, add(CFA_XSP16, literal(-7)))
          CFI R7 load(1, XDATA, add(CFA_XSP16, literal(-6)))
          CFI ?RET_LOW load(1, XDATA, add(CFA_XSP16, literal(-5)))
          CFI ?RET_HIGH load(1, XDATA, add(CFA_XSP16, literal(-4)))
          CFI ?BRET_EXT load(1, XDATA, add(CFA_XSP16, literal(-3)))
          CFI DPL0 load(1, XDATA, add(CFA_XSP16, literal(-2)))
          CFI DPH0 load(1, XDATA, add(CFA_XSP16, literal(-1)))
          CFI CFA_SP SP+-2
          CFI CFA_XSP16 add(XSP16, 19)
          CFI Block cfiCond68 Using cfiCommon0
          CFI (cfiCond68) Function afBuildMSGIncoming
          CFI (cfiCond68) Conditional ??CrossCallReturnLabel_38
          CFI (cfiCond68) R6 load(1, XDATA, add(CFA_XSP16, literal(-19)))
          CFI (cfiCond68) VB load(1, XDATA, add(CFA_XSP16, literal(-18)))
          CFI (cfiCond68) V0 load(1, XDATA, add(CFA_XSP16, literal(-17)))
          CFI (cfiCond68) V1 load(1, XDATA, add(CFA_XSP16, literal(-16)))
          CFI (cfiCond68) V2 load(1, XDATA, add(CFA_XSP16, literal(-15)))
          CFI (cfiCond68) V3 load(1, XDATA, add(CFA_XSP16, literal(-14)))
          CFI (cfiCond68) V4 load(1, XDATA, add(CFA_XSP16, literal(-13)))
          CFI (cfiCond68) V5 load(1, XDATA, add(CFA_XSP16, literal(-12)))
          CFI (cfiCond68) V6 load(1, XDATA, add(CFA_XSP16, literal(-11)))
          CFI (cfiCond68) V7 load(1, XDATA, add(CFA_XSP16, literal(-10)))
          CFI (cfiCond68) V8 load(1, XDATA, add(CFA_XSP16, literal(-9)))
          CFI (cfiCond68) V9 load(1, XDATA, add(CFA_XSP16, literal(-8)))
          CFI (cfiCond68) V10 load(1, XDATA, add(CFA_XSP16, literal(-7)))
          CFI (cfiCond68) R7 load(1, XDATA, add(CFA_XSP16, literal(-6)))
          CFI (cfiCond68) ?RET_LOW load(1, XDATA, add(CFA_XSP16, literal(-5)))
          CFI (cfiCond68) ?RET_HIGH load(1, XDATA, add(CFA_XSP16, literal(-4)))
          CFI (cfiCond68) ?BRET_EXT load(1, XDATA, add(CFA_XSP16, literal(-3)))
          CFI (cfiCond68) DPL0 load(1, XDATA, add(CFA_XSP16, literal(-2)))
          CFI (cfiCond68) DPH0 load(1, XDATA, add(CFA_XSP16, literal(-1)))
          CFI (cfiCond68) CFA_SP SP+-2
          CFI (cfiCond68) CFA_XSP16 add(XSP16, 19)
          CFI Block cfiPicker69 Using cfiCommon1
          CFI (cfiPicker69) NoFunction
          CFI (cfiPicker69) Picker
        MOV     A,R6
        ADD     A,#0x22
        MOV     DPL,A
        CLR     A
        ADDC    A,R7
        MOV     DPH,A
        RET
          CFI EndBlock cfiCond67
          CFI EndBlock cfiCond68
          CFI EndBlock cfiPicker69

        RSEG BANKED_CODE:CODE:NOROOT(0)
?Subroutine26:
          CFI Block cfiCond70 Using cfiCommon0
          CFI Function afBuildMSGIncoming
          CFI Conditional ??CrossCallReturnLabel_35
          CFI R6 load(1, XDATA, add(CFA_XSP16, literal(-19)))
          CFI VB load(1, XDATA, add(CFA_XSP16, literal(-18)))
          CFI V0 load(1, XDATA, add(CFA_XSP16, literal(-17)))
          CFI V1 load(1, XDATA, add(CFA_XSP16, literal(-16)))
          CFI V2 load(1, XDATA, add(CFA_XSP16, literal(-15)))
          CFI V3 load(1, XDATA, add(CFA_XSP16, literal(-14)))
          CFI V4 load(1, XDATA, add(CFA_XSP16, literal(-13)))
          CFI V5 load(1, XDATA, add(CFA_XSP16, literal(-12)))
          CFI V6 load(1, XDATA, add(CFA_XSP16, literal(-11)))
          CFI V7 load(1, XDATA, add(CFA_XSP16, literal(-10)))
          CFI V8 load(1, XDATA, add(CFA_XSP16, literal(-9)))
          CFI V9 load(1, XDATA, add(CFA_XSP16, literal(-8)))
          CFI V10 load(1, XDATA, add(CFA_XSP16, literal(-7)))
          CFI R7 load(1, XDATA, add(CFA_XSP16, literal(-6)))
          CFI ?RET_LOW load(1, XDATA, add(CFA_XSP16, literal(-5)))
          CFI ?RET_HIGH load(1, XDATA, add(CFA_XSP16, literal(-4)))
          CFI ?BRET_EXT load(1, XDATA, add(CFA_XSP16, literal(-3)))
          CFI DPL0 load(1, XDATA, add(CFA_XSP16, literal(-2)))
          CFI DPH0 load(1, XDATA, add(CFA_XSP16, literal(-1)))
          CFI CFA_SP SP+-2
          CFI CFA_XSP16 add(XSP16, 19)
          CFI Block cfiCond71 Using cfiCommon0
          CFI (cfiCond71) Function afBuildMSGIncoming
          CFI (cfiCond71) Conditional ??CrossCallReturnLabel_36
          CFI (cfiCond71) R6 load(1, XDATA, add(CFA_XSP16, literal(-19)))
          CFI (cfiCond71) VB load(1, XDATA, add(CFA_XSP16, literal(-18)))
          CFI (cfiCond71) V0 load(1, XDATA, add(CFA_XSP16, literal(-17)))
          CFI (cfiCond71) V1 load(1, XDATA, add(CFA_XSP16, literal(-16)))
          CFI (cfiCond71) V2 load(1, XDATA, add(CFA_XSP16, literal(-15)))
          CFI (cfiCond71) V3 load(1, XDATA, add(CFA_XSP16, literal(-14)))
          CFI (cfiCond71) V4 load(1, XDATA, add(CFA_XSP16, literal(-13)))
          CFI (cfiCond71) V5 load(1, XDATA, add(CFA_XSP16, literal(-12)))
          CFI (cfiCond71) V6 load(1, XDATA, add(CFA_XSP16, literal(-11)))
          CFI (cfiCond71) V7 load(1, XDATA, add(CFA_XSP16, literal(-10)))
          CFI (cfiCond71) V8 load(1, XDATA, add(CFA_XSP16, literal(-9)))
          CFI (cfiCond71) V9 load(1, XDATA, add(CFA_XSP16, literal(-8)))
          CFI (cfiCond71) V10 load(1, XDATA, add(CFA_XSP16, literal(-7)))
          CFI (cfiCond71) R7 load(1, XDATA, add(CFA_XSP16, literal(-6)))
          CFI (cfiCond71) ?RET_LOW load(1, XDATA, add(CFA_XSP16, literal(-5)))
          CFI (cfiCond71) ?RET_HIGH load(1, XDATA, add(CFA_XSP16, literal(-4)))
          CFI (cfiCond71) ?BRET_EXT load(1, XDATA, add(CFA_XSP16, literal(-3)))
          CFI (cfiCond71) DPL0 load(1, XDATA, add(CFA_XSP16, literal(-2)))
          CFI (cfiCond71) DPH0 load(1, XDATA, add(CFA_XSP16, literal(-1)))
          CFI (cfiCond71) CFA_SP SP+-2
          CFI (cfiCond71) CFA_XSP16 add(XSP16, 19)
          CFI Block cfiPicker72 Using cfiCommon1
          CFI (cfiPicker72) NoFunction
          CFI (cfiPicker72) Picker
        ADD     A,#0x10
        MOV     DPL,A
        CLR     A
        ADDC    A,?V1
        MOV     DPH,A
        MOVX    A,@DPTR
        RET
          CFI EndBlock cfiCond70
          CFI EndBlock cfiCond71
          CFI EndBlock cfiPicker72

        RSEG BANKED_CODE:CODE:NOROOT(0)
?Subroutine19:
          CFI Block cfiCond73 Using cfiCommon0
          CFI Function afBuildMSGIncoming
          CFI Conditional ??CrossCallReturnLabel_23
          CFI R6 load(1, XDATA, add(CFA_XSP16, literal(-19)))
          CFI VB load(1, XDATA, add(CFA_XSP16, literal(-18)))
          CFI V0 load(1, XDATA, add(CFA_XSP16, literal(-17)))
          CFI V1 load(1, XDATA, add(CFA_XSP16, literal(-16)))
          CFI V2 load(1, XDATA, add(CFA_XSP16, literal(-15)))
          CFI V3 load(1, XDATA, add(CFA_XSP16, literal(-14)))
          CFI V4 load(1, XDATA, add(CFA_XSP16, literal(-13)))
          CFI V5 load(1, XDATA, add(CFA_XSP16, literal(-12)))
          CFI V6 load(1, XDATA, add(CFA_XSP16, literal(-11)))
          CFI V7 load(1, XDATA, add(CFA_XSP16, literal(-10)))
          CFI V8 load(1, XDATA, add(CFA_XSP16, literal(-9)))
          CFI V9 load(1, XDATA, add(CFA_XSP16, literal(-8)))
          CFI V10 load(1, XDATA, add(CFA_XSP16, literal(-7)))
          CFI R7 load(1, XDATA, add(CFA_XSP16, literal(-6)))
          CFI ?RET_LOW load(1, XDATA, add(CFA_XSP16, literal(-5)))
          CFI ?RET_HIGH load(1, XDATA, add(CFA_XSP16, literal(-4)))
          CFI ?BRET_EXT load(1, XDATA, add(CFA_XSP16, literal(-3)))
          CFI DPL0 load(1, XDATA, add(CFA_XSP16, literal(-2)))
          CFI DPH0 load(1, XDATA, add(CFA_XSP16, literal(-1)))
          CFI CFA_SP SP+-2
          CFI CFA_XSP16 add(XSP16, 19)
          CFI Block cfiCond74 Using cfiCommon0
          CFI (cfiCond74) Function afBuildMSGIncoming
          CFI (cfiCond74) Conditional ??CrossCallReturnLabel_24
          CFI (cfiCond74) R6 load(1, XDATA, add(CFA_XSP16, literal(-19)))
          CFI (cfiCond74) VB load(1, XDATA, add(CFA_XSP16, literal(-18)))
          CFI (cfiCond74) V0 load(1, XDATA, add(CFA_XSP16, literal(-17)))
          CFI (cfiCond74) V1 load(1, XDATA, add(CFA_XSP16, literal(-16)))
          CFI (cfiCond74) V2 load(1, XDATA, add(CFA_XSP16, literal(-15)))
          CFI (cfiCond74) V3 load(1, XDATA, add(CFA_XSP16, literal(-14)))
          CFI (cfiCond74) V4 load(1, XDATA, add(CFA_XSP16, literal(-13)))
          CFI (cfiCond74) V5 load(1, XDATA, add(CFA_XSP16, literal(-12)))
          CFI (cfiCond74) V6 load(1, XDATA, add(CFA_XSP16, literal(-11)))
          CFI (cfiCond74) V7 load(1, XDATA, add(CFA_XSP16, literal(-10)))
          CFI (cfiCond74) V8 load(1, XDATA, add(CFA_XSP16, literal(-9)))
          CFI (cfiCond74) V9 load(1, XDATA, add(CFA_XSP16, literal(-8)))
          CFI (cfiCond74) V10 load(1, XDATA, add(CFA_XSP16, literal(-7)))
          CFI (cfiCond74) R7 load(1, XDATA, add(CFA_XSP16, literal(-6)))
          CFI (cfiCond74) ?RET_LOW load(1, XDATA, add(CFA_XSP16, literal(-5)))
          CFI (cfiCond74) ?RET_HIGH load(1, XDATA, add(CFA_XSP16, literal(-4)))
          CFI (cfiCond74) ?BRET_EXT load(1, XDATA, add(CFA_XSP16, literal(-3)))
          CFI (cfiCond74) DPL0 load(1, XDATA, add(CFA_XSP16, literal(-2)))
          CFI (cfiCond74) DPH0 load(1, XDATA, add(CFA_XSP16, literal(-1)))
          CFI (cfiCond74) CFA_SP SP+-2
          CFI (cfiCond74) CFA_XSP16 add(XSP16, 19)
          CFI Block cfiPicker75 Using cfiCommon1
          CFI (cfiPicker75) NoFunction
          CFI (cfiPicker75) Picker
        MOV     A,R0
        MOVX    @DPTR,A
        INC     DPTR
        MOV     A,R1
        LCALL   ?Subroutine28 & 0xFFFF
??CrossCallReturnLabel_40:
        INC     DPTR
        INC     DPTR
        RET
          CFI EndBlock cfiCond73
          CFI EndBlock cfiCond74
          CFI EndBlock cfiPicker75

        RSEG BANKED_CODE:CODE:NOROOT(0)
?Subroutine28:
          CFI Block cfiCond76 Using cfiCommon0
          CFI Function afBuildMSGIncoming
          CFI Conditional ??CrossCallReturnLabel_39
          CFI R6 load(1, XDATA, add(CFA_XSP16, literal(-19)))
          CFI VB load(1, XDATA, add(CFA_XSP16, literal(-18)))
          CFI V0 load(1, XDATA, add(CFA_XSP16, literal(-17)))
          CFI V1 load(1, XDATA, add(CFA_XSP16, literal(-16)))
          CFI V2 load(1, XDATA, add(CFA_XSP16, literal(-15)))
          CFI V3 load(1, XDATA, add(CFA_XSP16, literal(-14)))
          CFI V4 load(1, XDATA, add(CFA_XSP16, literal(-13)))
          CFI V5 load(1, XDATA, add(CFA_XSP16, literal(-12)))
          CFI V6 load(1, XDATA, add(CFA_XSP16, literal(-11)))
          CFI V7 load(1, XDATA, add(CFA_XSP16, literal(-10)))
          CFI V8 load(1, XDATA, add(CFA_XSP16, literal(-9)))
          CFI V9 load(1, XDATA, add(CFA_XSP16, literal(-8)))
          CFI V10 load(1, XDATA, add(CFA_XSP16, literal(-7)))
          CFI R7 load(1, XDATA, add(CFA_XSP16, literal(-6)))
          CFI ?RET_LOW load(1, XDATA, add(CFA_XSP16, literal(-5)))
          CFI ?RET_HIGH load(1, XDATA, add(CFA_XSP16, literal(-4)))
          CFI ?BRET_EXT load(1, XDATA, add(CFA_XSP16, literal(-3)))
          CFI DPL0 load(1, XDATA, add(CFA_XSP16, literal(-2)))
          CFI DPH0 load(1, XDATA, add(CFA_XSP16, literal(-1)))
          CFI CFA_SP SP+-2
          CFI CFA_XSP16 add(XSP16, 19)
          CFI Block cfiCond77 Using cfiCommon0
          CFI (cfiCond77) Function afBuildMSGIncoming
          CFI (cfiCond77) Conditional ??CrossCallReturnLabel_40, ??CrossCallReturnLabel_23
          CFI (cfiCond77) R6 load(1, XDATA, add(CFA_XSP16, literal(-19)))
          CFI (cfiCond77) VB load(1, XDATA, add(CFA_XSP16, literal(-18)))
          CFI (cfiCond77) V0 load(1, XDATA, add(CFA_XSP16, literal(-17)))
          CFI (cfiCond77) V1 load(1, XDATA, add(CFA_XSP16, literal(-16)))
          CFI (cfiCond77) V2 load(1, XDATA, add(CFA_XSP16, literal(-15)))
          CFI (cfiCond77) V3 load(1, XDATA, add(CFA_XSP16, literal(-14)))
          CFI (cfiCond77) V4 load(1, XDATA, add(CFA_XSP16, literal(-13)))
          CFI (cfiCond77) V5 load(1, XDATA, add(CFA_XSP16, literal(-12)))
          CFI (cfiCond77) V6 load(1, XDATA, add(CFA_XSP16, literal(-11)))
          CFI (cfiCond77) V7 load(1, XDATA, add(CFA_XSP16, literal(-10)))
          CFI (cfiCond77) V8 load(1, XDATA, add(CFA_XSP16, literal(-9)))
          CFI (cfiCond77) V9 load(1, XDATA, add(CFA_XSP16, literal(-8)))
          CFI (cfiCond77) V10 load(1, XDATA, add(CFA_XSP16, literal(-7)))
          CFI (cfiCond77) R7 load(1, XDATA, add(CFA_XSP16, literal(-6)))
          CFI (cfiCond77) ?RET_LOW load(1, XDATA, add(CFA_XSP16, literal(-5)))
          CFI (cfiCond77) ?RET_HIGH load(1, XDATA, add(CFA_XSP16, literal(-4)))
          CFI (cfiCond77) ?BRET_EXT load(1, XDATA, add(CFA_XSP16, literal(-3)))
          CFI (cfiCond77) DPL0 load(1, XDATA, add(CFA_XSP16, literal(-2)))
          CFI (cfiCond77) DPH0 load(1, XDATA, add(CFA_XSP16, literal(-1)))
          CFI (cfiCond77) CFA_SP SP+-4
          CFI (cfiCond77) CFA_XSP16 add(XSP16, 19)
          CFI Block cfiCond78 Using cfiCommon0
          CFI (cfiCond78) Function afBuildMSGIncoming
          CFI (cfiCond78) Conditional ??CrossCallReturnLabel_40, ??CrossCallReturnLabel_24
          CFI (cfiCond78) R6 load(1, XDATA, add(CFA_XSP16, literal(-19)))
          CFI (cfiCond78) VB load(1, XDATA, add(CFA_XSP16, literal(-18)))
          CFI (cfiCond78) V0 load(1, XDATA, add(CFA_XSP16, literal(-17)))
          CFI (cfiCond78) V1 load(1, XDATA, add(CFA_XSP16, literal(-16)))
          CFI (cfiCond78) V2 load(1, XDATA, add(CFA_XSP16, literal(-15)))
          CFI (cfiCond78) V3 load(1, XDATA, add(CFA_XSP16, literal(-14)))
          CFI (cfiCond78) V4 load(1, XDATA, add(CFA_XSP16, literal(-13)))
          CFI (cfiCond78) V5 load(1, XDATA, add(CFA_XSP16, literal(-12)))
          CFI (cfiCond78) V6 load(1, XDATA, add(CFA_XSP16, literal(-11)))
          CFI (cfiCond78) V7 load(1, XDATA, add(CFA_XSP16, literal(-10)))
          CFI (cfiCond78) V8 load(1, XDATA, add(CFA_XSP16, literal(-9)))
          CFI (cfiCond78) V9 load(1, XDATA, add(CFA_XSP16, literal(-8)))
          CFI (cfiCond78) V10 load(1, XDATA, add(CFA_XSP16, literal(-7)))
          CFI (cfiCond78) R7 load(1, XDATA, add(CFA_XSP16, literal(-6)))
          CFI (cfiCond78) ?RET_LOW load(1, XDATA, add(CFA_XSP16, literal(-5)))
          CFI (cfiCond78) ?RET_HIGH load(1, XDATA, add(CFA_XSP16, literal(-4)))
          CFI (cfiCond78) ?BRET_EXT load(1, XDATA, add(CFA_XSP16, literal(-3)))
          CFI (cfiCond78) DPL0 load(1, XDATA, add(CFA_XSP16, literal(-2)))
          CFI (cfiCond78) DPH0 load(1, XDATA, add(CFA_XSP16, literal(-1)))
          CFI (cfiCond78) CFA_SP SP+-4
          CFI (cfiCond78) CFA_XSP16 add(XSP16, 19)
          CFI Block cfiCond79 Using cfiCommon0
          CFI (cfiCond79) Function AF_DataRequest
          CFI (cfiCond79) Conditional ??CrossCallReturnLabel_41
          CFI (cfiCond79) R6 load(1, XDATA, add(CFA_XSP16, literal(-18)))
          CFI (cfiCond79) VB load(1, XDATA, add(CFA_XSP16, literal(-17)))
          CFI (cfiCond79) V0 load(1, XDATA, add(CFA_XSP16, literal(-16)))
          CFI (cfiCond79) V1 load(1, XDATA, add(CFA_XSP16, literal(-15)))
          CFI (cfiCond79) V2 load(1, XDATA, add(CFA_XSP16, literal(-14)))
          CFI (cfiCond79) V3 load(1, XDATA, add(CFA_XSP16, literal(-13)))
          CFI (cfiCond79) V4 load(1, XDATA, add(CFA_XSP16, literal(-12)))
          CFI (cfiCond79) V5 load(1, XDATA, add(CFA_XSP16, literal(-11)))
          CFI (cfiCond79) V6 load(1, XDATA, add(CFA_XSP16, literal(-10)))
          CFI (cfiCond79) V7 load(1, XDATA, add(CFA_XSP16, literal(-9)))
          CFI (cfiCond79) V8 load(1, XDATA, add(CFA_XSP16, literal(-8)))
          CFI (cfiCond79) V9 load(1, XDATA, add(CFA_XSP16, literal(-7)))
          CFI (cfiCond79) R7 load(1, XDATA, add(CFA_XSP16, literal(-6)))
          CFI (cfiCond79) ?RET_LOW load(1, XDATA, add(CFA_XSP16, literal(-5)))
          CFI (cfiCond79) ?RET_HIGH load(1, XDATA, add(CFA_XSP16, literal(-4)))
          CFI (cfiCond79) ?BRET_EXT load(1, XDATA, add(CFA_XSP16, literal(-3)))
          CFI (cfiCond79) DPL0 load(1, XDATA, add(CFA_XSP16, literal(-2)))
          CFI (cfiCond79) DPH0 load(1, XDATA, add(CFA_XSP16, literal(-1)))
          CFI (cfiCond79) CFA_SP SP+-2
          CFI (cfiCond79) CFA_XSP16 add(XSP16, 48)
          CFI Block cfiPicker80 Using cfiCommon1
          CFI (cfiPicker80) NoFunction
          CFI (cfiPicker80) Picker
        MOVX    @DPTR,A
        MOV     DPL,?V0
        MOV     DPH,?V1
        RET
          CFI EndBlock cfiCond76
          CFI EndBlock cfiCond77
          CFI EndBlock cfiCond78
          CFI EndBlock cfiCond79
          CFI EndBlock cfiPicker80

        RSEG BANKED_CODE:CODE:NOROOT(0)
?Subroutine15:
          CFI Block cfiCond81 Using cfiCommon0
          CFI Function afBuildMSGIncoming
          CFI Conditional ??CrossCallReturnLabel_16
          CFI R6 load(1, XDATA, add(CFA_XSP16, literal(-19)))
          CFI VB load(1, XDATA, add(CFA_XSP16, literal(-18)))
          CFI V0 load(1, XDATA, add(CFA_XSP16, literal(-17)))
          CFI V1 load(1, XDATA, add(CFA_XSP16, literal(-16)))
          CFI V2 load(1, XDATA, add(CFA_XSP16, literal(-15)))
          CFI V3 load(1, XDATA, add(CFA_XSP16, literal(-14)))
          CFI V4 load(1, XDATA, add(CFA_XSP16, literal(-13)))
          CFI V5 load(1, XDATA, add(CFA_XSP16, literal(-12)))
          CFI V6 load(1, XDATA, add(CFA_XSP16, literal(-11)))
          CFI V7 load(1, XDATA, add(CFA_XSP16, literal(-10)))
          CFI V8 load(1, XDATA, add(CFA_XSP16, literal(-9)))
          CFI V9 load(1, XDATA, add(CFA_XSP16, literal(-8)))
          CFI V10 load(1, XDATA, add(CFA_XSP16, literal(-7)))
          CFI R7 load(1, XDATA, add(CFA_XSP16, literal(-6)))
          CFI ?RET_LOW load(1, XDATA, add(CFA_XSP16, literal(-5)))
          CFI ?RET_HIGH load(1, XDATA, add(CFA_XSP16, literal(-4)))
          CFI ?BRET_EXT load(1, XDATA, add(CFA_XSP16, literal(-3)))
          CFI DPL0 load(1, XDATA, add(CFA_XSP16, literal(-2)))
          CFI DPH0 load(1, XDATA, add(CFA_XSP16, literal(-1)))
          CFI CFA_SP SP+-2
          CFI CFA_XSP16 add(XSP16, 19)
          CFI Block cfiCond82 Using cfiCommon0
          CFI (cfiCond82) Function afBuildMSGIncoming
          CFI (cfiCond82) Conditional ??CrossCallReturnLabel_17
          CFI (cfiCond82) R6 load(1, XDATA, add(CFA_XSP16, literal(-19)))
          CFI (cfiCond82) VB load(1, XDATA, add(CFA_XSP16, literal(-18)))
          CFI (cfiCond82) V0 load(1, XDATA, add(CFA_XSP16, literal(-17)))
          CFI (cfiCond82) V1 load(1, XDATA, add(CFA_XSP16, literal(-16)))
          CFI (cfiCond82) V2 load(1, XDATA, add(CFA_XSP16, literal(-15)))
          CFI (cfiCond82) V3 load(1, XDATA, add(CFA_XSP16, literal(-14)))
          CFI (cfiCond82) V4 load(1, XDATA, add(CFA_XSP16, literal(-13)))
          CFI (cfiCond82) V5 load(1, XDATA, add(CFA_XSP16, literal(-12)))
          CFI (cfiCond82) V6 load(1, XDATA, add(CFA_XSP16, literal(-11)))
          CFI (cfiCond82) V7 load(1, XDATA, add(CFA_XSP16, literal(-10)))
          CFI (cfiCond82) V8 load(1, XDATA, add(CFA_XSP16, literal(-9)))
          CFI (cfiCond82) V9 load(1, XDATA, add(CFA_XSP16, literal(-8)))
          CFI (cfiCond82) V10 load(1, XDATA, add(CFA_XSP16, literal(-7)))
          CFI (cfiCond82) R7 load(1, XDATA, add(CFA_XSP16, literal(-6)))
          CFI (cfiCond82) ?RET_LOW load(1, XDATA, add(CFA_XSP16, literal(-5)))
          CFI (cfiCond82) ?RET_HIGH load(1, XDATA, add(CFA_XSP16, literal(-4)))
          CFI (cfiCond82) ?BRET_EXT load(1, XDATA, add(CFA_XSP16, literal(-3)))
          CFI (cfiCond82) DPL0 load(1, XDATA, add(CFA_XSP16, literal(-2)))
          CFI (cfiCond82) DPH0 load(1, XDATA, add(CFA_XSP16, literal(-1)))
          CFI (cfiCond82) CFA_SP SP+-2
          CFI (cfiCond82) CFA_XSP16 add(XSP16, 19)
          CFI Block cfiCond83 Using cfiCommon0
          CFI (cfiCond83) Function afBuildMSGIncoming
          CFI (cfiCond83) Conditional ??CrossCallReturnLabel_18
          CFI (cfiCond83) R6 load(1, XDATA, add(CFA_XSP16, literal(-19)))
          CFI (cfiCond83) VB load(1, XDATA, add(CFA_XSP16, literal(-18)))
          CFI (cfiCond83) V0 load(1, XDATA, add(CFA_XSP16, literal(-17)))
          CFI (cfiCond83) V1 load(1, XDATA, add(CFA_XSP16, literal(-16)))
          CFI (cfiCond83) V2 load(1, XDATA, add(CFA_XSP16, literal(-15)))
          CFI (cfiCond83) V3 load(1, XDATA, add(CFA_XSP16, literal(-14)))
          CFI (cfiCond83) V4 load(1, XDATA, add(CFA_XSP16, literal(-13)))
          CFI (cfiCond83) V5 load(1, XDATA, add(CFA_XSP16, literal(-12)))
          CFI (cfiCond83) V6 load(1, XDATA, add(CFA_XSP16, literal(-11)))
          CFI (cfiCond83) V7 load(1, XDATA, add(CFA_XSP16, literal(-10)))
          CFI (cfiCond83) V8 load(1, XDATA, add(CFA_XSP16, literal(-9)))
          CFI (cfiCond83) V9 load(1, XDATA, add(CFA_XSP16, literal(-8)))
          CFI (cfiCond83) V10 load(1, XDATA, add(CFA_XSP16, literal(-7)))
          CFI (cfiCond83) R7 load(1, XDATA, add(CFA_XSP16, literal(-6)))
          CFI (cfiCond83) ?RET_LOW load(1, XDATA, add(CFA_XSP16, literal(-5)))
          CFI (cfiCond83) ?RET_HIGH load(1, XDATA, add(CFA_XSP16, literal(-4)))
          CFI (cfiCond83) ?BRET_EXT load(1, XDATA, add(CFA_XSP16, literal(-3)))
          CFI (cfiCond83) DPL0 load(1, XDATA, add(CFA_XSP16, literal(-2)))
          CFI (cfiCond83) DPH0 load(1, XDATA, add(CFA_XSP16, literal(-1)))
          CFI (cfiCond83) CFA_SP SP+-2
          CFI (cfiCond83) CFA_XSP16 add(XSP16, 19)
          CFI Block cfiPicker84 Using cfiCommon1
          CFI (cfiPicker84) NoFunction
          CFI (cfiPicker84) Picker
        LCALL   ?Subroutine32 & 0xFFFF
??CrossCallReturnLabel_89:
        MOV     A,R6
        RET
          CFI EndBlock cfiCond81
          CFI EndBlock cfiCond82
          CFI EndBlock cfiCond83
          CFI EndBlock cfiPicker84

        RSEG BANKED_CODE:CODE:NOROOT(0)
?Subroutine6:
          CFI Block cfiCond85 Using cfiCommon0
          CFI Function afBuildMSGIncoming
          CFI Conditional ??CrossCallReturnLabel_0
          CFI R6 load(1, XDATA, add(CFA_XSP16, literal(-19)))
          CFI VB load(1, XDATA, add(CFA_XSP16, literal(-18)))
          CFI V0 load(1, XDATA, add(CFA_XSP16, literal(-17)))
          CFI V1 load(1, XDATA, add(CFA_XSP16, literal(-16)))
          CFI V2 load(1, XDATA, add(CFA_XSP16, literal(-15)))
          CFI V3 load(1, XDATA, add(CFA_XSP16, literal(-14)))
          CFI V4 load(1, XDATA, add(CFA_XSP16, literal(-13)))
          CFI V5 load(1, XDATA, add(CFA_XSP16, literal(-12)))
          CFI V6 load(1, XDATA, add(CFA_XSP16, literal(-11)))
          CFI V7 load(1, XDATA, add(CFA_XSP16, literal(-10)))
          CFI V8 load(1, XDATA, add(CFA_XSP16, literal(-9)))
          CFI V9 load(1, XDATA, add(CFA_XSP16, literal(-8)))
          CFI V10 load(1, XDATA, add(CFA_XSP16, literal(-7)))
          CFI R7 load(1, XDATA, add(CFA_XSP16, literal(-6)))
          CFI ?RET_LOW load(1, XDATA, add(CFA_XSP16, literal(-5)))
          CFI ?RET_HIGH load(1, XDATA, add(CFA_XSP16, literal(-4)))
          CFI ?BRET_EXT load(1, XDATA, add(CFA_XSP16, literal(-3)))
          CFI DPL0 load(1, XDATA, add(CFA_XSP16, literal(-2)))
          CFI DPH0 load(1, XDATA, add(CFA_XSP16, literal(-1)))
          CFI CFA_SP SP+-2
          CFI CFA_XSP16 add(XSP16, 19)
          CFI Block cfiCond86 Using cfiCommon0
          CFI (cfiCond86) Function afBuildMSGIncoming
          CFI (cfiCond86) Conditional ??CrossCallReturnLabel_1
          CFI (cfiCond86) R6 load(1, XDATA, add(CFA_XSP16, literal(-19)))
          CFI (cfiCond86) VB load(1, XDATA, add(CFA_XSP16, literal(-18)))
          CFI (cfiCond86) V0 load(1, XDATA, add(CFA_XSP16, literal(-17)))
          CFI (cfiCond86) V1 load(1, XDATA, add(CFA_XSP16, literal(-16)))
          CFI (cfiCond86) V2 load(1, XDATA, add(CFA_XSP16, literal(-15)))
          CFI (cfiCond86) V3 load(1, XDATA, add(CFA_XSP16, literal(-14)))
          CFI (cfiCond86) V4 load(1, XDATA, add(CFA_XSP16, literal(-13)))
          CFI (cfiCond86) V5 load(1, XDATA, add(CFA_XSP16, literal(-12)))
          CFI (cfiCond86) V6 load(1, XDATA, add(CFA_XSP16, literal(-11)))
          CFI (cfiCond86) V7 load(1, XDATA, add(CFA_XSP16, literal(-10)))
          CFI (cfiCond86) V8 load(1, XDATA, add(CFA_XSP16, literal(-9)))
          CFI (cfiCond86) V9 load(1, XDATA, add(CFA_XSP16, literal(-8)))
          CFI (cfiCond86) V10 load(1, XDATA, add(CFA_XSP16, literal(-7)))
          CFI (cfiCond86) R7 load(1, XDATA, add(CFA_XSP16, literal(-6)))
          CFI (cfiCond86) ?RET_LOW load(1, XDATA, add(CFA_XSP16, literal(-5)))
          CFI (cfiCond86) ?RET_HIGH load(1, XDATA, add(CFA_XSP16, literal(-4)))
          CFI (cfiCond86) ?BRET_EXT load(1, XDATA, add(CFA_XSP16, literal(-3)))
          CFI (cfiCond86) DPL0 load(1, XDATA, add(CFA_XSP16, literal(-2)))
          CFI (cfiCond86) DPH0 load(1, XDATA, add(CFA_XSP16, literal(-1)))
          CFI (cfiCond86) CFA_SP SP+-2
          CFI (cfiCond86) CFA_XSP16 add(XSP16, 19)
          CFI Block cfiPicker87 Using cfiCommon1
          CFI (cfiPicker87) NoFunction
          CFI (cfiPicker87) Picker
        INC     DPTR
        INC     DPTR
        INC     DPTR
        INC     DPTR
        LCALL   ?Subroutine32 & 0xFFFF
??CrossCallReturnLabel_86:
        MOV     DPL,R6
        MOV     DPH,R7
        INC     DPTR
        INC     DPTR
        RET
          CFI EndBlock cfiCond85
          CFI EndBlock cfiCond86
          CFI EndBlock cfiPicker87

        RSEG BANKED_CODE:CODE:NOROOT(0)
?Subroutine4:
          CFI Block cfiCond88 Using cfiCommon0
          CFI Function afIncomingData
          CFI Conditional ??CrossCallReturnLabel_65
          CFI R6 load(1, XDATA, add(CFA_XSP16, literal(-24)))
          CFI VB load(1, XDATA, add(CFA_XSP16, literal(-23)))
          CFI V0 load(1, XDATA, add(CFA_XSP16, literal(-22)))
          CFI V1 load(1, XDATA, add(CFA_XSP16, literal(-21)))
          CFI V2 load(1, XDATA, add(CFA_XSP16, literal(-20)))
          CFI V3 load(1, XDATA, add(CFA_XSP16, literal(-19)))
          CFI V4 load(1, XDATA, add(CFA_XSP16, literal(-18)))
          CFI V5 load(1, XDATA, add(CFA_XSP16, literal(-17)))
          CFI V6 load(1, XDATA, add(CFA_XSP16, literal(-16)))
          CFI V7 load(1, XDATA, add(CFA_XSP16, literal(-15)))
          CFI V8 load(1, XDATA, add(CFA_XSP16, literal(-14)))
          CFI V9 load(1, XDATA, add(CFA_XSP16, literal(-13)))
          CFI V10 load(1, XDATA, add(CFA_XSP16, literal(-12)))
          CFI V11 load(1, XDATA, add(CFA_XSP16, literal(-11)))
          CFI V12 load(1, XDATA, add(CFA_XSP16, literal(-10)))
          CFI V13 load(1, XDATA, add(CFA_XSP16, literal(-9)))
          CFI V14 load(1, XDATA, add(CFA_XSP16, literal(-8)))
          CFI V15 load(1, XDATA, add(CFA_XSP16, literal(-7)))
          CFI R7 load(1, XDATA, add(CFA_XSP16, literal(-6)))
          CFI ?RET_LOW load(1, XDATA, add(CFA_XSP16, literal(-5)))
          CFI ?RET_HIGH load(1, XDATA, add(CFA_XSP16, literal(-4)))
          CFI ?BRET_EXT load(1, XDATA, add(CFA_XSP16, literal(-3)))
          CFI DPL0 load(1, XDATA, add(CFA_XSP16, literal(-2)))
          CFI DPH0 load(1, XDATA, add(CFA_XSP16, literal(-1)))
          CFI CFA_SP SP+-2
          CFI CFA_XSP16 add(XSP16, 28)
          CFI Block cfiCond89 Using cfiCommon0
          CFI (cfiCond89) Function AF_DataRequest
          CFI (cfiCond89) Conditional ??CrossCallReturnLabel_66
          CFI (cfiCond89) R6 load(1, XDATA, add(CFA_XSP16, literal(-18)))
          CFI (cfiCond89) VB load(1, XDATA, add(CFA_XSP16, literal(-17)))
          CFI (cfiCond89) V0 load(1, XDATA, add(CFA_XSP16, literal(-16)))
          CFI (cfiCond89) V1 load(1, XDATA, add(CFA_XSP16, literal(-15)))
          CFI (cfiCond89) V2 load(1, XDATA, add(CFA_XSP16, literal(-14)))
          CFI (cfiCond89) V3 load(1, XDATA, add(CFA_XSP16, literal(-13)))
          CFI (cfiCond89) V4 load(1, XDATA, add(CFA_XSP16, literal(-12)))
          CFI (cfiCond89) V5 load(1, XDATA, add(CFA_XSP16, literal(-11)))
          CFI (cfiCond89) V6 load(1, XDATA, add(CFA_XSP16, literal(-10)))
          CFI (cfiCond89) V7 load(1, XDATA, add(CFA_XSP16, literal(-9)))
          CFI (cfiCond89) V8 load(1, XDATA, add(CFA_XSP16, literal(-8)))
          CFI (cfiCond89) V9 load(1, XDATA, add(CFA_XSP16, literal(-7)))
          CFI (cfiCond89) R7 load(1, XDATA, add(CFA_XSP16, literal(-6)))
          CFI (cfiCond89) ?RET_LOW load(1, XDATA, add(CFA_XSP16, literal(-5)))
          CFI (cfiCond89) ?RET_HIGH load(1, XDATA, add(CFA_XSP16, literal(-4)))
          CFI (cfiCond89) ?BRET_EXT load(1, XDATA, add(CFA_XSP16, literal(-3)))
          CFI (cfiCond89) DPL0 load(1, XDATA, add(CFA_XSP16, literal(-2)))
          CFI (cfiCond89) DPH0 load(1, XDATA, add(CFA_XSP16, literal(-1)))
          CFI (cfiCond89) CFA_SP SP+-2
          CFI (cfiCond89) CFA_XSP16 add(XSP16, 48)
          CFI Block cfiPicker90 Using cfiCommon1
          CFI (cfiPicker90) NoFunction
          CFI (cfiPicker90) Picker
        INC     DPTR
          CFI EndBlock cfiCond88
          CFI EndBlock cfiCond89
          CFI EndBlock cfiPicker90
        REQUIRE ??Subroutine36_0
        ; // Fall through to label ??Subroutine36_0

        RSEG BANKED_CODE:CODE:NOROOT(0)
??Subroutine36_0:
          CFI Block cfiCond91 Using cfiCommon0
          CFI Function afIncomingData
          CFI Conditional ??CrossCallReturnLabel_63
          CFI R6 load(1, XDATA, add(CFA_XSP16, literal(-24)))
          CFI VB load(1, XDATA, add(CFA_XSP16, literal(-23)))
          CFI V0 load(1, XDATA, add(CFA_XSP16, literal(-22)))
          CFI V1 load(1, XDATA, add(CFA_XSP16, literal(-21)))
          CFI V2 load(1, XDATA, add(CFA_XSP16, literal(-20)))
          CFI V3 load(1, XDATA, add(CFA_XSP16, literal(-19)))
          CFI V4 load(1, XDATA, add(CFA_XSP16, literal(-18)))
          CFI V5 load(1, XDATA, add(CFA_XSP16, literal(-17)))
          CFI V6 load(1, XDATA, add(CFA_XSP16, literal(-16)))
          CFI V7 load(1, XDATA, add(CFA_XSP16, literal(-15)))
          CFI V8 load(1, XDATA, add(CFA_XSP16, literal(-14)))
          CFI V9 load(1, XDATA, add(CFA_XSP16, literal(-13)))
          CFI V10 load(1, XDATA, add(CFA_XSP16, literal(-12)))
          CFI V11 load(1, XDATA, add(CFA_XSP16, literal(-11)))
          CFI V12 load(1, XDATA, add(CFA_XSP16, literal(-10)))
          CFI V13 load(1, XDATA, add(CFA_XSP16, literal(-9)))
          CFI V14 load(1, XDATA, add(CFA_XSP16, literal(-8)))
          CFI V15 load(1, XDATA, add(CFA_XSP16, literal(-7)))
          CFI R7 load(1, XDATA, add(CFA_XSP16, literal(-6)))
          CFI ?RET_LOW load(1, XDATA, add(CFA_XSP16, literal(-5)))
          CFI ?RET_HIGH load(1, XDATA, add(CFA_XSP16, literal(-4)))
          CFI ?BRET_EXT load(1, XDATA, add(CFA_XSP16, literal(-3)))
          CFI DPL0 load(1, XDATA, add(CFA_XSP16, literal(-2)))
          CFI DPH0 load(1, XDATA, add(CFA_XSP16, literal(-1)))
          CFI CFA_SP SP+-2
          CFI CFA_XSP16 add(XSP16, 28)
          CFI Block cfiCond92 Using cfiCommon0
          CFI (cfiCond92) Function AF_DataRequest
          CFI (cfiCond92) Conditional ??CrossCallReturnLabel_64
          CFI (cfiCond92) R6 load(1, XDATA, add(CFA_XSP16, literal(-18)))
          CFI (cfiCond92) VB load(1, XDATA, add(CFA_XSP16, literal(-17)))
          CFI (cfiCond92) V0 load(1, XDATA, add(CFA_XSP16, literal(-16)))
          CFI (cfiCond92) V1 load(1, XDATA, add(CFA_XSP16, literal(-15)))
          CFI (cfiCond92) V2 load(1, XDATA, add(CFA_XSP16, literal(-14)))
          CFI (cfiCond92) V3 load(1, XDATA, add(CFA_XSP16, literal(-13)))
          CFI (cfiCond92) V4 load(1, XDATA, add(CFA_XSP16, literal(-12)))
          CFI (cfiCond92) V5 load(1, XDATA, add(CFA_XSP16, literal(-11)))
          CFI (cfiCond92) V6 load(1, XDATA, add(CFA_XSP16, literal(-10)))
          CFI (cfiCond92) V7 load(1, XDATA, add(CFA_XSP16, literal(-9)))
          CFI (cfiCond92) V8 load(1, XDATA, add(CFA_XSP16, literal(-8)))
          CFI (cfiCond92) V9 load(1, XDATA, add(CFA_XSP16, literal(-7)))
          CFI (cfiCond92) R7 load(1, XDATA, add(CFA_XSP16, literal(-6)))
          CFI (cfiCond92) ?RET_LOW load(1, XDATA, add(CFA_XSP16, literal(-5)))
          CFI (cfiCond92) ?RET_HIGH load(1, XDATA, add(CFA_XSP16, literal(-4)))
          CFI (cfiCond92) ?BRET_EXT load(1, XDATA, add(CFA_XSP16, literal(-3)))
          CFI (cfiCond92) DPL0 load(1, XDATA, add(CFA_XSP16, literal(-2)))
          CFI (cfiCond92) DPH0 load(1, XDATA, add(CFA_XSP16, literal(-1)))
          CFI (cfiCond92) CFA_SP SP+-2
          CFI (cfiCond92) CFA_XSP16 add(XSP16, 48)
          CFI Block cfiCond93 Using cfiCommon0
          CFI (cfiCond93) Function afIncomingData
          CFI (cfiCond93) Conditional ??CrossCallReturnLabel_65
          CFI (cfiCond93) R6 load(1, XDATA, add(CFA_XSP16, literal(-24)))
          CFI (cfiCond93) VB load(1, XDATA, add(CFA_XSP16, literal(-23)))
          CFI (cfiCond93) V0 load(1, XDATA, add(CFA_XSP16, literal(-22)))
          CFI (cfiCond93) V1 load(1, XDATA, add(CFA_XSP16, literal(-21)))
          CFI (cfiCond93) V2 load(1, XDATA, add(CFA_XSP16, literal(-20)))
          CFI (cfiCond93) V3 load(1, XDATA, add(CFA_XSP16, literal(-19)))
          CFI (cfiCond93) V4 load(1, XDATA, add(CFA_XSP16, literal(-18)))
          CFI (cfiCond93) V5 load(1, XDATA, add(CFA_XSP16, literal(-17)))
          CFI (cfiCond93) V6 load(1, XDATA, add(CFA_XSP16, literal(-16)))
          CFI (cfiCond93) V7 load(1, XDATA, add(CFA_XSP16, literal(-15)))
          CFI (cfiCond93) V8 load(1, XDATA, add(CFA_XSP16, literal(-14)))
          CFI (cfiCond93) V9 load(1, XDATA, add(CFA_XSP16, literal(-13)))
          CFI (cfiCond93) V10 load(1, XDATA, add(CFA_XSP16, literal(-12)))
          CFI (cfiCond93) V11 load(1, XDATA, add(CFA_XSP16, literal(-11)))
          CFI (cfiCond93) V12 load(1, XDATA, add(CFA_XSP16, literal(-10)))
          CFI (cfiCond93) V13 load(1, XDATA, add(CFA_XSP16, literal(-9)))
          CFI (cfiCond93) V14 load(1, XDATA, add(CFA_XSP16, literal(-8)))
          CFI (cfiCond93) V15 load(1, XDATA, add(CFA_XSP16, literal(-7)))
          CFI (cfiCond93) R7 load(1, XDATA, add(CFA_XSP16, literal(-6)))
          CFI (cfiCond93) ?RET_LOW load(1, XDATA, add(CFA_XSP16, literal(-5)))
          CFI (cfiCond93) ?RET_HIGH load(1, XDATA, add(CFA_XSP16, literal(-4)))
          CFI (cfiCond93) ?BRET_EXT load(1, XDATA, add(CFA_XSP16, literal(-3)))
          CFI (cfiCond93) DPL0 load(1, XDATA, add(CFA_XSP16, literal(-2)))
          CFI (cfiCond93) DPH0 load(1, XDATA, add(CFA_XSP16, literal(-1)))
          CFI (cfiCond93) CFA_SP SP+-2
          CFI (cfiCond93) CFA_XSP16 add(XSP16, 28)
          CFI Block cfiCond94 Using cfiCommon0
          CFI (cfiCond94) Function AF_DataRequest
          CFI (cfiCond94) Conditional ??CrossCallReturnLabel_66
          CFI (cfiCond94) R6 load(1, XDATA, add(CFA_XSP16, literal(-18)))
          CFI (cfiCond94) VB load(1, XDATA, add(CFA_XSP16, literal(-17)))
          CFI (cfiCond94) V0 load(1, XDATA, add(CFA_XSP16, literal(-16)))
          CFI (cfiCond94) V1 load(1, XDATA, add(CFA_XSP16, literal(-15)))
          CFI (cfiCond94) V2 load(1, XDATA, add(CFA_XSP16, literal(-14)))
          CFI (cfiCond94) V3 load(1, XDATA, add(CFA_XSP16, literal(-13)))
          CFI (cfiCond94) V4 load(1, XDATA, add(CFA_XSP16, literal(-12)))
          CFI (cfiCond94) V5 load(1, XDATA, add(CFA_XSP16, literal(-11)))
          CFI (cfiCond94) V6 load(1, XDATA, add(CFA_XSP16, literal(-10)))
          CFI (cfiCond94) V7 load(1, XDATA, add(CFA_XSP16, literal(-9)))
          CFI (cfiCond94) V8 load(1, XDATA, add(CFA_XSP16, literal(-8)))
          CFI (cfiCond94) V9 load(1, XDATA, add(CFA_XSP16, literal(-7)))
          CFI (cfiCond94) R7 load(1, XDATA, add(CFA_XSP16, literal(-6)))
          CFI (cfiCond94) ?RET_LOW load(1, XDATA, add(CFA_XSP16, literal(-5)))
          CFI (cfiCond94) ?RET_HIGH load(1, XDATA, add(CFA_XSP16, literal(-4)))
          CFI (cfiCond94) ?BRET_EXT load(1, XDATA, add(CFA_XSP16, literal(-3)))
          CFI (cfiCond94) DPL0 load(1, XDATA, add(CFA_XSP16, literal(-2)))
          CFI (cfiCond94) DPH0 load(1, XDATA, add(CFA_XSP16, literal(-1)))
          CFI (cfiCond94) CFA_SP SP+-2
          CFI (cfiCond94) CFA_XSP16 add(XSP16, 48)
          CFI Block cfiPicker95 Using cfiCommon1
          CFI (cfiPicker95) NoFunction
          CFI (cfiPicker95) Picker
        INC     DPTR
        INC     DPTR
        INC     DPTR
          CFI EndBlock cfiCond91
          CFI EndBlock cfiCond92
          CFI EndBlock cfiCond93
          CFI EndBlock cfiCond94
          CFI EndBlock cfiPicker95
        REQUIRE ??Subroutine37_0
        ; // Fall through to label ??Subroutine37_0

        RSEG BANKED_CODE:CODE:NOROOT(0)
??Subroutine37_0:
          CFI Block cfiCond96 Using cfiCommon0
          CFI Function afDelete
          CFI Conditional ??CrossCallReturnLabel_59
          CFI R6 load(1, XDATA, add(CFA_XSP16, literal(-9)))
          CFI VB load(1, XDATA, add(CFA_XSP16, literal(-8)))
          CFI V0 load(1, XDATA, add(CFA_XSP16, literal(-7)))
          CFI R7 load(1, XDATA, add(CFA_XSP16, literal(-6)))
          CFI ?RET_LOW load(1, XDATA, add(CFA_XSP16, literal(-5)))
          CFI ?RET_HIGH load(1, XDATA, add(CFA_XSP16, literal(-4)))
          CFI ?BRET_EXT load(1, XDATA, add(CFA_XSP16, literal(-3)))
          CFI DPL0 load(1, XDATA, add(CFA_XSP16, literal(-2)))
          CFI DPH0 load(1, XDATA, add(CFA_XSP16, literal(-1)))
          CFI CFA_SP SP+-2
          CFI CFA_XSP16 add(XSP16, 9)
          CFI Block cfiCond97 Using cfiCommon0
          CFI (cfiCond97) Function afIncomingData
          CFI (cfiCond97) Conditional ??CrossCallReturnLabel_60
          CFI (cfiCond97) R6 load(1, XDATA, add(CFA_XSP16, literal(-24)))
          CFI (cfiCond97) VB load(1, XDATA, add(CFA_XSP16, literal(-23)))
          CFI (cfiCond97) V0 load(1, XDATA, add(CFA_XSP16, literal(-22)))
          CFI (cfiCond97) V1 load(1, XDATA, add(CFA_XSP16, literal(-21)))
          CFI (cfiCond97) V2 load(1, XDATA, add(CFA_XSP16, literal(-20)))
          CFI (cfiCond97) V3 load(1, XDATA, add(CFA_XSP16, literal(-19)))
          CFI (cfiCond97) V4 load(1, XDATA, add(CFA_XSP16, literal(-18)))
          CFI (cfiCond97) V5 load(1, XDATA, add(CFA_XSP16, literal(-17)))
          CFI (cfiCond97) V6 load(1, XDATA, add(CFA_XSP16, literal(-16)))
          CFI (cfiCond97) V7 load(1, XDATA, add(CFA_XSP16, literal(-15)))
          CFI (cfiCond97) V8 load(1, XDATA, add(CFA_XSP16, literal(-14)))
          CFI (cfiCond97) V9 load(1, XDATA, add(CFA_XSP16, literal(-13)))
          CFI (cfiCond97) V10 load(1, XDATA, add(CFA_XSP16, literal(-12)))
          CFI (cfiCond97) V11 load(1, XDATA, add(CFA_XSP16, literal(-11)))
          CFI (cfiCond97) V12 load(1, XDATA, add(CFA_XSP16, literal(-10)))
          CFI (cfiCond97) V13 load(1, XDATA, add(CFA_XSP16, literal(-9)))
          CFI (cfiCond97) V14 load(1, XDATA, add(CFA_XSP16, literal(-8)))
          CFI (cfiCond97) V15 load(1, XDATA, add(CFA_XSP16, literal(-7)))
          CFI (cfiCond97) R7 load(1, XDATA, add(CFA_XSP16, literal(-6)))
          CFI (cfiCond97) ?RET_LOW load(1, XDATA, add(CFA_XSP16, literal(-5)))
          CFI (cfiCond97) ?RET_HIGH load(1, XDATA, add(CFA_XSP16, literal(-4)))
          CFI (cfiCond97) ?BRET_EXT load(1, XDATA, add(CFA_XSP16, literal(-3)))
          CFI (cfiCond97) DPL0 load(1, XDATA, add(CFA_XSP16, literal(-2)))
          CFI (cfiCond97) DPH0 load(1, XDATA, add(CFA_XSP16, literal(-1)))
          CFI (cfiCond97) CFA_SP SP+-2
          CFI (cfiCond97) CFA_XSP16 add(XSP16, 28)
          CFI Block cfiCond98 Using cfiCommon0
          CFI (cfiCond98) Function afBuildMSGIncoming
          CFI (cfiCond98) Conditional ??CrossCallReturnLabel_61
          CFI (cfiCond98) R6 load(1, XDATA, add(CFA_XSP16, literal(-19)))
          CFI (cfiCond98) VB load(1, XDATA, add(CFA_XSP16, literal(-18)))
          CFI (cfiCond98) V0 load(1, XDATA, add(CFA_XSP16, literal(-17)))
          CFI (cfiCond98) V1 load(1, XDATA, add(CFA_XSP16, literal(-16)))
          CFI (cfiCond98) V2 load(1, XDATA, add(CFA_XSP16, literal(-15)))
          CFI (cfiCond98) V3 load(1, XDATA, add(CFA_XSP16, literal(-14)))
          CFI (cfiCond98) V4 load(1, XDATA, add(CFA_XSP16, literal(-13)))
          CFI (cfiCond98) V5 load(1, XDATA, add(CFA_XSP16, literal(-12)))
          CFI (cfiCond98) V6 load(1, XDATA, add(CFA_XSP16, literal(-11)))
          CFI (cfiCond98) V7 load(1, XDATA, add(CFA_XSP16, literal(-10)))
          CFI (cfiCond98) V8 load(1, XDATA, add(CFA_XSP16, literal(-9)))
          CFI (cfiCond98) V9 load(1, XDATA, add(CFA_XSP16, literal(-8)))
          CFI (cfiCond98) V10 load(1, XDATA, add(CFA_XSP16, literal(-7)))
          CFI (cfiCond98) R7 load(1, XDATA, add(CFA_XSP16, literal(-6)))
          CFI (cfiCond98) ?RET_LOW load(1, XDATA, add(CFA_XSP16, literal(-5)))
          CFI (cfiCond98) ?RET_HIGH load(1, XDATA, add(CFA_XSP16, literal(-4)))
          CFI (cfiCond98) ?BRET_EXT load(1, XDATA, add(CFA_XSP16, literal(-3)))
          CFI (cfiCond98) DPL0 load(1, XDATA, add(CFA_XSP16, literal(-2)))
          CFI (cfiCond98) DPH0 load(1, XDATA, add(CFA_XSP16, literal(-1)))
          CFI (cfiCond98) CFA_SP SP+-2
          CFI (cfiCond98) CFA_XSP16 add(XSP16, 19)
          CFI Block cfiCond99 Using cfiCommon0
          CFI (cfiCond99) Function AF_DataRequest
          CFI (cfiCond99) Conditional ??CrossCallReturnLabel_58
          CFI (cfiCond99) R6 load(1, XDATA, add(CFA_XSP16, literal(-18)))
          CFI (cfiCond99) VB load(1, XDATA, add(CFA_XSP16, literal(-17)))
          CFI (cfiCond99) V0 load(1, XDATA, add(CFA_XSP16, literal(-16)))
          CFI (cfiCond99) V1 load(1, XDATA, add(CFA_XSP16, literal(-15)))
          CFI (cfiCond99) V2 load(1, XDATA, add(CFA_XSP16, literal(-14)))
          CFI (cfiCond99) V3 load(1, XDATA, add(CFA_XSP16, literal(-13)))
          CFI (cfiCond99) V4 load(1, XDATA, add(CFA_XSP16, literal(-12)))
          CFI (cfiCond99) V5 load(1, XDATA, add(CFA_XSP16, literal(-11)))
          CFI (cfiCond99) V6 load(1, XDATA, add(CFA_XSP16, literal(-10)))
          CFI (cfiCond99) V7 load(1, XDATA, add(CFA_XSP16, literal(-9)))
          CFI (cfiCond99) V8 load(1, XDATA, add(CFA_XSP16, literal(-8)))
          CFI (cfiCond99) V9 load(1, XDATA, add(CFA_XSP16, literal(-7)))
          CFI (cfiCond99) R7 load(1, XDATA, add(CFA_XSP16, literal(-6)))
          CFI (cfiCond99) ?RET_LOW load(1, XDATA, add(CFA_XSP16, literal(-5)))
          CFI (cfiCond99) ?RET_HIGH load(1, XDATA, add(CFA_XSP16, literal(-4)))
          CFI (cfiCond99) ?BRET_EXT load(1, XDATA, add(CFA_XSP16, literal(-3)))
          CFI (cfiCond99) DPL0 load(1, XDATA, add(CFA_XSP16, literal(-2)))
          CFI (cfiCond99) DPH0 load(1, XDATA, add(CFA_XSP16, literal(-1)))
          CFI (cfiCond99) CFA_SP SP+-2
          CFI (cfiCond99) CFA_XSP16 add(XSP16, 48)
          CFI Block cfiCond100 Using cfiCommon0
          CFI (cfiCond100) Function AF_DataRequest
          CFI (cfiCond100) Conditional ??CrossCallReturnLabel_62
          CFI (cfiCond100) R6 load(1, XDATA, add(CFA_XSP16, literal(-18)))
          CFI (cfiCond100) VB load(1, XDATA, add(CFA_XSP16, literal(-17)))
          CFI (cfiCond100) V0 load(1, XDATA, add(CFA_XSP16, literal(-16)))
          CFI (cfiCond100) V1 load(1, XDATA, add(CFA_XSP16, literal(-15)))
          CFI (cfiCond100) V2 load(1, XDATA, add(CFA_XSP16, literal(-14)))
          CFI (cfiCond100) V3 load(1, XDATA, add(CFA_XSP16, literal(-13)))
          CFI (cfiCond100) V4 load(1, XDATA, add(CFA_XSP16, literal(-12)))
          CFI (cfiCond100) V5 load(1, XDATA, add(CFA_XSP16, literal(-11)))
          CFI (cfiCond100) V6 load(1, XDATA, add(CFA_XSP16, literal(-10)))
          CFI (cfiCond100) V7 load(1, XDATA, add(CFA_XSP16, literal(-9)))
          CFI (cfiCond100) V8 load(1, XDATA, add(CFA_XSP16, literal(-8)))
          CFI (cfiCond100) V9 load(1, XDATA, add(CFA_XSP16, literal(-7)))
          CFI (cfiCond100) R7 load(1, XDATA, add(CFA_XSP16, literal(-6)))
          CFI (cfiCond100) ?RET_LOW load(1, XDATA, add(CFA_XSP16, literal(-5)))
          CFI (cfiCond100) ?RET_HIGH load(1, XDATA, add(CFA_XSP16, literal(-4)))
          CFI (cfiCond100) ?BRET_EXT load(1, XDATA, add(CFA_XSP16, literal(-3)))
          CFI (cfiCond100) DPL0 load(1, XDATA, add(CFA_XSP16, literal(-2)))
          CFI (cfiCond100) DPH0 load(1, XDATA, add(CFA_XSP16, literal(-1)))
          CFI (cfiCond100) CFA_SP SP+-2
          CFI (cfiCond100) CFA_XSP16 add(XSP16, 48)
          CFI Block cfiCond101 Using cfiCommon0
          CFI (cfiCond101) Function afIncomingData
          CFI (cfiCond101) Conditional ??CrossCallReturnLabel_63
          CFI (cfiCond101) R6 load(1, XDATA, add(CFA_XSP16, literal(-24)))
          CFI (cfiCond101) VB load(1, XDATA, add(CFA_XSP16, literal(-23)))
          CFI (cfiCond101) V0 load(1, XDATA, add(CFA_XSP16, literal(-22)))
          CFI (cfiCond101) V1 load(1, XDATA, add(CFA_XSP16, literal(-21)))
          CFI (cfiCond101) V2 load(1, XDATA, add(CFA_XSP16, literal(-20)))
          CFI (cfiCond101) V3 load(1, XDATA, add(CFA_XSP16, literal(-19)))
          CFI (cfiCond101) V4 load(1, XDATA, add(CFA_XSP16, literal(-18)))
          CFI (cfiCond101) V5 load(1, XDATA, add(CFA_XSP16, literal(-17)))
          CFI (cfiCond101) V6 load(1, XDATA, add(CFA_XSP16, literal(-16)))
          CFI (cfiCond101) V7 load(1, XDATA, add(CFA_XSP16, literal(-15)))
          CFI (cfiCond101) V8 load(1, XDATA, add(CFA_XSP16, literal(-14)))
          CFI (cfiCond101) V9 load(1, XDATA, add(CFA_XSP16, literal(-13)))
          CFI (cfiCond101) V10 load(1, XDATA, add(CFA_XSP16, literal(-12)))
          CFI (cfiCond101) V11 load(1, XDATA, add(CFA_XSP16, literal(-11)))
          CFI (cfiCond101) V12 load(1, XDATA, add(CFA_XSP16, literal(-10)))
          CFI (cfiCond101) V13 load(1, XDATA, add(CFA_XSP16, literal(-9)))
          CFI (cfiCond101) V14 load(1, XDATA, add(CFA_XSP16, literal(-8)))
          CFI (cfiCond101) V15 load(1, XDATA, add(CFA_XSP16, literal(-7)))
          CFI (cfiCond101) R7 load(1, XDATA, add(CFA_XSP16, literal(-6)))
          CFI (cfiCond101) ?RET_LOW load(1, XDATA, add(CFA_XSP16, literal(-5)))
          CFI (cfiCond101) ?RET_HIGH load(1, XDATA, add(CFA_XSP16, literal(-4)))
          CFI (cfiCond101) ?BRET_EXT load(1, XDATA, add(CFA_XSP16, literal(-3)))
          CFI (cfiCond101) DPL0 load(1, XDATA, add(CFA_XSP16, literal(-2)))
          CFI (cfiCond101) DPH0 load(1, XDATA, add(CFA_XSP16, literal(-1)))
          CFI (cfiCond101) CFA_SP SP+-2
          CFI (cfiCond101) CFA_XSP16 add(XSP16, 28)
          CFI Block cfiCond102 Using cfiCommon0
          CFI (cfiCond102) Function AF_DataRequest
          CFI (cfiCond102) Conditional ??CrossCallReturnLabel_64
          CFI (cfiCond102) R6 load(1, XDATA, add(CFA_XSP16, literal(-18)))
          CFI (cfiCond102) VB load(1, XDATA, add(CFA_XSP16, literal(-17)))
          CFI (cfiCond102) V0 load(1, XDATA, add(CFA_XSP16, literal(-16)))
          CFI (cfiCond102) V1 load(1, XDATA, add(CFA_XSP16, literal(-15)))
          CFI (cfiCond102) V2 load(1, XDATA, add(CFA_XSP16, literal(-14)))
          CFI (cfiCond102) V3 load(1, XDATA, add(CFA_XSP16, literal(-13)))
          CFI (cfiCond102) V4 load(1, XDATA, add(CFA_XSP16, literal(-12)))
          CFI (cfiCond102) V5 load(1, XDATA, add(CFA_XSP16, literal(-11)))
          CFI (cfiCond102) V6 load(1, XDATA, add(CFA_XSP16, literal(-10)))
          CFI (cfiCond102) V7 load(1, XDATA, add(CFA_XSP16, literal(-9)))
          CFI (cfiCond102) V8 load(1, XDATA, add(CFA_XSP16, literal(-8)))
          CFI (cfiCond102) V9 load(1, XDATA, add(CFA_XSP16, literal(-7)))
          CFI (cfiCond102) R7 load(1, XDATA, add(CFA_XSP16, literal(-6)))
          CFI (cfiCond102) ?RET_LOW load(1, XDATA, add(CFA_XSP16, literal(-5)))
          CFI (cfiCond102) ?RET_HIGH load(1, XDATA, add(CFA_XSP16, literal(-4)))
          CFI (cfiCond102) ?BRET_EXT load(1, XDATA, add(CFA_XSP16, literal(-3)))
          CFI (cfiCond102) DPL0 load(1, XDATA, add(CFA_XSP16, literal(-2)))
          CFI (cfiCond102) DPH0 load(1, XDATA, add(CFA_XSP16, literal(-1)))
          CFI (cfiCond102) CFA_SP SP+-2
          CFI (cfiCond102) CFA_XSP16 add(XSP16, 48)
          CFI Block cfiCond103 Using cfiCommon0
          CFI (cfiCond103) Function afIncomingData
          CFI (cfiCond103) Conditional ??CrossCallReturnLabel_65
          CFI (cfiCond103) R6 load(1, XDATA, add(CFA_XSP16, literal(-24)))
          CFI (cfiCond103) VB load(1, XDATA, add(CFA_XSP16, literal(-23)))
          CFI (cfiCond103) V0 load(1, XDATA, add(CFA_XSP16, literal(-22)))
          CFI (cfiCond103) V1 load(1, XDATA, add(CFA_XSP16, literal(-21)))
          CFI (cfiCond103) V2 load(1, XDATA, add(CFA_XSP16, literal(-20)))
          CFI (cfiCond103) V3 load(1, XDATA, add(CFA_XSP16, literal(-19)))
          CFI (cfiCond103) V4 load(1, XDATA, add(CFA_XSP16, literal(-18)))
          CFI (cfiCond103) V5 load(1, XDATA, add(CFA_XSP16, literal(-17)))
          CFI (cfiCond103) V6 load(1, XDATA, add(CFA_XSP16, literal(-16)))
          CFI (cfiCond103) V7 load(1, XDATA, add(CFA_XSP16, literal(-15)))
          CFI (cfiCond103) V8 load(1, XDATA, add(CFA_XSP16, literal(-14)))
          CFI (cfiCond103) V9 load(1, XDATA, add(CFA_XSP16, literal(-13)))
          CFI (cfiCond103) V10 load(1, XDATA, add(CFA_XSP16, literal(-12)))
          CFI (cfiCond103) V11 load(1, XDATA, add(CFA_XSP16, literal(-11)))
          CFI (cfiCond103) V12 load(1, XDATA, add(CFA_XSP16, literal(-10)))
          CFI (cfiCond103) V13 load(1, XDATA, add(CFA_XSP16, literal(-9)))
          CFI (cfiCond103) V14 load(1, XDATA, add(CFA_XSP16, literal(-8)))
          CFI (cfiCond103) V15 load(1, XDATA, add(CFA_XSP16, literal(-7)))
          CFI (cfiCond103) R7 load(1, XDATA, add(CFA_XSP16, literal(-6)))
          CFI (cfiCond103) ?RET_LOW load(1, XDATA, add(CFA_XSP16, literal(-5)))
          CFI (cfiCond103) ?RET_HIGH load(1, XDATA, add(CFA_XSP16, literal(-4)))
          CFI (cfiCond103) ?BRET_EXT load(1, XDATA, add(CFA_XSP16, literal(-3)))
          CFI (cfiCond103) DPL0 load(1, XDATA, add(CFA_XSP16, literal(-2)))
          CFI (cfiCond103) DPH0 load(1, XDATA, add(CFA_XSP16, literal(-1)))
          CFI (cfiCond103) CFA_SP SP+-2
          CFI (cfiCond103) CFA_XSP16 add(XSP16, 28)
          CFI Block cfiCond104 Using cfiCommon0
          CFI (cfiCond104) Function AF_DataRequest
          CFI (cfiCond104) Conditional ??CrossCallReturnLabel_66
          CFI (cfiCond104) R6 load(1, XDATA, add(CFA_XSP16, literal(-18)))
          CFI (cfiCond104) VB load(1, XDATA, add(CFA_XSP16, literal(-17)))
          CFI (cfiCond104) V0 load(1, XDATA, add(CFA_XSP16, literal(-16)))
          CFI (cfiCond104) V1 load(1, XDATA, add(CFA_XSP16, literal(-15)))
          CFI (cfiCond104) V2 load(1, XDATA, add(CFA_XSP16, literal(-14)))
          CFI (cfiCond104) V3 load(1, XDATA, add(CFA_XSP16, literal(-13)))
          CFI (cfiCond104) V4 load(1, XDATA, add(CFA_XSP16, literal(-12)))
          CFI (cfiCond104) V5 load(1, XDATA, add(CFA_XSP16, literal(-11)))
          CFI (cfiCond104) V6 load(1, XDATA, add(CFA_XSP16, literal(-10)))
          CFI (cfiCond104) V7 load(1, XDATA, add(CFA_XSP16, literal(-9)))
          CFI (cfiCond104) V8 load(1, XDATA, add(CFA_XSP16, literal(-8)))
          CFI (cfiCond104) V9 load(1, XDATA, add(CFA_XSP16, literal(-7)))
          CFI (cfiCond104) R7 load(1, XDATA, add(CFA_XSP16, literal(-6)))
          CFI (cfiCond104) ?RET_LOW load(1, XDATA, add(CFA_XSP16, literal(-5)))
          CFI (cfiCond104) ?RET_HIGH load(1, XDATA, add(CFA_XSP16, literal(-4)))
          CFI (cfiCond104) ?BRET_EXT load(1, XDATA, add(CFA_XSP16, literal(-3)))
          CFI (cfiCond104) DPL0 load(1, XDATA, add(CFA_XSP16, literal(-2)))
          CFI (cfiCond104) DPH0 load(1, XDATA, add(CFA_XSP16, literal(-1)))
          CFI (cfiCond104) CFA_SP SP+-2
          CFI (cfiCond104) CFA_XSP16 add(XSP16, 48)
          CFI Block cfiPicker105 Using cfiCommon1
          CFI (cfiPicker105) NoFunction
          CFI (cfiPicker105) Picker
        LCALL   ?Subroutine32 & 0xFFFF
??CrossCallReturnLabel_90:
        MOV     A,R0
        ORL     A,R1
        RET
          CFI EndBlock cfiCond96
          CFI EndBlock cfiCond97
          CFI EndBlock cfiCond98
          CFI EndBlock cfiCond99
          CFI EndBlock cfiCond100
          CFI EndBlock cfiCond101
          CFI EndBlock cfiCond102
          CFI EndBlock cfiCond103
          CFI EndBlock cfiCond104
          CFI EndBlock cfiPicker105
//  536 
//  537 /*********************************************************************
//  538  * @fn      AF_DataRequest
//  539  *
//  540  * @brief   Common functionality for invoking APSDE_DataReq() for both
//  541  *          SendMulti and MSG-Send.
//  542  *
//  543  * input parameters
//  544  *
//  545  * @param  *dstAddr - Full ZB destination address: Nwk Addr + End Point.
//  546  * @param  *srcEP - Origination (i.e. respond to or ack to) End Point Descr.
//  547  * @param   cID - A valid cluster ID as specified by the Profile.
//  548  * @param   len - Number of bytes of data pointed to by next param.
//  549  * @param  *buf - A pointer to the data bytes to send.
//  550  * @param  *transID - A pointer to a byte which can be modified and which will
//  551  *                    be used as the transaction sequence number of the msg.
//  552  * @param   options - Valid bit mask of Tx options.
//  553  * @param   radius - Normally set to AF_DEFAULT_RADIUS.
//  554  *
//  555  * output parameters
//  556  *
//  557  * @param  *transID - Incremented by one if the return value is success.
//  558  *
//  559  * @return  afStatus_t - See previous definition of afStatus_... types.
//  560  */

        RSEG XDATA_I:XDATA:NOROOT(0)
//  561 uint8 AF_DataRequestDiscoverRoute = DISC_ROUTE_NETWORK;
AF_DataRequestDiscoverRoute:
        DATA8
        DS 1
        REQUIRE `?<Initializer for AF_DataRequestDiscoverRoute>`
        REQUIRE __INIT_XDATA_I

        RSEG BANKED_CODE:CODE:NOROOT(0)
//  562 afStatus_t AF_DataRequest( afAddrType_t *dstAddr, endPointDesc_t *srcEP,
AF_DataRequest:
          CFI Block cfiBlock106 Using cfiCommon0
          CFI Function AF_DataRequest
        CODE
//  563                            uint16 cID, uint16 len, uint8 *buf, uint8 *transID,
//  564                            uint8 options, uint8 radius )
//  565 {
        FUNCALL AF_DataRequest, NLME_GetShortAddr
        LOCFRAME ISTACK, 0, STACK
        LOCFRAME PSTACK, 0, STACK
        LOCFRAME XSTACK, 48, STACK
        LOCFRAME IOVERLAY, 0, STATIC
        LOCFRAME DOVERLAY, 0, STATIC
        ARGFRAME ISTACK, 0, STACK
        ARGFRAME PSTACK, 0, STACK
        ARGFRAME XSTACK, 48, STACK
        ARGFRAME IOVERLAY, 0, STATIC
        ARGFRAME DOVERLAY, 0, STATIC
        FUNCALL AF_DataRequest, RTG_CheckRtStatus
        LOCFRAME ISTACK, 0, STACK
        LOCFRAME PSTACK, 0, STACK
        LOCFRAME XSTACK, 48, STACK
        LOCFRAME IOVERLAY, 0, STATIC
        LOCFRAME DOVERLAY, 0, STATIC
        ARGFRAME ISTACK, 0, STACK
        ARGFRAME PSTACK, 0, STACK
        ARGFRAME XSTACK, 48, STACK
        ARGFRAME IOVERLAY, 0, STATIC
        ARGFRAME DOVERLAY, 0, STATIC
        FUNCALL AF_DataRequest, NLME_IsAddressBroadcast
        LOCFRAME ISTACK, 0, STACK
        LOCFRAME PSTACK, 0, STACK
        LOCFRAME XSTACK, 48, STACK
        LOCFRAME IOVERLAY, 0, STATIC
        LOCFRAME DOVERLAY, 0, STATIC
        ARGFRAME ISTACK, 0, STACK
        ARGFRAME PSTACK, 0, STACK
        ARGFRAME XSTACK, 48, STACK
        ARGFRAME IOVERLAY, 0, STATIC
        ARGFRAME DOVERLAY, 0, STATIC
        FUNCALL AF_DataRequest, sAddrExtCpy
        LOCFRAME ISTACK, 0, STACK
        LOCFRAME PSTACK, 0, STACK
        LOCFRAME XSTACK, 48, STACK
        LOCFRAME IOVERLAY, 0, STATIC
        LOCFRAME DOVERLAY, 0, STATIC
        ARGFRAME ISTACK, 0, STACK
        ARGFRAME PSTACK, 0, STACK
        ARGFRAME XSTACK, 48, STACK
        ARGFRAME IOVERLAY, 0, STATIC
        ARGFRAME DOVERLAY, 0, STATIC
        FUNCALL AF_DataRequest, osal_mem_free
        LOCFRAME ISTACK, 0, STACK
        LOCFRAME PSTACK, 0, STACK
        LOCFRAME XSTACK, 48, STACK
        LOCFRAME IOVERLAY, 0, STATIC
        LOCFRAME DOVERLAY, 0, STATIC
        ARGFRAME ISTACK, 0, STACK
        ARGFRAME PSTACK, 0, STACK
        ARGFRAME XSTACK, 48, STACK
        ARGFRAME IOVERLAY, 0, STATIC
        ARGFRAME DOVERLAY, 0, STATIC
        FUNCALL AF_DataRequest, afFindEndPointDescList
        LOCFRAME ISTACK, 0, STACK
        LOCFRAME PSTACK, 0, STACK
        LOCFRAME XSTACK, 48, STACK
        LOCFRAME IOVERLAY, 0, STATIC
        LOCFRAME DOVERLAY, 0, STATIC
        ARGFRAME ISTACK, 0, STACK
        ARGFRAME PSTACK, 0, STACK
        ARGFRAME XSTACK, 48, STACK
        ARGFRAME IOVERLAY, 0, STATIC
        ARGFRAME DOVERLAY, 0, STATIC
        FUNCALL AF_DataRequest, StubAPS_InterPan
        LOCFRAME ISTACK, 0, STACK
        LOCFRAME PSTACK, 0, STACK
        LOCFRAME XSTACK, 48, STACK
        LOCFRAME IOVERLAY, 0, STATIC
        LOCFRAME DOVERLAY, 0, STATIC
        ARGFRAME ISTACK, 0, STACK
        ARGFRAME PSTACK, 0, STACK
        ARGFRAME XSTACK, 48, STACK
        ARGFRAME IOVERLAY, 0, STATIC
        ARGFRAME DOVERLAY, 0, STATIC
        FUNCALL AF_DataRequest, INTERP_DataReqMTU
        LOCFRAME ISTACK, 0, STACK
        LOCFRAME PSTACK, 0, STACK
        LOCFRAME XSTACK, 48, STACK
        LOCFRAME IOVERLAY, 0, STATIC
        LOCFRAME DOVERLAY, 0, STATIC
        ARGFRAME ISTACK, 0, STACK
        ARGFRAME PSTACK, 0, STACK
        ARGFRAME XSTACK, 48, STACK
        ARGFRAME IOVERLAY, 0, STATIC
        ARGFRAME DOVERLAY, 0, STATIC
        FUNCALL AF_DataRequest, INTERP_DataReq
        LOCFRAME ISTACK, 0, STACK
        LOCFRAME PSTACK, 0, STACK
        LOCFRAME XSTACK, 48, STACK
        LOCFRAME IOVERLAY, 0, STATIC
        LOCFRAME DOVERLAY, 0, STATIC
        ARGFRAME ISTACK, 0, STACK
        ARGFRAME PSTACK, 0, STACK
        ARGFRAME XSTACK, 48, STACK
        ARGFRAME IOVERLAY, 0, STATIC
        ARGFRAME DOVERLAY, 0, STATIC
        FUNCALL AF_DataRequest, afDataReqMTU
        LOCFRAME ISTACK, 0, STACK
        LOCFRAME PSTACK, 0, STACK
        LOCFRAME XSTACK, 48, STACK
        LOCFRAME IOVERLAY, 0, STATIC
        LOCFRAME DOVERLAY, 0, STATIC
        ARGFRAME ISTACK, 0, STACK
        ARGFRAME PSTACK, 0, STACK
        ARGFRAME XSTACK, 48, STACK
        ARGFRAME IOVERLAY, 0, STATIC
        ARGFRAME DOVERLAY, 0, STATIC
        FUNCALL AF_DataRequest, APSDE_DataReq
        LOCFRAME ISTACK, 0, STACK
        LOCFRAME PSTACK, 0, STACK
        LOCFRAME XSTACK, 48, STACK
        LOCFRAME IOVERLAY, 0, STATIC
        LOCFRAME DOVERLAY, 0, STATIC
        ARGFRAME ISTACK, 0, STACK
        ARGFRAME PSTACK, 0, STACK
        ARGFRAME XSTACK, 48, STACK
        ARGFRAME IOVERLAY, 0, STATIC
        ARGFRAME DOVERLAY, 0, STATIC
        FUNCALL AF_DataRequest, NLME_GetShortAddr
        LOCFRAME ISTACK, 0, STACK
        LOCFRAME PSTACK, 0, STACK
        LOCFRAME XSTACK, 48, STACK
        LOCFRAME IOVERLAY, 0, STATIC
        LOCFRAME DOVERLAY, 0, STATIC
        ARGFRAME ISTACK, 0, STACK
        ARGFRAME PSTACK, 0, STACK
        ARGFRAME XSTACK, 48, STACK
        ARGFRAME IOVERLAY, 0, STATIC
        ARGFRAME DOVERLAY, 0, STATIC
        FUNCALL AF_DataRequest, afDataConfirm
        LOCFRAME ISTACK, 0, STACK
        LOCFRAME PSTACK, 0, STACK
        LOCFRAME XSTACK, 48, STACK
        LOCFRAME IOVERLAY, 0, STATIC
        LOCFRAME DOVERLAY, 0, STATIC
        ARGFRAME ISTACK, 0, STACK
        ARGFRAME PSTACK, 0, STACK
        ARGFRAME XSTACK, 48, STACK
        ARGFRAME IOVERLAY, 0, STATIC
        ARGFRAME DOVERLAY, 0, STATIC
        REQUIRE ?V0
        REQUIRE ?V1
        REQUIRE ?V2
        REQUIRE ?V4
        REQUIRE ?V5
        REQUIRE ?V6
        REQUIRE ?V7
        REQUIRE ?V8
        REQUIRE ?V9
        MOV     A,#-0x12
        LCALL   ?BANKED_ENTER_XDATA
          CFI DPH0 load(1, XDATA, add(CFA_XSP16, literal(-1)))
          CFI DPL0 load(1, XDATA, add(CFA_XSP16, literal(-2)))
          CFI ?BRET_EXT load(1, XDATA, add(CFA_XSP16, literal(-3)))
          CFI ?RET_HIGH load(1, XDATA, add(CFA_XSP16, literal(-4)))
          CFI ?RET_LOW load(1, XDATA, add(CFA_XSP16, literal(-5)))
          CFI R7 load(1, XDATA, add(CFA_XSP16, literal(-6)))
          CFI V9 load(1, XDATA, add(CFA_XSP16, literal(-7)))
          CFI V8 load(1, XDATA, add(CFA_XSP16, literal(-8)))
          CFI V7 load(1, XDATA, add(CFA_XSP16, literal(-9)))
          CFI V6 load(1, XDATA, add(CFA_XSP16, literal(-10)))
          CFI V5 load(1, XDATA, add(CFA_XSP16, literal(-11)))
          CFI V4 load(1, XDATA, add(CFA_XSP16, literal(-12)))
          CFI V3 load(1, XDATA, add(CFA_XSP16, literal(-13)))
          CFI V2 load(1, XDATA, add(CFA_XSP16, literal(-14)))
          CFI V1 load(1, XDATA, add(CFA_XSP16, literal(-15)))
          CFI V0 load(1, XDATA, add(CFA_XSP16, literal(-16)))
          CFI VB load(1, XDATA, add(CFA_XSP16, literal(-17)))
          CFI R6 load(1, XDATA, add(CFA_XSP16, literal(-18)))
          CFI CFA_SP SP+0
          CFI CFA_XSP16 add(XSP16, 18)
        ; Saved register size: 18
        ; Auto size: 30
        MOV     A,#-0x1e
        LCALL   ?ALLOC_XSTACK8
          CFI CFA_XSP16 add(XSP16, 48)
        MOV     A,R2
        MOV     R6,A
        MOV     A,R3
        MOV     R7,A
        MOV     ?V0,R4
        MOV     ?V1,R5
        MOV     ?V2,R1
//  566   pDescCB pfnDescCB;
//  567   ZStatus_t stat;
//  568   APSDE_DataReq_t req;
//  569   afDataReqMTU_t mtu;
//  570   epList_t *pList;
//  571 
//  572   // Verify source end point
//  573   if ( srcEP == NULL )
        MOV     A,R4
        ORL     A,?V1
        JNZ     $+5
        LJMP    ??AF_DataRequest_0 & 0xFFFF
//  574   {
//  575     return afStatus_INVALID_PARAMETER;
//  576   }
//  577 
//  578 #if !defined( REFLECTOR )
//  579   if ( dstAddr->addrMode == afAddrNotPresent )
//  580   {
//  581     return afStatus_INVALID_PARAMETER;
//  582   }
//  583 #endif
//  584 
//  585   // Check if route is available before sending data
//  586   if ( options & AF_LIMIT_CONCENTRATOR  )
        MOV     A,R1
        MOV     C,0xE0 /* A   */.3
        JNC     ??AF_DataRequest_1
//  587   {
//  588     if ( dstAddr->addrMode != afAddr16Bit )
        MOV     DPL,R6
        MOV     DPH,R7
        INC     DPTR
        INC     DPTR
        INC     DPTR
        INC     DPTR
        INC     DPTR
        INC     DPTR
        INC     DPTR
        INC     DPTR
        MOVX    A,@DPTR
        XRL     A,#0x2
        JZ      $+5
        LJMP    ??AF_DataRequest_0 & 0xFFFF
//  589     {
//  590       return ( afStatus_INVALID_PARAMETER );
//  591     }
//  592 
//  593     // First, make sure the destination is not its self, then check for an existing route.
//  594     if ( (dstAddr->addr.shortAddr != NLME_GetShortAddr())
//  595         && (RTG_CheckRtStatus( dstAddr->addr.shortAddr, RT_ACTIVE, (MTO_ROUTE | NO_ROUTE_CACHE) ) != RTG_SUCCESS) )
        ; Setup parameters for call to function NLME_GetShortAddr
        LCALL   `??NLME_GetShortAddr::?relay`; Banked call to: NLME_GetShortAddr
        MOV     ?V4,R2
        MOV     ?V5,R3
        MOV     R0,?V4
        MOV     R1,?V5
        MOV     DPL,R6
        MOV     DPH,R7
        MOVX    A,@DPTR
        XRL     A,R0
        JNZ     ??AF_DataRequest_2
        INC     DPTR
        MOVX    A,@DPTR
        XRL     A,R1
??AF_DataRequest_2:
        JZ      ??AF_DataRequest_1
        ; Setup parameters for call to function RTG_CheckRtStatus
        MOV     R4,#0x3
        MOV     R1,#0x1
        MOV     DPL,R6
        MOV     DPH,R7
        LCALL   ??Subroutine47_0 & 0xFFFF
??CrossCallReturnLabel_105:
        LCALL   `??RTG_CheckRtStatus::?relay`; Banked call to: RTG_CheckRtStatus
        MOV     A,R1
        JZ      ??AF_DataRequest_1
//  596     {
//  597       // A valid route to a concentrator wasn't found
//  598       return ( afStatus_NO_ROUTE );
        MOV     R1,#-0x33
        LJMP    ??AF_DataRequest_3 & 0xFFFF
//  599     }
//  600   }
//  601 
//  602   // Validate broadcasting
//  603   if ( ( dstAddr->addrMode == afAddr16Bit     ) ||
//  604        ( dstAddr->addrMode == afAddrBroadcast )    )
??AF_DataRequest_1:
        MOV     DPL,R6
        MOV     DPH,R7
        INC     DPTR
        INC     DPTR
        INC     DPTR
        INC     DPTR
        INC     DPTR
        INC     DPTR
        INC     DPTR
        INC     DPTR
        MOVX    A,@DPTR
        XRL     A,#0x2
        JZ      ??AF_DataRequest_4
        MOV     DPL,R6
        MOV     DPH,R7
        INC     DPTR
        INC     DPTR
        INC     DPTR
        INC     DPTR
        INC     DPTR
        INC     DPTR
        INC     DPTR
        INC     DPTR
        MOVX    A,@DPTR
        XRL     A,#0xf
        JNZ     ??AF_DataRequest_5
//  605   {
//  606     // Check for valid broadcast values
//  607     if( ADDR_NOT_BCAST != NLME_IsAddressBroadcast( dstAddr->addr.shortAddr )  )
??AF_DataRequest_4:
        ; Setup parameters for call to function NLME_IsAddressBroadcast
        MOV     DPL,R6
        MOV     DPH,R7
        LCALL   ??Subroutine47_0 & 0xFFFF
??CrossCallReturnLabel_106:
        LCALL   `??NLME_IsAddressBroadcast::?relay`; Banked call to: NLME_IsAddressBroadcast
        MOV     A,R1
        MOV     DPL,R6
        MOV     DPH,R7
        INC     DPTR
        INC     DPTR
        INC     DPTR
        INC     DPTR
        INC     DPTR
        INC     DPTR
        INC     DPTR
        INC     DPTR
        JZ      ??AF_DataRequest_6
//  608     {
//  609       // Force mode to broadcast
//  610       dstAddr->addrMode = afAddrBroadcast;
        MOV     A,#0xf
        MOVX    @DPTR,A
//  611     }
//  612     else
//  613     {
//  614       // Address is not a valid broadcast type
//  615       if ( dstAddr->addrMode == afAddrBroadcast )
//  616       {
//  617         return afStatus_INVALID_PARAMETER;
//  618       }
//  619     }
//  620   }
//  621   else if ( dstAddr->addrMode != afAddr64Bit &&
//  622             dstAddr->addrMode != afAddrGroup &&
//  623             dstAddr->addrMode != afAddrNotPresent )
//  624   {
//  625     return afStatus_INVALID_PARAMETER;
//  626   }
//  627 
//  628   // Set destination address
//  629   req.dstAddr.addrMode = dstAddr->addrMode;
??AF_DataRequest_7:
        MOV     A,R6
        ADD     A,#0x8
        MOV     R0,A
        CLR     A
        ADDC    A,R7
        MOV     R1,A
        MOV     DPL,R0
        MOV     DPH,R1
        MOVX    A,@DPTR
        PUSH    A
          CFI CFA_SP SP+-1
        MOV     A,#0xa
        LCALL   ?XSTACK_DISP0_8
        POP     A
          CFI CFA_SP SP+0
        LCALL   ?Subroutine25 & 0xFFFF
//  630   if ( dstAddr->addrMode == afAddr64Bit )
??CrossCallReturnLabel_33:
        JNZ     ??AF_DataRequest_8
//  631   {
//  632     osal_cpyExtAddr( req.dstAddr.addr.extAddr, dstAddr->addr.extAddr );
        ; Setup parameters for call to function sAddrExtCpy
        MOV     A,R6
        MOV     R4,A
        MOV     A,R7
        MOV     R5,A
        MOV     A,#0x2
        LCALL   ?XSTACK_DISP101_8
        LCALL   `??sAddrExtCpy::?relay`; Banked call to: sAddrExtCpy
        SJMP    ??CrossCallReturnLabel_70
//  633   }
??AF_DataRequest_6:
        MOVX    A,@DPTR
        XRL     A,#0xf
        JNZ     ??AF_DataRequest_7
        SJMP    ??AF_DataRequest_0
??AF_DataRequest_5:
        MOV     DPL,R6
        MOV     DPH,R7
        INC     DPTR
        INC     DPTR
        INC     DPTR
        INC     DPTR
        INC     DPTR
        INC     DPTR
        INC     DPTR
        INC     DPTR
        MOVX    A,@DPTR
        XRL     A,#0x3
        JZ      ??AF_DataRequest_7
        MOV     DPL,R6
        MOV     DPH,R7
        INC     DPTR
        INC     DPTR
        INC     DPTR
        INC     DPTR
        INC     DPTR
        INC     DPTR
        INC     DPTR
        INC     DPTR
        MOVX    A,@DPTR
        XRL     A,#0x1
        JZ      ??AF_DataRequest_7
        MOV     DPL,R6
        MOV     DPH,R7
        INC     DPTR
        INC     DPTR
        INC     DPTR
        INC     DPTR
        INC     DPTR
        INC     DPTR
        INC     DPTR
        INC     DPTR
        MOVX    A,@DPTR
        JZ      ??AF_DataRequest_7
??AF_DataRequest_0:
        MOV     R1,#0x2
        LJMP    ??AF_DataRequest_3 & 0xFFFF
//  634   else
//  635   {
//  636     req.dstAddr.addr.shortAddr = dstAddr->addr.shortAddr;
??AF_DataRequest_8:
        MOV     DPL,R6
        MOV     DPH,R7
        LCALL   ??Subroutine40_0 & 0xFFFF
//  637   }
??CrossCallReturnLabel_79:
        MOV     A,#0x2
        LCALL   ?XSTACK_DISP0_8
        LCALL   ??Subroutine38_0 & 0xFFFF
//  638 
//  639   // This option is to use Wildcard ProfileID in outgoing packets
//  640   if ( options & AF_WILDCARD_PROFILEID )
??CrossCallReturnLabel_70:
        MOV     A,?V2
        MOV     C,0xE0 /* A   */.1
        MOV     A,#0x11
        JNC     ??AF_DataRequest_9
//  641   {
//  642     req.profileID = ZDO_WILDCARD_PROFILE_ID;
        LCALL   ?XSTACK_DISP0_8
        MOV     A,#-0x1
        MOVX    @DPTR,A
        INC     DPTR
        SJMP    ??AF_DataRequest_10
//  643   }
//  644   else
//  645   {
//  646     req.profileID = ZDO_PROFILE_ID;
??AF_DataRequest_9:
        LCALL   ?XSTACK_DISP0_8
        CLR     A
        MOVX    @DPTR,A
        INC     DPTR
        MOVX    @DPTR,A
//  647 
//  648     if ( (pfnDescCB = afGetDescCB( srcEP )) )
        MOV     DPTR,#epList
??AF_DataRequest_11:
        LCALL   ??Subroutine37_0 & 0xFFFF
??CrossCallReturnLabel_58:
        JZ      ??AF_DataRequest_12
        MOV     DPL,R0
        MOV     DPH,R1
        LCALL   ??Subroutine46_0 & 0xFFFF
??CrossCallReturnLabel_109:
        MOV     A,?V0
        XRL     A,R2
        JNZ     ??AF_DataRequest_13
        MOV     A,?V1
        XRL     A,R3
??AF_DataRequest_13:
        MOV     DPL,R0
        MOV     DPH,R1
        JNZ     ??AF_DataRequest_11
        LCALL   ?Subroutine16 & 0xFFFF
??CrossCallReturnLabel_84:
        MOV     A,R0
        MOV     R4,A
        MOV     A,R1
        MOV     R5,A
        MOV     A,R4
        ORL     A,R5
        JZ      ??AF_DataRequest_12
//  649     {
//  650       uint16 *pID = (uint16 *)(pfnDescCB(
//  651                                    AF_DESCRIPTOR_PROFILE_ID, srcEP->endPoint ));
        ; Setup parameters for indirect call
        MOV     DPL,?V0
        MOV     DPH,?V1
        MOVX    A,@DPTR
        MOV     R2,A
        MOV     R1,#0x2
        MOV     DPL,R4
        MOV     DPH,R5
        LCALL   ?CALL_IND
//  652       if ( pID )
        MOV     A,R2
        ORL     A,R3
        JZ      ??AF_DataRequest_14
//  653       {
//  654         req.profileID = *pID;
        MOV     DPL,R2
        MOV     DPH,R3
        LCALL   ??Subroutine40_0 & 0xFFFF
??CrossCallReturnLabel_80:
        MOV     A,#0x11
        LCALL   ?XSTACK_DISP0_8
        LCALL   ??Subroutine38_0 & 0xFFFF
//  655         osal_mem_free( pID );
??CrossCallReturnLabel_71:
        ; Setup parameters for call to function osal_mem_free
        LCALL   `??osal_mem_free::?relay`; Banked call to: osal_mem_free
        SJMP    ??AF_DataRequest_14
//  656       }
//  657     }
//  658     else if ( srcEP->simpleDesc )
??AF_DataRequest_12:
        MOV     DPL,?V0
        MOV     DPH,?V1
        LCALL   ??Subroutine36_0 & 0xFFFF
??CrossCallReturnLabel_64:
        JZ      ??AF_DataRequest_14
//  659     {
//  660       req.profileID = srcEP->simpleDesc->AppProfId;
        MOV     DPL,?V0
        MOV     DPH,?V1
        INC     DPTR
        INC     DPTR
        INC     DPTR
        LCALL   ??Subroutine43_0 & 0xFFFF
//  661     }
//  662   }
??CrossCallReturnLabel_98:
        LCALL   ??Subroutine39_0 & 0xFFFF
??CrossCallReturnLabel_83:
        MOV     A,#0x11
        LCALL   ?XSTACK_DISP0_8
        MOV     A,R0
        MOVX    @DPTR,A
        INC     DPTR
        MOV     A,R1
??AF_DataRequest_10:
        MOVX    @DPTR,A
//  663 
//  664   req.txOptions = 0;
??AF_DataRequest_14:
        MOV     A,#0x17
        LCALL   ?XSTACK_DISP0_8
        CLR     A
        MOVX    @DPTR,A
        INC     DPTR
        MOVX    @DPTR,A
//  665 
//  666   if ( ( options & AF_ACK_REQUEST              ) &&
//  667        ( req.dstAddr.addrMode != AddrBroadcast ) &&
//  668        ( req.dstAddr.addrMode != AddrGroup     )    )
        MOV     A,?V2
        MOV     C,0xE0 /* A   */.4
        JNC     ??AF_DataRequest_15
        MOV     A,#0xa
        LCALL   ?XSTACK_DISP0_8
        MOVX    A,@DPTR
        XRL     A,#0xf
        JZ      ??AF_DataRequest_15
        MOVX    A,@DPTR
        XRL     A,#0x1
        JZ      ??AF_DataRequest_15
//  669   {
//  670     req.txOptions |=  APS_TX_OPTIONS_ACK;
        MOV     A,#0x17
        LCALL   ?XSTACK_DISP0_8
        MOV     A,#0x4
        MOVX    @DPTR,A
        INC     DPTR
        CLR     A
        MOVX    @DPTR,A
//  671   }
//  672 
//  673   if ( options & AF_SKIP_ROUTING )
??AF_DataRequest_15:
        MOV     A,?V2
        MOV     C,0xE0 /* A   */.7
        JNC     ??AF_DataRequest_16
//  674   {
//  675     req.txOptions |=  APS_TX_OPTIONS_SKIP_ROUTING;
        MOV     A,#0x17
        LCALL   ?XSTACK_DISP0_8
        MOVX    A,@DPTR
        ORL     A,#0x10
        MOVX    @DPTR,A
//  676   }
//  677 
//  678   if ( options & AF_EN_SECURITY )
??AF_DataRequest_16:
        MOV     A,?V2
        MOV     C,0xE0 /* A   */.6
        JNC     ??AF_DataRequest_17
//  679   {
//  680     req.txOptions |= APS_TX_OPTIONS_SECURITY_ENABLE;
        MOV     A,#0x17
        LCALL   ?XSTACK_DISP0_8
        MOVX    A,@DPTR
        ORL     A,#0x1
        MOVX    @DPTR,A
//  681     mtu.aps.secure = TRUE;
        MOV     A,#0x1
        LCALL   ?XSTACK_DISP0_8
        MOV     A,#0x1
        SJMP    ??AF_DataRequest_18
//  682   }
//  683   else
//  684   {
//  685     mtu.aps.secure = FALSE;
??AF_DataRequest_17:
        MOV     A,#0x1
        LCALL   ?XSTACK_DISP0_8
        CLR     A
??AF_DataRequest_18:
        MOVX    @DPTR,A
//  686   }
//  687 
//  688   if ( options & AF_PREPROCESS )
        MOV     A,?V2
        MOV     C,0xE0 /* A   */.2
        JNC     ??AF_DataRequest_19
//  689   {
//  690     req.txOptions |=  APS_TX_OPTIONS_PREPROCESS;
        MOV     A,#0x17
        LCALL   ?XSTACK_DISP0_8
        MOVX    A,@DPTR
        ORL     A,#0x40
        MOVX    @DPTR,A
//  691   }
//  692 
//  693   mtu.kvp = FALSE;
??AF_DataRequest_19:
        MOV     DPL,?XSP + 0
        MOV     DPH,?XSP + 1
        CLR     A
        MOVX    @DPTR,A
//  694 
//  695   if ( options & AF_SUPRESS_ROUTE_DISC_NETWORK )
        MOV     A,?V2
        MOV     C,0xE0 /* A   */.5
        JNC     ??AF_DataRequest_20
//  696   {
//  697     req.discoverRoute = DISC_ROUTE_INITIATE;
        MOV     A,#0x1a
        LCALL   ?XSTACK_DISP0_8
        MOV     A,#0x4
        SJMP    ??AF_DataRequest_21
//  698   }
//  699   else
//  700   {
//  701     req.discoverRoute = AF_DataRequestDiscoverRoute;
??AF_DataRequest_20:
        MOV     DPTR,#AF_DataRequestDiscoverRoute
        MOVX    A,@DPTR
        PUSH    A
          CFI CFA_SP SP+-1
        MOV     A,#0x1a
        LCALL   ?XSTACK_DISP0_8
        POP     A
          CFI CFA_SP SP+0
??AF_DataRequest_21:
        MOVX    @DPTR,A
        MOV     A,#0x36
        LCALL   ?XSTACK_DISP0_8
        MOVX    A,@DPTR
        MOV     ?V6,A
        INC     DPTR
        MOVX    A,@DPTR
        MOV     ?V7,A
//  702   }
//  703 
//  704   req.transID       = *transID;
        MOV     DPL,?V6
        MOV     DPH,A
        MOVX    A,@DPTR
        PUSH    A
          CFI CFA_SP SP+-1
        MOV     A,#0x19
        LCALL   ?XSTACK_DISP0_8
        POP     A
          CFI CFA_SP SP+0
        LCALL   ?Subroutine28 & 0xFFFF
//  705   req.srcEP         = srcEP->endPoint;
??CrossCallReturnLabel_41:
        MOVX    A,@DPTR
        PUSH    A
          CFI CFA_SP SP+-1
        MOV     A,#0xb
        LCALL   ?XSTACK_DISP0_8
        POP     A
          CFI CFA_SP SP+0
        LCALL   ?Subroutine22 & 0xFFFF
//  706   req.dstEP         = dstAddr->endPoint;
??CrossCallReturnLabel_27:
        INC     DPTR
        INC     DPTR
        INC     DPTR
        MOVX    A,@DPTR
        PUSH    A
          CFI CFA_SP SP+-1
        MOV     A,#0xc
        LCALL   ?XSTACK_DISP0_8
        POP     A
          CFI CFA_SP SP+0
        MOVX    @DPTR,A
//  707   req.clusterID     = cID;
        MOV     A,#0x30
        LCALL   ?XSTACK_DISP0_8
        LCALL   ??Subroutine40_0 & 0xFFFF
??CrossCallReturnLabel_81:
        MOV     A,#0xf
        LCALL   ?XSTACK_DISP0_8
        LCALL   ??Subroutine38_0 & 0xFFFF
??CrossCallReturnLabel_72:
        MOV     A,#0x32
        LCALL   ?XSTACK_DISP0_8
        MOVX    A,@DPTR
        MOV     ?V4,A
        INC     DPTR
        MOVX    A,@DPTR
        MOV     ?V5,A
//  708   req.asduLen       = len;
        MOV     A,#0x13
        LCALL   ?XSTACK_DISP0_8
        MOV     A,?V4
        MOVX    @DPTR,A
        INC     DPTR
        MOV     A,?V5
        MOVX    @DPTR,A
//  709   req.asdu          = buf;
        MOV     A,#0x34
        LCALL   ?XSTACK_DISP0_8
        LCALL   ??Subroutine40_0 & 0xFFFF
??CrossCallReturnLabel_82:
        MOV     A,#0x15
        LCALL   ?XSTACK_DISP0_8
        LCALL   ??Subroutine38_0 & 0xFFFF
//  710   req.radiusCounter = radius;
??CrossCallReturnLabel_73:
        MOV     A,#0x38
        LCALL   ?XSTACK_DISP0_8
        MOVX    A,@DPTR
        PUSH    A
          CFI CFA_SP SP+-1
        MOV     A,#0x1b
        LCALL   ?XSTACK_DISP0_8
        POP     A
          CFI CFA_SP SP+0
        LCALL   ?Subroutine22 & 0xFFFF
//  711 #if defined ( INTER_PAN )
//  712   req.dstPanId      = dstAddr->panId;
??CrossCallReturnLabel_28:
        LCALL   ?Subroutine16 & 0xFFFF
??CrossCallReturnLabel_85:
        MOV     A,#0xd
        LCALL   ?XSTACK_DISP0_8
        LCALL   ??Subroutine38_0 & 0xFFFF
//  713 #endif // INTER_PAN
//  714 
//  715   // Look if there is a Callback function registered for this endpoint
//  716   // The callback is used to control the AF Transaction ID used when sending messages
//  717   pList = afFindEndPointDescList( srcEP->endPoint );
??CrossCallReturnLabel_74:
        ; Setup parameters for call to function afFindEndPointDescList
        MOV     DPL,?V0
        MOV     DPH,?V1
        MOVX    A,@DPTR
        MOV     R1,A
        LCALL   `??afFindEndPointDescList::?relay`; Banked call to: afFindEndPointDescList
        MOV     ?V8,R2
        MOV     ?V9,R3
        MOV     R4,?V8
        MOV     R5,?V9
//  718 
//  719   if ( ( pList != NULL ) && ( pList->pfnApplCB != NULL ) )
        MOV     A,R4
        ORL     A,R5
        JZ      ??AF_DataRequest_22
        MOV     DPL,R4
        MOV     DPH,R5
        INC     DPTR
        INC     DPTR
        INC     DPTR
        INC     DPTR
        INC     DPTR
        LCALL   ?Subroutine4 & 0xFFFF
??CrossCallReturnLabel_66:
        JZ      ??AF_DataRequest_22
//  720   {
//  721     pList->pfnApplCB( &req );
        ; Setup parameters for indirect call
        MOV     A,#0x2
        LCALL   ?XSTACK_DISP101_8
        MOV     DPL,R4
        MOV     DPH,R5
        INC     DPTR
        INC     DPTR
        INC     DPTR
        INC     DPTR
        INC     DPTR
        INC     DPTR
        INC     DPTR
        INC     DPTR
        INC     DPTR
        LCALL   ??Subroutine43_0 & 0xFFFF
//  722   }
??CrossCallReturnLabel_99:
        LCALL   ?CALL_IND
//  723 
//  724 #if defined ( INTER_PAN )
//  725   if ( StubAPS_InterPan( dstAddr->panId, dstAddr->endPoint ) )
??AF_DataRequest_22:
        ; Setup parameters for call to function StubAPS_InterPan
        MOV     DPL,R6
        MOV     DPH,R7
        INC     DPTR
        INC     DPTR
        INC     DPTR
        INC     DPTR
        INC     DPTR
        INC     DPTR
        INC     DPTR
        INC     DPTR
        LCALL   ?Subroutine13 & 0xFFFF
??CrossCallReturnLabel_93:
        INC     DPTR
        INC     DPTR
        INC     DPTR
        INC     DPTR
        INC     DPTR
        INC     DPTR
        LCALL   ?Subroutine8 & 0xFFFF
??CrossCallReturnLabel_114:
        LCALL   `??StubAPS_InterPan::?relay`; Banked call to: StubAPS_InterPan
        MOV     A,R1
        JZ      ??AF_DataRequest_23
//  726   {
//  727     if ( len > INTERP_DataReqMTU() )
        ; Setup parameters for call to function INTERP_DataReqMTU
        LCALL   `??INTERP_DataReqMTU::?relay`; Banked call to: INTERP_DataReqMTU
        MOV     A,R1
        CLR     C
        SUBB    A,?V4
        CLR     A
        SUBB    A,?V5
        JC      ??AF_DataRequest_24
//  728     {
//  729       stat = afStatus_INVALID_PARAMETER;
//  730     }
//  731     else
//  732     {
//  733       stat = INTERP_DataReq( &req );
        ; Setup parameters for call to function INTERP_DataReq
        MOV     A,#0x2
        LCALL   ?XSTACK_DISP101_8
        LCALL   `??INTERP_DataReq::?relay`; Banked call to: INTERP_DataReq
        SJMP    ??AF_DataRequest_25
//  734     }
//  735   }
//  736   else
//  737 #endif // INTER_PAN
//  738   {
//  739     if (len > afDataReqMTU( &mtu ) )
??AF_DataRequest_23:
        ; Setup parameters for call to function afDataReqMTU
        MOV     R2,?XSP + 0
        MOV     R3,?XSP + 1
        LCALL   `??afDataReqMTU::?relay`; Banked call to: afDataReqMTU
        MOV     A,R1
        CLR     C
        SUBB    A,?V4
        CLR     A
        SUBB    A,?V5
        JNC     ??AF_DataRequest_26
//  740     {
//  741       if (apsfSendFragmented)
        MOV     DPTR,#apsfSendFragmented
        LCALL   ??Subroutine37_0 & 0xFFFF
??CrossCallReturnLabel_62:
        JZ      ??AF_DataRequest_24
//  742       {
//  743         stat = (*apsfSendFragmented)( &req );
        ; Setup parameters for indirect call
        MOV     A,#0x2
        LCALL   ?XSTACK_DISP101_8
        LCALL   ??Subroutine44_0 & 0xFFFF
//  744       }
??CrossCallReturnLabel_95:
        LCALL   ?CALL_IND
        SJMP    ??AF_DataRequest_25
//  745       else
//  746       {
//  747         stat = afStatus_INVALID_PARAMETER;
??AF_DataRequest_24:
        MOV     R6,#0x2
        SJMP    ??AF_DataRequest_27
//  748       }
//  749     }
//  750     else
//  751     {
//  752       stat = APSDE_DataReq( &req );
??AF_DataRequest_26:
        ; Setup parameters for call to function APSDE_DataReq
        MOV     A,#0x2
        LCALL   ?XSTACK_DISP101_8
        LCALL   `??APSDE_DataReq::?relay`; Banked call to: APSDE_DataReq
??AF_DataRequest_25:
        MOV     A,R1
        MOV     R6,A
//  753     }
//  754   }
//  755 
//  756   /*
//  757    * If this is an EndPoint-to-EndPoint message on the same device, it will not
//  758    * get added to the NWK databufs. So it will not go OTA and it will not get
//  759    * a MACCB_DATA_CONFIRM_CMD callback. Thus it is necessary to generate the
//  760    * AF_DATA_CONFIRM_CMD here. Note that APSDE_DataConfirm() only generates one
//  761    * message with the first in line TransSeqNumber, even on a multi message.
//  762    * Also note that a reflected msg will not have its confirmation generated
//  763    * here.
//  764    */
//  765   if ( (req.dstAddr.addrMode == Addr16Bit) &&
//  766        (req.dstAddr.addr.shortAddr == NLME_GetShortAddr()) )
??AF_DataRequest_27:
        MOV     A,#0xa
        LCALL   ?XSTACK_DISP0_8
        MOVX    A,@DPTR
        XRL     A,#0x2
        JNZ     ??AF_DataRequest_28
        ; Setup parameters for call to function NLME_GetShortAddr
        LCALL   `??NLME_GetShortAddr::?relay`; Banked call to: NLME_GetShortAddr
        MOV     ?V4,R2
        MOV     ?V5,R3
        MOV     R0,?V4
        MOV     R1,?V5
        MOV     A,#0x2
        LCALL   ?XSTACK_DISP0_8
        MOVX    A,@DPTR
        XRL     A,R0
        JNZ     ??AF_DataRequest_29
        INC     DPTR
        MOVX    A,@DPTR
        XRL     A,R1
??AF_DataRequest_29:
        JNZ     ??AF_DataRequest_28
//  767   {
//  768     afDataConfirm( srcEP->endPoint, *transID, stat );
        ; Setup parameters for call to function afDataConfirm
        MOV     A,R6
        MOV     R3,A
        MOV     DPL,?V6
        MOV     DPH,?V7
        MOVX    A,@DPTR
        MOV     R2,A
        MOV     DPL,?V0
        MOV     DPH,?V1
        MOVX    A,@DPTR
        MOV     R1,A
        LCALL   `??afDataConfirm::?relay`; Banked call to: afDataConfirm
//  769   }
//  770 
//  771   if ( stat == afStatus_SUCCESS )
??AF_DataRequest_28:
        MOV     A,R6
        JNZ     ??AF_DataRequest_30
//  772   {
//  773     (*transID)++;
        MOV     DPL,?V6
        MOV     DPH,?V7
        MOVX    A,@DPTR
        INC     A
        MOVX    @DPTR,A
//  774   }
//  775 
//  776   return (afStatus_t)stat;
??AF_DataRequest_30:
        MOV     A,R6
        MOV     R1,A
??AF_DataRequest_3:
        MOV     A,#0x1e
        LCALL   ?DEALLOC_XSTACK8
          CFI CFA_XSP16 add(XSP16, 18)
        MOV     R7,#0xa
        LJMP    ?BANKED_LEAVE_XDATA
//  777 }
          CFI EndBlock cfiBlock106

        RSEG BANKED_CODE:CODE:NOROOT(0)
?Subroutine22:
          CFI Block cfiCond107 Using cfiCommon0
          CFI Function AF_DataRequest
          CFI Conditional ??CrossCallReturnLabel_27
          CFI R6 load(1, XDATA, add(CFA_XSP16, literal(-18)))
          CFI VB load(1, XDATA, add(CFA_XSP16, literal(-17)))
          CFI V0 load(1, XDATA, add(CFA_XSP16, literal(-16)))
          CFI V1 load(1, XDATA, add(CFA_XSP16, literal(-15)))
          CFI V2 load(1, XDATA, add(CFA_XSP16, literal(-14)))
          CFI V3 load(1, XDATA, add(CFA_XSP16, literal(-13)))
          CFI V4 load(1, XDATA, add(CFA_XSP16, literal(-12)))
          CFI V5 load(1, XDATA, add(CFA_XSP16, literal(-11)))
          CFI V6 load(1, XDATA, add(CFA_XSP16, literal(-10)))
          CFI V7 load(1, XDATA, add(CFA_XSP16, literal(-9)))
          CFI V8 load(1, XDATA, add(CFA_XSP16, literal(-8)))
          CFI V9 load(1, XDATA, add(CFA_XSP16, literal(-7)))
          CFI R7 load(1, XDATA, add(CFA_XSP16, literal(-6)))
          CFI ?RET_LOW load(1, XDATA, add(CFA_XSP16, literal(-5)))
          CFI ?RET_HIGH load(1, XDATA, add(CFA_XSP16, literal(-4)))
          CFI ?BRET_EXT load(1, XDATA, add(CFA_XSP16, literal(-3)))
          CFI DPL0 load(1, XDATA, add(CFA_XSP16, literal(-2)))
          CFI DPH0 load(1, XDATA, add(CFA_XSP16, literal(-1)))
          CFI CFA_SP SP+-2
          CFI CFA_XSP16 add(XSP16, 48)
          CFI Block cfiCond108 Using cfiCommon0
          CFI (cfiCond108) Function AF_DataRequest
          CFI (cfiCond108) Conditional ??CrossCallReturnLabel_28
          CFI (cfiCond108) R6 load(1, XDATA, add(CFA_XSP16, literal(-18)))
          CFI (cfiCond108) VB load(1, XDATA, add(CFA_XSP16, literal(-17)))
          CFI (cfiCond108) V0 load(1, XDATA, add(CFA_XSP16, literal(-16)))
          CFI (cfiCond108) V1 load(1, XDATA, add(CFA_XSP16, literal(-15)))
          CFI (cfiCond108) V2 load(1, XDATA, add(CFA_XSP16, literal(-14)))
          CFI (cfiCond108) V3 load(1, XDATA, add(CFA_XSP16, literal(-13)))
          CFI (cfiCond108) V4 load(1, XDATA, add(CFA_XSP16, literal(-12)))
          CFI (cfiCond108) V5 load(1, XDATA, add(CFA_XSP16, literal(-11)))
          CFI (cfiCond108) V6 load(1, XDATA, add(CFA_XSP16, literal(-10)))
          CFI (cfiCond108) V7 load(1, XDATA, add(CFA_XSP16, literal(-9)))
          CFI (cfiCond108) V8 load(1, XDATA, add(CFA_XSP16, literal(-8)))
          CFI (cfiCond108) V9 load(1, XDATA, add(CFA_XSP16, literal(-7)))
          CFI (cfiCond108) R7 load(1, XDATA, add(CFA_XSP16, literal(-6)))
          CFI (cfiCond108) ?RET_LOW load(1, XDATA, add(CFA_XSP16, literal(-5)))
          CFI (cfiCond108) ?RET_HIGH load(1, XDATA, add(CFA_XSP16, literal(-4)))
          CFI (cfiCond108) ?BRET_EXT load(1, XDATA, add(CFA_XSP16, literal(-3)))
          CFI (cfiCond108) DPL0 load(1, XDATA, add(CFA_XSP16, literal(-2)))
          CFI (cfiCond108) DPH0 load(1, XDATA, add(CFA_XSP16, literal(-1)))
          CFI (cfiCond108) CFA_SP SP+-2
          CFI (cfiCond108) CFA_XSP16 add(XSP16, 48)
          CFI Block cfiPicker109 Using cfiCommon1
          CFI (cfiPicker109) NoFunction
          CFI (cfiPicker109) Picker
        MOVX    @DPTR,A
        MOV     DPL,R6
        MOV     DPH,R7
        INC     DPTR
        INC     DPTR
        INC     DPTR
        INC     DPTR
        INC     DPTR
        INC     DPTR
        RET
          CFI EndBlock cfiCond107
          CFI EndBlock cfiCond108
          CFI EndBlock cfiPicker109

        RSEG BANKED_CODE:CODE:NOROOT(0)
?Subroutine20:
          CFI Block cfiCond110 Using cfiCommon0
          CFI Function afBuildMSGIncoming
          CFI Conditional ??CrossCallReturnLabel_76
          CFI R6 load(1, XDATA, add(CFA_XSP16, literal(-19)))
          CFI VB load(1, XDATA, add(CFA_XSP16, literal(-18)))
          CFI V0 load(1, XDATA, add(CFA_XSP16, literal(-17)))
          CFI V1 load(1, XDATA, add(CFA_XSP16, literal(-16)))
          CFI V2 load(1, XDATA, add(CFA_XSP16, literal(-15)))
          CFI V3 load(1, XDATA, add(CFA_XSP16, literal(-14)))
          CFI V4 load(1, XDATA, add(CFA_XSP16, literal(-13)))
          CFI V5 load(1, XDATA, add(CFA_XSP16, literal(-12)))
          CFI V6 load(1, XDATA, add(CFA_XSP16, literal(-11)))
          CFI V7 load(1, XDATA, add(CFA_XSP16, literal(-10)))
          CFI V8 load(1, XDATA, add(CFA_XSP16, literal(-9)))
          CFI V9 load(1, XDATA, add(CFA_XSP16, literal(-8)))
          CFI V10 load(1, XDATA, add(CFA_XSP16, literal(-7)))
          CFI R7 load(1, XDATA, add(CFA_XSP16, literal(-6)))
          CFI ?RET_LOW load(1, XDATA, add(CFA_XSP16, literal(-5)))
          CFI ?RET_HIGH load(1, XDATA, add(CFA_XSP16, literal(-4)))
          CFI ?BRET_EXT load(1, XDATA, add(CFA_XSP16, literal(-3)))
          CFI DPL0 load(1, XDATA, add(CFA_XSP16, literal(-2)))
          CFI DPH0 load(1, XDATA, add(CFA_XSP16, literal(-1)))
          CFI CFA_SP SP+-2
          CFI CFA_XSP16 add(XSP16, 19)
          CFI Block cfiCond111 Using cfiCommon0
          CFI (cfiCond111) Function afBuildMSGIncoming
          CFI (cfiCond111) Conditional ??CrossCallReturnLabel_77
          CFI (cfiCond111) R6 load(1, XDATA, add(CFA_XSP16, literal(-19)))
          CFI (cfiCond111) VB load(1, XDATA, add(CFA_XSP16, literal(-18)))
          CFI (cfiCond111) V0 load(1, XDATA, add(CFA_XSP16, literal(-17)))
          CFI (cfiCond111) V1 load(1, XDATA, add(CFA_XSP16, literal(-16)))
          CFI (cfiCond111) V2 load(1, XDATA, add(CFA_XSP16, literal(-15)))
          CFI (cfiCond111) V3 load(1, XDATA, add(CFA_XSP16, literal(-14)))
          CFI (cfiCond111) V4 load(1, XDATA, add(CFA_XSP16, literal(-13)))
          CFI (cfiCond111) V5 load(1, XDATA, add(CFA_XSP16, literal(-12)))
          CFI (cfiCond111) V6 load(1, XDATA, add(CFA_XSP16, literal(-11)))
          CFI (cfiCond111) V7 load(1, XDATA, add(CFA_XSP16, literal(-10)))
          CFI (cfiCond111) V8 load(1, XDATA, add(CFA_XSP16, literal(-9)))
          CFI (cfiCond111) V9 load(1, XDATA, add(CFA_XSP16, literal(-8)))
          CFI (cfiCond111) V10 load(1, XDATA, add(CFA_XSP16, literal(-7)))
          CFI (cfiCond111) R7 load(1, XDATA, add(CFA_XSP16, literal(-6)))
          CFI (cfiCond111) ?RET_LOW load(1, XDATA, add(CFA_XSP16, literal(-5)))
          CFI (cfiCond111) ?RET_HIGH load(1, XDATA, add(CFA_XSP16, literal(-4)))
          CFI (cfiCond111) ?BRET_EXT load(1, XDATA, add(CFA_XSP16, literal(-3)))
          CFI (cfiCond111) DPL0 load(1, XDATA, add(CFA_XSP16, literal(-2)))
          CFI (cfiCond111) DPH0 load(1, XDATA, add(CFA_XSP16, literal(-1)))
          CFI (cfiCond111) CFA_SP SP+-2
          CFI (cfiCond111) CFA_XSP16 add(XSP16, 19)
          CFI Block cfiPicker112 Using cfiCommon1
          CFI (cfiPicker112) NoFunction
          CFI (cfiPicker112) Picker
        MOV     DPL,A
        CLR     A
        ADDC    A,R7
        MOV     DPH,A
          CFI EndBlock cfiCond110
          CFI EndBlock cfiCond111
          CFI EndBlock cfiPicker112
        REQUIRE ??Subroutine38_0
        ; // Fall through to label ??Subroutine38_0

        RSEG BANKED_CODE:CODE:NOROOT(0)
??Subroutine38_0:
          CFI Block cfiCond113 Using cfiCommon0
          CFI Function afRegisterExtended
          CFI Conditional ??CrossCallReturnLabel_67
          CFI R6 load(1, XDATA, add(CFA_XSP16, literal(-12)))
          CFI VB load(1, XDATA, add(CFA_XSP16, literal(-11)))
          CFI V0 load(1, XDATA, add(CFA_XSP16, literal(-10)))
          CFI V1 load(1, XDATA, add(CFA_XSP16, literal(-9)))
          CFI V2 load(1, XDATA, add(CFA_XSP16, literal(-8)))
          CFI V3 load(1, XDATA, add(CFA_XSP16, literal(-7)))
          CFI R7 load(1, XDATA, add(CFA_XSP16, literal(-6)))
          CFI ?RET_LOW load(1, XDATA, add(CFA_XSP16, literal(-5)))
          CFI ?RET_HIGH load(1, XDATA, add(CFA_XSP16, literal(-4)))
          CFI ?BRET_EXT load(1, XDATA, add(CFA_XSP16, literal(-3)))
          CFI DPL0 load(1, XDATA, add(CFA_XSP16, literal(-2)))
          CFI DPH0 load(1, XDATA, add(CFA_XSP16, literal(-1)))
          CFI CFA_SP SP+-2
          CFI CFA_XSP16 add(XSP16, 12)
          CFI Block cfiCond114 Using cfiCommon0
          CFI (cfiCond114) Function afRegisterExtended
          CFI (cfiCond114) Conditional ??CrossCallReturnLabel_68
          CFI (cfiCond114) R6 load(1, XDATA, add(CFA_XSP16, literal(-12)))
          CFI (cfiCond114) VB load(1, XDATA, add(CFA_XSP16, literal(-11)))
          CFI (cfiCond114) V0 load(1, XDATA, add(CFA_XSP16, literal(-10)))
          CFI (cfiCond114) V1 load(1, XDATA, add(CFA_XSP16, literal(-9)))
          CFI (cfiCond114) V2 load(1, XDATA, add(CFA_XSP16, literal(-8)))
          CFI (cfiCond114) V3 load(1, XDATA, add(CFA_XSP16, literal(-7)))
          CFI (cfiCond114) R7 load(1, XDATA, add(CFA_XSP16, literal(-6)))
          CFI (cfiCond114) ?RET_LOW load(1, XDATA, add(CFA_XSP16, literal(-5)))
          CFI (cfiCond114) ?RET_HIGH load(1, XDATA, add(CFA_XSP16, literal(-4)))
          CFI (cfiCond114) ?BRET_EXT load(1, XDATA, add(CFA_XSP16, literal(-3)))
          CFI (cfiCond114) DPL0 load(1, XDATA, add(CFA_XSP16, literal(-2)))
          CFI (cfiCond114) DPH0 load(1, XDATA, add(CFA_XSP16, literal(-1)))
          CFI (cfiCond114) CFA_SP SP+-2
          CFI (cfiCond114) CFA_XSP16 add(XSP16, 12)
          CFI Block cfiCond115 Using cfiCommon0
          CFI (cfiCond115) Function afBuildMSGIncoming
          CFI (cfiCond115) Conditional ??CrossCallReturnLabel_69
          CFI (cfiCond115) R6 load(1, XDATA, add(CFA_XSP16, literal(-19)))
          CFI (cfiCond115) VB load(1, XDATA, add(CFA_XSP16, literal(-18)))
          CFI (cfiCond115) V0 load(1, XDATA, add(CFA_XSP16, literal(-17)))
          CFI (cfiCond115) V1 load(1, XDATA, add(CFA_XSP16, literal(-16)))
          CFI (cfiCond115) V2 load(1, XDATA, add(CFA_XSP16, literal(-15)))
          CFI (cfiCond115) V3 load(1, XDATA, add(CFA_XSP16, literal(-14)))
          CFI (cfiCond115) V4 load(1, XDATA, add(CFA_XSP16, literal(-13)))
          CFI (cfiCond115) V5 load(1, XDATA, add(CFA_XSP16, literal(-12)))
          CFI (cfiCond115) V6 load(1, XDATA, add(CFA_XSP16, literal(-11)))
          CFI (cfiCond115) V7 load(1, XDATA, add(CFA_XSP16, literal(-10)))
          CFI (cfiCond115) V8 load(1, XDATA, add(CFA_XSP16, literal(-9)))
          CFI (cfiCond115) V9 load(1, XDATA, add(CFA_XSP16, literal(-8)))
          CFI (cfiCond115) V10 load(1, XDATA, add(CFA_XSP16, literal(-7)))
          CFI (cfiCond115) R7 load(1, XDATA, add(CFA_XSP16, literal(-6)))
          CFI (cfiCond115) ?RET_LOW load(1, XDATA, add(CFA_XSP16, literal(-5)))
          CFI (cfiCond115) ?RET_HIGH load(1, XDATA, add(CFA_XSP16, literal(-4)))
          CFI (cfiCond115) ?BRET_EXT load(1, XDATA, add(CFA_XSP16, literal(-3)))
          CFI (cfiCond115) DPL0 load(1, XDATA, add(CFA_XSP16, literal(-2)))
          CFI (cfiCond115) DPH0 load(1, XDATA, add(CFA_XSP16, literal(-1)))
          CFI (cfiCond115) CFA_SP SP+-2
          CFI (cfiCond115) CFA_XSP16 add(XSP16, 19)
          CFI Block cfiCond116 Using cfiCommon0
          CFI (cfiCond116) Function AF_DataRequest
          CFI (cfiCond116) Conditional ??CrossCallReturnLabel_70
          CFI (cfiCond116) R6 load(1, XDATA, add(CFA_XSP16, literal(-18)))
          CFI (cfiCond116) VB load(1, XDATA, add(CFA_XSP16, literal(-17)))
          CFI (cfiCond116) V0 load(1, XDATA, add(CFA_XSP16, literal(-16)))
          CFI (cfiCond116) V1 load(1, XDATA, add(CFA_XSP16, literal(-15)))
          CFI (cfiCond116) V2 load(1, XDATA, add(CFA_XSP16, literal(-14)))
          CFI (cfiCond116) V3 load(1, XDATA, add(CFA_XSP16, literal(-13)))
          CFI (cfiCond116) V4 load(1, XDATA, add(CFA_XSP16, literal(-12)))
          CFI (cfiCond116) V5 load(1, XDATA, add(CFA_XSP16, literal(-11)))
          CFI (cfiCond116) V6 load(1, XDATA, add(CFA_XSP16, literal(-10)))
          CFI (cfiCond116) V7 load(1, XDATA, add(CFA_XSP16, literal(-9)))
          CFI (cfiCond116) V8 load(1, XDATA, add(CFA_XSP16, literal(-8)))
          CFI (cfiCond116) V9 load(1, XDATA, add(CFA_XSP16, literal(-7)))
          CFI (cfiCond116) R7 load(1, XDATA, add(CFA_XSP16, literal(-6)))
          CFI (cfiCond116) ?RET_LOW load(1, XDATA, add(CFA_XSP16, literal(-5)))
          CFI (cfiCond116) ?RET_HIGH load(1, XDATA, add(CFA_XSP16, literal(-4)))
          CFI (cfiCond116) ?BRET_EXT load(1, XDATA, add(CFA_XSP16, literal(-3)))
          CFI (cfiCond116) DPL0 load(1, XDATA, add(CFA_XSP16, literal(-2)))
          CFI (cfiCond116) DPH0 load(1, XDATA, add(CFA_XSP16, literal(-1)))
          CFI (cfiCond116) CFA_SP SP+-2
          CFI (cfiCond116) CFA_XSP16 add(XSP16, 48)
          CFI Block cfiCond117 Using cfiCommon0
          CFI (cfiCond117) Function AF_DataRequest
          CFI (cfiCond117) Conditional ??CrossCallReturnLabel_71
          CFI (cfiCond117) R6 load(1, XDATA, add(CFA_XSP16, literal(-18)))
          CFI (cfiCond117) VB load(1, XDATA, add(CFA_XSP16, literal(-17)))
          CFI (cfiCond117) V0 load(1, XDATA, add(CFA_XSP16, literal(-16)))
          CFI (cfiCond117) V1 load(1, XDATA, add(CFA_XSP16, literal(-15)))
          CFI (cfiCond117) V2 load(1, XDATA, add(CFA_XSP16, literal(-14)))
          CFI (cfiCond117) V3 load(1, XDATA, add(CFA_XSP16, literal(-13)))
          CFI (cfiCond117) V4 load(1, XDATA, add(CFA_XSP16, literal(-12)))
          CFI (cfiCond117) V5 load(1, XDATA, add(CFA_XSP16, literal(-11)))
          CFI (cfiCond117) V6 load(1, XDATA, add(CFA_XSP16, literal(-10)))
          CFI (cfiCond117) V7 load(1, XDATA, add(CFA_XSP16, literal(-9)))
          CFI (cfiCond117) V8 load(1, XDATA, add(CFA_XSP16, literal(-8)))
          CFI (cfiCond117) V9 load(1, XDATA, add(CFA_XSP16, literal(-7)))
          CFI (cfiCond117) R7 load(1, XDATA, add(CFA_XSP16, literal(-6)))
          CFI (cfiCond117) ?RET_LOW load(1, XDATA, add(CFA_XSP16, literal(-5)))
          CFI (cfiCond117) ?RET_HIGH load(1, XDATA, add(CFA_XSP16, literal(-4)))
          CFI (cfiCond117) ?BRET_EXT load(1, XDATA, add(CFA_XSP16, literal(-3)))
          CFI (cfiCond117) DPL0 load(1, XDATA, add(CFA_XSP16, literal(-2)))
          CFI (cfiCond117) DPH0 load(1, XDATA, add(CFA_XSP16, literal(-1)))
          CFI (cfiCond117) CFA_SP SP+-2
          CFI (cfiCond117) CFA_XSP16 add(XSP16, 48)
          CFI Block cfiCond118 Using cfiCommon0
          CFI (cfiCond118) Function AF_DataRequest
          CFI (cfiCond118) Conditional ??CrossCallReturnLabel_72
          CFI (cfiCond118) R6 load(1, XDATA, add(CFA_XSP16, literal(-18)))
          CFI (cfiCond118) VB load(1, XDATA, add(CFA_XSP16, literal(-17)))
          CFI (cfiCond118) V0 load(1, XDATA, add(CFA_XSP16, literal(-16)))
          CFI (cfiCond118) V1 load(1, XDATA, add(CFA_XSP16, literal(-15)))
          CFI (cfiCond118) V2 load(1, XDATA, add(CFA_XSP16, literal(-14)))
          CFI (cfiCond118) V3 load(1, XDATA, add(CFA_XSP16, literal(-13)))
          CFI (cfiCond118) V4 load(1, XDATA, add(CFA_XSP16, literal(-12)))
          CFI (cfiCond118) V5 load(1, XDATA, add(CFA_XSP16, literal(-11)))
          CFI (cfiCond118) V6 load(1, XDATA, add(CFA_XSP16, literal(-10)))
          CFI (cfiCond118) V7 load(1, XDATA, add(CFA_XSP16, literal(-9)))
          CFI (cfiCond118) V8 load(1, XDATA, add(CFA_XSP16, literal(-8)))
          CFI (cfiCond118) V9 load(1, XDATA, add(CFA_XSP16, literal(-7)))
          CFI (cfiCond118) R7 load(1, XDATA, add(CFA_XSP16, literal(-6)))
          CFI (cfiCond118) ?RET_LOW load(1, XDATA, add(CFA_XSP16, literal(-5)))
          CFI (cfiCond118) ?RET_HIGH load(1, XDATA, add(CFA_XSP16, literal(-4)))
          CFI (cfiCond118) ?BRET_EXT load(1, XDATA, add(CFA_XSP16, literal(-3)))
          CFI (cfiCond118) DPL0 load(1, XDATA, add(CFA_XSP16, literal(-2)))
          CFI (cfiCond118) DPH0 load(1, XDATA, add(CFA_XSP16, literal(-1)))
          CFI (cfiCond118) CFA_SP SP+-2
          CFI (cfiCond118) CFA_XSP16 add(XSP16, 48)
          CFI Block cfiCond119 Using cfiCommon0
          CFI (cfiCond119) Function AF_DataRequest
          CFI (cfiCond119) Conditional ??CrossCallReturnLabel_73
          CFI (cfiCond119) R6 load(1, XDATA, add(CFA_XSP16, literal(-18)))
          CFI (cfiCond119) VB load(1, XDATA, add(CFA_XSP16, literal(-17)))
          CFI (cfiCond119) V0 load(1, XDATA, add(CFA_XSP16, literal(-16)))
          CFI (cfiCond119) V1 load(1, XDATA, add(CFA_XSP16, literal(-15)))
          CFI (cfiCond119) V2 load(1, XDATA, add(CFA_XSP16, literal(-14)))
          CFI (cfiCond119) V3 load(1, XDATA, add(CFA_XSP16, literal(-13)))
          CFI (cfiCond119) V4 load(1, XDATA, add(CFA_XSP16, literal(-12)))
          CFI (cfiCond119) V5 load(1, XDATA, add(CFA_XSP16, literal(-11)))
          CFI (cfiCond119) V6 load(1, XDATA, add(CFA_XSP16, literal(-10)))
          CFI (cfiCond119) V7 load(1, XDATA, add(CFA_XSP16, literal(-9)))
          CFI (cfiCond119) V8 load(1, XDATA, add(CFA_XSP16, literal(-8)))
          CFI (cfiCond119) V9 load(1, XDATA, add(CFA_XSP16, literal(-7)))
          CFI (cfiCond119) R7 load(1, XDATA, add(CFA_XSP16, literal(-6)))
          CFI (cfiCond119) ?RET_LOW load(1, XDATA, add(CFA_XSP16, literal(-5)))
          CFI (cfiCond119) ?RET_HIGH load(1, XDATA, add(CFA_XSP16, literal(-4)))
          CFI (cfiCond119) ?BRET_EXT load(1, XDATA, add(CFA_XSP16, literal(-3)))
          CFI (cfiCond119) DPL0 load(1, XDATA, add(CFA_XSP16, literal(-2)))
          CFI (cfiCond119) DPH0 load(1, XDATA, add(CFA_XSP16, literal(-1)))
          CFI (cfiCond119) CFA_SP SP+-2
          CFI (cfiCond119) CFA_XSP16 add(XSP16, 48)
          CFI Block cfiCond120 Using cfiCommon0
          CFI (cfiCond120) Function AF_DataRequest
          CFI (cfiCond120) Conditional ??CrossCallReturnLabel_74
          CFI (cfiCond120) R6 load(1, XDATA, add(CFA_XSP16, literal(-18)))
          CFI (cfiCond120) VB load(1, XDATA, add(CFA_XSP16, literal(-17)))
          CFI (cfiCond120) V0 load(1, XDATA, add(CFA_XSP16, literal(-16)))
          CFI (cfiCond120) V1 load(1, XDATA, add(CFA_XSP16, literal(-15)))
          CFI (cfiCond120) V2 load(1, XDATA, add(CFA_XSP16, literal(-14)))
          CFI (cfiCond120) V3 load(1, XDATA, add(CFA_XSP16, literal(-13)))
          CFI (cfiCond120) V4 load(1, XDATA, add(CFA_XSP16, literal(-12)))
          CFI (cfiCond120) V5 load(1, XDATA, add(CFA_XSP16, literal(-11)))
          CFI (cfiCond120) V6 load(1, XDATA, add(CFA_XSP16, literal(-10)))
          CFI (cfiCond120) V7 load(1, XDATA, add(CFA_XSP16, literal(-9)))
          CFI (cfiCond120) V8 load(1, XDATA, add(CFA_XSP16, literal(-8)))
          CFI (cfiCond120) V9 load(1, XDATA, add(CFA_XSP16, literal(-7)))
          CFI (cfiCond120) R7 load(1, XDATA, add(CFA_XSP16, literal(-6)))
          CFI (cfiCond120) ?RET_LOW load(1, XDATA, add(CFA_XSP16, literal(-5)))
          CFI (cfiCond120) ?RET_HIGH load(1, XDATA, add(CFA_XSP16, literal(-4)))
          CFI (cfiCond120) ?BRET_EXT load(1, XDATA, add(CFA_XSP16, literal(-3)))
          CFI (cfiCond120) DPL0 load(1, XDATA, add(CFA_XSP16, literal(-2)))
          CFI (cfiCond120) DPH0 load(1, XDATA, add(CFA_XSP16, literal(-1)))
          CFI (cfiCond120) CFA_SP SP+-2
          CFI (cfiCond120) CFA_XSP16 add(XSP16, 48)
          CFI Block cfiCond121 Using cfiCommon0
          CFI (cfiCond121) Function afCopyAddress
          CFI (cfiCond121) Conditional ??CrossCallReturnLabel_75
          CFI (cfiCond121) R6 load(1, XDATA, add(CFA_XSP16, literal(-9)))
          CFI (cfiCond121) VB load(1, XDATA, add(CFA_XSP16, literal(-8)))
          CFI (cfiCond121) V0 load(1, XDATA, add(CFA_XSP16, literal(-7)))
          CFI (cfiCond121) R7 load(1, XDATA, add(CFA_XSP16, literal(-6)))
          CFI (cfiCond121) ?RET_LOW load(1, XDATA, add(CFA_XSP16, literal(-5)))
          CFI (cfiCond121) ?RET_HIGH load(1, XDATA, add(CFA_XSP16, literal(-4)))
          CFI (cfiCond121) ?BRET_EXT load(1, XDATA, add(CFA_XSP16, literal(-3)))
          CFI (cfiCond121) DPL0 load(1, XDATA, add(CFA_XSP16, literal(-2)))
          CFI (cfiCond121) DPH0 load(1, XDATA, add(CFA_XSP16, literal(-1)))
          CFI (cfiCond121) CFA_SP SP+-2
          CFI (cfiCond121) CFA_XSP16 add(XSP16, 9)
          CFI Block cfiCond122 Using cfiCommon0
          CFI (cfiCond122) Function afBuildMSGIncoming
          CFI (cfiCond122) Conditional ??CrossCallReturnLabel_76
          CFI (cfiCond122) R6 load(1, XDATA, add(CFA_XSP16, literal(-19)))
          CFI (cfiCond122) VB load(1, XDATA, add(CFA_XSP16, literal(-18)))
          CFI (cfiCond122) V0 load(1, XDATA, add(CFA_XSP16, literal(-17)))
          CFI (cfiCond122) V1 load(1, XDATA, add(CFA_XSP16, literal(-16)))
          CFI (cfiCond122) V2 load(1, XDATA, add(CFA_XSP16, literal(-15)))
          CFI (cfiCond122) V3 load(1, XDATA, add(CFA_XSP16, literal(-14)))
          CFI (cfiCond122) V4 load(1, XDATA, add(CFA_XSP16, literal(-13)))
          CFI (cfiCond122) V5 load(1, XDATA, add(CFA_XSP16, literal(-12)))
          CFI (cfiCond122) V6 load(1, XDATA, add(CFA_XSP16, literal(-11)))
          CFI (cfiCond122) V7 load(1, XDATA, add(CFA_XSP16, literal(-10)))
          CFI (cfiCond122) V8 load(1, XDATA, add(CFA_XSP16, literal(-9)))
          CFI (cfiCond122) V9 load(1, XDATA, add(CFA_XSP16, literal(-8)))
          CFI (cfiCond122) V10 load(1, XDATA, add(CFA_XSP16, literal(-7)))
          CFI (cfiCond122) R7 load(1, XDATA, add(CFA_XSP16, literal(-6)))
          CFI (cfiCond122) ?RET_LOW load(1, XDATA, add(CFA_XSP16, literal(-5)))
          CFI (cfiCond122) ?RET_HIGH load(1, XDATA, add(CFA_XSP16, literal(-4)))
          CFI (cfiCond122) ?BRET_EXT load(1, XDATA, add(CFA_XSP16, literal(-3)))
          CFI (cfiCond122) DPL0 load(1, XDATA, add(CFA_XSP16, literal(-2)))
          CFI (cfiCond122) DPH0 load(1, XDATA, add(CFA_XSP16, literal(-1)))
          CFI (cfiCond122) CFA_SP SP+-2
          CFI (cfiCond122) CFA_XSP16 add(XSP16, 19)
          CFI Block cfiCond123 Using cfiCommon0
          CFI (cfiCond123) Function afBuildMSGIncoming
          CFI (cfiCond123) Conditional ??CrossCallReturnLabel_77
          CFI (cfiCond123) R6 load(1, XDATA, add(CFA_XSP16, literal(-19)))
          CFI (cfiCond123) VB load(1, XDATA, add(CFA_XSP16, literal(-18)))
          CFI (cfiCond123) V0 load(1, XDATA, add(CFA_XSP16, literal(-17)))
          CFI (cfiCond123) V1 load(1, XDATA, add(CFA_XSP16, literal(-16)))
          CFI (cfiCond123) V2 load(1, XDATA, add(CFA_XSP16, literal(-15)))
          CFI (cfiCond123) V3 load(1, XDATA, add(CFA_XSP16, literal(-14)))
          CFI (cfiCond123) V4 load(1, XDATA, add(CFA_XSP16, literal(-13)))
          CFI (cfiCond123) V5 load(1, XDATA, add(CFA_XSP16, literal(-12)))
          CFI (cfiCond123) V6 load(1, XDATA, add(CFA_XSP16, literal(-11)))
          CFI (cfiCond123) V7 load(1, XDATA, add(CFA_XSP16, literal(-10)))
          CFI (cfiCond123) V8 load(1, XDATA, add(CFA_XSP16, literal(-9)))
          CFI (cfiCond123) V9 load(1, XDATA, add(CFA_XSP16, literal(-8)))
          CFI (cfiCond123) V10 load(1, XDATA, add(CFA_XSP16, literal(-7)))
          CFI (cfiCond123) R7 load(1, XDATA, add(CFA_XSP16, literal(-6)))
          CFI (cfiCond123) ?RET_LOW load(1, XDATA, add(CFA_XSP16, literal(-5)))
          CFI (cfiCond123) ?RET_HIGH load(1, XDATA, add(CFA_XSP16, literal(-4)))
          CFI (cfiCond123) ?BRET_EXT load(1, XDATA, add(CFA_XSP16, literal(-3)))
          CFI (cfiCond123) DPL0 load(1, XDATA, add(CFA_XSP16, literal(-2)))
          CFI (cfiCond123) DPH0 load(1, XDATA, add(CFA_XSP16, literal(-1)))
          CFI (cfiCond123) CFA_SP SP+-2
          CFI (cfiCond123) CFA_XSP16 add(XSP16, 19)
          CFI Block cfiPicker124 Using cfiCommon1
          CFI (cfiPicker124) NoFunction
          CFI (cfiPicker124) Picker
        MOV     A,R0
        MOVX    @DPTR,A
        INC     DPTR
        MOV     A,R1
        MOVX    @DPTR,A
        RET
          CFI EndBlock cfiCond113
          CFI EndBlock cfiCond114
          CFI EndBlock cfiCond115
          CFI EndBlock cfiCond116
          CFI EndBlock cfiCond117
          CFI EndBlock cfiCond118
          CFI EndBlock cfiCond119
          CFI EndBlock cfiCond120
          CFI EndBlock cfiCond121
          CFI EndBlock cfiCond122
          CFI EndBlock cfiCond123
          CFI EndBlock cfiPicker124

        RSEG BANKED_CODE:CODE:NOROOT(0)
?Subroutine16:
          CFI Block cfiCond125 Using cfiCommon0
          CFI Function AF_DataRequest
          CFI Conditional ??CrossCallReturnLabel_84
          CFI R6 load(1, XDATA, add(CFA_XSP16, literal(-18)))
          CFI VB load(1, XDATA, add(CFA_XSP16, literal(-17)))
          CFI V0 load(1, XDATA, add(CFA_XSP16, literal(-16)))
          CFI V1 load(1, XDATA, add(CFA_XSP16, literal(-15)))
          CFI V2 load(1, XDATA, add(CFA_XSP16, literal(-14)))
          CFI V3 load(1, XDATA, add(CFA_XSP16, literal(-13)))
          CFI V4 load(1, XDATA, add(CFA_XSP16, literal(-12)))
          CFI V5 load(1, XDATA, add(CFA_XSP16, literal(-11)))
          CFI V6 load(1, XDATA, add(CFA_XSP16, literal(-10)))
          CFI V7 load(1, XDATA, add(CFA_XSP16, literal(-9)))
          CFI V8 load(1, XDATA, add(CFA_XSP16, literal(-8)))
          CFI V9 load(1, XDATA, add(CFA_XSP16, literal(-7)))
          CFI R7 load(1, XDATA, add(CFA_XSP16, literal(-6)))
          CFI ?RET_LOW load(1, XDATA, add(CFA_XSP16, literal(-5)))
          CFI ?RET_HIGH load(1, XDATA, add(CFA_XSP16, literal(-4)))
          CFI ?BRET_EXT load(1, XDATA, add(CFA_XSP16, literal(-3)))
          CFI DPL0 load(1, XDATA, add(CFA_XSP16, literal(-2)))
          CFI DPH0 load(1, XDATA, add(CFA_XSP16, literal(-1)))
          CFI CFA_SP SP+-2
          CFI CFA_XSP16 add(XSP16, 48)
          CFI Block cfiCond126 Using cfiCommon0
          CFI (cfiCond126) Function AF_DataRequest
          CFI (cfiCond126) Conditional ??CrossCallReturnLabel_85
          CFI (cfiCond126) R6 load(1, XDATA, add(CFA_XSP16, literal(-18)))
          CFI (cfiCond126) VB load(1, XDATA, add(CFA_XSP16, literal(-17)))
          CFI (cfiCond126) V0 load(1, XDATA, add(CFA_XSP16, literal(-16)))
          CFI (cfiCond126) V1 load(1, XDATA, add(CFA_XSP16, literal(-15)))
          CFI (cfiCond126) V2 load(1, XDATA, add(CFA_XSP16, literal(-14)))
          CFI (cfiCond126) V3 load(1, XDATA, add(CFA_XSP16, literal(-13)))
          CFI (cfiCond126) V4 load(1, XDATA, add(CFA_XSP16, literal(-12)))
          CFI (cfiCond126) V5 load(1, XDATA, add(CFA_XSP16, literal(-11)))
          CFI (cfiCond126) V6 load(1, XDATA, add(CFA_XSP16, literal(-10)))
          CFI (cfiCond126) V7 load(1, XDATA, add(CFA_XSP16, literal(-9)))
          CFI (cfiCond126) V8 load(1, XDATA, add(CFA_XSP16, literal(-8)))
          CFI (cfiCond126) V9 load(1, XDATA, add(CFA_XSP16, literal(-7)))
          CFI (cfiCond126) R7 load(1, XDATA, add(CFA_XSP16, literal(-6)))
          CFI (cfiCond126) ?RET_LOW load(1, XDATA, add(CFA_XSP16, literal(-5)))
          CFI (cfiCond126) ?RET_HIGH load(1, XDATA, add(CFA_XSP16, literal(-4)))
          CFI (cfiCond126) ?BRET_EXT load(1, XDATA, add(CFA_XSP16, literal(-3)))
          CFI (cfiCond126) DPL0 load(1, XDATA, add(CFA_XSP16, literal(-2)))
          CFI (cfiCond126) DPH0 load(1, XDATA, add(CFA_XSP16, literal(-1)))
          CFI (cfiCond126) CFA_SP SP+-2
          CFI (cfiCond126) CFA_XSP16 add(XSP16, 48)
          CFI Block cfiPicker127 Using cfiCommon1
          CFI (cfiPicker127) NoFunction
          CFI (cfiPicker127) Picker
        INC     DPTR
        INC     DPTR
        INC     DPTR
          CFI EndBlock cfiCond125
          CFI EndBlock cfiCond126
          CFI EndBlock cfiPicker127
        REQUIRE ??Subroutine39_0
        ; // Fall through to label ??Subroutine39_0

        RSEG BANKED_CODE:CODE:NOROOT(0)
??Subroutine39_0:
          CFI Block cfiCond128 Using cfiCommon0
          CFI Function AF_DataRequest
          CFI Conditional ??CrossCallReturnLabel_83
          CFI R6 load(1, XDATA, add(CFA_XSP16, literal(-18)))
          CFI VB load(1, XDATA, add(CFA_XSP16, literal(-17)))
          CFI V0 load(1, XDATA, add(CFA_XSP16, literal(-16)))
          CFI V1 load(1, XDATA, add(CFA_XSP16, literal(-15)))
          CFI V2 load(1, XDATA, add(CFA_XSP16, literal(-14)))
          CFI V3 load(1, XDATA, add(CFA_XSP16, literal(-13)))
          CFI V4 load(1, XDATA, add(CFA_XSP16, literal(-12)))
          CFI V5 load(1, XDATA, add(CFA_XSP16, literal(-11)))
          CFI V6 load(1, XDATA, add(CFA_XSP16, literal(-10)))
          CFI V7 load(1, XDATA, add(CFA_XSP16, literal(-9)))
          CFI V8 load(1, XDATA, add(CFA_XSP16, literal(-8)))
          CFI V9 load(1, XDATA, add(CFA_XSP16, literal(-7)))
          CFI R7 load(1, XDATA, add(CFA_XSP16, literal(-6)))
          CFI ?RET_LOW load(1, XDATA, add(CFA_XSP16, literal(-5)))
          CFI ?RET_HIGH load(1, XDATA, add(CFA_XSP16, literal(-4)))
          CFI ?BRET_EXT load(1, XDATA, add(CFA_XSP16, literal(-3)))
          CFI DPL0 load(1, XDATA, add(CFA_XSP16, literal(-2)))
          CFI DPH0 load(1, XDATA, add(CFA_XSP16, literal(-1)))
          CFI CFA_SP SP+-2
          CFI CFA_XSP16 add(XSP16, 48)
          CFI Block cfiCond129 Using cfiCommon0
          CFI (cfiCond129) Function AF_DataRequest
          CFI (cfiCond129) Conditional ??CrossCallReturnLabel_84
          CFI (cfiCond129) R6 load(1, XDATA, add(CFA_XSP16, literal(-18)))
          CFI (cfiCond129) VB load(1, XDATA, add(CFA_XSP16, literal(-17)))
          CFI (cfiCond129) V0 load(1, XDATA, add(CFA_XSP16, literal(-16)))
          CFI (cfiCond129) V1 load(1, XDATA, add(CFA_XSP16, literal(-15)))
          CFI (cfiCond129) V2 load(1, XDATA, add(CFA_XSP16, literal(-14)))
          CFI (cfiCond129) V3 load(1, XDATA, add(CFA_XSP16, literal(-13)))
          CFI (cfiCond129) V4 load(1, XDATA, add(CFA_XSP16, literal(-12)))
          CFI (cfiCond129) V5 load(1, XDATA, add(CFA_XSP16, literal(-11)))
          CFI (cfiCond129) V6 load(1, XDATA, add(CFA_XSP16, literal(-10)))
          CFI (cfiCond129) V7 load(1, XDATA, add(CFA_XSP16, literal(-9)))
          CFI (cfiCond129) V8 load(1, XDATA, add(CFA_XSP16, literal(-8)))
          CFI (cfiCond129) V9 load(1, XDATA, add(CFA_XSP16, literal(-7)))
          CFI (cfiCond129) R7 load(1, XDATA, add(CFA_XSP16, literal(-6)))
          CFI (cfiCond129) ?RET_LOW load(1, XDATA, add(CFA_XSP16, literal(-5)))
          CFI (cfiCond129) ?RET_HIGH load(1, XDATA, add(CFA_XSP16, literal(-4)))
          CFI (cfiCond129) ?BRET_EXT load(1, XDATA, add(CFA_XSP16, literal(-3)))
          CFI (cfiCond129) DPL0 load(1, XDATA, add(CFA_XSP16, literal(-2)))
          CFI (cfiCond129) DPH0 load(1, XDATA, add(CFA_XSP16, literal(-1)))
          CFI (cfiCond129) CFA_SP SP+-2
          CFI (cfiCond129) CFA_XSP16 add(XSP16, 48)
          CFI Block cfiCond130 Using cfiCommon0
          CFI (cfiCond130) Function AF_DataRequest
          CFI (cfiCond130) Conditional ??CrossCallReturnLabel_85
          CFI (cfiCond130) R6 load(1, XDATA, add(CFA_XSP16, literal(-18)))
          CFI (cfiCond130) VB load(1, XDATA, add(CFA_XSP16, literal(-17)))
          CFI (cfiCond130) V0 load(1, XDATA, add(CFA_XSP16, literal(-16)))
          CFI (cfiCond130) V1 load(1, XDATA, add(CFA_XSP16, literal(-15)))
          CFI (cfiCond130) V2 load(1, XDATA, add(CFA_XSP16, literal(-14)))
          CFI (cfiCond130) V3 load(1, XDATA, add(CFA_XSP16, literal(-13)))
          CFI (cfiCond130) V4 load(1, XDATA, add(CFA_XSP16, literal(-12)))
          CFI (cfiCond130) V5 load(1, XDATA, add(CFA_XSP16, literal(-11)))
          CFI (cfiCond130) V6 load(1, XDATA, add(CFA_XSP16, literal(-10)))
          CFI (cfiCond130) V7 load(1, XDATA, add(CFA_XSP16, literal(-9)))
          CFI (cfiCond130) V8 load(1, XDATA, add(CFA_XSP16, literal(-8)))
          CFI (cfiCond130) V9 load(1, XDATA, add(CFA_XSP16, literal(-7)))
          CFI (cfiCond130) R7 load(1, XDATA, add(CFA_XSP16, literal(-6)))
          CFI (cfiCond130) ?RET_LOW load(1, XDATA, add(CFA_XSP16, literal(-5)))
          CFI (cfiCond130) ?RET_HIGH load(1, XDATA, add(CFA_XSP16, literal(-4)))
          CFI (cfiCond130) ?BRET_EXT load(1, XDATA, add(CFA_XSP16, literal(-3)))
          CFI (cfiCond130) DPL0 load(1, XDATA, add(CFA_XSP16, literal(-2)))
          CFI (cfiCond130) DPH0 load(1, XDATA, add(CFA_XSP16, literal(-1)))
          CFI (cfiCond130) CFA_SP SP+-2
          CFI (cfiCond130) CFA_XSP16 add(XSP16, 48)
          CFI Block cfiPicker131 Using cfiCommon1
          CFI (cfiPicker131) NoFunction
          CFI (cfiPicker131) Picker
        INC     DPTR
          CFI EndBlock cfiCond128
          CFI EndBlock cfiCond129
          CFI EndBlock cfiCond130
          CFI EndBlock cfiPicker131
        REQUIRE ??Subroutine40_0
        ; // Fall through to label ??Subroutine40_0

        RSEG BANKED_CODE:CODE:NOROOT(0)
??Subroutine40_0:
          CFI Block cfiCond132 Using cfiCommon0
          CFI Function afDelete
          CFI Conditional ??CrossCallReturnLabel_78
          CFI R6 load(1, XDATA, add(CFA_XSP16, literal(-9)))
          CFI VB load(1, XDATA, add(CFA_XSP16, literal(-8)))
          CFI V0 load(1, XDATA, add(CFA_XSP16, literal(-7)))
          CFI R7 load(1, XDATA, add(CFA_XSP16, literal(-6)))
          CFI ?RET_LOW load(1, XDATA, add(CFA_XSP16, literal(-5)))
          CFI ?RET_HIGH load(1, XDATA, add(CFA_XSP16, literal(-4)))
          CFI ?BRET_EXT load(1, XDATA, add(CFA_XSP16, literal(-3)))
          CFI DPL0 load(1, XDATA, add(CFA_XSP16, literal(-2)))
          CFI DPH0 load(1, XDATA, add(CFA_XSP16, literal(-1)))
          CFI CFA_SP SP+-2
          CFI CFA_XSP16 add(XSP16, 9)
          CFI Block cfiCond133 Using cfiCommon0
          CFI (cfiCond133) Function AF_DataRequest
          CFI (cfiCond133) Conditional ??CrossCallReturnLabel_79
          CFI (cfiCond133) R6 load(1, XDATA, add(CFA_XSP16, literal(-18)))
          CFI (cfiCond133) VB load(1, XDATA, add(CFA_XSP16, literal(-17)))
          CFI (cfiCond133) V0 load(1, XDATA, add(CFA_XSP16, literal(-16)))
          CFI (cfiCond133) V1 load(1, XDATA, add(CFA_XSP16, literal(-15)))
          CFI (cfiCond133) V2 load(1, XDATA, add(CFA_XSP16, literal(-14)))
          CFI (cfiCond133) V3 load(1, XDATA, add(CFA_XSP16, literal(-13)))
          CFI (cfiCond133) V4 load(1, XDATA, add(CFA_XSP16, literal(-12)))
          CFI (cfiCond133) V5 load(1, XDATA, add(CFA_XSP16, literal(-11)))
          CFI (cfiCond133) V6 load(1, XDATA, add(CFA_XSP16, literal(-10)))
          CFI (cfiCond133) V7 load(1, XDATA, add(CFA_XSP16, literal(-9)))
          CFI (cfiCond133) V8 load(1, XDATA, add(CFA_XSP16, literal(-8)))
          CFI (cfiCond133) V9 load(1, XDATA, add(CFA_XSP16, literal(-7)))
          CFI (cfiCond133) R7 load(1, XDATA, add(CFA_XSP16, literal(-6)))
          CFI (cfiCond133) ?RET_LOW load(1, XDATA, add(CFA_XSP16, literal(-5)))
          CFI (cfiCond133) ?RET_HIGH load(1, XDATA, add(CFA_XSP16, literal(-4)))
          CFI (cfiCond133) ?BRET_EXT load(1, XDATA, add(CFA_XSP16, literal(-3)))
          CFI (cfiCond133) DPL0 load(1, XDATA, add(CFA_XSP16, literal(-2)))
          CFI (cfiCond133) DPH0 load(1, XDATA, add(CFA_XSP16, literal(-1)))
          CFI (cfiCond133) CFA_SP SP+-2
          CFI (cfiCond133) CFA_XSP16 add(XSP16, 48)
          CFI Block cfiCond134 Using cfiCommon0
          CFI (cfiCond134) Function AF_DataRequest
          CFI (cfiCond134) Conditional ??CrossCallReturnLabel_80
          CFI (cfiCond134) R6 load(1, XDATA, add(CFA_XSP16, literal(-18)))
          CFI (cfiCond134) VB load(1, XDATA, add(CFA_XSP16, literal(-17)))
          CFI (cfiCond134) V0 load(1, XDATA, add(CFA_XSP16, literal(-16)))
          CFI (cfiCond134) V1 load(1, XDATA, add(CFA_XSP16, literal(-15)))
          CFI (cfiCond134) V2 load(1, XDATA, add(CFA_XSP16, literal(-14)))
          CFI (cfiCond134) V3 load(1, XDATA, add(CFA_XSP16, literal(-13)))
          CFI (cfiCond134) V4 load(1, XDATA, add(CFA_XSP16, literal(-12)))
          CFI (cfiCond134) V5 load(1, XDATA, add(CFA_XSP16, literal(-11)))
          CFI (cfiCond134) V6 load(1, XDATA, add(CFA_XSP16, literal(-10)))
          CFI (cfiCond134) V7 load(1, XDATA, add(CFA_XSP16, literal(-9)))
          CFI (cfiCond134) V8 load(1, XDATA, add(CFA_XSP16, literal(-8)))
          CFI (cfiCond134) V9 load(1, XDATA, add(CFA_XSP16, literal(-7)))
          CFI (cfiCond134) R7 load(1, XDATA, add(CFA_XSP16, literal(-6)))
          CFI (cfiCond134) ?RET_LOW load(1, XDATA, add(CFA_XSP16, literal(-5)))
          CFI (cfiCond134) ?RET_HIGH load(1, XDATA, add(CFA_XSP16, literal(-4)))
          CFI (cfiCond134) ?BRET_EXT load(1, XDATA, add(CFA_XSP16, literal(-3)))
          CFI (cfiCond134) DPL0 load(1, XDATA, add(CFA_XSP16, literal(-2)))
          CFI (cfiCond134) DPH0 load(1, XDATA, add(CFA_XSP16, literal(-1)))
          CFI (cfiCond134) CFA_SP SP+-2
          CFI (cfiCond134) CFA_XSP16 add(XSP16, 48)
          CFI Block cfiCond135 Using cfiCommon0
          CFI (cfiCond135) Function AF_DataRequest
          CFI (cfiCond135) Conditional ??CrossCallReturnLabel_81
          CFI (cfiCond135) R6 load(1, XDATA, add(CFA_XSP16, literal(-18)))
          CFI (cfiCond135) VB load(1, XDATA, add(CFA_XSP16, literal(-17)))
          CFI (cfiCond135) V0 load(1, XDATA, add(CFA_XSP16, literal(-16)))
          CFI (cfiCond135) V1 load(1, XDATA, add(CFA_XSP16, literal(-15)))
          CFI (cfiCond135) V2 load(1, XDATA, add(CFA_XSP16, literal(-14)))
          CFI (cfiCond135) V3 load(1, XDATA, add(CFA_XSP16, literal(-13)))
          CFI (cfiCond135) V4 load(1, XDATA, add(CFA_XSP16, literal(-12)))
          CFI (cfiCond135) V5 load(1, XDATA, add(CFA_XSP16, literal(-11)))
          CFI (cfiCond135) V6 load(1, XDATA, add(CFA_XSP16, literal(-10)))
          CFI (cfiCond135) V7 load(1, XDATA, add(CFA_XSP16, literal(-9)))
          CFI (cfiCond135) V8 load(1, XDATA, add(CFA_XSP16, literal(-8)))
          CFI (cfiCond135) V9 load(1, XDATA, add(CFA_XSP16, literal(-7)))
          CFI (cfiCond135) R7 load(1, XDATA, add(CFA_XSP16, literal(-6)))
          CFI (cfiCond135) ?RET_LOW load(1, XDATA, add(CFA_XSP16, literal(-5)))
          CFI (cfiCond135) ?RET_HIGH load(1, XDATA, add(CFA_XSP16, literal(-4)))
          CFI (cfiCond135) ?BRET_EXT load(1, XDATA, add(CFA_XSP16, literal(-3)))
          CFI (cfiCond135) DPL0 load(1, XDATA, add(CFA_XSP16, literal(-2)))
          CFI (cfiCond135) DPH0 load(1, XDATA, add(CFA_XSP16, literal(-1)))
          CFI (cfiCond135) CFA_SP SP+-2
          CFI (cfiCond135) CFA_XSP16 add(XSP16, 48)
          CFI Block cfiCond136 Using cfiCommon0
          CFI (cfiCond136) Function AF_DataRequest
          CFI (cfiCond136) Conditional ??CrossCallReturnLabel_82
          CFI (cfiCond136) R6 load(1, XDATA, add(CFA_XSP16, literal(-18)))
          CFI (cfiCond136) VB load(1, XDATA, add(CFA_XSP16, literal(-17)))
          CFI (cfiCond136) V0 load(1, XDATA, add(CFA_XSP16, literal(-16)))
          CFI (cfiCond136) V1 load(1, XDATA, add(CFA_XSP16, literal(-15)))
          CFI (cfiCond136) V2 load(1, XDATA, add(CFA_XSP16, literal(-14)))
          CFI (cfiCond136) V3 load(1, XDATA, add(CFA_XSP16, literal(-13)))
          CFI (cfiCond136) V4 load(1, XDATA, add(CFA_XSP16, literal(-12)))
          CFI (cfiCond136) V5 load(1, XDATA, add(CFA_XSP16, literal(-11)))
          CFI (cfiCond136) V6 load(1, XDATA, add(CFA_XSP16, literal(-10)))
          CFI (cfiCond136) V7 load(1, XDATA, add(CFA_XSP16, literal(-9)))
          CFI (cfiCond136) V8 load(1, XDATA, add(CFA_XSP16, literal(-8)))
          CFI (cfiCond136) V9 load(1, XDATA, add(CFA_XSP16, literal(-7)))
          CFI (cfiCond136) R7 load(1, XDATA, add(CFA_XSP16, literal(-6)))
          CFI (cfiCond136) ?RET_LOW load(1, XDATA, add(CFA_XSP16, literal(-5)))
          CFI (cfiCond136) ?RET_HIGH load(1, XDATA, add(CFA_XSP16, literal(-4)))
          CFI (cfiCond136) ?BRET_EXT load(1, XDATA, add(CFA_XSP16, literal(-3)))
          CFI (cfiCond136) DPL0 load(1, XDATA, add(CFA_XSP16, literal(-2)))
          CFI (cfiCond136) DPH0 load(1, XDATA, add(CFA_XSP16, literal(-1)))
          CFI (cfiCond136) CFA_SP SP+-2
          CFI (cfiCond136) CFA_XSP16 add(XSP16, 48)
          CFI Block cfiCond137 Using cfiCommon0
          CFI (cfiCond137) Function AF_DataRequest
          CFI (cfiCond137) Conditional ??CrossCallReturnLabel_83
          CFI (cfiCond137) R6 load(1, XDATA, add(CFA_XSP16, literal(-18)))
          CFI (cfiCond137) VB load(1, XDATA, add(CFA_XSP16, literal(-17)))
          CFI (cfiCond137) V0 load(1, XDATA, add(CFA_XSP16, literal(-16)))
          CFI (cfiCond137) V1 load(1, XDATA, add(CFA_XSP16, literal(-15)))
          CFI (cfiCond137) V2 load(1, XDATA, add(CFA_XSP16, literal(-14)))
          CFI (cfiCond137) V3 load(1, XDATA, add(CFA_XSP16, literal(-13)))
          CFI (cfiCond137) V4 load(1, XDATA, add(CFA_XSP16, literal(-12)))
          CFI (cfiCond137) V5 load(1, XDATA, add(CFA_XSP16, literal(-11)))
          CFI (cfiCond137) V6 load(1, XDATA, add(CFA_XSP16, literal(-10)))
          CFI (cfiCond137) V7 load(1, XDATA, add(CFA_XSP16, literal(-9)))
          CFI (cfiCond137) V8 load(1, XDATA, add(CFA_XSP16, literal(-8)))
          CFI (cfiCond137) V9 load(1, XDATA, add(CFA_XSP16, literal(-7)))
          CFI (cfiCond137) R7 load(1, XDATA, add(CFA_XSP16, literal(-6)))
          CFI (cfiCond137) ?RET_LOW load(1, XDATA, add(CFA_XSP16, literal(-5)))
          CFI (cfiCond137) ?RET_HIGH load(1, XDATA, add(CFA_XSP16, literal(-4)))
          CFI (cfiCond137) ?BRET_EXT load(1, XDATA, add(CFA_XSP16, literal(-3)))
          CFI (cfiCond137) DPL0 load(1, XDATA, add(CFA_XSP16, literal(-2)))
          CFI (cfiCond137) DPH0 load(1, XDATA, add(CFA_XSP16, literal(-1)))
          CFI (cfiCond137) CFA_SP SP+-2
          CFI (cfiCond137) CFA_XSP16 add(XSP16, 48)
          CFI Block cfiCond138 Using cfiCommon0
          CFI (cfiCond138) Function AF_DataRequest
          CFI (cfiCond138) Conditional ??CrossCallReturnLabel_84
          CFI (cfiCond138) R6 load(1, XDATA, add(CFA_XSP16, literal(-18)))
          CFI (cfiCond138) VB load(1, XDATA, add(CFA_XSP16, literal(-17)))
          CFI (cfiCond138) V0 load(1, XDATA, add(CFA_XSP16, literal(-16)))
          CFI (cfiCond138) V1 load(1, XDATA, add(CFA_XSP16, literal(-15)))
          CFI (cfiCond138) V2 load(1, XDATA, add(CFA_XSP16, literal(-14)))
          CFI (cfiCond138) V3 load(1, XDATA, add(CFA_XSP16, literal(-13)))
          CFI (cfiCond138) V4 load(1, XDATA, add(CFA_XSP16, literal(-12)))
          CFI (cfiCond138) V5 load(1, XDATA, add(CFA_XSP16, literal(-11)))
          CFI (cfiCond138) V6 load(1, XDATA, add(CFA_XSP16, literal(-10)))
          CFI (cfiCond138) V7 load(1, XDATA, add(CFA_XSP16, literal(-9)))
          CFI (cfiCond138) V8 load(1, XDATA, add(CFA_XSP16, literal(-8)))
          CFI (cfiCond138) V9 load(1, XDATA, add(CFA_XSP16, literal(-7)))
          CFI (cfiCond138) R7 load(1, XDATA, add(CFA_XSP16, literal(-6)))
          CFI (cfiCond138) ?RET_LOW load(1, XDATA, add(CFA_XSP16, literal(-5)))
          CFI (cfiCond138) ?RET_HIGH load(1, XDATA, add(CFA_XSP16, literal(-4)))
          CFI (cfiCond138) ?BRET_EXT load(1, XDATA, add(CFA_XSP16, literal(-3)))
          CFI (cfiCond138) DPL0 load(1, XDATA, add(CFA_XSP16, literal(-2)))
          CFI (cfiCond138) DPH0 load(1, XDATA, add(CFA_XSP16, literal(-1)))
          CFI (cfiCond138) CFA_SP SP+-2
          CFI (cfiCond138) CFA_XSP16 add(XSP16, 48)
          CFI Block cfiCond139 Using cfiCommon0
          CFI (cfiCond139) Function AF_DataRequest
          CFI (cfiCond139) Conditional ??CrossCallReturnLabel_85
          CFI (cfiCond139) R6 load(1, XDATA, add(CFA_XSP16, literal(-18)))
          CFI (cfiCond139) VB load(1, XDATA, add(CFA_XSP16, literal(-17)))
          CFI (cfiCond139) V0 load(1, XDATA, add(CFA_XSP16, literal(-16)))
          CFI (cfiCond139) V1 load(1, XDATA, add(CFA_XSP16, literal(-15)))
          CFI (cfiCond139) V2 load(1, XDATA, add(CFA_XSP16, literal(-14)))
          CFI (cfiCond139) V3 load(1, XDATA, add(CFA_XSP16, literal(-13)))
          CFI (cfiCond139) V4 load(1, XDATA, add(CFA_XSP16, literal(-12)))
          CFI (cfiCond139) V5 load(1, XDATA, add(CFA_XSP16, literal(-11)))
          CFI (cfiCond139) V6 load(1, XDATA, add(CFA_XSP16, literal(-10)))
          CFI (cfiCond139) V7 load(1, XDATA, add(CFA_XSP16, literal(-9)))
          CFI (cfiCond139) V8 load(1, XDATA, add(CFA_XSP16, literal(-8)))
          CFI (cfiCond139) V9 load(1, XDATA, add(CFA_XSP16, literal(-7)))
          CFI (cfiCond139) R7 load(1, XDATA, add(CFA_XSP16, literal(-6)))
          CFI (cfiCond139) ?RET_LOW load(1, XDATA, add(CFA_XSP16, literal(-5)))
          CFI (cfiCond139) ?RET_HIGH load(1, XDATA, add(CFA_XSP16, literal(-4)))
          CFI (cfiCond139) ?BRET_EXT load(1, XDATA, add(CFA_XSP16, literal(-3)))
          CFI (cfiCond139) DPL0 load(1, XDATA, add(CFA_XSP16, literal(-2)))
          CFI (cfiCond139) DPH0 load(1, XDATA, add(CFA_XSP16, literal(-1)))
          CFI (cfiCond139) CFA_SP SP+-2
          CFI (cfiCond139) CFA_XSP16 add(XSP16, 48)
          CFI Block cfiPicker140 Using cfiCommon1
          CFI (cfiPicker140) NoFunction
          CFI (cfiPicker140) Picker
        LCALL   ?Subroutine32 & 0xFFFF
??CrossCallReturnLabel_91:
        RET
          CFI EndBlock cfiCond132
          CFI EndBlock cfiCond133
          CFI EndBlock cfiCond134
          CFI EndBlock cfiCond135
          CFI EndBlock cfiCond136
          CFI EndBlock cfiCond137
          CFI EndBlock cfiCond138
          CFI EndBlock cfiCond139
          CFI EndBlock cfiPicker140

        RSEG BANKED_CODE:CODE:NOROOT(0)
?Subroutine32:
          CFI Block cfiCond141 Using cfiCommon0
          CFI Function afRegisterExtended
          CFI Conditional ??CrossCallReturnLabel_87, ??CrossCallReturnLabel_12
          CFI R6 load(1, XDATA, add(CFA_XSP16, literal(-12)))
          CFI VB load(1, XDATA, add(CFA_XSP16, literal(-11)))
          CFI V0 load(1, XDATA, add(CFA_XSP16, literal(-10)))
          CFI V1 load(1, XDATA, add(CFA_XSP16, literal(-9)))
          CFI V2 load(1, XDATA, add(CFA_XSP16, literal(-8)))
          CFI V3 load(1, XDATA, add(CFA_XSP16, literal(-7)))
          CFI R7 load(1, XDATA, add(CFA_XSP16, literal(-6)))
          CFI ?RET_LOW load(1, XDATA, add(CFA_XSP16, literal(-5)))
          CFI ?RET_HIGH load(1, XDATA, add(CFA_XSP16, literal(-4)))
          CFI ?BRET_EXT load(1, XDATA, add(CFA_XSP16, literal(-3)))
          CFI DPL0 load(1, XDATA, add(CFA_XSP16, literal(-2)))
          CFI DPH0 load(1, XDATA, add(CFA_XSP16, literal(-1)))
          CFI CFA_SP SP+-4
          CFI CFA_XSP16 add(XSP16, 12)
          CFI Block cfiCond142 Using cfiCommon0
          CFI (cfiCond142) Function afRegisterExtended
          CFI (cfiCond142) Conditional ??CrossCallReturnLabel_87, ??CrossCallReturnLabel_13
          CFI (cfiCond142) R6 load(1, XDATA, add(CFA_XSP16, literal(-12)))
          CFI (cfiCond142) VB load(1, XDATA, add(CFA_XSP16, literal(-11)))
          CFI (cfiCond142) V0 load(1, XDATA, add(CFA_XSP16, literal(-10)))
          CFI (cfiCond142) V1 load(1, XDATA, add(CFA_XSP16, literal(-9)))
          CFI (cfiCond142) V2 load(1, XDATA, add(CFA_XSP16, literal(-8)))
          CFI (cfiCond142) V3 load(1, XDATA, add(CFA_XSP16, literal(-7)))
          CFI (cfiCond142) R7 load(1, XDATA, add(CFA_XSP16, literal(-6)))
          CFI (cfiCond142) ?RET_LOW load(1, XDATA, add(CFA_XSP16, literal(-5)))
          CFI (cfiCond142) ?RET_HIGH load(1, XDATA, add(CFA_XSP16, literal(-4)))
          CFI (cfiCond142) ?BRET_EXT load(1, XDATA, add(CFA_XSP16, literal(-3)))
          CFI (cfiCond142) DPL0 load(1, XDATA, add(CFA_XSP16, literal(-2)))
          CFI (cfiCond142) DPH0 load(1, XDATA, add(CFA_XSP16, literal(-1)))
          CFI (cfiCond142) CFA_SP SP+-4
          CFI (cfiCond142) CFA_XSP16 add(XSP16, 12)
          CFI Block cfiCond143 Using cfiCommon0
          CFI (cfiCond143) Function afBuildMSGIncoming
          CFI (cfiCond143) Conditional ??CrossCallReturnLabel_89, ??CrossCallReturnLabel_16
          CFI (cfiCond143) R6 load(1, XDATA, add(CFA_XSP16, literal(-19)))
          CFI (cfiCond143) VB load(1, XDATA, add(CFA_XSP16, literal(-18)))
          CFI (cfiCond143) V0 load(1, XDATA, add(CFA_XSP16, literal(-17)))
          CFI (cfiCond143) V1 load(1, XDATA, add(CFA_XSP16, literal(-16)))
          CFI (cfiCond143) V2 load(1, XDATA, add(CFA_XSP16, literal(-15)))
          CFI (cfiCond143) V3 load(1, XDATA, add(CFA_XSP16, literal(-14)))
          CFI (cfiCond143) V4 load(1, XDATA, add(CFA_XSP16, literal(-13)))
          CFI (cfiCond143) V5 load(1, XDATA, add(CFA_XSP16, literal(-12)))
          CFI (cfiCond143) V6 load(1, XDATA, add(CFA_XSP16, literal(-11)))
          CFI (cfiCond143) V7 load(1, XDATA, add(CFA_XSP16, literal(-10)))
          CFI (cfiCond143) V8 load(1, XDATA, add(CFA_XSP16, literal(-9)))
          CFI (cfiCond143) V9 load(1, XDATA, add(CFA_XSP16, literal(-8)))
          CFI (cfiCond143) V10 load(1, XDATA, add(CFA_XSP16, literal(-7)))
          CFI (cfiCond143) R7 load(1, XDATA, add(CFA_XSP16, literal(-6)))
          CFI (cfiCond143) ?RET_LOW load(1, XDATA, add(CFA_XSP16, literal(-5)))
          CFI (cfiCond143) ?RET_HIGH load(1, XDATA, add(CFA_XSP16, literal(-4)))
          CFI (cfiCond143) ?BRET_EXT load(1, XDATA, add(CFA_XSP16, literal(-3)))
          CFI (cfiCond143) DPL0 load(1, XDATA, add(CFA_XSP16, literal(-2)))
          CFI (cfiCond143) DPH0 load(1, XDATA, add(CFA_XSP16, literal(-1)))
          CFI (cfiCond143) CFA_SP SP+-4
          CFI (cfiCond143) CFA_XSP16 add(XSP16, 19)
          CFI Block cfiCond144 Using cfiCommon0
          CFI (cfiCond144) Function afBuildMSGIncoming
          CFI (cfiCond144) Conditional ??CrossCallReturnLabel_89, ??CrossCallReturnLabel_17
          CFI (cfiCond144) R6 load(1, XDATA, add(CFA_XSP16, literal(-19)))
          CFI (cfiCond144) VB load(1, XDATA, add(CFA_XSP16, literal(-18)))
          CFI (cfiCond144) V0 load(1, XDATA, add(CFA_XSP16, literal(-17)))
          CFI (cfiCond144) V1 load(1, XDATA, add(CFA_XSP16, literal(-16)))
          CFI (cfiCond144) V2 load(1, XDATA, add(CFA_XSP16, literal(-15)))
          CFI (cfiCond144) V3 load(1, XDATA, add(CFA_XSP16, literal(-14)))
          CFI (cfiCond144) V4 load(1, XDATA, add(CFA_XSP16, literal(-13)))
          CFI (cfiCond144) V5 load(1, XDATA, add(CFA_XSP16, literal(-12)))
          CFI (cfiCond144) V6 load(1, XDATA, add(CFA_XSP16, literal(-11)))
          CFI (cfiCond144) V7 load(1, XDATA, add(CFA_XSP16, literal(-10)))
          CFI (cfiCond144) V8 load(1, XDATA, add(CFA_XSP16, literal(-9)))
          CFI (cfiCond144) V9 load(1, XDATA, add(CFA_XSP16, literal(-8)))
          CFI (cfiCond144) V10 load(1, XDATA, add(CFA_XSP16, literal(-7)))
          CFI (cfiCond144) R7 load(1, XDATA, add(CFA_XSP16, literal(-6)))
          CFI (cfiCond144) ?RET_LOW load(1, XDATA, add(CFA_XSP16, literal(-5)))
          CFI (cfiCond144) ?RET_HIGH load(1, XDATA, add(CFA_XSP16, literal(-4)))
          CFI (cfiCond144) ?BRET_EXT load(1, XDATA, add(CFA_XSP16, literal(-3)))
          CFI (cfiCond144) DPL0 load(1, XDATA, add(CFA_XSP16, literal(-2)))
          CFI (cfiCond144) DPH0 load(1, XDATA, add(CFA_XSP16, literal(-1)))
          CFI (cfiCond144) CFA_SP SP+-4
          CFI (cfiCond144) CFA_XSP16 add(XSP16, 19)
          CFI Block cfiCond145 Using cfiCommon0
          CFI (cfiCond145) Function afBuildMSGIncoming
          CFI (cfiCond145) Conditional ??CrossCallReturnLabel_89, ??CrossCallReturnLabel_18
          CFI (cfiCond145) R6 load(1, XDATA, add(CFA_XSP16, literal(-19)))
          CFI (cfiCond145) VB load(1, XDATA, add(CFA_XSP16, literal(-18)))
          CFI (cfiCond145) V0 load(1, XDATA, add(CFA_XSP16, literal(-17)))
          CFI (cfiCond145) V1 load(1, XDATA, add(CFA_XSP16, literal(-16)))
          CFI (cfiCond145) V2 load(1, XDATA, add(CFA_XSP16, literal(-15)))
          CFI (cfiCond145) V3 load(1, XDATA, add(CFA_XSP16, literal(-14)))
          CFI (cfiCond145) V4 load(1, XDATA, add(CFA_XSP16, literal(-13)))
          CFI (cfiCond145) V5 load(1, XDATA, add(CFA_XSP16, literal(-12)))
          CFI (cfiCond145) V6 load(1, XDATA, add(CFA_XSP16, literal(-11)))
          CFI (cfiCond145) V7 load(1, XDATA, add(CFA_XSP16, literal(-10)))
          CFI (cfiCond145) V8 load(1, XDATA, add(CFA_XSP16, literal(-9)))
          CFI (cfiCond145) V9 load(1, XDATA, add(CFA_XSP16, literal(-8)))
          CFI (cfiCond145) V10 load(1, XDATA, add(CFA_XSP16, literal(-7)))
          CFI (cfiCond145) R7 load(1, XDATA, add(CFA_XSP16, literal(-6)))
          CFI (cfiCond145) ?RET_LOW load(1, XDATA, add(CFA_XSP16, literal(-5)))
          CFI (cfiCond145) ?RET_HIGH load(1, XDATA, add(CFA_XSP16, literal(-4)))
          CFI (cfiCond145) ?BRET_EXT load(1, XDATA, add(CFA_XSP16, literal(-3)))
          CFI (cfiCond145) DPL0 load(1, XDATA, add(CFA_XSP16, literal(-2)))
          CFI (cfiCond145) DPH0 load(1, XDATA, add(CFA_XSP16, literal(-1)))
          CFI (cfiCond145) CFA_SP SP+-4
          CFI (cfiCond145) CFA_XSP16 add(XSP16, 19)
          CFI Block cfiCond146 Using cfiCommon0
          CFI (cfiCond146) Function afBuildMSGIncoming
          CFI (cfiCond146) Conditional ??CrossCallReturnLabel_86, ??CrossCallReturnLabel_0
          CFI (cfiCond146) R6 load(1, XDATA, add(CFA_XSP16, literal(-19)))
          CFI (cfiCond146) VB load(1, XDATA, add(CFA_XSP16, literal(-18)))
          CFI (cfiCond146) V0 load(1, XDATA, add(CFA_XSP16, literal(-17)))
          CFI (cfiCond146) V1 load(1, XDATA, add(CFA_XSP16, literal(-16)))
          CFI (cfiCond146) V2 load(1, XDATA, add(CFA_XSP16, literal(-15)))
          CFI (cfiCond146) V3 load(1, XDATA, add(CFA_XSP16, literal(-14)))
          CFI (cfiCond146) V4 load(1, XDATA, add(CFA_XSP16, literal(-13)))
          CFI (cfiCond146) V5 load(1, XDATA, add(CFA_XSP16, literal(-12)))
          CFI (cfiCond146) V6 load(1, XDATA, add(CFA_XSP16, literal(-11)))
          CFI (cfiCond146) V7 load(1, XDATA, add(CFA_XSP16, literal(-10)))
          CFI (cfiCond146) V8 load(1, XDATA, add(CFA_XSP16, literal(-9)))
          CFI (cfiCond146) V9 load(1, XDATA, add(CFA_XSP16, literal(-8)))
          CFI (cfiCond146) V10 load(1, XDATA, add(CFA_XSP16, literal(-7)))
          CFI (cfiCond146) R7 load(1, XDATA, add(CFA_XSP16, literal(-6)))
          CFI (cfiCond146) ?RET_LOW load(1, XDATA, add(CFA_XSP16, literal(-5)))
          CFI (cfiCond146) ?RET_HIGH load(1, XDATA, add(CFA_XSP16, literal(-4)))
          CFI (cfiCond146) ?BRET_EXT load(1, XDATA, add(CFA_XSP16, literal(-3)))
          CFI (cfiCond146) DPL0 load(1, XDATA, add(CFA_XSP16, literal(-2)))
          CFI (cfiCond146) DPH0 load(1, XDATA, add(CFA_XSP16, literal(-1)))
          CFI (cfiCond146) CFA_SP SP+-4
          CFI (cfiCond146) CFA_XSP16 add(XSP16, 19)
          CFI Block cfiCond147 Using cfiCommon0
          CFI (cfiCond147) Function afBuildMSGIncoming
          CFI (cfiCond147) Conditional ??CrossCallReturnLabel_86, ??CrossCallReturnLabel_1
          CFI (cfiCond147) R6 load(1, XDATA, add(CFA_XSP16, literal(-19)))
          CFI (cfiCond147) VB load(1, XDATA, add(CFA_XSP16, literal(-18)))
          CFI (cfiCond147) V0 load(1, XDATA, add(CFA_XSP16, literal(-17)))
          CFI (cfiCond147) V1 load(1, XDATA, add(CFA_XSP16, literal(-16)))
          CFI (cfiCond147) V2 load(1, XDATA, add(CFA_XSP16, literal(-15)))
          CFI (cfiCond147) V3 load(1, XDATA, add(CFA_XSP16, literal(-14)))
          CFI (cfiCond147) V4 load(1, XDATA, add(CFA_XSP16, literal(-13)))
          CFI (cfiCond147) V5 load(1, XDATA, add(CFA_XSP16, literal(-12)))
          CFI (cfiCond147) V6 load(1, XDATA, add(CFA_XSP16, literal(-11)))
          CFI (cfiCond147) V7 load(1, XDATA, add(CFA_XSP16, literal(-10)))
          CFI (cfiCond147) V8 load(1, XDATA, add(CFA_XSP16, literal(-9)))
          CFI (cfiCond147) V9 load(1, XDATA, add(CFA_XSP16, literal(-8)))
          CFI (cfiCond147) V10 load(1, XDATA, add(CFA_XSP16, literal(-7)))
          CFI (cfiCond147) R7 load(1, XDATA, add(CFA_XSP16, literal(-6)))
          CFI (cfiCond147) ?RET_LOW load(1, XDATA, add(CFA_XSP16, literal(-5)))
          CFI (cfiCond147) ?RET_HIGH load(1, XDATA, add(CFA_XSP16, literal(-4)))
          CFI (cfiCond147) ?BRET_EXT load(1, XDATA, add(CFA_XSP16, literal(-3)))
          CFI (cfiCond147) DPL0 load(1, XDATA, add(CFA_XSP16, literal(-2)))
          CFI (cfiCond147) DPH0 load(1, XDATA, add(CFA_XSP16, literal(-1)))
          CFI (cfiCond147) CFA_SP SP+-4
          CFI (cfiCond147) CFA_XSP16 add(XSP16, 19)
          CFI Block cfiCond148 Using cfiCommon0
          CFI (cfiCond148) Function afIncomingData
          CFI (cfiCond148) Conditional ??CrossCallReturnLabel_90, ??CrossCallReturnLabel_65
          CFI (cfiCond148) R6 load(1, XDATA, add(CFA_XSP16, literal(-24)))
          CFI (cfiCond148) VB load(1, XDATA, add(CFA_XSP16, literal(-23)))
          CFI (cfiCond148) V0 load(1, XDATA, add(CFA_XSP16, literal(-22)))
          CFI (cfiCond148) V1 load(1, XDATA, add(CFA_XSP16, literal(-21)))
          CFI (cfiCond148) V2 load(1, XDATA, add(CFA_XSP16, literal(-20)))
          CFI (cfiCond148) V3 load(1, XDATA, add(CFA_XSP16, literal(-19)))
          CFI (cfiCond148) V4 load(1, XDATA, add(CFA_XSP16, literal(-18)))
          CFI (cfiCond148) V5 load(1, XDATA, add(CFA_XSP16, literal(-17)))
          CFI (cfiCond148) V6 load(1, XDATA, add(CFA_XSP16, literal(-16)))
          CFI (cfiCond148) V7 load(1, XDATA, add(CFA_XSP16, literal(-15)))
          CFI (cfiCond148) V8 load(1, XDATA, add(CFA_XSP16, literal(-14)))
          CFI (cfiCond148) V9 load(1, XDATA, add(CFA_XSP16, literal(-13)))
          CFI (cfiCond148) V10 load(1, XDATA, add(CFA_XSP16, literal(-12)))
          CFI (cfiCond148) V11 load(1, XDATA, add(CFA_XSP16, literal(-11)))
          CFI (cfiCond148) V12 load(1, XDATA, add(CFA_XSP16, literal(-10)))
          CFI (cfiCond148) V13 load(1, XDATA, add(CFA_XSP16, literal(-9)))
          CFI (cfiCond148) V14 load(1, XDATA, add(CFA_XSP16, literal(-8)))
          CFI (cfiCond148) V15 load(1, XDATA, add(CFA_XSP16, literal(-7)))
          CFI (cfiCond148) R7 load(1, XDATA, add(CFA_XSP16, literal(-6)))
          CFI (cfiCond148) ?RET_LOW load(1, XDATA, add(CFA_XSP16, literal(-5)))
          CFI (cfiCond148) ?RET_HIGH load(1, XDATA, add(CFA_XSP16, literal(-4)))
          CFI (cfiCond148) ?BRET_EXT load(1, XDATA, add(CFA_XSP16, literal(-3)))
          CFI (cfiCond148) DPL0 load(1, XDATA, add(CFA_XSP16, literal(-2)))
          CFI (cfiCond148) DPH0 load(1, XDATA, add(CFA_XSP16, literal(-1)))
          CFI (cfiCond148) CFA_SP SP+-4
          CFI (cfiCond148) CFA_XSP16 add(XSP16, 28)
          CFI Block cfiCond149 Using cfiCommon0
          CFI (cfiCond149) Function AF_DataRequest
          CFI (cfiCond149) Conditional ??CrossCallReturnLabel_90, ??CrossCallReturnLabel_66
          CFI (cfiCond149) R6 load(1, XDATA, add(CFA_XSP16, literal(-18)))
          CFI (cfiCond149) VB load(1, XDATA, add(CFA_XSP16, literal(-17)))
          CFI (cfiCond149) V0 load(1, XDATA, add(CFA_XSP16, literal(-16)))
          CFI (cfiCond149) V1 load(1, XDATA, add(CFA_XSP16, literal(-15)))
          CFI (cfiCond149) V2 load(1, XDATA, add(CFA_XSP16, literal(-14)))
          CFI (cfiCond149) V3 load(1, XDATA, add(CFA_XSP16, literal(-13)))
          CFI (cfiCond149) V4 load(1, XDATA, add(CFA_XSP16, literal(-12)))
          CFI (cfiCond149) V5 load(1, XDATA, add(CFA_XSP16, literal(-11)))
          CFI (cfiCond149) V6 load(1, XDATA, add(CFA_XSP16, literal(-10)))
          CFI (cfiCond149) V7 load(1, XDATA, add(CFA_XSP16, literal(-9)))
          CFI (cfiCond149) V8 load(1, XDATA, add(CFA_XSP16, literal(-8)))
          CFI (cfiCond149) V9 load(1, XDATA, add(CFA_XSP16, literal(-7)))
          CFI (cfiCond149) R7 load(1, XDATA, add(CFA_XSP16, literal(-6)))
          CFI (cfiCond149) ?RET_LOW load(1, XDATA, add(CFA_XSP16, literal(-5)))
          CFI (cfiCond149) ?RET_HIGH load(1, XDATA, add(CFA_XSP16, literal(-4)))
          CFI (cfiCond149) ?BRET_EXT load(1, XDATA, add(CFA_XSP16, literal(-3)))
          CFI (cfiCond149) DPL0 load(1, XDATA, add(CFA_XSP16, literal(-2)))
          CFI (cfiCond149) DPH0 load(1, XDATA, add(CFA_XSP16, literal(-1)))
          CFI (cfiCond149) CFA_SP SP+-4
          CFI (cfiCond149) CFA_XSP16 add(XSP16, 48)
          CFI Block cfiCond150 Using cfiCommon0
          CFI (cfiCond150) Function afIncomingData
          CFI (cfiCond150) Conditional ??CrossCallReturnLabel_90, ??CrossCallReturnLabel_63
          CFI (cfiCond150) R6 load(1, XDATA, add(CFA_XSP16, literal(-24)))
          CFI (cfiCond150) VB load(1, XDATA, add(CFA_XSP16, literal(-23)))
          CFI (cfiCond150) V0 load(1, XDATA, add(CFA_XSP16, literal(-22)))
          CFI (cfiCond150) V1 load(1, XDATA, add(CFA_XSP16, literal(-21)))
          CFI (cfiCond150) V2 load(1, XDATA, add(CFA_XSP16, literal(-20)))
          CFI (cfiCond150) V3 load(1, XDATA, add(CFA_XSP16, literal(-19)))
          CFI (cfiCond150) V4 load(1, XDATA, add(CFA_XSP16, literal(-18)))
          CFI (cfiCond150) V5 load(1, XDATA, add(CFA_XSP16, literal(-17)))
          CFI (cfiCond150) V6 load(1, XDATA, add(CFA_XSP16, literal(-16)))
          CFI (cfiCond150) V7 load(1, XDATA, add(CFA_XSP16, literal(-15)))
          CFI (cfiCond150) V8 load(1, XDATA, add(CFA_XSP16, literal(-14)))
          CFI (cfiCond150) V9 load(1, XDATA, add(CFA_XSP16, literal(-13)))
          CFI (cfiCond150) V10 load(1, XDATA, add(CFA_XSP16, literal(-12)))
          CFI (cfiCond150) V11 load(1, XDATA, add(CFA_XSP16, literal(-11)))
          CFI (cfiCond150) V12 load(1, XDATA, add(CFA_XSP16, literal(-10)))
          CFI (cfiCond150) V13 load(1, XDATA, add(CFA_XSP16, literal(-9)))
          CFI (cfiCond150) V14 load(1, XDATA, add(CFA_XSP16, literal(-8)))
          CFI (cfiCond150) V15 load(1, XDATA, add(CFA_XSP16, literal(-7)))
          CFI (cfiCond150) R7 load(1, XDATA, add(CFA_XSP16, literal(-6)))
          CFI (cfiCond150) ?RET_LOW load(1, XDATA, add(CFA_XSP16, literal(-5)))
          CFI (cfiCond150) ?RET_HIGH load(1, XDATA, add(CFA_XSP16, literal(-4)))
          CFI (cfiCond150) ?BRET_EXT load(1, XDATA, add(CFA_XSP16, literal(-3)))
          CFI (cfiCond150) DPL0 load(1, XDATA, add(CFA_XSP16, literal(-2)))
          CFI (cfiCond150) DPH0 load(1, XDATA, add(CFA_XSP16, literal(-1)))
          CFI (cfiCond150) CFA_SP SP+-4
          CFI (cfiCond150) CFA_XSP16 add(XSP16, 28)
          CFI Block cfiCond151 Using cfiCommon0
          CFI (cfiCond151) Function AF_DataRequest
          CFI (cfiCond151) Conditional ??CrossCallReturnLabel_90, ??CrossCallReturnLabel_64
          CFI (cfiCond151) R6 load(1, XDATA, add(CFA_XSP16, literal(-18)))
          CFI (cfiCond151) VB load(1, XDATA, add(CFA_XSP16, literal(-17)))
          CFI (cfiCond151) V0 load(1, XDATA, add(CFA_XSP16, literal(-16)))
          CFI (cfiCond151) V1 load(1, XDATA, add(CFA_XSP16, literal(-15)))
          CFI (cfiCond151) V2 load(1, XDATA, add(CFA_XSP16, literal(-14)))
          CFI (cfiCond151) V3 load(1, XDATA, add(CFA_XSP16, literal(-13)))
          CFI (cfiCond151) V4 load(1, XDATA, add(CFA_XSP16, literal(-12)))
          CFI (cfiCond151) V5 load(1, XDATA, add(CFA_XSP16, literal(-11)))
          CFI (cfiCond151) V6 load(1, XDATA, add(CFA_XSP16, literal(-10)))
          CFI (cfiCond151) V7 load(1, XDATA, add(CFA_XSP16, literal(-9)))
          CFI (cfiCond151) V8 load(1, XDATA, add(CFA_XSP16, literal(-8)))
          CFI (cfiCond151) V9 load(1, XDATA, add(CFA_XSP16, literal(-7)))
          CFI (cfiCond151) R7 load(1, XDATA, add(CFA_XSP16, literal(-6)))
          CFI (cfiCond151) ?RET_LOW load(1, XDATA, add(CFA_XSP16, literal(-5)))
          CFI (cfiCond151) ?RET_HIGH load(1, XDATA, add(CFA_XSP16, literal(-4)))
          CFI (cfiCond151) ?BRET_EXT load(1, XDATA, add(CFA_XSP16, literal(-3)))
          CFI (cfiCond151) DPL0 load(1, XDATA, add(CFA_XSP16, literal(-2)))
          CFI (cfiCond151) DPH0 load(1, XDATA, add(CFA_XSP16, literal(-1)))
          CFI (cfiCond151) CFA_SP SP+-4
          CFI (cfiCond151) CFA_XSP16 add(XSP16, 48)
          CFI Block cfiCond152 Using cfiCommon0
          CFI (cfiCond152) Function afDelete
          CFI (cfiCond152) Conditional ??CrossCallReturnLabel_90, ??CrossCallReturnLabel_59
          CFI (cfiCond152) R6 load(1, XDATA, add(CFA_XSP16, literal(-9)))
          CFI (cfiCond152) VB load(1, XDATA, add(CFA_XSP16, literal(-8)))
          CFI (cfiCond152) V0 load(1, XDATA, add(CFA_XSP16, literal(-7)))
          CFI (cfiCond152) R7 load(1, XDATA, add(CFA_XSP16, literal(-6)))
          CFI (cfiCond152) ?RET_LOW load(1, XDATA, add(CFA_XSP16, literal(-5)))
          CFI (cfiCond152) ?RET_HIGH load(1, XDATA, add(CFA_XSP16, literal(-4)))
          CFI (cfiCond152) ?BRET_EXT load(1, XDATA, add(CFA_XSP16, literal(-3)))
          CFI (cfiCond152) DPL0 load(1, XDATA, add(CFA_XSP16, literal(-2)))
          CFI (cfiCond152) DPH0 load(1, XDATA, add(CFA_XSP16, literal(-1)))
          CFI (cfiCond152) CFA_SP SP+-4
          CFI (cfiCond152) CFA_XSP16 add(XSP16, 9)
          CFI Block cfiCond153 Using cfiCommon0
          CFI (cfiCond153) Function afIncomingData
          CFI (cfiCond153) Conditional ??CrossCallReturnLabel_90, ??CrossCallReturnLabel_60
          CFI (cfiCond153) R6 load(1, XDATA, add(CFA_XSP16, literal(-24)))
          CFI (cfiCond153) VB load(1, XDATA, add(CFA_XSP16, literal(-23)))
          CFI (cfiCond153) V0 load(1, XDATA, add(CFA_XSP16, literal(-22)))
          CFI (cfiCond153) V1 load(1, XDATA, add(CFA_XSP16, literal(-21)))
          CFI (cfiCond153) V2 load(1, XDATA, add(CFA_XSP16, literal(-20)))
          CFI (cfiCond153) V3 load(1, XDATA, add(CFA_XSP16, literal(-19)))
          CFI (cfiCond153) V4 load(1, XDATA, add(CFA_XSP16, literal(-18)))
          CFI (cfiCond153) V5 load(1, XDATA, add(CFA_XSP16, literal(-17)))
          CFI (cfiCond153) V6 load(1, XDATA, add(CFA_XSP16, literal(-16)))
          CFI (cfiCond153) V7 load(1, XDATA, add(CFA_XSP16, literal(-15)))
          CFI (cfiCond153) V8 load(1, XDATA, add(CFA_XSP16, literal(-14)))
          CFI (cfiCond153) V9 load(1, XDATA, add(CFA_XSP16, literal(-13)))
          CFI (cfiCond153) V10 load(1, XDATA, add(CFA_XSP16, literal(-12)))
          CFI (cfiCond153) V11 load(1, XDATA, add(CFA_XSP16, literal(-11)))
          CFI (cfiCond153) V12 load(1, XDATA, add(CFA_XSP16, literal(-10)))
          CFI (cfiCond153) V13 load(1, XDATA, add(CFA_XSP16, literal(-9)))
          CFI (cfiCond153) V14 load(1, XDATA, add(CFA_XSP16, literal(-8)))
          CFI (cfiCond153) V15 load(1, XDATA, add(CFA_XSP16, literal(-7)))
          CFI (cfiCond153) R7 load(1, XDATA, add(CFA_XSP16, literal(-6)))
          CFI (cfiCond153) ?RET_LOW load(1, XDATA, add(CFA_XSP16, literal(-5)))
          CFI (cfiCond153) ?RET_HIGH load(1, XDATA, add(CFA_XSP16, literal(-4)))
          CFI (cfiCond153) ?BRET_EXT load(1, XDATA, add(CFA_XSP16, literal(-3)))
          CFI (cfiCond153) DPL0 load(1, XDATA, add(CFA_XSP16, literal(-2)))
          CFI (cfiCond153) DPH0 load(1, XDATA, add(CFA_XSP16, literal(-1)))
          CFI (cfiCond153) CFA_SP SP+-4
          CFI (cfiCond153) CFA_XSP16 add(XSP16, 28)
          CFI Block cfiCond154 Using cfiCommon0
          CFI (cfiCond154) Function afBuildMSGIncoming
          CFI (cfiCond154) Conditional ??CrossCallReturnLabel_90, ??CrossCallReturnLabel_61
          CFI (cfiCond154) R6 load(1, XDATA, add(CFA_XSP16, literal(-19)))
          CFI (cfiCond154) VB load(1, XDATA, add(CFA_XSP16, literal(-18)))
          CFI (cfiCond154) V0 load(1, XDATA, add(CFA_XSP16, literal(-17)))
          CFI (cfiCond154) V1 load(1, XDATA, add(CFA_XSP16, literal(-16)))
          CFI (cfiCond154) V2 load(1, XDATA, add(CFA_XSP16, literal(-15)))
          CFI (cfiCond154) V3 load(1, XDATA, add(CFA_XSP16, literal(-14)))
          CFI (cfiCond154) V4 load(1, XDATA, add(CFA_XSP16, literal(-13)))
          CFI (cfiCond154) V5 load(1, XDATA, add(CFA_XSP16, literal(-12)))
          CFI (cfiCond154) V6 load(1, XDATA, add(CFA_XSP16, literal(-11)))
          CFI (cfiCond154) V7 load(1, XDATA, add(CFA_XSP16, literal(-10)))
          CFI (cfiCond154) V8 load(1, XDATA, add(CFA_XSP16, literal(-9)))
          CFI (cfiCond154) V9 load(1, XDATA, add(CFA_XSP16, literal(-8)))
          CFI (cfiCond154) V10 load(1, XDATA, add(CFA_XSP16, literal(-7)))
          CFI (cfiCond154) R7 load(1, XDATA, add(CFA_XSP16, literal(-6)))
          CFI (cfiCond154) ?RET_LOW load(1, XDATA, add(CFA_XSP16, literal(-5)))
          CFI (cfiCond154) ?RET_HIGH load(1, XDATA, add(CFA_XSP16, literal(-4)))
          CFI (cfiCond154) ?BRET_EXT load(1, XDATA, add(CFA_XSP16, literal(-3)))
          CFI (cfiCond154) DPL0 load(1, XDATA, add(CFA_XSP16, literal(-2)))
          CFI (cfiCond154) DPH0 load(1, XDATA, add(CFA_XSP16, literal(-1)))
          CFI (cfiCond154) CFA_SP SP+-4
          CFI (cfiCond154) CFA_XSP16 add(XSP16, 19)
          CFI Block cfiCond155 Using cfiCommon0
          CFI (cfiCond155) Function AF_DataRequest
          CFI (cfiCond155) Conditional ??CrossCallReturnLabel_90, ??CrossCallReturnLabel_58
          CFI (cfiCond155) R6 load(1, XDATA, add(CFA_XSP16, literal(-18)))
          CFI (cfiCond155) VB load(1, XDATA, add(CFA_XSP16, literal(-17)))
          CFI (cfiCond155) V0 load(1, XDATA, add(CFA_XSP16, literal(-16)))
          CFI (cfiCond155) V1 load(1, XDATA, add(CFA_XSP16, literal(-15)))
          CFI (cfiCond155) V2 load(1, XDATA, add(CFA_XSP16, literal(-14)))
          CFI (cfiCond155) V3 load(1, XDATA, add(CFA_XSP16, literal(-13)))
          CFI (cfiCond155) V4 load(1, XDATA, add(CFA_XSP16, literal(-12)))
          CFI (cfiCond155) V5 load(1, XDATA, add(CFA_XSP16, literal(-11)))
          CFI (cfiCond155) V6 load(1, XDATA, add(CFA_XSP16, literal(-10)))
          CFI (cfiCond155) V7 load(1, XDATA, add(CFA_XSP16, literal(-9)))
          CFI (cfiCond155) V8 load(1, XDATA, add(CFA_XSP16, literal(-8)))
          CFI (cfiCond155) V9 load(1, XDATA, add(CFA_XSP16, literal(-7)))
          CFI (cfiCond155) R7 load(1, XDATA, add(CFA_XSP16, literal(-6)))
          CFI (cfiCond155) ?RET_LOW load(1, XDATA, add(CFA_XSP16, literal(-5)))
          CFI (cfiCond155) ?RET_HIGH load(1, XDATA, add(CFA_XSP16, literal(-4)))
          CFI (cfiCond155) ?BRET_EXT load(1, XDATA, add(CFA_XSP16, literal(-3)))
          CFI (cfiCond155) DPL0 load(1, XDATA, add(CFA_XSP16, literal(-2)))
          CFI (cfiCond155) DPH0 load(1, XDATA, add(CFA_XSP16, literal(-1)))
          CFI (cfiCond155) CFA_SP SP+-4
          CFI (cfiCond155) CFA_XSP16 add(XSP16, 48)
          CFI Block cfiCond156 Using cfiCommon0
          CFI (cfiCond156) Function AF_DataRequest
          CFI (cfiCond156) Conditional ??CrossCallReturnLabel_90, ??CrossCallReturnLabel_62
          CFI (cfiCond156) R6 load(1, XDATA, add(CFA_XSP16, literal(-18)))
          CFI (cfiCond156) VB load(1, XDATA, add(CFA_XSP16, literal(-17)))
          CFI (cfiCond156) V0 load(1, XDATA, add(CFA_XSP16, literal(-16)))
          CFI (cfiCond156) V1 load(1, XDATA, add(CFA_XSP16, literal(-15)))
          CFI (cfiCond156) V2 load(1, XDATA, add(CFA_XSP16, literal(-14)))
          CFI (cfiCond156) V3 load(1, XDATA, add(CFA_XSP16, literal(-13)))
          CFI (cfiCond156) V4 load(1, XDATA, add(CFA_XSP16, literal(-12)))
          CFI (cfiCond156) V5 load(1, XDATA, add(CFA_XSP16, literal(-11)))
          CFI (cfiCond156) V6 load(1, XDATA, add(CFA_XSP16, literal(-10)))
          CFI (cfiCond156) V7 load(1, XDATA, add(CFA_XSP16, literal(-9)))
          CFI (cfiCond156) V8 load(1, XDATA, add(CFA_XSP16, literal(-8)))
          CFI (cfiCond156) V9 load(1, XDATA, add(CFA_XSP16, literal(-7)))
          CFI (cfiCond156) R7 load(1, XDATA, add(CFA_XSP16, literal(-6)))
          CFI (cfiCond156) ?RET_LOW load(1, XDATA, add(CFA_XSP16, literal(-5)))
          CFI (cfiCond156) ?RET_HIGH load(1, XDATA, add(CFA_XSP16, literal(-4)))
          CFI (cfiCond156) ?BRET_EXT load(1, XDATA, add(CFA_XSP16, literal(-3)))
          CFI (cfiCond156) DPL0 load(1, XDATA, add(CFA_XSP16, literal(-2)))
          CFI (cfiCond156) DPH0 load(1, XDATA, add(CFA_XSP16, literal(-1)))
          CFI (cfiCond156) CFA_SP SP+-4
          CFI (cfiCond156) CFA_XSP16 add(XSP16, 48)
          CFI Block cfiCond157 Using cfiCommon0
          CFI (cfiCond157) Function AF_DataRequest
          CFI (cfiCond157) Conditional ??CrossCallReturnLabel_91, ??CrossCallReturnLabel_84
          CFI (cfiCond157) R6 load(1, XDATA, add(CFA_XSP16, literal(-18)))
          CFI (cfiCond157) VB load(1, XDATA, add(CFA_XSP16, literal(-17)))
          CFI (cfiCond157) V0 load(1, XDATA, add(CFA_XSP16, literal(-16)))
          CFI (cfiCond157) V1 load(1, XDATA, add(CFA_XSP16, literal(-15)))
          CFI (cfiCond157) V2 load(1, XDATA, add(CFA_XSP16, literal(-14)))
          CFI (cfiCond157) V3 load(1, XDATA, add(CFA_XSP16, literal(-13)))
          CFI (cfiCond157) V4 load(1, XDATA, add(CFA_XSP16, literal(-12)))
          CFI (cfiCond157) V5 load(1, XDATA, add(CFA_XSP16, literal(-11)))
          CFI (cfiCond157) V6 load(1, XDATA, add(CFA_XSP16, literal(-10)))
          CFI (cfiCond157) V7 load(1, XDATA, add(CFA_XSP16, literal(-9)))
          CFI (cfiCond157) V8 load(1, XDATA, add(CFA_XSP16, literal(-8)))
          CFI (cfiCond157) V9 load(1, XDATA, add(CFA_XSP16, literal(-7)))
          CFI (cfiCond157) R7 load(1, XDATA, add(CFA_XSP16, literal(-6)))
          CFI (cfiCond157) ?RET_LOW load(1, XDATA, add(CFA_XSP16, literal(-5)))
          CFI (cfiCond157) ?RET_HIGH load(1, XDATA, add(CFA_XSP16, literal(-4)))
          CFI (cfiCond157) ?BRET_EXT load(1, XDATA, add(CFA_XSP16, literal(-3)))
          CFI (cfiCond157) DPL0 load(1, XDATA, add(CFA_XSP16, literal(-2)))
          CFI (cfiCond157) DPH0 load(1, XDATA, add(CFA_XSP16, literal(-1)))
          CFI (cfiCond157) CFA_SP SP+-4
          CFI (cfiCond157) CFA_XSP16 add(XSP16, 48)
          CFI Block cfiCond158 Using cfiCommon0
          CFI (cfiCond158) Function AF_DataRequest
          CFI (cfiCond158) Conditional ??CrossCallReturnLabel_91, ??CrossCallReturnLabel_85
          CFI (cfiCond158) R6 load(1, XDATA, add(CFA_XSP16, literal(-18)))
          CFI (cfiCond158) VB load(1, XDATA, add(CFA_XSP16, literal(-17)))
          CFI (cfiCond158) V0 load(1, XDATA, add(CFA_XSP16, literal(-16)))
          CFI (cfiCond158) V1 load(1, XDATA, add(CFA_XSP16, literal(-15)))
          CFI (cfiCond158) V2 load(1, XDATA, add(CFA_XSP16, literal(-14)))
          CFI (cfiCond158) V3 load(1, XDATA, add(CFA_XSP16, literal(-13)))
          CFI (cfiCond158) V4 load(1, XDATA, add(CFA_XSP16, literal(-12)))
          CFI (cfiCond158) V5 load(1, XDATA, add(CFA_XSP16, literal(-11)))
          CFI (cfiCond158) V6 load(1, XDATA, add(CFA_XSP16, literal(-10)))
          CFI (cfiCond158) V7 load(1, XDATA, add(CFA_XSP16, literal(-9)))
          CFI (cfiCond158) V8 load(1, XDATA, add(CFA_XSP16, literal(-8)))
          CFI (cfiCond158) V9 load(1, XDATA, add(CFA_XSP16, literal(-7)))
          CFI (cfiCond158) R7 load(1, XDATA, add(CFA_XSP16, literal(-6)))
          CFI (cfiCond158) ?RET_LOW load(1, XDATA, add(CFA_XSP16, literal(-5)))
          CFI (cfiCond158) ?RET_HIGH load(1, XDATA, add(CFA_XSP16, literal(-4)))
          CFI (cfiCond158) ?BRET_EXT load(1, XDATA, add(CFA_XSP16, literal(-3)))
          CFI (cfiCond158) DPL0 load(1, XDATA, add(CFA_XSP16, literal(-2)))
          CFI (cfiCond158) DPH0 load(1, XDATA, add(CFA_XSP16, literal(-1)))
          CFI (cfiCond158) CFA_SP SP+-4
          CFI (cfiCond158) CFA_XSP16 add(XSP16, 48)
          CFI Block cfiCond159 Using cfiCommon0
          CFI (cfiCond159) Function AF_DataRequest
          CFI (cfiCond159) Conditional ??CrossCallReturnLabel_91, ??CrossCallReturnLabel_83
          CFI (cfiCond159) R6 load(1, XDATA, add(CFA_XSP16, literal(-18)))
          CFI (cfiCond159) VB load(1, XDATA, add(CFA_XSP16, literal(-17)))
          CFI (cfiCond159) V0 load(1, XDATA, add(CFA_XSP16, literal(-16)))
          CFI (cfiCond159) V1 load(1, XDATA, add(CFA_XSP16, literal(-15)))
          CFI (cfiCond159) V2 load(1, XDATA, add(CFA_XSP16, literal(-14)))
          CFI (cfiCond159) V3 load(1, XDATA, add(CFA_XSP16, literal(-13)))
          CFI (cfiCond159) V4 load(1, XDATA, add(CFA_XSP16, literal(-12)))
          CFI (cfiCond159) V5 load(1, XDATA, add(CFA_XSP16, literal(-11)))
          CFI (cfiCond159) V6 load(1, XDATA, add(CFA_XSP16, literal(-10)))
          CFI (cfiCond159) V7 load(1, XDATA, add(CFA_XSP16, literal(-9)))
          CFI (cfiCond159) V8 load(1, XDATA, add(CFA_XSP16, literal(-8)))
          CFI (cfiCond159) V9 load(1, XDATA, add(CFA_XSP16, literal(-7)))
          CFI (cfiCond159) R7 load(1, XDATA, add(CFA_XSP16, literal(-6)))
          CFI (cfiCond159) ?RET_LOW load(1, XDATA, add(CFA_XSP16, literal(-5)))
          CFI (cfiCond159) ?RET_HIGH load(1, XDATA, add(CFA_XSP16, literal(-4)))
          CFI (cfiCond159) ?BRET_EXT load(1, XDATA, add(CFA_XSP16, literal(-3)))
          CFI (cfiCond159) DPL0 load(1, XDATA, add(CFA_XSP16, literal(-2)))
          CFI (cfiCond159) DPH0 load(1, XDATA, add(CFA_XSP16, literal(-1)))
          CFI (cfiCond159) CFA_SP SP+-4
          CFI (cfiCond159) CFA_XSP16 add(XSP16, 48)
          CFI Block cfiCond160 Using cfiCommon0
          CFI (cfiCond160) Function afDelete
          CFI (cfiCond160) Conditional ??CrossCallReturnLabel_91, ??CrossCallReturnLabel_78
          CFI (cfiCond160) R6 load(1, XDATA, add(CFA_XSP16, literal(-9)))
          CFI (cfiCond160) VB load(1, XDATA, add(CFA_XSP16, literal(-8)))
          CFI (cfiCond160) V0 load(1, XDATA, add(CFA_XSP16, literal(-7)))
          CFI (cfiCond160) R7 load(1, XDATA, add(CFA_XSP16, literal(-6)))
          CFI (cfiCond160) ?RET_LOW load(1, XDATA, add(CFA_XSP16, literal(-5)))
          CFI (cfiCond160) ?RET_HIGH load(1, XDATA, add(CFA_XSP16, literal(-4)))
          CFI (cfiCond160) ?BRET_EXT load(1, XDATA, add(CFA_XSP16, literal(-3)))
          CFI (cfiCond160) DPL0 load(1, XDATA, add(CFA_XSP16, literal(-2)))
          CFI (cfiCond160) DPH0 load(1, XDATA, add(CFA_XSP16, literal(-1)))
          CFI (cfiCond160) CFA_SP SP+-4
          CFI (cfiCond160) CFA_XSP16 add(XSP16, 9)
          CFI Block cfiCond161 Using cfiCommon0
          CFI (cfiCond161) Function AF_DataRequest
          CFI (cfiCond161) Conditional ??CrossCallReturnLabel_91, ??CrossCallReturnLabel_79
          CFI (cfiCond161) R6 load(1, XDATA, add(CFA_XSP16, literal(-18)))
          CFI (cfiCond161) VB load(1, XDATA, add(CFA_XSP16, literal(-17)))
          CFI (cfiCond161) V0 load(1, XDATA, add(CFA_XSP16, literal(-16)))
          CFI (cfiCond161) V1 load(1, XDATA, add(CFA_XSP16, literal(-15)))
          CFI (cfiCond161) V2 load(1, XDATA, add(CFA_XSP16, literal(-14)))
          CFI (cfiCond161) V3 load(1, XDATA, add(CFA_XSP16, literal(-13)))
          CFI (cfiCond161) V4 load(1, XDATA, add(CFA_XSP16, literal(-12)))
          CFI (cfiCond161) V5 load(1, XDATA, add(CFA_XSP16, literal(-11)))
          CFI (cfiCond161) V6 load(1, XDATA, add(CFA_XSP16, literal(-10)))
          CFI (cfiCond161) V7 load(1, XDATA, add(CFA_XSP16, literal(-9)))
          CFI (cfiCond161) V8 load(1, XDATA, add(CFA_XSP16, literal(-8)))
          CFI (cfiCond161) V9 load(1, XDATA, add(CFA_XSP16, literal(-7)))
          CFI (cfiCond161) R7 load(1, XDATA, add(CFA_XSP16, literal(-6)))
          CFI (cfiCond161) ?RET_LOW load(1, XDATA, add(CFA_XSP16, literal(-5)))
          CFI (cfiCond161) ?RET_HIGH load(1, XDATA, add(CFA_XSP16, literal(-4)))
          CFI (cfiCond161) ?BRET_EXT load(1, XDATA, add(CFA_XSP16, literal(-3)))
          CFI (cfiCond161) DPL0 load(1, XDATA, add(CFA_XSP16, literal(-2)))
          CFI (cfiCond161) DPH0 load(1, XDATA, add(CFA_XSP16, literal(-1)))
          CFI (cfiCond161) CFA_SP SP+-4
          CFI (cfiCond161) CFA_XSP16 add(XSP16, 48)
          CFI Block cfiCond162 Using cfiCommon0
          CFI (cfiCond162) Function AF_DataRequest
          CFI (cfiCond162) Conditional ??CrossCallReturnLabel_91, ??CrossCallReturnLabel_80
          CFI (cfiCond162) R6 load(1, XDATA, add(CFA_XSP16, literal(-18)))
          CFI (cfiCond162) VB load(1, XDATA, add(CFA_XSP16, literal(-17)))
          CFI (cfiCond162) V0 load(1, XDATA, add(CFA_XSP16, literal(-16)))
          CFI (cfiCond162) V1 load(1, XDATA, add(CFA_XSP16, literal(-15)))
          CFI (cfiCond162) V2 load(1, XDATA, add(CFA_XSP16, literal(-14)))
          CFI (cfiCond162) V3 load(1, XDATA, add(CFA_XSP16, literal(-13)))
          CFI (cfiCond162) V4 load(1, XDATA, add(CFA_XSP16, literal(-12)))
          CFI (cfiCond162) V5 load(1, XDATA, add(CFA_XSP16, literal(-11)))
          CFI (cfiCond162) V6 load(1, XDATA, add(CFA_XSP16, literal(-10)))
          CFI (cfiCond162) V7 load(1, XDATA, add(CFA_XSP16, literal(-9)))
          CFI (cfiCond162) V8 load(1, XDATA, add(CFA_XSP16, literal(-8)))
          CFI (cfiCond162) V9 load(1, XDATA, add(CFA_XSP16, literal(-7)))
          CFI (cfiCond162) R7 load(1, XDATA, add(CFA_XSP16, literal(-6)))
          CFI (cfiCond162) ?RET_LOW load(1, XDATA, add(CFA_XSP16, literal(-5)))
          CFI (cfiCond162) ?RET_HIGH load(1, XDATA, add(CFA_XSP16, literal(-4)))
          CFI (cfiCond162) ?BRET_EXT load(1, XDATA, add(CFA_XSP16, literal(-3)))
          CFI (cfiCond162) DPL0 load(1, XDATA, add(CFA_XSP16, literal(-2)))
          CFI (cfiCond162) DPH0 load(1, XDATA, add(CFA_XSP16, literal(-1)))
          CFI (cfiCond162) CFA_SP SP+-4
          CFI (cfiCond162) CFA_XSP16 add(XSP16, 48)
          CFI Block cfiCond163 Using cfiCommon0
          CFI (cfiCond163) Function AF_DataRequest
          CFI (cfiCond163) Conditional ??CrossCallReturnLabel_91, ??CrossCallReturnLabel_81
          CFI (cfiCond163) R6 load(1, XDATA, add(CFA_XSP16, literal(-18)))
          CFI (cfiCond163) VB load(1, XDATA, add(CFA_XSP16, literal(-17)))
          CFI (cfiCond163) V0 load(1, XDATA, add(CFA_XSP16, literal(-16)))
          CFI (cfiCond163) V1 load(1, XDATA, add(CFA_XSP16, literal(-15)))
          CFI (cfiCond163) V2 load(1, XDATA, add(CFA_XSP16, literal(-14)))
          CFI (cfiCond163) V3 load(1, XDATA, add(CFA_XSP16, literal(-13)))
          CFI (cfiCond163) V4 load(1, XDATA, add(CFA_XSP16, literal(-12)))
          CFI (cfiCond163) V5 load(1, XDATA, add(CFA_XSP16, literal(-11)))
          CFI (cfiCond163) V6 load(1, XDATA, add(CFA_XSP16, literal(-10)))
          CFI (cfiCond163) V7 load(1, XDATA, add(CFA_XSP16, literal(-9)))
          CFI (cfiCond163) V8 load(1, XDATA, add(CFA_XSP16, literal(-8)))
          CFI (cfiCond163) V9 load(1, XDATA, add(CFA_XSP16, literal(-7)))
          CFI (cfiCond163) R7 load(1, XDATA, add(CFA_XSP16, literal(-6)))
          CFI (cfiCond163) ?RET_LOW load(1, XDATA, add(CFA_XSP16, literal(-5)))
          CFI (cfiCond163) ?RET_HIGH load(1, XDATA, add(CFA_XSP16, literal(-4)))
          CFI (cfiCond163) ?BRET_EXT load(1, XDATA, add(CFA_XSP16, literal(-3)))
          CFI (cfiCond163) DPL0 load(1, XDATA, add(CFA_XSP16, literal(-2)))
          CFI (cfiCond163) DPH0 load(1, XDATA, add(CFA_XSP16, literal(-1)))
          CFI (cfiCond163) CFA_SP SP+-4
          CFI (cfiCond163) CFA_XSP16 add(XSP16, 48)
          CFI Block cfiCond164 Using cfiCommon0
          CFI (cfiCond164) Function AF_DataRequest
          CFI (cfiCond164) Conditional ??CrossCallReturnLabel_91, ??CrossCallReturnLabel_82
          CFI (cfiCond164) R6 load(1, XDATA, add(CFA_XSP16, literal(-18)))
          CFI (cfiCond164) VB load(1, XDATA, add(CFA_XSP16, literal(-17)))
          CFI (cfiCond164) V0 load(1, XDATA, add(CFA_XSP16, literal(-16)))
          CFI (cfiCond164) V1 load(1, XDATA, add(CFA_XSP16, literal(-15)))
          CFI (cfiCond164) V2 load(1, XDATA, add(CFA_XSP16, literal(-14)))
          CFI (cfiCond164) V3 load(1, XDATA, add(CFA_XSP16, literal(-13)))
          CFI (cfiCond164) V4 load(1, XDATA, add(CFA_XSP16, literal(-12)))
          CFI (cfiCond164) V5 load(1, XDATA, add(CFA_XSP16, literal(-11)))
          CFI (cfiCond164) V6 load(1, XDATA, add(CFA_XSP16, literal(-10)))
          CFI (cfiCond164) V7 load(1, XDATA, add(CFA_XSP16, literal(-9)))
          CFI (cfiCond164) V8 load(1, XDATA, add(CFA_XSP16, literal(-8)))
          CFI (cfiCond164) V9 load(1, XDATA, add(CFA_XSP16, literal(-7)))
          CFI (cfiCond164) R7 load(1, XDATA, add(CFA_XSP16, literal(-6)))
          CFI (cfiCond164) ?RET_LOW load(1, XDATA, add(CFA_XSP16, literal(-5)))
          CFI (cfiCond164) ?RET_HIGH load(1, XDATA, add(CFA_XSP16, literal(-4)))
          CFI (cfiCond164) ?BRET_EXT load(1, XDATA, add(CFA_XSP16, literal(-3)))
          CFI (cfiCond164) DPL0 load(1, XDATA, add(CFA_XSP16, literal(-2)))
          CFI (cfiCond164) DPH0 load(1, XDATA, add(CFA_XSP16, literal(-1)))
          CFI (cfiCond164) CFA_SP SP+-4
          CFI (cfiCond164) CFA_XSP16 add(XSP16, 48)
          CFI Block cfiCond165 Using cfiCommon0
          CFI (cfiCond165) Function afBuildMSGIncoming
          CFI (cfiCond165) Conditional ??CrossCallReturnLabel_88, ??CrossCallReturnLabel_14
          CFI (cfiCond165) R6 load(1, XDATA, add(CFA_XSP16, literal(-19)))
          CFI (cfiCond165) VB load(1, XDATA, add(CFA_XSP16, literal(-18)))
          CFI (cfiCond165) V0 load(1, XDATA, add(CFA_XSP16, literal(-17)))
          CFI (cfiCond165) V1 load(1, XDATA, add(CFA_XSP16, literal(-16)))
          CFI (cfiCond165) V2 load(1, XDATA, add(CFA_XSP16, literal(-15)))
          CFI (cfiCond165) V3 load(1, XDATA, add(CFA_XSP16, literal(-14)))
          CFI (cfiCond165) V4 load(1, XDATA, add(CFA_XSP16, literal(-13)))
          CFI (cfiCond165) V5 load(1, XDATA, add(CFA_XSP16, literal(-12)))
          CFI (cfiCond165) V6 load(1, XDATA, add(CFA_XSP16, literal(-11)))
          CFI (cfiCond165) V7 load(1, XDATA, add(CFA_XSP16, literal(-10)))
          CFI (cfiCond165) V8 load(1, XDATA, add(CFA_XSP16, literal(-9)))
          CFI (cfiCond165) V9 load(1, XDATA, add(CFA_XSP16, literal(-8)))
          CFI (cfiCond165) V10 load(1, XDATA, add(CFA_XSP16, literal(-7)))
          CFI (cfiCond165) R7 load(1, XDATA, add(CFA_XSP16, literal(-6)))
          CFI (cfiCond165) ?RET_LOW load(1, XDATA, add(CFA_XSP16, literal(-5)))
          CFI (cfiCond165) ?RET_HIGH load(1, XDATA, add(CFA_XSP16, literal(-4)))
          CFI (cfiCond165) ?BRET_EXT load(1, XDATA, add(CFA_XSP16, literal(-3)))
          CFI (cfiCond165) DPL0 load(1, XDATA, add(CFA_XSP16, literal(-2)))
          CFI (cfiCond165) DPH0 load(1, XDATA, add(CFA_XSP16, literal(-1)))
          CFI (cfiCond165) CFA_SP SP+-4
          CFI (cfiCond165) CFA_XSP16 add(XSP16, 19)
          CFI Block cfiCond166 Using cfiCommon0
          CFI (cfiCond166) Function afNumEndPoints
          CFI (cfiCond166) Conditional ??CrossCallReturnLabel_88, ??CrossCallReturnLabel_15
          CFI (cfiCond166) DPL0 Frame(CFA_SP, 4)
          CFI (cfiCond166) DPH0 Frame(CFA_SP, 5)
          CFI (cfiCond166) CFA_SP SP+-9
          CFI Block cfiPicker167 Using cfiCommon1
          CFI (cfiPicker167) NoFunction
          CFI (cfiPicker167) Picker
        MOVX    A,@DPTR
        MOV     R0,A
        INC     DPTR
        MOVX    A,@DPTR
        MOV     R1,A
        RET
          CFI EndBlock cfiCond141
          CFI EndBlock cfiCond142
          CFI EndBlock cfiCond143
          CFI EndBlock cfiCond144
          CFI EndBlock cfiCond145
          CFI EndBlock cfiCond146
          CFI EndBlock cfiCond147
          CFI EndBlock cfiCond148
          CFI EndBlock cfiCond149
          CFI EndBlock cfiCond150
          CFI EndBlock cfiCond151
          CFI EndBlock cfiCond152
          CFI EndBlock cfiCond153
          CFI EndBlock cfiCond154
          CFI EndBlock cfiCond155
          CFI EndBlock cfiCond156
          CFI EndBlock cfiCond157
          CFI EndBlock cfiCond158
          CFI EndBlock cfiCond159
          CFI EndBlock cfiCond160
          CFI EndBlock cfiCond161
          CFI EndBlock cfiCond162
          CFI EndBlock cfiCond163
          CFI EndBlock cfiCond164
          CFI EndBlock cfiCond165
          CFI EndBlock cfiCond166
          CFI EndBlock cfiPicker167

        RSEG BANKED_CODE:CODE:NOROOT(0)
?Subroutine13:
          CFI Block cfiCond168 Using cfiCommon0
          CFI Function AF_DataRequest
          CFI Conditional ??CrossCallReturnLabel_93
          CFI R6 load(1, XDATA, add(CFA_XSP16, literal(-18)))
          CFI VB load(1, XDATA, add(CFA_XSP16, literal(-17)))
          CFI V0 load(1, XDATA, add(CFA_XSP16, literal(-16)))
          CFI V1 load(1, XDATA, add(CFA_XSP16, literal(-15)))
          CFI V2 load(1, XDATA, add(CFA_XSP16, literal(-14)))
          CFI V3 load(1, XDATA, add(CFA_XSP16, literal(-13)))
          CFI V4 load(1, XDATA, add(CFA_XSP16, literal(-12)))
          CFI V5 load(1, XDATA, add(CFA_XSP16, literal(-11)))
          CFI V6 load(1, XDATA, add(CFA_XSP16, literal(-10)))
          CFI V7 load(1, XDATA, add(CFA_XSP16, literal(-9)))
          CFI V8 load(1, XDATA, add(CFA_XSP16, literal(-8)))
          CFI V9 load(1, XDATA, add(CFA_XSP16, literal(-7)))
          CFI R7 load(1, XDATA, add(CFA_XSP16, literal(-6)))
          CFI ?RET_LOW load(1, XDATA, add(CFA_XSP16, literal(-5)))
          CFI ?RET_HIGH load(1, XDATA, add(CFA_XSP16, literal(-4)))
          CFI ?BRET_EXT load(1, XDATA, add(CFA_XSP16, literal(-3)))
          CFI DPL0 load(1, XDATA, add(CFA_XSP16, literal(-2)))
          CFI DPH0 load(1, XDATA, add(CFA_XSP16, literal(-1)))
          CFI CFA_SP SP+-2
          CFI CFA_XSP16 add(XSP16, 48)
          CFI Block cfiCond169 Using cfiCommon0
          CFI (cfiCond169) Function afCopyAddress
          CFI (cfiCond169) Conditional ??CrossCallReturnLabel_94
          CFI (cfiCond169) R6 load(1, XDATA, add(CFA_XSP16, literal(-9)))
          CFI (cfiCond169) VB load(1, XDATA, add(CFA_XSP16, literal(-8)))
          CFI (cfiCond169) V0 load(1, XDATA, add(CFA_XSP16, literal(-7)))
          CFI (cfiCond169) R7 load(1, XDATA, add(CFA_XSP16, literal(-6)))
          CFI (cfiCond169) ?RET_LOW load(1, XDATA, add(CFA_XSP16, literal(-5)))
          CFI (cfiCond169) ?RET_HIGH load(1, XDATA, add(CFA_XSP16, literal(-4)))
          CFI (cfiCond169) ?BRET_EXT load(1, XDATA, add(CFA_XSP16, literal(-3)))
          CFI (cfiCond169) DPL0 load(1, XDATA, add(CFA_XSP16, literal(-2)))
          CFI (cfiCond169) DPH0 load(1, XDATA, add(CFA_XSP16, literal(-1)))
          CFI (cfiCond169) CFA_SP SP+-2
          CFI (cfiCond169) CFA_XSP16 add(XSP16, 9)
          CFI Block cfiPicker170 Using cfiCommon1
          CFI (cfiPicker170) NoFunction
          CFI (cfiPicker170) Picker
        INC     DPTR
          CFI EndBlock cfiCond168
          CFI EndBlock cfiCond169
          CFI EndBlock cfiPicker170
        REQUIRE ??Subroutine41_0
        ; // Fall through to label ??Subroutine41_0

        RSEG BANKED_CODE:CODE:NOROOT(0)
??Subroutine41_0:
          CFI Block cfiCond171 Using cfiCommon0
          CFI Function AF_DataRequestSrcRtg
          CFI Conditional ??CrossCallReturnLabel_92
          CFI R6 load(1, XDATA, add(CFA_XSP16, literal(-12)))
          CFI VB load(1, XDATA, add(CFA_XSP16, literal(-11)))
          CFI V0 load(1, XDATA, add(CFA_XSP16, literal(-10)))
          CFI V1 load(1, XDATA, add(CFA_XSP16, literal(-9)))
          CFI V2 load(1, XDATA, add(CFA_XSP16, literal(-8)))
          CFI V3 load(1, XDATA, add(CFA_XSP16, literal(-7)))
          CFI R7 load(1, XDATA, add(CFA_XSP16, literal(-6)))
          CFI ?RET_LOW load(1, XDATA, add(CFA_XSP16, literal(-5)))
          CFI ?RET_HIGH load(1, XDATA, add(CFA_XSP16, literal(-4)))
          CFI ?BRET_EXT load(1, XDATA, add(CFA_XSP16, literal(-3)))
          CFI DPL0 load(1, XDATA, add(CFA_XSP16, literal(-2)))
          CFI DPH0 load(1, XDATA, add(CFA_XSP16, literal(-1)))
          CFI CFA_SP SP+-2
          CFI CFA_XSP16 add(XSP16, 12)
          CFI Block cfiCond172 Using cfiCommon0
          CFI (cfiCond172) Function AF_DataRequest
          CFI (cfiCond172) Conditional ??CrossCallReturnLabel_93
          CFI (cfiCond172) R6 load(1, XDATA, add(CFA_XSP16, literal(-18)))
          CFI (cfiCond172) VB load(1, XDATA, add(CFA_XSP16, literal(-17)))
          CFI (cfiCond172) V0 load(1, XDATA, add(CFA_XSP16, literal(-16)))
          CFI (cfiCond172) V1 load(1, XDATA, add(CFA_XSP16, literal(-15)))
          CFI (cfiCond172) V2 load(1, XDATA, add(CFA_XSP16, literal(-14)))
          CFI (cfiCond172) V3 load(1, XDATA, add(CFA_XSP16, literal(-13)))
          CFI (cfiCond172) V4 load(1, XDATA, add(CFA_XSP16, literal(-12)))
          CFI (cfiCond172) V5 load(1, XDATA, add(CFA_XSP16, literal(-11)))
          CFI (cfiCond172) V6 load(1, XDATA, add(CFA_XSP16, literal(-10)))
          CFI (cfiCond172) V7 load(1, XDATA, add(CFA_XSP16, literal(-9)))
          CFI (cfiCond172) V8 load(1, XDATA, add(CFA_XSP16, literal(-8)))
          CFI (cfiCond172) V9 load(1, XDATA, add(CFA_XSP16, literal(-7)))
          CFI (cfiCond172) R7 load(1, XDATA, add(CFA_XSP16, literal(-6)))
          CFI (cfiCond172) ?RET_LOW load(1, XDATA, add(CFA_XSP16, literal(-5)))
          CFI (cfiCond172) ?RET_HIGH load(1, XDATA, add(CFA_XSP16, literal(-4)))
          CFI (cfiCond172) ?BRET_EXT load(1, XDATA, add(CFA_XSP16, literal(-3)))
          CFI (cfiCond172) DPL0 load(1, XDATA, add(CFA_XSP16, literal(-2)))
          CFI (cfiCond172) DPH0 load(1, XDATA, add(CFA_XSP16, literal(-1)))
          CFI (cfiCond172) CFA_SP SP+-2
          CFI (cfiCond172) CFA_XSP16 add(XSP16, 48)
          CFI Block cfiCond173 Using cfiCommon0
          CFI (cfiCond173) Function afCopyAddress
          CFI (cfiCond173) Conditional ??CrossCallReturnLabel_94
          CFI (cfiCond173) R6 load(1, XDATA, add(CFA_XSP16, literal(-9)))
          CFI (cfiCond173) VB load(1, XDATA, add(CFA_XSP16, literal(-8)))
          CFI (cfiCond173) V0 load(1, XDATA, add(CFA_XSP16, literal(-7)))
          CFI (cfiCond173) R7 load(1, XDATA, add(CFA_XSP16, literal(-6)))
          CFI (cfiCond173) ?RET_LOW load(1, XDATA, add(CFA_XSP16, literal(-5)))
          CFI (cfiCond173) ?RET_HIGH load(1, XDATA, add(CFA_XSP16, literal(-4)))
          CFI (cfiCond173) ?BRET_EXT load(1, XDATA, add(CFA_XSP16, literal(-3)))
          CFI (cfiCond173) DPL0 load(1, XDATA, add(CFA_XSP16, literal(-2)))
          CFI (cfiCond173) DPH0 load(1, XDATA, add(CFA_XSP16, literal(-1)))
          CFI (cfiCond173) CFA_SP SP+-2
          CFI (cfiCond173) CFA_XSP16 add(XSP16, 9)
          CFI Block cfiPicker174 Using cfiCommon1
          CFI (cfiPicker174) NoFunction
          CFI (cfiPicker174) Picker
        MOVX    A,@DPTR
        MOV     R1,A
        MOV     DPL,R6
        MOV     DPH,R7
        RET
          CFI EndBlock cfiCond171
          CFI EndBlock cfiCond172
          CFI EndBlock cfiCond173
          CFI EndBlock cfiPicker174
//  778 
//  779 #if defined ( ZIGBEE_SOURCE_ROUTING )
//  780 /*********************************************************************
//  781  * @fn      AF_DataRequestSrcRtg
//  782  *
//  783  * @brief   Common functionality for invoking APSDE_DataReq() for both
//  784  *          SendMulti and MSG-Send.
//  785  *
//  786  * input parameters
//  787  *
//  788  * @param  *dstAddr - Full ZB destination address: Nwk Addr + End Point.
//  789  * @param  *srcEP - Origination (i.e. respond to or ack to) End Point Descr.
//  790  * @param   cID - A valid cluster ID as specified by the Profile.
//  791  * @param   len - Number of bytes of data pointed to by next param.
//  792  * @param  *buf - A pointer to the data bytes to send.
//  793  * @param  *transID - A pointer to a byte which can be modified and which will
//  794  *                    be used as the transaction sequence number of the msg.
//  795  * @param   options - Valid bit mask of Tx options.
//  796  * @param   radius - Normally set to AF_DEFAULT_RADIUS.
//  797  * @param   relayCnt - Number of devices in the relay list
//  798  * @param   pRelayList - Pointer to the relay list
//  799  *
//  800  * output parameters
//  801  *
//  802  * @param  *transID - Incremented by one if the return value is success.
//  803  *
//  804  * @return  afStatus_t - See previous definition of afStatus_... types.
//  805  */
//  806 

        RSEG BANKED_CODE:CODE:NOROOT(0)
//  807 afStatus_t AF_DataRequestSrcRtg( afAddrType_t *dstAddr, endPointDesc_t *srcEP,
AF_DataRequestSrcRtg:
          CFI Block cfiBlock175 Using cfiCommon0
          CFI Function AF_DataRequestSrcRtg
        CODE
//  808                            uint16 cID, uint16 len, uint8 *buf, uint8 *transID,
//  809                            uint8 options, uint8 radius, uint8 relayCnt, uint16* pRelayList )
//  810 {
        FUNCALL AF_DataRequestSrcRtg, RTG_AddSrcRtgEntry_Guaranteed
        LOCFRAME ISTACK, 0, STACK
        LOCFRAME PSTACK, 0, STACK
        LOCFRAME XSTACK, 12, STACK
        LOCFRAME IOVERLAY, 0, STATIC
        LOCFRAME DOVERLAY, 0, STATIC
        ARGFRAME ISTACK, 0, STACK
        ARGFRAME PSTACK, 0, STACK
        ARGFRAME XSTACK, 12, STACK
        ARGFRAME IOVERLAY, 0, STATIC
        ARGFRAME DOVERLAY, 0, STATIC
        FUNCALL AF_DataRequestSrcRtg, AF_DataRequest
        LOCFRAME ISTACK, 0, STACK
        LOCFRAME PSTACK, 0, STACK
        LOCFRAME XSTACK, 21, STACK
        LOCFRAME IOVERLAY, 0, STATIC
        LOCFRAME DOVERLAY, 0, STATIC
        ARGFRAME ISTACK, 0, STACK
        ARGFRAME PSTACK, 0, STACK
        ARGFRAME XSTACK, 21, STACK
        ARGFRAME IOVERLAY, 0, STATIC
        ARGFRAME DOVERLAY, 0, STATIC
        REQUIRE ?V0
        REQUIRE ?V1
        REQUIRE ?V2
        REQUIRE ?V3
        MOV     A,#-0xc
        LCALL   ?BANKED_ENTER_XDATA
          CFI DPH0 load(1, XDATA, add(CFA_XSP16, literal(-1)))
          CFI DPL0 load(1, XDATA, add(CFA_XSP16, literal(-2)))
          CFI ?BRET_EXT load(1, XDATA, add(CFA_XSP16, literal(-3)))
          CFI ?RET_HIGH load(1, XDATA, add(CFA_XSP16, literal(-4)))
          CFI ?RET_LOW load(1, XDATA, add(CFA_XSP16, literal(-5)))
          CFI R7 load(1, XDATA, add(CFA_XSP16, literal(-6)))
          CFI V3 load(1, XDATA, add(CFA_XSP16, literal(-7)))
          CFI V2 load(1, XDATA, add(CFA_XSP16, literal(-8)))
          CFI V1 load(1, XDATA, add(CFA_XSP16, literal(-9)))
          CFI V0 load(1, XDATA, add(CFA_XSP16, literal(-10)))
          CFI VB load(1, XDATA, add(CFA_XSP16, literal(-11)))
          CFI R6 load(1, XDATA, add(CFA_XSP16, literal(-12)))
          CFI CFA_SP SP+0
          CFI CFA_XSP16 add(XSP16, 12)
        ; Saved register size: 12
        ; Auto size: 0
        MOV     A,R2
        MOV     R6,A
        MOV     A,R3
        MOV     R7,A
        MOV     ?V0,R4
        MOV     ?V1,R5
        MOV     ?V2,R1
//  811   uint8 status;
//  812 
//  813   /* Add the source route to the source routing table */
//  814   status = RTG_AddSrcRtgEntry_Guaranteed( dstAddr->addr.shortAddr, relayCnt,
//  815                                          pRelayList );
        ; Setup parameters for call to function RTG_AddSrcRtgEntry_Guaranteed
        MOV     A,#0x16
        LCALL   ?XSTACK_DISP0_8
        LCALL   ?Subroutine10 & 0xFFFF
??CrossCallReturnLabel_8:
        MOV     A,#0x15
        LCALL   ?XSTACK_DISP0_8
        LCALL   ??Subroutine41_0 & 0xFFFF
??CrossCallReturnLabel_92:
        LCALL   ??Subroutine47_0 & 0xFFFF
??CrossCallReturnLabel_107:
        LCALL   `??RTG_AddSrcRtgEntry_Guaranteed::?relay`; Banked call to: RTG_AddSrcRtgEntry_Guaranteed
        MOV     A,R1
        MOV     R1,A
//  816 
//  817   if( status == RTG_SUCCESS)
        JNZ     ??AF_DataRequestSrcRtg_0
//  818   {
//  819     /* Call AF_DataRequest to send the data */
//  820     status = AF_DataRequest( dstAddr, srcEP, cID, len, buf, transID, options, radius );
        ; Setup parameters for call to function AF_DataRequest
        MOV     A,#0x14
        LCALL   ?XSTACK_DISP0_8
        MOVX    A,@DPTR
        MOV     ?V3,A
        MOV     R0,#?V3
        LCALL   ?PUSH_XSTACK_I_ONE
          CFI CFA_XSP16 add(XSP16, 13)
        MOV     A,#0x13
        LCALL   ?XSTACK_DISP0_8
        LCALL   ?PUSH_XSTACK8_X_TWO
          CFI CFA_XSP16 add(XSP16, 15)
        MOV     A,#0x13
        LCALL   ?XSTACK_DISP0_8
        LCALL   ?PUSH_XSTACK8_X_TWO
          CFI CFA_XSP16 add(XSP16, 17)
        MOV     A,#0x13
        LCALL   ?XSTACK_DISP0_8
        LCALL   ?PUSH_XSTACK8_X_TWO
          CFI CFA_XSP16 add(XSP16, 19)
        MOV     A,#0x13
        LCALL   ?XSTACK_DISP0_8
        LCALL   ?PUSH_XSTACK8_X_TWO
          CFI CFA_XSP16 add(XSP16, 21)
        MOV     R1,?V2
        MOV     R4,?V0
        MOV     R5,?V1
        MOV     A,R6
        MOV     R2,A
        MOV     A,R7
        MOV     R3,A
        LCALL   `??AF_DataRequest::?relay`; Banked call to: AF_DataRequest
        MOV     A,#0x9
        LCALL   ?DEALLOC_XSTACK8
          CFI CFA_XSP16 add(XSP16, 12)
        MOV     A,R1
        MOV     R1,A
        SJMP    ??AF_DataRequestSrcRtg_1
//  821   }
//  822   else if( status == RTG_INVALID_PATH )
??AF_DataRequestSrcRtg_0:
        MOV     A,#0x5
        XRL     A,R1
        JNZ     ??AF_DataRequestSrcRtg_2
//  823   {
//  824     /* The source route relay count is exceeding the network limit */
//  825     status = afStatus_INVALID_PARAMETER;
        MOV     R1,#0x2
        SJMP    ??AF_DataRequestSrcRtg_1
//  826   }
//  827   else
//  828   {
//  829     /* The guaranteed adding entry fails due to memory failure */
//  830     status = afStatus_MEM_FAIL;
??AF_DataRequestSrcRtg_2:
        MOV     R1,#0x10
//  831   }
//  832   return status;
??AF_DataRequestSrcRtg_1:
        LJMP    ?Subroutine0 & 0xFFFF
//  833 }
          CFI EndBlock cfiBlock175

        RSEG BANKED_CODE:CODE:NOROOT(0)
?Subroutine10:
          CFI Block cfiCond176 Using cfiCommon0
          CFI Function afDelete
          CFI Conditional ??CrossCallReturnLabel_5
          CFI R6 load(1, XDATA, add(CFA_XSP16, literal(-9)))
          CFI VB load(1, XDATA, add(CFA_XSP16, literal(-8)))
          CFI V0 load(1, XDATA, add(CFA_XSP16, literal(-7)))
          CFI R7 load(1, XDATA, add(CFA_XSP16, literal(-6)))
          CFI ?RET_LOW load(1, XDATA, add(CFA_XSP16, literal(-5)))
          CFI ?RET_HIGH load(1, XDATA, add(CFA_XSP16, literal(-4)))
          CFI ?BRET_EXT load(1, XDATA, add(CFA_XSP16, literal(-3)))
          CFI DPL0 load(1, XDATA, add(CFA_XSP16, literal(-2)))
          CFI DPH0 load(1, XDATA, add(CFA_XSP16, literal(-1)))
          CFI CFA_SP SP+-2
          CFI CFA_XSP16 add(XSP16, 9)
          CFI Block cfiCond177 Using cfiCommon0
          CFI (cfiCond177) Function afBuildMSGIncoming
          CFI (cfiCond177) Conditional ??CrossCallReturnLabel_6
          CFI (cfiCond177) R6 load(1, XDATA, add(CFA_XSP16, literal(-19)))
          CFI (cfiCond177) VB load(1, XDATA, add(CFA_XSP16, literal(-18)))
          CFI (cfiCond177) V0 load(1, XDATA, add(CFA_XSP16, literal(-17)))
          CFI (cfiCond177) V1 load(1, XDATA, add(CFA_XSP16, literal(-16)))
          CFI (cfiCond177) V2 load(1, XDATA, add(CFA_XSP16, literal(-15)))
          CFI (cfiCond177) V3 load(1, XDATA, add(CFA_XSP16, literal(-14)))
          CFI (cfiCond177) V4 load(1, XDATA, add(CFA_XSP16, literal(-13)))
          CFI (cfiCond177) V5 load(1, XDATA, add(CFA_XSP16, literal(-12)))
          CFI (cfiCond177) V6 load(1, XDATA, add(CFA_XSP16, literal(-11)))
          CFI (cfiCond177) V7 load(1, XDATA, add(CFA_XSP16, literal(-10)))
          CFI (cfiCond177) V8 load(1, XDATA, add(CFA_XSP16, literal(-9)))
          CFI (cfiCond177) V9 load(1, XDATA, add(CFA_XSP16, literal(-8)))
          CFI (cfiCond177) V10 load(1, XDATA, add(CFA_XSP16, literal(-7)))
          CFI (cfiCond177) R7 load(1, XDATA, add(CFA_XSP16, literal(-6)))
          CFI (cfiCond177) ?RET_LOW load(1, XDATA, add(CFA_XSP16, literal(-5)))
          CFI (cfiCond177) ?RET_HIGH load(1, XDATA, add(CFA_XSP16, literal(-4)))
          CFI (cfiCond177) ?BRET_EXT load(1, XDATA, add(CFA_XSP16, literal(-3)))
          CFI (cfiCond177) DPL0 load(1, XDATA, add(CFA_XSP16, literal(-2)))
          CFI (cfiCond177) DPH0 load(1, XDATA, add(CFA_XSP16, literal(-1)))
          CFI (cfiCond177) CFA_SP SP+-2
          CFI (cfiCond177) CFA_XSP16 add(XSP16, 19)
          CFI Block cfiCond178 Using cfiCommon0
          CFI (cfiCond178) Function afBuildMSGIncoming
          CFI (cfiCond178) Conditional ??CrossCallReturnLabel_7
          CFI (cfiCond178) R6 load(1, XDATA, add(CFA_XSP16, literal(-19)))
          CFI (cfiCond178) VB load(1, XDATA, add(CFA_XSP16, literal(-18)))
          CFI (cfiCond178) V0 load(1, XDATA, add(CFA_XSP16, literal(-17)))
          CFI (cfiCond178) V1 load(1, XDATA, add(CFA_XSP16, literal(-16)))
          CFI (cfiCond178) V2 load(1, XDATA, add(CFA_XSP16, literal(-15)))
          CFI (cfiCond178) V3 load(1, XDATA, add(CFA_XSP16, literal(-14)))
          CFI (cfiCond178) V4 load(1, XDATA, add(CFA_XSP16, literal(-13)))
          CFI (cfiCond178) V5 load(1, XDATA, add(CFA_XSP16, literal(-12)))
          CFI (cfiCond178) V6 load(1, XDATA, add(CFA_XSP16, literal(-11)))
          CFI (cfiCond178) V7 load(1, XDATA, add(CFA_XSP16, literal(-10)))
          CFI (cfiCond178) V8 load(1, XDATA, add(CFA_XSP16, literal(-9)))
          CFI (cfiCond178) V9 load(1, XDATA, add(CFA_XSP16, literal(-8)))
          CFI (cfiCond178) V10 load(1, XDATA, add(CFA_XSP16, literal(-7)))
          CFI (cfiCond178) R7 load(1, XDATA, add(CFA_XSP16, literal(-6)))
          CFI (cfiCond178) ?RET_LOW load(1, XDATA, add(CFA_XSP16, literal(-5)))
          CFI (cfiCond178) ?RET_HIGH load(1, XDATA, add(CFA_XSP16, literal(-4)))
          CFI (cfiCond178) ?BRET_EXT load(1, XDATA, add(CFA_XSP16, literal(-3)))
          CFI (cfiCond178) DPL0 load(1, XDATA, add(CFA_XSP16, literal(-2)))
          CFI (cfiCond178) DPH0 load(1, XDATA, add(CFA_XSP16, literal(-1)))
          CFI (cfiCond178) CFA_SP SP+-2
          CFI (cfiCond178) CFA_XSP16 add(XSP16, 22)
          CFI Block cfiCond179 Using cfiCommon0
          CFI (cfiCond179) Function AF_DataRequestSrcRtg
          CFI (cfiCond179) Conditional ??CrossCallReturnLabel_8
          CFI (cfiCond179) R6 load(1, XDATA, add(CFA_XSP16, literal(-12)))
          CFI (cfiCond179) VB load(1, XDATA, add(CFA_XSP16, literal(-11)))
          CFI (cfiCond179) V0 load(1, XDATA, add(CFA_XSP16, literal(-10)))
          CFI (cfiCond179) V1 load(1, XDATA, add(CFA_XSP16, literal(-9)))
          CFI (cfiCond179) V2 load(1, XDATA, add(CFA_XSP16, literal(-8)))
          CFI (cfiCond179) V3 load(1, XDATA, add(CFA_XSP16, literal(-7)))
          CFI (cfiCond179) R7 load(1, XDATA, add(CFA_XSP16, literal(-6)))
          CFI (cfiCond179) ?RET_LOW load(1, XDATA, add(CFA_XSP16, literal(-5)))
          CFI (cfiCond179) ?RET_HIGH load(1, XDATA, add(CFA_XSP16, literal(-4)))
          CFI (cfiCond179) ?BRET_EXT load(1, XDATA, add(CFA_XSP16, literal(-3)))
          CFI (cfiCond179) DPL0 load(1, XDATA, add(CFA_XSP16, literal(-2)))
          CFI (cfiCond179) DPH0 load(1, XDATA, add(CFA_XSP16, literal(-1)))
          CFI (cfiCond179) CFA_SP SP+-2
          CFI (cfiCond179) CFA_XSP16 add(XSP16, 12)
          CFI Block cfiCond180 Using cfiCommon0
          CFI (cfiCond180) Function afEndPoints
          CFI (cfiCond180) Conditional ??CrossCallReturnLabel_9
          CFI (cfiCond180) DPL0 Frame(CFA_SP, 4)
          CFI (cfiCond180) DPH0 Frame(CFA_SP, 5)
          CFI (cfiCond180) CFA_SP SP+-7
          CFI Block cfiPicker181 Using cfiCommon1
          CFI (cfiPicker181) NoFunction
          CFI (cfiPicker181) Picker
        MOVX    A,@DPTR
        MOV     R4,A
        INC     DPTR
        MOVX    A,@DPTR
        MOV     R5,A
        RET
          CFI EndBlock cfiCond176
          CFI EndBlock cfiCond177
          CFI EndBlock cfiCond178
          CFI EndBlock cfiCond179
          CFI EndBlock cfiCond180
          CFI EndBlock cfiPicker181
//  834 
//  835 #endif
//  836 
//  837 /*********************************************************************
//  838  * @fn      afFindEndPointDescList
//  839  *
//  840  * @brief   Find the endpoint description entry from the endpoint
//  841  *          number.
//  842  *
//  843  * @param   EndPoint - Application Endpoint to look for
//  844  *
//  845  * @return  the address to the endpoint/interface description entry
//  846  */

        RSEG BANKED_CODE:CODE:NOROOT(0)
//  847 static epList_t *afFindEndPointDescList( uint8 EndPoint )
afFindEndPointDescList:
          CFI Block cfiBlock182 Using cfiCommon0
          CFI Function afFindEndPointDescList
        CODE
//  848 {
        PUSH    DPL
          CFI DPL0 Frame(CFA_SP, 4)
          CFI CFA_SP SP+-4
        PUSH    DPH
          CFI DPH0 Frame(CFA_SP, 5)
          CFI CFA_SP SP+-5
        ; Saved register size: 2
        ; Auto size: 0
//  849   epList_t *epSearch;
//  850 
//  851   for (epSearch = epList; epSearch != NULL; epSearch = epSearch->nextDesc)
        MOV     DPTR,#epList
        SJMP    ??afFindEndPointDescList_0
??afFindEndPointDescList_1:
        MOV     DPL,R2
        MOV     DPH,R3
??afFindEndPointDescList_0:
        LCALL   ?Subroutine7 & 0xFFFF
??CrossCallReturnLabel_3:
        JZ      ??afFindEndPointDescList_2
//  852   {
//  853     if (epSearch->epDesc->endPoint == EndPoint)
        MOV     DPL,R2
        MOV     DPH,R3
        LCALL   ??Subroutine42_0 & 0xFFFF
//  854     {
//  855       break;
//  856     }
//  857   }
??CrossCallReturnLabel_100:
        MOVX    A,@DPTR
        XRL     A,R1
        JNZ     ??afFindEndPointDescList_1
//  858 
//  859   return epSearch;
??afFindEndPointDescList_2:
          CFI EndBlock cfiBlock182
        REQUIRE ?Subroutine3
        ; // Fall through to label ?Subroutine3
//  860 }

        RSEG BANKED_CODE:CODE:NOROOT(0)
?Subroutine3:
          CFI Block cfiBlock183 Using cfiCommon0
          CFI NoFunction
          CFI CFA_SP SP+-5
          CFI DPL0 Frame(CFA_SP, 4)
          CFI DPH0 Frame(CFA_SP, 5)
        POP     DPH
          CFI CFA_SP SP+-4
          CFI DPH0 SameValue
        POP     DPL
          CFI CFA_SP SP+-3
          CFI DPL0 SameValue
        LJMP    ?BRET
          CFI EndBlock cfiBlock183

        RSEG BANKED_CODE:CODE:NOROOT(0)
?Subroutine9:
          CFI Block cfiCond184 Using cfiCommon0
          CFI Function afFindSimpleDesc
          CFI Conditional ??CrossCallReturnLabel_102
          CFI R6 load(1, XDATA, add(CFA_XSP16, literal(-12)))
          CFI VB load(1, XDATA, add(CFA_XSP16, literal(-11)))
          CFI V0 load(1, XDATA, add(CFA_XSP16, literal(-10)))
          CFI V1 load(1, XDATA, add(CFA_XSP16, literal(-9)))
          CFI V2 load(1, XDATA, add(CFA_XSP16, literal(-8)))
          CFI V3 load(1, XDATA, add(CFA_XSP16, literal(-7)))
          CFI R7 load(1, XDATA, add(CFA_XSP16, literal(-6)))
          CFI ?RET_LOW load(1, XDATA, add(CFA_XSP16, literal(-5)))
          CFI ?RET_HIGH load(1, XDATA, add(CFA_XSP16, literal(-4)))
          CFI ?BRET_EXT load(1, XDATA, add(CFA_XSP16, literal(-3)))
          CFI DPL0 load(1, XDATA, add(CFA_XSP16, literal(-2)))
          CFI DPH0 load(1, XDATA, add(CFA_XSP16, literal(-1)))
          CFI CFA_SP SP+-2
          CFI CFA_XSP16 add(XSP16, 12)
          CFI Block cfiCond185 Using cfiCommon0
          CFI (cfiCond185) Function afEndPoints
          CFI (cfiCond185) Conditional ??CrossCallReturnLabel_103
          CFI (cfiCond185) DPL0 Frame(CFA_SP, 4)
          CFI (cfiCond185) DPH0 Frame(CFA_SP, 5)
          CFI (cfiCond185) CFA_SP SP+-7
          CFI Block cfiPicker186 Using cfiCommon1
          CFI (cfiPicker186) NoFunction
          CFI (cfiPicker186) Picker
        MOV     DPL,R4
        MOV     DPH,R5
          CFI EndBlock cfiCond184
          CFI EndBlock cfiCond185
          CFI EndBlock cfiPicker186
        REQUIRE ??Subroutine42_0
        ; // Fall through to label ??Subroutine42_0

        RSEG BANKED_CODE:CODE:NOROOT(0)
??Subroutine42_0:
          CFI Block cfiCond187 Using cfiCommon0
          CFI Function afFindEndPointDescList
          CFI Conditional ??CrossCallReturnLabel_100
          CFI DPL0 Frame(CFA_SP, 4)
          CFI DPH0 Frame(CFA_SP, 5)
          CFI CFA_SP SP+-7
          CFI Block cfiCond188 Using cfiCommon0
          CFI (cfiCond188) Function afFindSimpleDesc
          CFI (cfiCond188) Conditional ??CrossCallReturnLabel_101
          CFI (cfiCond188) R6 load(1, XDATA, add(CFA_XSP16, literal(-12)))
          CFI (cfiCond188) VB load(1, XDATA, add(CFA_XSP16, literal(-11)))
          CFI (cfiCond188) V0 load(1, XDATA, add(CFA_XSP16, literal(-10)))
          CFI (cfiCond188) V1 load(1, XDATA, add(CFA_XSP16, literal(-9)))
          CFI (cfiCond188) V2 load(1, XDATA, add(CFA_XSP16, literal(-8)))
          CFI (cfiCond188) V3 load(1, XDATA, add(CFA_XSP16, literal(-7)))
          CFI (cfiCond188) R7 load(1, XDATA, add(CFA_XSP16, literal(-6)))
          CFI (cfiCond188) ?RET_LOW load(1, XDATA, add(CFA_XSP16, literal(-5)))
          CFI (cfiCond188) ?RET_HIGH load(1, XDATA, add(CFA_XSP16, literal(-4)))
          CFI (cfiCond188) ?BRET_EXT load(1, XDATA, add(CFA_XSP16, literal(-3)))
          CFI (cfiCond188) DPL0 load(1, XDATA, add(CFA_XSP16, literal(-2)))
          CFI (cfiCond188) DPH0 load(1, XDATA, add(CFA_XSP16, literal(-1)))
          CFI (cfiCond188) CFA_SP SP+-2
          CFI (cfiCond188) CFA_XSP16 add(XSP16, 12)
          CFI Block cfiCond189 Using cfiCommon0
          CFI (cfiCond189) Function afFindSimpleDesc
          CFI (cfiCond189) Conditional ??CrossCallReturnLabel_102
          CFI (cfiCond189) R6 load(1, XDATA, add(CFA_XSP16, literal(-12)))
          CFI (cfiCond189) VB load(1, XDATA, add(CFA_XSP16, literal(-11)))
          CFI (cfiCond189) V0 load(1, XDATA, add(CFA_XSP16, literal(-10)))
          CFI (cfiCond189) V1 load(1, XDATA, add(CFA_XSP16, literal(-9)))
          CFI (cfiCond189) V2 load(1, XDATA, add(CFA_XSP16, literal(-8)))
          CFI (cfiCond189) V3 load(1, XDATA, add(CFA_XSP16, literal(-7)))
          CFI (cfiCond189) R7 load(1, XDATA, add(CFA_XSP16, literal(-6)))
          CFI (cfiCond189) ?RET_LOW load(1, XDATA, add(CFA_XSP16, literal(-5)))
          CFI (cfiCond189) ?RET_HIGH load(1, XDATA, add(CFA_XSP16, literal(-4)))
          CFI (cfiCond189) ?BRET_EXT load(1, XDATA, add(CFA_XSP16, literal(-3)))
          CFI (cfiCond189) DPL0 load(1, XDATA, add(CFA_XSP16, literal(-2)))
          CFI (cfiCond189) DPH0 load(1, XDATA, add(CFA_XSP16, literal(-1)))
          CFI (cfiCond189) CFA_SP SP+-2
          CFI (cfiCond189) CFA_XSP16 add(XSP16, 12)
          CFI Block cfiCond190 Using cfiCommon0
          CFI (cfiCond190) Function afEndPoints
          CFI (cfiCond190) Conditional ??CrossCallReturnLabel_103
          CFI (cfiCond190) DPL0 Frame(CFA_SP, 4)
          CFI (cfiCond190) DPH0 Frame(CFA_SP, 5)
          CFI (cfiCond190) CFA_SP SP+-7
          CFI Block cfiPicker191 Using cfiCommon1
          CFI (cfiPicker191) NoFunction
          CFI (cfiPicker191) Picker
        INC     DPTR
        INC     DPTR
        MOVX    A,@DPTR
        MOV     R0,A
          CFI EndBlock cfiCond187
          CFI EndBlock cfiCond188
          CFI EndBlock cfiCond189
          CFI EndBlock cfiCond190
          CFI EndBlock cfiPicker191
        REQUIRE ??Subroutine43_0
        ; // Fall through to label ??Subroutine43_0

        RSEG BANKED_CODE:CODE:NOROOT(0)
??Subroutine43_0:
          CFI Block cfiCond192 Using cfiCommon0
          CFI Function afIncomingData
          CFI Conditional ??CrossCallReturnLabel_96
          CFI R6 load(1, XDATA, add(CFA_XSP16, literal(-24)))
          CFI VB load(1, XDATA, add(CFA_XSP16, literal(-23)))
          CFI V0 load(1, XDATA, add(CFA_XSP16, literal(-22)))
          CFI V1 load(1, XDATA, add(CFA_XSP16, literal(-21)))
          CFI V2 load(1, XDATA, add(CFA_XSP16, literal(-20)))
          CFI V3 load(1, XDATA, add(CFA_XSP16, literal(-19)))
          CFI V4 load(1, XDATA, add(CFA_XSP16, literal(-18)))
          CFI V5 load(1, XDATA, add(CFA_XSP16, literal(-17)))
          CFI V6 load(1, XDATA, add(CFA_XSP16, literal(-16)))
          CFI V7 load(1, XDATA, add(CFA_XSP16, literal(-15)))
          CFI V8 load(1, XDATA, add(CFA_XSP16, literal(-14)))
          CFI V9 load(1, XDATA, add(CFA_XSP16, literal(-13)))
          CFI V10 load(1, XDATA, add(CFA_XSP16, literal(-12)))
          CFI V11 load(1, XDATA, add(CFA_XSP16, literal(-11)))
          CFI V12 load(1, XDATA, add(CFA_XSP16, literal(-10)))
          CFI V13 load(1, XDATA, add(CFA_XSP16, literal(-9)))
          CFI V14 load(1, XDATA, add(CFA_XSP16, literal(-8)))
          CFI V15 load(1, XDATA, add(CFA_XSP16, literal(-7)))
          CFI R7 load(1, XDATA, add(CFA_XSP16, literal(-6)))
          CFI ?RET_LOW load(1, XDATA, add(CFA_XSP16, literal(-5)))
          CFI ?RET_HIGH load(1, XDATA, add(CFA_XSP16, literal(-4)))
          CFI ?BRET_EXT load(1, XDATA, add(CFA_XSP16, literal(-3)))
          CFI DPL0 load(1, XDATA, add(CFA_XSP16, literal(-2)))
          CFI DPH0 load(1, XDATA, add(CFA_XSP16, literal(-1)))
          CFI CFA_SP SP+-2
          CFI CFA_XSP16 add(XSP16, 28)
          CFI Block cfiCond193 Using cfiCommon0
          CFI (cfiCond193) Function afIncomingData
          CFI (cfiCond193) Conditional ??CrossCallReturnLabel_97
          CFI (cfiCond193) R6 load(1, XDATA, add(CFA_XSP16, literal(-24)))
          CFI (cfiCond193) VB load(1, XDATA, add(CFA_XSP16, literal(-23)))
          CFI (cfiCond193) V0 load(1, XDATA, add(CFA_XSP16, literal(-22)))
          CFI (cfiCond193) V1 load(1, XDATA, add(CFA_XSP16, literal(-21)))
          CFI (cfiCond193) V2 load(1, XDATA, add(CFA_XSP16, literal(-20)))
          CFI (cfiCond193) V3 load(1, XDATA, add(CFA_XSP16, literal(-19)))
          CFI (cfiCond193) V4 load(1, XDATA, add(CFA_XSP16, literal(-18)))
          CFI (cfiCond193) V5 load(1, XDATA, add(CFA_XSP16, literal(-17)))
          CFI (cfiCond193) V6 load(1, XDATA, add(CFA_XSP16, literal(-16)))
          CFI (cfiCond193) V7 load(1, XDATA, add(CFA_XSP16, literal(-15)))
          CFI (cfiCond193) V8 load(1, XDATA, add(CFA_XSP16, literal(-14)))
          CFI (cfiCond193) V9 load(1, XDATA, add(CFA_XSP16, literal(-13)))
          CFI (cfiCond193) V10 load(1, XDATA, add(CFA_XSP16, literal(-12)))
          CFI (cfiCond193) V11 load(1, XDATA, add(CFA_XSP16, literal(-11)))
          CFI (cfiCond193) V12 load(1, XDATA, add(CFA_XSP16, literal(-10)))
          CFI (cfiCond193) V13 load(1, XDATA, add(CFA_XSP16, literal(-9)))
          CFI (cfiCond193) V14 load(1, XDATA, add(CFA_XSP16, literal(-8)))
          CFI (cfiCond193) V15 load(1, XDATA, add(CFA_XSP16, literal(-7)))
          CFI (cfiCond193) R7 load(1, XDATA, add(CFA_XSP16, literal(-6)))
          CFI (cfiCond193) ?RET_LOW load(1, XDATA, add(CFA_XSP16, literal(-5)))
          CFI (cfiCond193) ?RET_HIGH load(1, XDATA, add(CFA_XSP16, literal(-4)))
          CFI (cfiCond193) ?BRET_EXT load(1, XDATA, add(CFA_XSP16, literal(-3)))
          CFI (cfiCond193) DPL0 load(1, XDATA, add(CFA_XSP16, literal(-2)))
          CFI (cfiCond193) DPH0 load(1, XDATA, add(CFA_XSP16, literal(-1)))
          CFI (cfiCond193) CFA_SP SP+-2
          CFI (cfiCond193) CFA_XSP16 add(XSP16, 28)
          CFI Block cfiCond194 Using cfiCommon0
          CFI (cfiCond194) Function AF_DataRequest
          CFI (cfiCond194) Conditional ??CrossCallReturnLabel_98
          CFI (cfiCond194) R6 load(1, XDATA, add(CFA_XSP16, literal(-18)))
          CFI (cfiCond194) VB load(1, XDATA, add(CFA_XSP16, literal(-17)))
          CFI (cfiCond194) V0 load(1, XDATA, add(CFA_XSP16, literal(-16)))
          CFI (cfiCond194) V1 load(1, XDATA, add(CFA_XSP16, literal(-15)))
          CFI (cfiCond194) V2 load(1, XDATA, add(CFA_XSP16, literal(-14)))
          CFI (cfiCond194) V3 load(1, XDATA, add(CFA_XSP16, literal(-13)))
          CFI (cfiCond194) V4 load(1, XDATA, add(CFA_XSP16, literal(-12)))
          CFI (cfiCond194) V5 load(1, XDATA, add(CFA_XSP16, literal(-11)))
          CFI (cfiCond194) V6 load(1, XDATA, add(CFA_XSP16, literal(-10)))
          CFI (cfiCond194) V7 load(1, XDATA, add(CFA_XSP16, literal(-9)))
          CFI (cfiCond194) V8 load(1, XDATA, add(CFA_XSP16, literal(-8)))
          CFI (cfiCond194) V9 load(1, XDATA, add(CFA_XSP16, literal(-7)))
          CFI (cfiCond194) R7 load(1, XDATA, add(CFA_XSP16, literal(-6)))
          CFI (cfiCond194) ?RET_LOW load(1, XDATA, add(CFA_XSP16, literal(-5)))
          CFI (cfiCond194) ?RET_HIGH load(1, XDATA, add(CFA_XSP16, literal(-4)))
          CFI (cfiCond194) ?BRET_EXT load(1, XDATA, add(CFA_XSP16, literal(-3)))
          CFI (cfiCond194) DPL0 load(1, XDATA, add(CFA_XSP16, literal(-2)))
          CFI (cfiCond194) DPH0 load(1, XDATA, add(CFA_XSP16, literal(-1)))
          CFI (cfiCond194) CFA_SP SP+-2
          CFI (cfiCond194) CFA_XSP16 add(XSP16, 48)
          CFI Block cfiCond195 Using cfiCommon0
          CFI (cfiCond195) Function AF_DataRequest
          CFI (cfiCond195) Conditional ??CrossCallReturnLabel_99
          CFI (cfiCond195) R6 load(1, XDATA, add(CFA_XSP16, literal(-18)))
          CFI (cfiCond195) VB load(1, XDATA, add(CFA_XSP16, literal(-17)))
          CFI (cfiCond195) V0 load(1, XDATA, add(CFA_XSP16, literal(-16)))
          CFI (cfiCond195) V1 load(1, XDATA, add(CFA_XSP16, literal(-15)))
          CFI (cfiCond195) V2 load(1, XDATA, add(CFA_XSP16, literal(-14)))
          CFI (cfiCond195) V3 load(1, XDATA, add(CFA_XSP16, literal(-13)))
          CFI (cfiCond195) V4 load(1, XDATA, add(CFA_XSP16, literal(-12)))
          CFI (cfiCond195) V5 load(1, XDATA, add(CFA_XSP16, literal(-11)))
          CFI (cfiCond195) V6 load(1, XDATA, add(CFA_XSP16, literal(-10)))
          CFI (cfiCond195) V7 load(1, XDATA, add(CFA_XSP16, literal(-9)))
          CFI (cfiCond195) V8 load(1, XDATA, add(CFA_XSP16, literal(-8)))
          CFI (cfiCond195) V9 load(1, XDATA, add(CFA_XSP16, literal(-7)))
          CFI (cfiCond195) R7 load(1, XDATA, add(CFA_XSP16, literal(-6)))
          CFI (cfiCond195) ?RET_LOW load(1, XDATA, add(CFA_XSP16, literal(-5)))
          CFI (cfiCond195) ?RET_HIGH load(1, XDATA, add(CFA_XSP16, literal(-4)))
          CFI (cfiCond195) ?BRET_EXT load(1, XDATA, add(CFA_XSP16, literal(-3)))
          CFI (cfiCond195) DPL0 load(1, XDATA, add(CFA_XSP16, literal(-2)))
          CFI (cfiCond195) DPH0 load(1, XDATA, add(CFA_XSP16, literal(-1)))
          CFI (cfiCond195) CFA_SP SP+-2
          CFI (cfiCond195) CFA_XSP16 add(XSP16, 48)
          CFI Block cfiCond196 Using cfiCommon0
          CFI (cfiCond196) Function afFindEndPointDescList
          CFI (cfiCond196) Conditional ??CrossCallReturnLabel_100
          CFI (cfiCond196) DPL0 Frame(CFA_SP, 4)
          CFI (cfiCond196) DPH0 Frame(CFA_SP, 5)
          CFI (cfiCond196) CFA_SP SP+-7
          CFI Block cfiCond197 Using cfiCommon0
          CFI (cfiCond197) Function afFindSimpleDesc
          CFI (cfiCond197) Conditional ??CrossCallReturnLabel_101
          CFI (cfiCond197) R6 load(1, XDATA, add(CFA_XSP16, literal(-12)))
          CFI (cfiCond197) VB load(1, XDATA, add(CFA_XSP16, literal(-11)))
          CFI (cfiCond197) V0 load(1, XDATA, add(CFA_XSP16, literal(-10)))
          CFI (cfiCond197) V1 load(1, XDATA, add(CFA_XSP16, literal(-9)))
          CFI (cfiCond197) V2 load(1, XDATA, add(CFA_XSP16, literal(-8)))
          CFI (cfiCond197) V3 load(1, XDATA, add(CFA_XSP16, literal(-7)))
          CFI (cfiCond197) R7 load(1, XDATA, add(CFA_XSP16, literal(-6)))
          CFI (cfiCond197) ?RET_LOW load(1, XDATA, add(CFA_XSP16, literal(-5)))
          CFI (cfiCond197) ?RET_HIGH load(1, XDATA, add(CFA_XSP16, literal(-4)))
          CFI (cfiCond197) ?BRET_EXT load(1, XDATA, add(CFA_XSP16, literal(-3)))
          CFI (cfiCond197) DPL0 load(1, XDATA, add(CFA_XSP16, literal(-2)))
          CFI (cfiCond197) DPH0 load(1, XDATA, add(CFA_XSP16, literal(-1)))
          CFI (cfiCond197) CFA_SP SP+-2
          CFI (cfiCond197) CFA_XSP16 add(XSP16, 12)
          CFI Block cfiCond198 Using cfiCommon0
          CFI (cfiCond198) Function afFindSimpleDesc
          CFI (cfiCond198) Conditional ??CrossCallReturnLabel_102
          CFI (cfiCond198) R6 load(1, XDATA, add(CFA_XSP16, literal(-12)))
          CFI (cfiCond198) VB load(1, XDATA, add(CFA_XSP16, literal(-11)))
          CFI (cfiCond198) V0 load(1, XDATA, add(CFA_XSP16, literal(-10)))
          CFI (cfiCond198) V1 load(1, XDATA, add(CFA_XSP16, literal(-9)))
          CFI (cfiCond198) V2 load(1, XDATA, add(CFA_XSP16, literal(-8)))
          CFI (cfiCond198) V3 load(1, XDATA, add(CFA_XSP16, literal(-7)))
          CFI (cfiCond198) R7 load(1, XDATA, add(CFA_XSP16, literal(-6)))
          CFI (cfiCond198) ?RET_LOW load(1, XDATA, add(CFA_XSP16, literal(-5)))
          CFI (cfiCond198) ?RET_HIGH load(1, XDATA, add(CFA_XSP16, literal(-4)))
          CFI (cfiCond198) ?BRET_EXT load(1, XDATA, add(CFA_XSP16, literal(-3)))
          CFI (cfiCond198) DPL0 load(1, XDATA, add(CFA_XSP16, literal(-2)))
          CFI (cfiCond198) DPH0 load(1, XDATA, add(CFA_XSP16, literal(-1)))
          CFI (cfiCond198) CFA_SP SP+-2
          CFI (cfiCond198) CFA_XSP16 add(XSP16, 12)
          CFI Block cfiCond199 Using cfiCommon0
          CFI (cfiCond199) Function afEndPoints
          CFI (cfiCond199) Conditional ??CrossCallReturnLabel_103
          CFI (cfiCond199) DPL0 Frame(CFA_SP, 4)
          CFI (cfiCond199) DPH0 Frame(CFA_SP, 5)
          CFI (cfiCond199) CFA_SP SP+-7
          CFI Block cfiPicker200 Using cfiCommon1
          CFI (cfiPicker200) NoFunction
          CFI (cfiPicker200) Picker
        INC     DPTR
          CFI EndBlock cfiCond192
          CFI EndBlock cfiCond193
          CFI EndBlock cfiCond194
          CFI EndBlock cfiCond195
          CFI EndBlock cfiCond196
          CFI EndBlock cfiCond197
          CFI EndBlock cfiCond198
          CFI EndBlock cfiCond199
          CFI EndBlock cfiPicker200
        REQUIRE ??Subroutine44_0
        ; // Fall through to label ??Subroutine44_0

        RSEG BANKED_CODE:CODE:NOROOT(0)
??Subroutine44_0:
          CFI Block cfiCond201 Using cfiCommon0
          CFI Function AF_DataRequest
          CFI Conditional ??CrossCallReturnLabel_95
          CFI R6 load(1, XDATA, add(CFA_XSP16, literal(-18)))
          CFI VB load(1, XDATA, add(CFA_XSP16, literal(-17)))
          CFI V0 load(1, XDATA, add(CFA_XSP16, literal(-16)))
          CFI V1 load(1, XDATA, add(CFA_XSP16, literal(-15)))
          CFI V2 load(1, XDATA, add(CFA_XSP16, literal(-14)))
          CFI V3 load(1, XDATA, add(CFA_XSP16, literal(-13)))
          CFI V4 load(1, XDATA, add(CFA_XSP16, literal(-12)))
          CFI V5 load(1, XDATA, add(CFA_XSP16, literal(-11)))
          CFI V6 load(1, XDATA, add(CFA_XSP16, literal(-10)))
          CFI V7 load(1, XDATA, add(CFA_XSP16, literal(-9)))
          CFI V8 load(1, XDATA, add(CFA_XSP16, literal(-8)))
          CFI V9 load(1, XDATA, add(CFA_XSP16, literal(-7)))
          CFI R7 load(1, XDATA, add(CFA_XSP16, literal(-6)))
          CFI ?RET_LOW load(1, XDATA, add(CFA_XSP16, literal(-5)))
          CFI ?RET_HIGH load(1, XDATA, add(CFA_XSP16, literal(-4)))
          CFI ?BRET_EXT load(1, XDATA, add(CFA_XSP16, literal(-3)))
          CFI DPL0 load(1, XDATA, add(CFA_XSP16, literal(-2)))
          CFI DPH0 load(1, XDATA, add(CFA_XSP16, literal(-1)))
          CFI CFA_SP SP+-2
          CFI CFA_XSP16 add(XSP16, 48)
          CFI Block cfiCond202 Using cfiCommon0
          CFI (cfiCond202) Function afIncomingData
          CFI (cfiCond202) Conditional ??CrossCallReturnLabel_96
          CFI (cfiCond202) R6 load(1, XDATA, add(CFA_XSP16, literal(-24)))
          CFI (cfiCond202) VB load(1, XDATA, add(CFA_XSP16, literal(-23)))
          CFI (cfiCond202) V0 load(1, XDATA, add(CFA_XSP16, literal(-22)))
          CFI (cfiCond202) V1 load(1, XDATA, add(CFA_XSP16, literal(-21)))
          CFI (cfiCond202) V2 load(1, XDATA, add(CFA_XSP16, literal(-20)))
          CFI (cfiCond202) V3 load(1, XDATA, add(CFA_XSP16, literal(-19)))
          CFI (cfiCond202) V4 load(1, XDATA, add(CFA_XSP16, literal(-18)))
          CFI (cfiCond202) V5 load(1, XDATA, add(CFA_XSP16, literal(-17)))
          CFI (cfiCond202) V6 load(1, XDATA, add(CFA_XSP16, literal(-16)))
          CFI (cfiCond202) V7 load(1, XDATA, add(CFA_XSP16, literal(-15)))
          CFI (cfiCond202) V8 load(1, XDATA, add(CFA_XSP16, literal(-14)))
          CFI (cfiCond202) V9 load(1, XDATA, add(CFA_XSP16, literal(-13)))
          CFI (cfiCond202) V10 load(1, XDATA, add(CFA_XSP16, literal(-12)))
          CFI (cfiCond202) V11 load(1, XDATA, add(CFA_XSP16, literal(-11)))
          CFI (cfiCond202) V12 load(1, XDATA, add(CFA_XSP16, literal(-10)))
          CFI (cfiCond202) V13 load(1, XDATA, add(CFA_XSP16, literal(-9)))
          CFI (cfiCond202) V14 load(1, XDATA, add(CFA_XSP16, literal(-8)))
          CFI (cfiCond202) V15 load(1, XDATA, add(CFA_XSP16, literal(-7)))
          CFI (cfiCond202) R7 load(1, XDATA, add(CFA_XSP16, literal(-6)))
          CFI (cfiCond202) ?RET_LOW load(1, XDATA, add(CFA_XSP16, literal(-5)))
          CFI (cfiCond202) ?RET_HIGH load(1, XDATA, add(CFA_XSP16, literal(-4)))
          CFI (cfiCond202) ?BRET_EXT load(1, XDATA, add(CFA_XSP16, literal(-3)))
          CFI (cfiCond202) DPL0 load(1, XDATA, add(CFA_XSP16, literal(-2)))
          CFI (cfiCond202) DPH0 load(1, XDATA, add(CFA_XSP16, literal(-1)))
          CFI (cfiCond202) CFA_SP SP+-2
          CFI (cfiCond202) CFA_XSP16 add(XSP16, 28)
          CFI Block cfiCond203 Using cfiCommon0
          CFI (cfiCond203) Function afIncomingData
          CFI (cfiCond203) Conditional ??CrossCallReturnLabel_97
          CFI (cfiCond203) R6 load(1, XDATA, add(CFA_XSP16, literal(-24)))
          CFI (cfiCond203) VB load(1, XDATA, add(CFA_XSP16, literal(-23)))
          CFI (cfiCond203) V0 load(1, XDATA, add(CFA_XSP16, literal(-22)))
          CFI (cfiCond203) V1 load(1, XDATA, add(CFA_XSP16, literal(-21)))
          CFI (cfiCond203) V2 load(1, XDATA, add(CFA_XSP16, literal(-20)))
          CFI (cfiCond203) V3 load(1, XDATA, add(CFA_XSP16, literal(-19)))
          CFI (cfiCond203) V4 load(1, XDATA, add(CFA_XSP16, literal(-18)))
          CFI (cfiCond203) V5 load(1, XDATA, add(CFA_XSP16, literal(-17)))
          CFI (cfiCond203) V6 load(1, XDATA, add(CFA_XSP16, literal(-16)))
          CFI (cfiCond203) V7 load(1, XDATA, add(CFA_XSP16, literal(-15)))
          CFI (cfiCond203) V8 load(1, XDATA, add(CFA_XSP16, literal(-14)))
          CFI (cfiCond203) V9 load(1, XDATA, add(CFA_XSP16, literal(-13)))
          CFI (cfiCond203) V10 load(1, XDATA, add(CFA_XSP16, literal(-12)))
          CFI (cfiCond203) V11 load(1, XDATA, add(CFA_XSP16, literal(-11)))
          CFI (cfiCond203) V12 load(1, XDATA, add(CFA_XSP16, literal(-10)))
          CFI (cfiCond203) V13 load(1, XDATA, add(CFA_XSP16, literal(-9)))
          CFI (cfiCond203) V14 load(1, XDATA, add(CFA_XSP16, literal(-8)))
          CFI (cfiCond203) V15 load(1, XDATA, add(CFA_XSP16, literal(-7)))
          CFI (cfiCond203) R7 load(1, XDATA, add(CFA_XSP16, literal(-6)))
          CFI (cfiCond203) ?RET_LOW load(1, XDATA, add(CFA_XSP16, literal(-5)))
          CFI (cfiCond203) ?RET_HIGH load(1, XDATA, add(CFA_XSP16, literal(-4)))
          CFI (cfiCond203) ?BRET_EXT load(1, XDATA, add(CFA_XSP16, literal(-3)))
          CFI (cfiCond203) DPL0 load(1, XDATA, add(CFA_XSP16, literal(-2)))
          CFI (cfiCond203) DPH0 load(1, XDATA, add(CFA_XSP16, literal(-1)))
          CFI (cfiCond203) CFA_SP SP+-2
          CFI (cfiCond203) CFA_XSP16 add(XSP16, 28)
          CFI Block cfiCond204 Using cfiCommon0
          CFI (cfiCond204) Function AF_DataRequest
          CFI (cfiCond204) Conditional ??CrossCallReturnLabel_98
          CFI (cfiCond204) R6 load(1, XDATA, add(CFA_XSP16, literal(-18)))
          CFI (cfiCond204) VB load(1, XDATA, add(CFA_XSP16, literal(-17)))
          CFI (cfiCond204) V0 load(1, XDATA, add(CFA_XSP16, literal(-16)))
          CFI (cfiCond204) V1 load(1, XDATA, add(CFA_XSP16, literal(-15)))
          CFI (cfiCond204) V2 load(1, XDATA, add(CFA_XSP16, literal(-14)))
          CFI (cfiCond204) V3 load(1, XDATA, add(CFA_XSP16, literal(-13)))
          CFI (cfiCond204) V4 load(1, XDATA, add(CFA_XSP16, literal(-12)))
          CFI (cfiCond204) V5 load(1, XDATA, add(CFA_XSP16, literal(-11)))
          CFI (cfiCond204) V6 load(1, XDATA, add(CFA_XSP16, literal(-10)))
          CFI (cfiCond204) V7 load(1, XDATA, add(CFA_XSP16, literal(-9)))
          CFI (cfiCond204) V8 load(1, XDATA, add(CFA_XSP16, literal(-8)))
          CFI (cfiCond204) V9 load(1, XDATA, add(CFA_XSP16, literal(-7)))
          CFI (cfiCond204) R7 load(1, XDATA, add(CFA_XSP16, literal(-6)))
          CFI (cfiCond204) ?RET_LOW load(1, XDATA, add(CFA_XSP16, literal(-5)))
          CFI (cfiCond204) ?RET_HIGH load(1, XDATA, add(CFA_XSP16, literal(-4)))
          CFI (cfiCond204) ?BRET_EXT load(1, XDATA, add(CFA_XSP16, literal(-3)))
          CFI (cfiCond204) DPL0 load(1, XDATA, add(CFA_XSP16, literal(-2)))
          CFI (cfiCond204) DPH0 load(1, XDATA, add(CFA_XSP16, literal(-1)))
          CFI (cfiCond204) CFA_SP SP+-2
          CFI (cfiCond204) CFA_XSP16 add(XSP16, 48)
          CFI Block cfiCond205 Using cfiCommon0
          CFI (cfiCond205) Function AF_DataRequest
          CFI (cfiCond205) Conditional ??CrossCallReturnLabel_99
          CFI (cfiCond205) R6 load(1, XDATA, add(CFA_XSP16, literal(-18)))
          CFI (cfiCond205) VB load(1, XDATA, add(CFA_XSP16, literal(-17)))
          CFI (cfiCond205) V0 load(1, XDATA, add(CFA_XSP16, literal(-16)))
          CFI (cfiCond205) V1 load(1, XDATA, add(CFA_XSP16, literal(-15)))
          CFI (cfiCond205) V2 load(1, XDATA, add(CFA_XSP16, literal(-14)))
          CFI (cfiCond205) V3 load(1, XDATA, add(CFA_XSP16, literal(-13)))
          CFI (cfiCond205) V4 load(1, XDATA, add(CFA_XSP16, literal(-12)))
          CFI (cfiCond205) V5 load(1, XDATA, add(CFA_XSP16, literal(-11)))
          CFI (cfiCond205) V6 load(1, XDATA, add(CFA_XSP16, literal(-10)))
          CFI (cfiCond205) V7 load(1, XDATA, add(CFA_XSP16, literal(-9)))
          CFI (cfiCond205) V8 load(1, XDATA, add(CFA_XSP16, literal(-8)))
          CFI (cfiCond205) V9 load(1, XDATA, add(CFA_XSP16, literal(-7)))
          CFI (cfiCond205) R7 load(1, XDATA, add(CFA_XSP16, literal(-6)))
          CFI (cfiCond205) ?RET_LOW load(1, XDATA, add(CFA_XSP16, literal(-5)))
          CFI (cfiCond205) ?RET_HIGH load(1, XDATA, add(CFA_XSP16, literal(-4)))
          CFI (cfiCond205) ?BRET_EXT load(1, XDATA, add(CFA_XSP16, literal(-3)))
          CFI (cfiCond205) DPL0 load(1, XDATA, add(CFA_XSP16, literal(-2)))
          CFI (cfiCond205) DPH0 load(1, XDATA, add(CFA_XSP16, literal(-1)))
          CFI (cfiCond205) CFA_SP SP+-2
          CFI (cfiCond205) CFA_XSP16 add(XSP16, 48)
          CFI Block cfiCond206 Using cfiCommon0
          CFI (cfiCond206) Function afFindEndPointDescList
          CFI (cfiCond206) Conditional ??CrossCallReturnLabel_100
          CFI (cfiCond206) DPL0 Frame(CFA_SP, 4)
          CFI (cfiCond206) DPH0 Frame(CFA_SP, 5)
          CFI (cfiCond206) CFA_SP SP+-7
          CFI Block cfiCond207 Using cfiCommon0
          CFI (cfiCond207) Function afFindSimpleDesc
          CFI (cfiCond207) Conditional ??CrossCallReturnLabel_101
          CFI (cfiCond207) R6 load(1, XDATA, add(CFA_XSP16, literal(-12)))
          CFI (cfiCond207) VB load(1, XDATA, add(CFA_XSP16, literal(-11)))
          CFI (cfiCond207) V0 load(1, XDATA, add(CFA_XSP16, literal(-10)))
          CFI (cfiCond207) V1 load(1, XDATA, add(CFA_XSP16, literal(-9)))
          CFI (cfiCond207) V2 load(1, XDATA, add(CFA_XSP16, literal(-8)))
          CFI (cfiCond207) V3 load(1, XDATA, add(CFA_XSP16, literal(-7)))
          CFI (cfiCond207) R7 load(1, XDATA, add(CFA_XSP16, literal(-6)))
          CFI (cfiCond207) ?RET_LOW load(1, XDATA, add(CFA_XSP16, literal(-5)))
          CFI (cfiCond207) ?RET_HIGH load(1, XDATA, add(CFA_XSP16, literal(-4)))
          CFI (cfiCond207) ?BRET_EXT load(1, XDATA, add(CFA_XSP16, literal(-3)))
          CFI (cfiCond207) DPL0 load(1, XDATA, add(CFA_XSP16, literal(-2)))
          CFI (cfiCond207) DPH0 load(1, XDATA, add(CFA_XSP16, literal(-1)))
          CFI (cfiCond207) CFA_SP SP+-2
          CFI (cfiCond207) CFA_XSP16 add(XSP16, 12)
          CFI Block cfiCond208 Using cfiCommon0
          CFI (cfiCond208) Function afFindSimpleDesc
          CFI (cfiCond208) Conditional ??CrossCallReturnLabel_102
          CFI (cfiCond208) R6 load(1, XDATA, add(CFA_XSP16, literal(-12)))
          CFI (cfiCond208) VB load(1, XDATA, add(CFA_XSP16, literal(-11)))
          CFI (cfiCond208) V0 load(1, XDATA, add(CFA_XSP16, literal(-10)))
          CFI (cfiCond208) V1 load(1, XDATA, add(CFA_XSP16, literal(-9)))
          CFI (cfiCond208) V2 load(1, XDATA, add(CFA_XSP16, literal(-8)))
          CFI (cfiCond208) V3 load(1, XDATA, add(CFA_XSP16, literal(-7)))
          CFI (cfiCond208) R7 load(1, XDATA, add(CFA_XSP16, literal(-6)))
          CFI (cfiCond208) ?RET_LOW load(1, XDATA, add(CFA_XSP16, literal(-5)))
          CFI (cfiCond208) ?RET_HIGH load(1, XDATA, add(CFA_XSP16, literal(-4)))
          CFI (cfiCond208) ?BRET_EXT load(1, XDATA, add(CFA_XSP16, literal(-3)))
          CFI (cfiCond208) DPL0 load(1, XDATA, add(CFA_XSP16, literal(-2)))
          CFI (cfiCond208) DPH0 load(1, XDATA, add(CFA_XSP16, literal(-1)))
          CFI (cfiCond208) CFA_SP SP+-2
          CFI (cfiCond208) CFA_XSP16 add(XSP16, 12)
          CFI Block cfiCond209 Using cfiCommon0
          CFI (cfiCond209) Function afEndPoints
          CFI (cfiCond209) Conditional ??CrossCallReturnLabel_103
          CFI (cfiCond209) DPL0 Frame(CFA_SP, 4)
          CFI (cfiCond209) DPH0 Frame(CFA_SP, 5)
          CFI (cfiCond209) CFA_SP SP+-7
          CFI Block cfiPicker210 Using cfiCommon1
          CFI (cfiPicker210) NoFunction
          CFI (cfiPicker210) Picker
        MOVX    A,@DPTR
        MOV     DPH,A
        MOV     DPL,R0
        RET
          CFI EndBlock cfiCond201
          CFI EndBlock cfiCond202
          CFI EndBlock cfiCond203
          CFI EndBlock cfiCond204
          CFI EndBlock cfiCond205
          CFI EndBlock cfiCond206
          CFI EndBlock cfiCond207
          CFI EndBlock cfiCond208
          CFI EndBlock cfiCond209
          CFI EndBlock cfiPicker210

        RSEG BANKED_CODE:CODE:NOROOT(0)
?Subroutine7:
          CFI Block cfiCond211 Using cfiCommon0
          CFI Function afDelete
          CFI Conditional ??CrossCallReturnLabel_2
          CFI R6 load(1, XDATA, add(CFA_XSP16, literal(-9)))
          CFI VB load(1, XDATA, add(CFA_XSP16, literal(-8)))
          CFI V0 load(1, XDATA, add(CFA_XSP16, literal(-7)))
          CFI R7 load(1, XDATA, add(CFA_XSP16, literal(-6)))
          CFI ?RET_LOW load(1, XDATA, add(CFA_XSP16, literal(-5)))
          CFI ?RET_HIGH load(1, XDATA, add(CFA_XSP16, literal(-4)))
          CFI ?BRET_EXT load(1, XDATA, add(CFA_XSP16, literal(-3)))
          CFI DPL0 load(1, XDATA, add(CFA_XSP16, literal(-2)))
          CFI DPH0 load(1, XDATA, add(CFA_XSP16, literal(-1)))
          CFI CFA_SP SP+-2
          CFI CFA_XSP16 add(XSP16, 9)
          CFI Block cfiCond212 Using cfiCommon0
          CFI (cfiCond212) Function afFindEndPointDescList
          CFI (cfiCond212) Conditional ??CrossCallReturnLabel_3
          CFI (cfiCond212) DPL0 Frame(CFA_SP, 4)
          CFI (cfiCond212) DPH0 Frame(CFA_SP, 5)
          CFI (cfiCond212) CFA_SP SP+-7
          CFI Block cfiCond213 Using cfiCommon0
          CFI (cfiCond213) Function afFindSimpleDesc
          CFI (cfiCond213) Conditional ??CrossCallReturnLabel_4
          CFI (cfiCond213) R6 load(1, XDATA, add(CFA_XSP16, literal(-12)))
          CFI (cfiCond213) VB load(1, XDATA, add(CFA_XSP16, literal(-11)))
          CFI (cfiCond213) V0 load(1, XDATA, add(CFA_XSP16, literal(-10)))
          CFI (cfiCond213) V1 load(1, XDATA, add(CFA_XSP16, literal(-9)))
          CFI (cfiCond213) V2 load(1, XDATA, add(CFA_XSP16, literal(-8)))
          CFI (cfiCond213) V3 load(1, XDATA, add(CFA_XSP16, literal(-7)))
          CFI (cfiCond213) R7 load(1, XDATA, add(CFA_XSP16, literal(-6)))
          CFI (cfiCond213) ?RET_LOW load(1, XDATA, add(CFA_XSP16, literal(-5)))
          CFI (cfiCond213) ?RET_HIGH load(1, XDATA, add(CFA_XSP16, literal(-4)))
          CFI (cfiCond213) ?BRET_EXT load(1, XDATA, add(CFA_XSP16, literal(-3)))
          CFI (cfiCond213) DPL0 load(1, XDATA, add(CFA_XSP16, literal(-2)))
          CFI (cfiCond213) DPH0 load(1, XDATA, add(CFA_XSP16, literal(-1)))
          CFI (cfiCond213) CFA_SP SP+-2
          CFI (cfiCond213) CFA_XSP16 add(XSP16, 12)
          CFI Block cfiPicker214 Using cfiCommon1
          CFI (cfiPicker214) NoFunction
          CFI (cfiPicker214) Picker
        MOVX    A,@DPTR
        MOV     R2,A
        INC     DPTR
        MOVX    A,@DPTR
        MOV     R3,A
        MOV     A,R2
        ORL     A,R3
        RET
          CFI EndBlock cfiCond211
          CFI EndBlock cfiCond212
          CFI EndBlock cfiCond213
          CFI EndBlock cfiPicker214
//  861 
//  862 /*********************************************************************
//  863  * @fn      afFindEndPointDesc
//  864  *
//  865  * @brief   Find the endpoint description entry from the endpoint
//  866  *          number.
//  867  *
//  868  * @param   EndPoint - Application Endpoint to look for
//  869  *
//  870  * @return  the address to the endpoint/interface description entry
//  871  */

        RSEG BANKED_CODE:CODE:NOROOT(0)
//  872 endPointDesc_t *afFindEndPointDesc( uint8 EndPoint )
afFindEndPointDesc:
          CFI Block cfiBlock215 Using cfiCommon0
          CFI Function afFindEndPointDesc
        CODE
//  873 {
        FUNCALL afFindEndPointDesc, afFindEndPointDescList
        LOCFRAME ISTACK, 0, STACK
        LOCFRAME PSTACK, 0, STACK
        LOCFRAME XSTACK, 10, STACK
        LOCFRAME IOVERLAY, 0, STATIC
        LOCFRAME DOVERLAY, 0, STATIC
        ARGFRAME ISTACK, 0, STACK
        ARGFRAME PSTACK, 0, STACK
        ARGFRAME XSTACK, 10, STACK
        ARGFRAME IOVERLAY, 0, STATIC
        ARGFRAME DOVERLAY, 0, STATIC
        REQUIRE ?V0
        REQUIRE ?V1
        MOV     A,#-0xa
        LCALL   ?BANKED_ENTER_XDATA
          CFI DPH0 load(1, XDATA, add(CFA_XSP16, literal(-1)))
          CFI DPL0 load(1, XDATA, add(CFA_XSP16, literal(-2)))
          CFI ?BRET_EXT load(1, XDATA, add(CFA_XSP16, literal(-3)))
          CFI ?RET_HIGH load(1, XDATA, add(CFA_XSP16, literal(-4)))
          CFI ?RET_LOW load(1, XDATA, add(CFA_XSP16, literal(-5)))
          CFI R7 load(1, XDATA, add(CFA_XSP16, literal(-6)))
          CFI V1 load(1, XDATA, add(CFA_XSP16, literal(-7)))
          CFI V0 load(1, XDATA, add(CFA_XSP16, literal(-8)))
          CFI VB load(1, XDATA, add(CFA_XSP16, literal(-9)))
          CFI R6 load(1, XDATA, add(CFA_XSP16, literal(-10)))
          CFI CFA_SP SP+0
          CFI CFA_XSP16 add(XSP16, 10)
        ; Saved register size: 10
        ; Auto size: 0
//  874   epList_t *epSearch;
//  875 
//  876   // Look for the endpoint
//  877   epSearch = afFindEndPointDescList( EndPoint );
        ; Setup parameters for call to function afFindEndPointDescList
        LCALL   `??afFindEndPointDescList::?relay`; Banked call to: afFindEndPointDescList
        MOV     DPL,R2
        MOV     DPH,R3
//  878 
//  879   if ( epSearch )
        MOV     A,DPL
        ORL     A,DPH
        JZ      ??afFindEndPointDesc_0
//  880     return ( epSearch->epDesc );
        LCALL   ??Subroutine46_0 & 0xFFFF
??CrossCallReturnLabel_110:
        SJMP    ??afFindEndPointDesc_1
//  881   else
//  882     return ( (endPointDesc_t *)NULL );
??afFindEndPointDesc_0:
        MOV     R2,#0x0
        MOV     R3,#0x0
??afFindEndPointDesc_1:
        LJMP    ?Subroutine1 & 0xFFFF
//  883 }
          CFI EndBlock cfiBlock215
//  884 
//  885 /*********************************************************************
//  886  * @fn      afFindSimpleDesc
//  887  *
//  888  * @brief   Find the Simple Descriptor from the endpoint number.
//  889  *
//  890  * @param   EP - Application Endpoint to look for.
//  891  *
//  892  * @return  Non-zero to indicate that the descriptor memory must be freed.
//  893  */

        RSEG BANKED_CODE:CODE:NOROOT(0)
//  894 uint8 afFindSimpleDesc( SimpleDescriptionFormat_t **ppDesc, uint8 EP )
afFindSimpleDesc:
          CFI Block cfiBlock216 Using cfiCommon0
          CFI Function afFindSimpleDesc
        CODE
//  895 {
        FUNCALL afFindSimpleDesc, afFindEndPointDescList
        LOCFRAME ISTACK, 0, STACK
        LOCFRAME PSTACK, 0, STACK
        LOCFRAME XSTACK, 12, STACK
        LOCFRAME IOVERLAY, 0, STATIC
        LOCFRAME DOVERLAY, 0, STATIC
        ARGFRAME ISTACK, 0, STACK
        ARGFRAME PSTACK, 0, STACK
        ARGFRAME XSTACK, 12, STACK
        ARGFRAME IOVERLAY, 0, STATIC
        ARGFRAME DOVERLAY, 0, STATIC
        REQUIRE ?V0
        REQUIRE ?V2
        REQUIRE ?V3
        MOV     A,#-0xc
        LCALL   ?BANKED_ENTER_XDATA
          CFI DPH0 load(1, XDATA, add(CFA_XSP16, literal(-1)))
          CFI DPL0 load(1, XDATA, add(CFA_XSP16, literal(-2)))
          CFI ?BRET_EXT load(1, XDATA, add(CFA_XSP16, literal(-3)))
          CFI ?RET_HIGH load(1, XDATA, add(CFA_XSP16, literal(-4)))
          CFI ?RET_LOW load(1, XDATA, add(CFA_XSP16, literal(-5)))
          CFI R7 load(1, XDATA, add(CFA_XSP16, literal(-6)))
          CFI V3 load(1, XDATA, add(CFA_XSP16, literal(-7)))
          CFI V2 load(1, XDATA, add(CFA_XSP16, literal(-8)))
          CFI V1 load(1, XDATA, add(CFA_XSP16, literal(-9)))
          CFI V0 load(1, XDATA, add(CFA_XSP16, literal(-10)))
          CFI VB load(1, XDATA, add(CFA_XSP16, literal(-11)))
          CFI R6 load(1, XDATA, add(CFA_XSP16, literal(-12)))
          CFI CFA_SP SP+0
          CFI CFA_XSP16 add(XSP16, 12)
        ; Saved register size: 12
        ; Auto size: 0
        MOV     A,R2
        MOV     R6,A
        MOV     A,R3
        MOV     R7,A
        MOV     ?V0,R1
//  896   epList_t *epItem = afFindEndPointDescList( EP );
        ; Setup parameters for call to function afFindEndPointDescList
        LCALL   `??afFindEndPointDescList::?relay`; Banked call to: afFindEndPointDescList
        MOV     ?V2,R2
        MOV     ?V3,R3
        MOV     R4,?V2
        MOV     R5,?V3
//  897   uint8 rtrn = FALSE;
        MOV     R1,#0x0
//  898 
//  899   if ( epItem )
        MOV     A,R4
        ORL     A,R5
        JZ      ??afFindSimpleDesc_0
//  900   {
//  901     if ( epItem->pfnDescCB )
        MOV     DPL,R4
        MOV     DPH,R5
        INC     DPTR
        INC     DPTR
        INC     DPTR
        INC     DPTR
        LCALL   ?Subroutine7 & 0xFFFF
??CrossCallReturnLabel_4:
        JZ      ??afFindSimpleDesc_1
//  902     {
//  903       *ppDesc = epItem->pfnDescCB( AF_DESCRIPTOR_SIMPLE, EP );
        ; Setup parameters for indirect call
        MOV     R2,?V0
        INC     R1
        MOV     DPL,R4
        MOV     DPH,R5
        INC     DPTR
        INC     DPTR
        LCALL   ??Subroutine42_0 & 0xFFFF
??CrossCallReturnLabel_101:
        LCALL   ?CALL_IND
        MOV     DPL,R6
        MOV     DPH,R7
        MOV     A,R2
        MOVX    @DPTR,A
        INC     DPTR
        MOV     A,R3
        MOVX    @DPTR,A
//  904       rtrn = TRUE;
        MOV     R1,#0x1
        SJMP    ??afFindSimpleDesc_2
//  905     }
//  906     else
//  907     {
//  908       *ppDesc = epItem->epDesc->simpleDesc;
??afFindSimpleDesc_1:
        LCALL   ?Subroutine9 & 0xFFFF
//  909     }
//  910   }
??CrossCallReturnLabel_102:
        LCALL   ??Subroutine45_0 & 0xFFFF
??CrossCallReturnLabel_111:
        MOV     DPL,R6
        MOV     DPH,R7
        MOV     A,R2
        MOVX    @DPTR,A
        INC     DPTR
        MOV     A,R3
        SJMP    ??afFindSimpleDesc_3
//  911   else
//  912   {
//  913     *ppDesc = NULL;
??afFindSimpleDesc_0:
        MOV     DPL,R6
        MOV     DPH,R7
        CLR     A
        MOVX    @DPTR,A
        INC     DPTR
??afFindSimpleDesc_3:
        MOVX    @DPTR,A
//  914   }
//  915 
//  916   return rtrn;
??afFindSimpleDesc_2:
        LJMP    ?Subroutine0 & 0xFFFF
//  917 }
          CFI EndBlock cfiBlock216
//  918 
//  919 /*********************************************************************
//  920  * @fn      afGetDescCB
//  921  *
//  922  * @brief   Get the Descriptor callback function.
//  923  *
//  924  * @param   epDesc - pointer to the endpoint descriptor
//  925  *
//  926  * @return  function pointer or NULL
//  927  */
//  928 static pDescCB afGetDescCB( endPointDesc_t *epDesc )
//  929 {
//  930   epList_t *epSearch;
//  931 
//  932   // Start at the beginning
//  933   epSearch = epList;
//  934 
//  935   // Look through the list until the end
//  936   while ( epSearch )
//  937   {
//  938     // Is there a match?
//  939     if ( epSearch->epDesc == epDesc )
//  940     {
//  941       return ( epSearch->pfnDescCB );
//  942     }
//  943     else
//  944       epSearch = epSearch->nextDesc;  // Next entry
//  945   }
//  946 
//  947   return ( (pDescCB)NULL );
//  948 }
//  949 
//  950 /*********************************************************************
//  951  * @fn      afDataReqMTU
//  952  *
//  953  * @brief   Get the Data Request MTU(Max Transport Unit).
//  954  *
//  955  * @param   fields - afDataReqMTU_t
//  956  *
//  957  * @return  uint8(MTU)
//  958  */

        RSEG BANKED_CODE:CODE:NOROOT(0)
//  959 uint8 afDataReqMTU( afDataReqMTU_t* fields )
afDataReqMTU:
          CFI Block cfiBlock217 Using cfiCommon0
          CFI Function afDataReqMTU
        CODE
//  960 {
        FUNCALL afDataReqMTU, APSDE_DataReqMTU
        LOCFRAME ISTACK, 0, STACK
        LOCFRAME PSTACK, 0, STACK
        LOCFRAME XSTACK, 9, STACK
        LOCFRAME IOVERLAY, 0, STATIC
        LOCFRAME DOVERLAY, 0, STATIC
        ARGFRAME ISTACK, 0, STACK
        ARGFRAME PSTACK, 0, STACK
        ARGFRAME XSTACK, 9, STACK
        ARGFRAME IOVERLAY, 0, STATIC
        ARGFRAME DOVERLAY, 0, STATIC
        MOV     A,#-0x9
        LCALL   ?BANKED_ENTER_XDATA
          CFI DPH0 load(1, XDATA, add(CFA_XSP16, literal(-1)))
          CFI DPL0 load(1, XDATA, add(CFA_XSP16, literal(-2)))
          CFI ?BRET_EXT load(1, XDATA, add(CFA_XSP16, literal(-3)))
          CFI ?RET_HIGH load(1, XDATA, add(CFA_XSP16, literal(-4)))
          CFI ?RET_LOW load(1, XDATA, add(CFA_XSP16, literal(-5)))
          CFI R7 load(1, XDATA, add(CFA_XSP16, literal(-6)))
          CFI V0 load(1, XDATA, add(CFA_XSP16, literal(-7)))
          CFI VB load(1, XDATA, add(CFA_XSP16, literal(-8)))
          CFI R6 load(1, XDATA, add(CFA_XSP16, literal(-9)))
          CFI CFA_SP SP+0
          CFI CFA_XSP16 add(XSP16, 9)
        ; Saved register size: 9
        ; Auto size: 0
//  961   uint8 len;
//  962   uint8 hdr;
//  963 
//  964   if ( fields->kvp == TRUE )
        MOV     DPL,R2
        MOV     DPH,R3
        MOVX    A,@DPTR
        XRL     A,#0x1
        JNZ     ??afDataReqMTU_0
//  965   {
//  966     hdr = AF_HDR_KVP_MAX_LEN;
        MOV     R6,#0x8
        SJMP    ??afDataReqMTU_1
//  967   }
//  968   else
//  969   {
//  970     hdr = AF_HDR_V1_1_MAX_LEN;
??afDataReqMTU_0:
        MOV     R6,#0x0
//  971   }
//  972 
//  973   len = (uint8)(APSDE_DataReqMTU(&fields->aps) - hdr);
//  974 
//  975   return len;
??afDataReqMTU_1:
        ; Setup parameters for call to function APSDE_DataReqMTU
        INC     DPTR
        MOV     R2,DPL
        MOV     R3,DPH
        LCALL   `??APSDE_DataReqMTU::?relay`; Banked call to: APSDE_DataReqMTU
        MOV     A,R1
        CLR     C
        SUBB    A,R6
        MOV     R1,A
        LJMP    ?Subroutine2 & 0xFFFF
//  976 }
          CFI EndBlock cfiBlock217
//  977 
//  978 /*********************************************************************
//  979  * @fn      afGetMatch
//  980  *
//  981  * @brief   Set the allow response flag.
//  982  *
//  983  * @param   ep - Application Endpoint to look for
//  984  * @param   action - true - allow response, false - no response
//  985  *
//  986  * @return  TRUE allow responses, FALSE no response
//  987  */

        RSEG BANKED_CODE:CODE:NOROOT(0)
//  988 uint8 afGetMatch( uint8 ep )
afGetMatch:
          CFI Block cfiBlock218 Using cfiCommon0
          CFI Function afGetMatch
        CODE
//  989 {
        FUNCALL afGetMatch, afFindEndPointDescList
        LOCFRAME ISTACK, 0, STACK
        LOCFRAME PSTACK, 0, STACK
        LOCFRAME XSTACK, 10, STACK
        LOCFRAME IOVERLAY, 0, STATIC
        LOCFRAME DOVERLAY, 0, STATIC
        ARGFRAME ISTACK, 0, STACK
        ARGFRAME PSTACK, 0, STACK
        ARGFRAME XSTACK, 10, STACK
        ARGFRAME IOVERLAY, 0, STATIC
        ARGFRAME DOVERLAY, 0, STATIC
        REQUIRE ?V0
        REQUIRE ?V1
        MOV     A,#-0xa
        LCALL   ?BANKED_ENTER_XDATA
          CFI DPH0 load(1, XDATA, add(CFA_XSP16, literal(-1)))
          CFI DPL0 load(1, XDATA, add(CFA_XSP16, literal(-2)))
          CFI ?BRET_EXT load(1, XDATA, add(CFA_XSP16, literal(-3)))
          CFI ?RET_HIGH load(1, XDATA, add(CFA_XSP16, literal(-4)))
          CFI ?RET_LOW load(1, XDATA, add(CFA_XSP16, literal(-5)))
          CFI R7 load(1, XDATA, add(CFA_XSP16, literal(-6)))
          CFI V1 load(1, XDATA, add(CFA_XSP16, literal(-7)))
          CFI V0 load(1, XDATA, add(CFA_XSP16, literal(-8)))
          CFI VB load(1, XDATA, add(CFA_XSP16, literal(-9)))
          CFI R6 load(1, XDATA, add(CFA_XSP16, literal(-10)))
          CFI CFA_SP SP+0
          CFI CFA_XSP16 add(XSP16, 10)
        ; Saved register size: 10
        ; Auto size: 0
//  990   epList_t *epSearch;
//  991 
//  992   // Look for the endpoint
//  993   epSearch = afFindEndPointDescList( ep );
        ; Setup parameters for call to function afFindEndPointDescList
        LCALL   `??afFindEndPointDescList::?relay`; Banked call to: afFindEndPointDescList
        MOV     DPL,R2
        MOV     DPH,R3
//  994 
//  995   if ( epSearch )
        MOV     A,DPL
        ORL     A,DPH
        JZ      ??afGetMatch_0
//  996   {
//  997     if ( epSearch->flags & eEP_AllowMatch )
        INC     DPTR
        INC     DPTR
        INC     DPTR
        INC     DPTR
        INC     DPTR
        INC     DPTR
        INC     DPTR
        INC     DPTR
        MOVX    A,@DPTR
        MOV     C,0xE0 /* A   */.0
        JNC     ??afGetMatch_0
//  998       return ( TRUE );
        MOV     R1,#0x1
        SJMP    ??afGetMatch_1
//  999     else
// 1000       return ( FALSE );
// 1001   }
// 1002   else
// 1003     return ( FALSE );
??afGetMatch_0:
        MOV     R1,#0x0
??afGetMatch_1:
          CFI EndBlock cfiBlock218
        REQUIRE ?Subroutine1
        ; // Fall through to label ?Subroutine1
// 1004 }

        RSEG BANKED_CODE:CODE:NOROOT(0)
?Subroutine1:
          CFI Block cfiBlock219 Using cfiCommon0
          CFI NoFunction
          CFI CFA_SP SP+0
          CFI CFA_XSP16 add(XSP16, 10)
          CFI VB load(1, XDATA, add(CFA_XSP16, literal(-9)))
          CFI DPL0 load(1, XDATA, add(CFA_XSP16, literal(-2)))
          CFI DPH0 load(1, XDATA, add(CFA_XSP16, literal(-1)))
          CFI R6 load(1, XDATA, add(CFA_XSP16, literal(-10)))
          CFI R7 load(1, XDATA, add(CFA_XSP16, literal(-6)))
          CFI V0 load(1, XDATA, add(CFA_XSP16, literal(-8)))
          CFI V1 load(1, XDATA, add(CFA_XSP16, literal(-7)))
          CFI ?BRET_EXT load(1, XDATA, add(CFA_XSP16, literal(-3)))
          CFI ?RET_HIGH load(1, XDATA, add(CFA_XSP16, literal(-4)))
          CFI ?RET_LOW load(1, XDATA, add(CFA_XSP16, literal(-5)))
        MOV     R7,#0x2
        LJMP    ?BANKED_LEAVE_XDATA
          CFI EndBlock cfiBlock219
// 1005 
// 1006 /*********************************************************************
// 1007  * @fn      afSetMatch
// 1008  *
// 1009  * @brief   Set the allow response flag.
// 1010  *
// 1011  * @param   ep - Application Endpoint to look for
// 1012  * @param   action - true - allow response, false - no response
// 1013  *
// 1014  * @return  TRUE if success, FALSE if endpoint not found
// 1015  */

        RSEG BANKED_CODE:CODE:NOROOT(0)
// 1016 uint8 afSetMatch( uint8 ep, uint8 action )
afSetMatch:
          CFI Block cfiBlock220 Using cfiCommon0
          CFI Function afSetMatch
        CODE
// 1017 {
        FUNCALL afSetMatch, afFindEndPointDescList
        LOCFRAME ISTACK, 0, STACK
        LOCFRAME PSTACK, 0, STACK
        LOCFRAME XSTACK, 10, STACK
        LOCFRAME IOVERLAY, 0, STATIC
        LOCFRAME DOVERLAY, 0, STATIC
        ARGFRAME ISTACK, 0, STACK
        ARGFRAME PSTACK, 0, STACK
        ARGFRAME XSTACK, 10, STACK
        ARGFRAME IOVERLAY, 0, STATIC
        ARGFRAME DOVERLAY, 0, STATIC
        REQUIRE ?V0
        REQUIRE ?V1
        MOV     A,#-0xa
        LCALL   ?BANKED_ENTER_XDATA
          CFI DPH0 load(1, XDATA, add(CFA_XSP16, literal(-1)))
          CFI DPL0 load(1, XDATA, add(CFA_XSP16, literal(-2)))
          CFI ?BRET_EXT load(1, XDATA, add(CFA_XSP16, literal(-3)))
          CFI ?RET_HIGH load(1, XDATA, add(CFA_XSP16, literal(-4)))
          CFI ?RET_LOW load(1, XDATA, add(CFA_XSP16, literal(-5)))
          CFI R7 load(1, XDATA, add(CFA_XSP16, literal(-6)))
          CFI V1 load(1, XDATA, add(CFA_XSP16, literal(-7)))
          CFI V0 load(1, XDATA, add(CFA_XSP16, literal(-8)))
          CFI VB load(1, XDATA, add(CFA_XSP16, literal(-9)))
          CFI R6 load(1, XDATA, add(CFA_XSP16, literal(-10)))
          CFI CFA_SP SP+0
          CFI CFA_XSP16 add(XSP16, 10)
        ; Saved register size: 10
        ; Auto size: 0
        MOV     A,R2
        MOV     R7,A
// 1018   epList_t *epSearch;
// 1019 
// 1020   // Look for the endpoint
// 1021   epSearch = afFindEndPointDescList( ep );
        ; Setup parameters for call to function afFindEndPointDescList
        LCALL   `??afFindEndPointDescList::?relay`; Banked call to: afFindEndPointDescList
        MOV     DPL,R2
        MOV     DPH,R3
// 1022 
// 1023   if ( epSearch )
        MOV     A,DPL
        ORL     A,DPH
        JZ      ??afSetMatch_0
// 1024   {
// 1025     if ( action )
        MOV     A,R7
        INC     DPTR
        INC     DPTR
        INC     DPTR
        INC     DPTR
        INC     DPTR
        INC     DPTR
        INC     DPTR
        INC     DPTR
        JZ      ??afSetMatch_1
// 1026     {
// 1027       epSearch->flags |= eEP_AllowMatch;
        MOVX    A,@DPTR
        SETB    0xE0 /* A   */.0
        SJMP    ??afSetMatch_2
// 1028     }
// 1029     else
// 1030     {
// 1031       epSearch->flags &= (eEP_AllowMatch ^ 0xFFFF);
??afSetMatch_1:
        MOVX    A,@DPTR
        CLR     0xE0 /* A   */.0
??afSetMatch_2:
        MOVX    @DPTR,A
// 1032     }
// 1033     return ( TRUE );
        MOV     R1,#0x1
        SJMP    ??afSetMatch_3
// 1034   }
// 1035   else
// 1036     return ( FALSE );
??afSetMatch_0:
        MOV     R1,#0x0
??afSetMatch_3:
        SJMP    ?Subroutine1
// 1037 }
          CFI EndBlock cfiBlock220
// 1038 
// 1039 /*********************************************************************
// 1040  * @fn      afNumEndPoints
// 1041  *
// 1042  * @brief   Returns the number of endpoints defined (including 0)
// 1043  *
// 1044  * @param   none
// 1045  *
// 1046  * @return  number of endpoints
// 1047  */

        RSEG BANKED_CODE:CODE:NOROOT(0)
// 1048 uint8 afNumEndPoints( void )
afNumEndPoints:
          CFI Block cfiBlock221 Using cfiCommon0
          CFI Function afNumEndPoints
        CODE
// 1049 {
        PUSH    DPL
          CFI DPL0 Frame(CFA_SP, 4)
          CFI CFA_SP SP+-4
        PUSH    DPH
          CFI DPH0 Frame(CFA_SP, 5)
          CFI CFA_SP SP+-5
        ; Saved register size: 2
        ; Auto size: 0
// 1050   epList_t *epSearch;
// 1051   uint8 endpoints;
// 1052 
// 1053   // Start at the beginning
// 1054   epSearch = epList;
        MOV     DPTR,#epList
        LCALL   ?Subroutine14 & 0xFFFF
// 1055   endpoints = 0;
??CrossCallReturnLabel_15:
        MOV     R1,#0x0
        SJMP    ??afNumEndPoints_0
// 1056 
// 1057   while ( epSearch )
// 1058   {
// 1059     endpoints++;
??afNumEndPoints_1:
        INC     R1
// 1060     epSearch = epSearch->nextDesc;
        LCALL   ??Subroutine47_0 & 0xFFFF
// 1061   }
??CrossCallReturnLabel_108:
        MOV     DPL,R2
        MOV     DPH,R3
??afNumEndPoints_0:
        MOV     A,DPL
        ORL     A,DPH
        JNZ     ??afNumEndPoints_1
// 1062 
// 1063   return ( endpoints );
        LJMP    ?Subroutine3 & 0xFFFF
// 1064 }
          CFI EndBlock cfiBlock221

        RSEG BANKED_CODE:CODE:NOROOT(0)
?Subroutine14:
          CFI Block cfiCond222 Using cfiCommon0
          CFI Function afBuildMSGIncoming
          CFI Conditional ??CrossCallReturnLabel_14
          CFI R6 load(1, XDATA, add(CFA_XSP16, literal(-19)))
          CFI VB load(1, XDATA, add(CFA_XSP16, literal(-18)))
          CFI V0 load(1, XDATA, add(CFA_XSP16, literal(-17)))
          CFI V1 load(1, XDATA, add(CFA_XSP16, literal(-16)))
          CFI V2 load(1, XDATA, add(CFA_XSP16, literal(-15)))
          CFI V3 load(1, XDATA, add(CFA_XSP16, literal(-14)))
          CFI V4 load(1, XDATA, add(CFA_XSP16, literal(-13)))
          CFI V5 load(1, XDATA, add(CFA_XSP16, literal(-12)))
          CFI V6 load(1, XDATA, add(CFA_XSP16, literal(-11)))
          CFI V7 load(1, XDATA, add(CFA_XSP16, literal(-10)))
          CFI V8 load(1, XDATA, add(CFA_XSP16, literal(-9)))
          CFI V9 load(1, XDATA, add(CFA_XSP16, literal(-8)))
          CFI V10 load(1, XDATA, add(CFA_XSP16, literal(-7)))
          CFI R7 load(1, XDATA, add(CFA_XSP16, literal(-6)))
          CFI ?RET_LOW load(1, XDATA, add(CFA_XSP16, literal(-5)))
          CFI ?RET_HIGH load(1, XDATA, add(CFA_XSP16, literal(-4)))
          CFI ?BRET_EXT load(1, XDATA, add(CFA_XSP16, literal(-3)))
          CFI DPL0 load(1, XDATA, add(CFA_XSP16, literal(-2)))
          CFI DPH0 load(1, XDATA, add(CFA_XSP16, literal(-1)))
          CFI CFA_SP SP+-2
          CFI CFA_XSP16 add(XSP16, 19)
          CFI Block cfiCond223 Using cfiCommon0
          CFI (cfiCond223) Function afNumEndPoints
          CFI (cfiCond223) Conditional ??CrossCallReturnLabel_15
          CFI (cfiCond223) DPL0 Frame(CFA_SP, 4)
          CFI (cfiCond223) DPH0 Frame(CFA_SP, 5)
          CFI (cfiCond223) CFA_SP SP+-7
          CFI Block cfiPicker224 Using cfiCommon1
          CFI (cfiPicker224) NoFunction
          CFI (cfiPicker224) Picker
        LCALL   ?Subroutine32 & 0xFFFF
??CrossCallReturnLabel_88:
        MOV     DPL,R0
        MOV     DPH,R1
        RET
          CFI EndBlock cfiCond222
          CFI EndBlock cfiCond223
          CFI EndBlock cfiPicker224

        RSEG BANKED_CODE:CODE:NOROOT(0)
?Subroutine8:
          CFI Block cfiCond225 Using cfiCommon0
          CFI Function afIncomingData
          CFI Conditional ??CrossCallReturnLabel_112
          CFI R6 load(1, XDATA, add(CFA_XSP16, literal(-24)))
          CFI VB load(1, XDATA, add(CFA_XSP16, literal(-23)))
          CFI V0 load(1, XDATA, add(CFA_XSP16, literal(-22)))
          CFI V1 load(1, XDATA, add(CFA_XSP16, literal(-21)))
          CFI V2 load(1, XDATA, add(CFA_XSP16, literal(-20)))
          CFI V3 load(1, XDATA, add(CFA_XSP16, literal(-19)))
          CFI V4 load(1, XDATA, add(CFA_XSP16, literal(-18)))
          CFI V5 load(1, XDATA, add(CFA_XSP16, literal(-17)))
          CFI V6 load(1, XDATA, add(CFA_XSP16, literal(-16)))
          CFI V7 load(1, XDATA, add(CFA_XSP16, literal(-15)))
          CFI V8 load(1, XDATA, add(CFA_XSP16, literal(-14)))
          CFI V9 load(1, XDATA, add(CFA_XSP16, literal(-13)))
          CFI V10 load(1, XDATA, add(CFA_XSP16, literal(-12)))
          CFI V11 load(1, XDATA, add(CFA_XSP16, literal(-11)))
          CFI V12 load(1, XDATA, add(CFA_XSP16, literal(-10)))
          CFI V13 load(1, XDATA, add(CFA_XSP16, literal(-9)))
          CFI V14 load(1, XDATA, add(CFA_XSP16, literal(-8)))
          CFI V15 load(1, XDATA, add(CFA_XSP16, literal(-7)))
          CFI R7 load(1, XDATA, add(CFA_XSP16, literal(-6)))
          CFI ?RET_LOW load(1, XDATA, add(CFA_XSP16, literal(-5)))
          CFI ?RET_HIGH load(1, XDATA, add(CFA_XSP16, literal(-4)))
          CFI ?BRET_EXT load(1, XDATA, add(CFA_XSP16, literal(-3)))
          CFI DPL0 load(1, XDATA, add(CFA_XSP16, literal(-2)))
          CFI DPH0 load(1, XDATA, add(CFA_XSP16, literal(-1)))
          CFI CFA_SP SP+-2
          CFI CFA_XSP16 add(XSP16, 28)
          CFI Block cfiCond226 Using cfiCommon0
          CFI (cfiCond226) Function afIncomingData
          CFI (cfiCond226) Conditional ??CrossCallReturnLabel_113
          CFI (cfiCond226) R6 load(1, XDATA, add(CFA_XSP16, literal(-24)))
          CFI (cfiCond226) VB load(1, XDATA, add(CFA_XSP16, literal(-23)))
          CFI (cfiCond226) V0 load(1, XDATA, add(CFA_XSP16, literal(-22)))
          CFI (cfiCond226) V1 load(1, XDATA, add(CFA_XSP16, literal(-21)))
          CFI (cfiCond226) V2 load(1, XDATA, add(CFA_XSP16, literal(-20)))
          CFI (cfiCond226) V3 load(1, XDATA, add(CFA_XSP16, literal(-19)))
          CFI (cfiCond226) V4 load(1, XDATA, add(CFA_XSP16, literal(-18)))
          CFI (cfiCond226) V5 load(1, XDATA, add(CFA_XSP16, literal(-17)))
          CFI (cfiCond226) V6 load(1, XDATA, add(CFA_XSP16, literal(-16)))
          CFI (cfiCond226) V7 load(1, XDATA, add(CFA_XSP16, literal(-15)))
          CFI (cfiCond226) V8 load(1, XDATA, add(CFA_XSP16, literal(-14)))
          CFI (cfiCond226) V9 load(1, XDATA, add(CFA_XSP16, literal(-13)))
          CFI (cfiCond226) V10 load(1, XDATA, add(CFA_XSP16, literal(-12)))
          CFI (cfiCond226) V11 load(1, XDATA, add(CFA_XSP16, literal(-11)))
          CFI (cfiCond226) V12 load(1, XDATA, add(CFA_XSP16, literal(-10)))
          CFI (cfiCond226) V13 load(1, XDATA, add(CFA_XSP16, literal(-9)))
          CFI (cfiCond226) V14 load(1, XDATA, add(CFA_XSP16, literal(-8)))
          CFI (cfiCond226) V15 load(1, XDATA, add(CFA_XSP16, literal(-7)))
          CFI (cfiCond226) R7 load(1, XDATA, add(CFA_XSP16, literal(-6)))
          CFI (cfiCond226) ?RET_LOW load(1, XDATA, add(CFA_XSP16, literal(-5)))
          CFI (cfiCond226) ?RET_HIGH load(1, XDATA, add(CFA_XSP16, literal(-4)))
          CFI (cfiCond226) ?BRET_EXT load(1, XDATA, add(CFA_XSP16, literal(-3)))
          CFI (cfiCond226) DPL0 load(1, XDATA, add(CFA_XSP16, literal(-2)))
          CFI (cfiCond226) DPH0 load(1, XDATA, add(CFA_XSP16, literal(-1)))
          CFI (cfiCond226) CFA_SP SP+-2
          CFI (cfiCond226) CFA_XSP16 add(XSP16, 28)
          CFI Block cfiCond227 Using cfiCommon0
          CFI (cfiCond227) Function AF_DataRequest
          CFI (cfiCond227) Conditional ??CrossCallReturnLabel_114
          CFI (cfiCond227) R6 load(1, XDATA, add(CFA_XSP16, literal(-18)))
          CFI (cfiCond227) VB load(1, XDATA, add(CFA_XSP16, literal(-17)))
          CFI (cfiCond227) V0 load(1, XDATA, add(CFA_XSP16, literal(-16)))
          CFI (cfiCond227) V1 load(1, XDATA, add(CFA_XSP16, literal(-15)))
          CFI (cfiCond227) V2 load(1, XDATA, add(CFA_XSP16, literal(-14)))
          CFI (cfiCond227) V3 load(1, XDATA, add(CFA_XSP16, literal(-13)))
          CFI (cfiCond227) V4 load(1, XDATA, add(CFA_XSP16, literal(-12)))
          CFI (cfiCond227) V5 load(1, XDATA, add(CFA_XSP16, literal(-11)))
          CFI (cfiCond227) V6 load(1, XDATA, add(CFA_XSP16, literal(-10)))
          CFI (cfiCond227) V7 load(1, XDATA, add(CFA_XSP16, literal(-9)))
          CFI (cfiCond227) V8 load(1, XDATA, add(CFA_XSP16, literal(-8)))
          CFI (cfiCond227) V9 load(1, XDATA, add(CFA_XSP16, literal(-7)))
          CFI (cfiCond227) R7 load(1, XDATA, add(CFA_XSP16, literal(-6)))
          CFI (cfiCond227) ?RET_LOW load(1, XDATA, add(CFA_XSP16, literal(-5)))
          CFI (cfiCond227) ?RET_HIGH load(1, XDATA, add(CFA_XSP16, literal(-4)))
          CFI (cfiCond227) ?BRET_EXT load(1, XDATA, add(CFA_XSP16, literal(-3)))
          CFI (cfiCond227) DPL0 load(1, XDATA, add(CFA_XSP16, literal(-2)))
          CFI (cfiCond227) DPH0 load(1, XDATA, add(CFA_XSP16, literal(-1)))
          CFI (cfiCond227) CFA_SP SP+-2
          CFI (cfiCond227) CFA_XSP16 add(XSP16, 48)
          CFI Block cfiPicker228 Using cfiCommon1
          CFI (cfiPicker228) NoFunction
          CFI (cfiPicker228) Picker
        INC     DPTR
          CFI EndBlock cfiCond225
          CFI EndBlock cfiCond226
          CFI EndBlock cfiCond227
          CFI EndBlock cfiPicker228
        REQUIRE ??Subroutine45_0
        ; // Fall through to label ??Subroutine45_0

        RSEG BANKED_CODE:CODE:NOROOT(0)
??Subroutine45_0:
          CFI Block cfiCond229 Using cfiCommon0
          CFI Function afFindSimpleDesc
          CFI Conditional ??CrossCallReturnLabel_111
          CFI R6 load(1, XDATA, add(CFA_XSP16, literal(-12)))
          CFI VB load(1, XDATA, add(CFA_XSP16, literal(-11)))
          CFI V0 load(1, XDATA, add(CFA_XSP16, literal(-10)))
          CFI V1 load(1, XDATA, add(CFA_XSP16, literal(-9)))
          CFI V2 load(1, XDATA, add(CFA_XSP16, literal(-8)))
          CFI V3 load(1, XDATA, add(CFA_XSP16, literal(-7)))
          CFI R7 load(1, XDATA, add(CFA_XSP16, literal(-6)))
          CFI ?RET_LOW load(1, XDATA, add(CFA_XSP16, literal(-5)))
          CFI ?RET_HIGH load(1, XDATA, add(CFA_XSP16, literal(-4)))
          CFI ?BRET_EXT load(1, XDATA, add(CFA_XSP16, literal(-3)))
          CFI DPL0 load(1, XDATA, add(CFA_XSP16, literal(-2)))
          CFI DPH0 load(1, XDATA, add(CFA_XSP16, literal(-1)))
          CFI CFA_SP SP+-2
          CFI CFA_XSP16 add(XSP16, 12)
          CFI Block cfiCond230 Using cfiCommon0
          CFI (cfiCond230) Function afIncomingData
          CFI (cfiCond230) Conditional ??CrossCallReturnLabel_112
          CFI (cfiCond230) R6 load(1, XDATA, add(CFA_XSP16, literal(-24)))
          CFI (cfiCond230) VB load(1, XDATA, add(CFA_XSP16, literal(-23)))
          CFI (cfiCond230) V0 load(1, XDATA, add(CFA_XSP16, literal(-22)))
          CFI (cfiCond230) V1 load(1, XDATA, add(CFA_XSP16, literal(-21)))
          CFI (cfiCond230) V2 load(1, XDATA, add(CFA_XSP16, literal(-20)))
          CFI (cfiCond230) V3 load(1, XDATA, add(CFA_XSP16, literal(-19)))
          CFI (cfiCond230) V4 load(1, XDATA, add(CFA_XSP16, literal(-18)))
          CFI (cfiCond230) V5 load(1, XDATA, add(CFA_XSP16, literal(-17)))
          CFI (cfiCond230) V6 load(1, XDATA, add(CFA_XSP16, literal(-16)))
          CFI (cfiCond230) V7 load(1, XDATA, add(CFA_XSP16, literal(-15)))
          CFI (cfiCond230) V8 load(1, XDATA, add(CFA_XSP16, literal(-14)))
          CFI (cfiCond230) V9 load(1, XDATA, add(CFA_XSP16, literal(-13)))
          CFI (cfiCond230) V10 load(1, XDATA, add(CFA_XSP16, literal(-12)))
          CFI (cfiCond230) V11 load(1, XDATA, add(CFA_XSP16, literal(-11)))
          CFI (cfiCond230) V12 load(1, XDATA, add(CFA_XSP16, literal(-10)))
          CFI (cfiCond230) V13 load(1, XDATA, add(CFA_XSP16, literal(-9)))
          CFI (cfiCond230) V14 load(1, XDATA, add(CFA_XSP16, literal(-8)))
          CFI (cfiCond230) V15 load(1, XDATA, add(CFA_XSP16, literal(-7)))
          CFI (cfiCond230) R7 load(1, XDATA, add(CFA_XSP16, literal(-6)))
          CFI (cfiCond230) ?RET_LOW load(1, XDATA, add(CFA_XSP16, literal(-5)))
          CFI (cfiCond230) ?RET_HIGH load(1, XDATA, add(CFA_XSP16, literal(-4)))
          CFI (cfiCond230) ?BRET_EXT load(1, XDATA, add(CFA_XSP16, literal(-3)))
          CFI (cfiCond230) DPL0 load(1, XDATA, add(CFA_XSP16, literal(-2)))
          CFI (cfiCond230) DPH0 load(1, XDATA, add(CFA_XSP16, literal(-1)))
          CFI (cfiCond230) CFA_SP SP+-2
          CFI (cfiCond230) CFA_XSP16 add(XSP16, 28)
          CFI Block cfiCond231 Using cfiCommon0
          CFI (cfiCond231) Function afIncomingData
          CFI (cfiCond231) Conditional ??CrossCallReturnLabel_113
          CFI (cfiCond231) R6 load(1, XDATA, add(CFA_XSP16, literal(-24)))
          CFI (cfiCond231) VB load(1, XDATA, add(CFA_XSP16, literal(-23)))
          CFI (cfiCond231) V0 load(1, XDATA, add(CFA_XSP16, literal(-22)))
          CFI (cfiCond231) V1 load(1, XDATA, add(CFA_XSP16, literal(-21)))
          CFI (cfiCond231) V2 load(1, XDATA, add(CFA_XSP16, literal(-20)))
          CFI (cfiCond231) V3 load(1, XDATA, add(CFA_XSP16, literal(-19)))
          CFI (cfiCond231) V4 load(1, XDATA, add(CFA_XSP16, literal(-18)))
          CFI (cfiCond231) V5 load(1, XDATA, add(CFA_XSP16, literal(-17)))
          CFI (cfiCond231) V6 load(1, XDATA, add(CFA_XSP16, literal(-16)))
          CFI (cfiCond231) V7 load(1, XDATA, add(CFA_XSP16, literal(-15)))
          CFI (cfiCond231) V8 load(1, XDATA, add(CFA_XSP16, literal(-14)))
          CFI (cfiCond231) V9 load(1, XDATA, add(CFA_XSP16, literal(-13)))
          CFI (cfiCond231) V10 load(1, XDATA, add(CFA_XSP16, literal(-12)))
          CFI (cfiCond231) V11 load(1, XDATA, add(CFA_XSP16, literal(-11)))
          CFI (cfiCond231) V12 load(1, XDATA, add(CFA_XSP16, literal(-10)))
          CFI (cfiCond231) V13 load(1, XDATA, add(CFA_XSP16, literal(-9)))
          CFI (cfiCond231) V14 load(1, XDATA, add(CFA_XSP16, literal(-8)))
          CFI (cfiCond231) V15 load(1, XDATA, add(CFA_XSP16, literal(-7)))
          CFI (cfiCond231) R7 load(1, XDATA, add(CFA_XSP16, literal(-6)))
          CFI (cfiCond231) ?RET_LOW load(1, XDATA, add(CFA_XSP16, literal(-5)))
          CFI (cfiCond231) ?RET_HIGH load(1, XDATA, add(CFA_XSP16, literal(-4)))
          CFI (cfiCond231) ?BRET_EXT load(1, XDATA, add(CFA_XSP16, literal(-3)))
          CFI (cfiCond231) DPL0 load(1, XDATA, add(CFA_XSP16, literal(-2)))
          CFI (cfiCond231) DPH0 load(1, XDATA, add(CFA_XSP16, literal(-1)))
          CFI (cfiCond231) CFA_SP SP+-2
          CFI (cfiCond231) CFA_XSP16 add(XSP16, 28)
          CFI Block cfiCond232 Using cfiCommon0
          CFI (cfiCond232) Function AF_DataRequest
          CFI (cfiCond232) Conditional ??CrossCallReturnLabel_114
          CFI (cfiCond232) R6 load(1, XDATA, add(CFA_XSP16, literal(-18)))
          CFI (cfiCond232) VB load(1, XDATA, add(CFA_XSP16, literal(-17)))
          CFI (cfiCond232) V0 load(1, XDATA, add(CFA_XSP16, literal(-16)))
          CFI (cfiCond232) V1 load(1, XDATA, add(CFA_XSP16, literal(-15)))
          CFI (cfiCond232) V2 load(1, XDATA, add(CFA_XSP16, literal(-14)))
          CFI (cfiCond232) V3 load(1, XDATA, add(CFA_XSP16, literal(-13)))
          CFI (cfiCond232) V4 load(1, XDATA, add(CFA_XSP16, literal(-12)))
          CFI (cfiCond232) V5 load(1, XDATA, add(CFA_XSP16, literal(-11)))
          CFI (cfiCond232) V6 load(1, XDATA, add(CFA_XSP16, literal(-10)))
          CFI (cfiCond232) V7 load(1, XDATA, add(CFA_XSP16, literal(-9)))
          CFI (cfiCond232) V8 load(1, XDATA, add(CFA_XSP16, literal(-8)))
          CFI (cfiCond232) V9 load(1, XDATA, add(CFA_XSP16, literal(-7)))
          CFI (cfiCond232) R7 load(1, XDATA, add(CFA_XSP16, literal(-6)))
          CFI (cfiCond232) ?RET_LOW load(1, XDATA, add(CFA_XSP16, literal(-5)))
          CFI (cfiCond232) ?RET_HIGH load(1, XDATA, add(CFA_XSP16, literal(-4)))
          CFI (cfiCond232) ?BRET_EXT load(1, XDATA, add(CFA_XSP16, literal(-3)))
          CFI (cfiCond232) DPL0 load(1, XDATA, add(CFA_XSP16, literal(-2)))
          CFI (cfiCond232) DPH0 load(1, XDATA, add(CFA_XSP16, literal(-1)))
          CFI (cfiCond232) CFA_SP SP+-2
          CFI (cfiCond232) CFA_XSP16 add(XSP16, 48)
          CFI Block cfiPicker233 Using cfiCommon1
          CFI (cfiPicker233) NoFunction
          CFI (cfiPicker233) Picker
        INC     DPTR
          CFI EndBlock cfiCond229
          CFI EndBlock cfiCond230
          CFI EndBlock cfiCond231
          CFI EndBlock cfiCond232
          CFI EndBlock cfiPicker233
        REQUIRE ??Subroutine46_0
        ; // Fall through to label ??Subroutine46_0

        RSEG BANKED_CODE:CODE:NOROOT(0)
??Subroutine46_0:
          CFI Block cfiCond234 Using cfiCommon0
          CFI Function AF_DataRequest
          CFI Conditional ??CrossCallReturnLabel_109
          CFI R6 load(1, XDATA, add(CFA_XSP16, literal(-18)))
          CFI VB load(1, XDATA, add(CFA_XSP16, literal(-17)))
          CFI V0 load(1, XDATA, add(CFA_XSP16, literal(-16)))
          CFI V1 load(1, XDATA, add(CFA_XSP16, literal(-15)))
          CFI V2 load(1, XDATA, add(CFA_XSP16, literal(-14)))
          CFI V3 load(1, XDATA, add(CFA_XSP16, literal(-13)))
          CFI V4 load(1, XDATA, add(CFA_XSP16, literal(-12)))
          CFI V5 load(1, XDATA, add(CFA_XSP16, literal(-11)))
          CFI V6 load(1, XDATA, add(CFA_XSP16, literal(-10)))
          CFI V7 load(1, XDATA, add(CFA_XSP16, literal(-9)))
          CFI V8 load(1, XDATA, add(CFA_XSP16, literal(-8)))
          CFI V9 load(1, XDATA, add(CFA_XSP16, literal(-7)))
          CFI R7 load(1, XDATA, add(CFA_XSP16, literal(-6)))
          CFI ?RET_LOW load(1, XDATA, add(CFA_XSP16, literal(-5)))
          CFI ?RET_HIGH load(1, XDATA, add(CFA_XSP16, literal(-4)))
          CFI ?BRET_EXT load(1, XDATA, add(CFA_XSP16, literal(-3)))
          CFI DPL0 load(1, XDATA, add(CFA_XSP16, literal(-2)))
          CFI DPH0 load(1, XDATA, add(CFA_XSP16, literal(-1)))
          CFI CFA_SP SP+-2
          CFI CFA_XSP16 add(XSP16, 48)
          CFI Block cfiCond235 Using cfiCommon0
          CFI (cfiCond235) Function afFindEndPointDesc
          CFI (cfiCond235) Conditional ??CrossCallReturnLabel_110
          CFI (cfiCond235) R6 load(1, XDATA, add(CFA_XSP16, literal(-10)))
          CFI (cfiCond235) VB load(1, XDATA, add(CFA_XSP16, literal(-9)))
          CFI (cfiCond235) V0 load(1, XDATA, add(CFA_XSP16, literal(-8)))
          CFI (cfiCond235) V1 load(1, XDATA, add(CFA_XSP16, literal(-7)))
          CFI (cfiCond235) R7 load(1, XDATA, add(CFA_XSP16, literal(-6)))
          CFI (cfiCond235) ?RET_LOW load(1, XDATA, add(CFA_XSP16, literal(-5)))
          CFI (cfiCond235) ?RET_HIGH load(1, XDATA, add(CFA_XSP16, literal(-4)))
          CFI (cfiCond235) ?BRET_EXT load(1, XDATA, add(CFA_XSP16, literal(-3)))
          CFI (cfiCond235) DPL0 load(1, XDATA, add(CFA_XSP16, literal(-2)))
          CFI (cfiCond235) DPH0 load(1, XDATA, add(CFA_XSP16, literal(-1)))
          CFI (cfiCond235) CFA_SP SP+-2
          CFI (cfiCond235) CFA_XSP16 add(XSP16, 10)
          CFI Block cfiCond236 Using cfiCommon0
          CFI (cfiCond236) Function afFindSimpleDesc
          CFI (cfiCond236) Conditional ??CrossCallReturnLabel_111
          CFI (cfiCond236) R6 load(1, XDATA, add(CFA_XSP16, literal(-12)))
          CFI (cfiCond236) VB load(1, XDATA, add(CFA_XSP16, literal(-11)))
          CFI (cfiCond236) V0 load(1, XDATA, add(CFA_XSP16, literal(-10)))
          CFI (cfiCond236) V1 load(1, XDATA, add(CFA_XSP16, literal(-9)))
          CFI (cfiCond236) V2 load(1, XDATA, add(CFA_XSP16, literal(-8)))
          CFI (cfiCond236) V3 load(1, XDATA, add(CFA_XSP16, literal(-7)))
          CFI (cfiCond236) R7 load(1, XDATA, add(CFA_XSP16, literal(-6)))
          CFI (cfiCond236) ?RET_LOW load(1, XDATA, add(CFA_XSP16, literal(-5)))
          CFI (cfiCond236) ?RET_HIGH load(1, XDATA, add(CFA_XSP16, literal(-4)))
          CFI (cfiCond236) ?BRET_EXT load(1, XDATA, add(CFA_XSP16, literal(-3)))
          CFI (cfiCond236) DPL0 load(1, XDATA, add(CFA_XSP16, literal(-2)))
          CFI (cfiCond236) DPH0 load(1, XDATA, add(CFA_XSP16, literal(-1)))
          CFI (cfiCond236) CFA_SP SP+-2
          CFI (cfiCond236) CFA_XSP16 add(XSP16, 12)
          CFI Block cfiCond237 Using cfiCommon0
          CFI (cfiCond237) Function afIncomingData
          CFI (cfiCond237) Conditional ??CrossCallReturnLabel_112
          CFI (cfiCond237) R6 load(1, XDATA, add(CFA_XSP16, literal(-24)))
          CFI (cfiCond237) VB load(1, XDATA, add(CFA_XSP16, literal(-23)))
          CFI (cfiCond237) V0 load(1, XDATA, add(CFA_XSP16, literal(-22)))
          CFI (cfiCond237) V1 load(1, XDATA, add(CFA_XSP16, literal(-21)))
          CFI (cfiCond237) V2 load(1, XDATA, add(CFA_XSP16, literal(-20)))
          CFI (cfiCond237) V3 load(1, XDATA, add(CFA_XSP16, literal(-19)))
          CFI (cfiCond237) V4 load(1, XDATA, add(CFA_XSP16, literal(-18)))
          CFI (cfiCond237) V5 load(1, XDATA, add(CFA_XSP16, literal(-17)))
          CFI (cfiCond237) V6 load(1, XDATA, add(CFA_XSP16, literal(-16)))
          CFI (cfiCond237) V7 load(1, XDATA, add(CFA_XSP16, literal(-15)))
          CFI (cfiCond237) V8 load(1, XDATA, add(CFA_XSP16, literal(-14)))
          CFI (cfiCond237) V9 load(1, XDATA, add(CFA_XSP16, literal(-13)))
          CFI (cfiCond237) V10 load(1, XDATA, add(CFA_XSP16, literal(-12)))
          CFI (cfiCond237) V11 load(1, XDATA, add(CFA_XSP16, literal(-11)))
          CFI (cfiCond237) V12 load(1, XDATA, add(CFA_XSP16, literal(-10)))
          CFI (cfiCond237) V13 load(1, XDATA, add(CFA_XSP16, literal(-9)))
          CFI (cfiCond237) V14 load(1, XDATA, add(CFA_XSP16, literal(-8)))
          CFI (cfiCond237) V15 load(1, XDATA, add(CFA_XSP16, literal(-7)))
          CFI (cfiCond237) R7 load(1, XDATA, add(CFA_XSP16, literal(-6)))
          CFI (cfiCond237) ?RET_LOW load(1, XDATA, add(CFA_XSP16, literal(-5)))
          CFI (cfiCond237) ?RET_HIGH load(1, XDATA, add(CFA_XSP16, literal(-4)))
          CFI (cfiCond237) ?BRET_EXT load(1, XDATA, add(CFA_XSP16, literal(-3)))
          CFI (cfiCond237) DPL0 load(1, XDATA, add(CFA_XSP16, literal(-2)))
          CFI (cfiCond237) DPH0 load(1, XDATA, add(CFA_XSP16, literal(-1)))
          CFI (cfiCond237) CFA_SP SP+-2
          CFI (cfiCond237) CFA_XSP16 add(XSP16, 28)
          CFI Block cfiCond238 Using cfiCommon0
          CFI (cfiCond238) Function afIncomingData
          CFI (cfiCond238) Conditional ??CrossCallReturnLabel_113
          CFI (cfiCond238) R6 load(1, XDATA, add(CFA_XSP16, literal(-24)))
          CFI (cfiCond238) VB load(1, XDATA, add(CFA_XSP16, literal(-23)))
          CFI (cfiCond238) V0 load(1, XDATA, add(CFA_XSP16, literal(-22)))
          CFI (cfiCond238) V1 load(1, XDATA, add(CFA_XSP16, literal(-21)))
          CFI (cfiCond238) V2 load(1, XDATA, add(CFA_XSP16, literal(-20)))
          CFI (cfiCond238) V3 load(1, XDATA, add(CFA_XSP16, literal(-19)))
          CFI (cfiCond238) V4 load(1, XDATA, add(CFA_XSP16, literal(-18)))
          CFI (cfiCond238) V5 load(1, XDATA, add(CFA_XSP16, literal(-17)))
          CFI (cfiCond238) V6 load(1, XDATA, add(CFA_XSP16, literal(-16)))
          CFI (cfiCond238) V7 load(1, XDATA, add(CFA_XSP16, literal(-15)))
          CFI (cfiCond238) V8 load(1, XDATA, add(CFA_XSP16, literal(-14)))
          CFI (cfiCond238) V9 load(1, XDATA, add(CFA_XSP16, literal(-13)))
          CFI (cfiCond238) V10 load(1, XDATA, add(CFA_XSP16, literal(-12)))
          CFI (cfiCond238) V11 load(1, XDATA, add(CFA_XSP16, literal(-11)))
          CFI (cfiCond238) V12 load(1, XDATA, add(CFA_XSP16, literal(-10)))
          CFI (cfiCond238) V13 load(1, XDATA, add(CFA_XSP16, literal(-9)))
          CFI (cfiCond238) V14 load(1, XDATA, add(CFA_XSP16, literal(-8)))
          CFI (cfiCond238) V15 load(1, XDATA, add(CFA_XSP16, literal(-7)))
          CFI (cfiCond238) R7 load(1, XDATA, add(CFA_XSP16, literal(-6)))
          CFI (cfiCond238) ?RET_LOW load(1, XDATA, add(CFA_XSP16, literal(-5)))
          CFI (cfiCond238) ?RET_HIGH load(1, XDATA, add(CFA_XSP16, literal(-4)))
          CFI (cfiCond238) ?BRET_EXT load(1, XDATA, add(CFA_XSP16, literal(-3)))
          CFI (cfiCond238) DPL0 load(1, XDATA, add(CFA_XSP16, literal(-2)))
          CFI (cfiCond238) DPH0 load(1, XDATA, add(CFA_XSP16, literal(-1)))
          CFI (cfiCond238) CFA_SP SP+-2
          CFI (cfiCond238) CFA_XSP16 add(XSP16, 28)
          CFI Block cfiCond239 Using cfiCommon0
          CFI (cfiCond239) Function AF_DataRequest
          CFI (cfiCond239) Conditional ??CrossCallReturnLabel_114
          CFI (cfiCond239) R6 load(1, XDATA, add(CFA_XSP16, literal(-18)))
          CFI (cfiCond239) VB load(1, XDATA, add(CFA_XSP16, literal(-17)))
          CFI (cfiCond239) V0 load(1, XDATA, add(CFA_XSP16, literal(-16)))
          CFI (cfiCond239) V1 load(1, XDATA, add(CFA_XSP16, literal(-15)))
          CFI (cfiCond239) V2 load(1, XDATA, add(CFA_XSP16, literal(-14)))
          CFI (cfiCond239) V3 load(1, XDATA, add(CFA_XSP16, literal(-13)))
          CFI (cfiCond239) V4 load(1, XDATA, add(CFA_XSP16, literal(-12)))
          CFI (cfiCond239) V5 load(1, XDATA, add(CFA_XSP16, literal(-11)))
          CFI (cfiCond239) V6 load(1, XDATA, add(CFA_XSP16, literal(-10)))
          CFI (cfiCond239) V7 load(1, XDATA, add(CFA_XSP16, literal(-9)))
          CFI (cfiCond239) V8 load(1, XDATA, add(CFA_XSP16, literal(-8)))
          CFI (cfiCond239) V9 load(1, XDATA, add(CFA_XSP16, literal(-7)))
          CFI (cfiCond239) R7 load(1, XDATA, add(CFA_XSP16, literal(-6)))
          CFI (cfiCond239) ?RET_LOW load(1, XDATA, add(CFA_XSP16, literal(-5)))
          CFI (cfiCond239) ?RET_HIGH load(1, XDATA, add(CFA_XSP16, literal(-4)))
          CFI (cfiCond239) ?BRET_EXT load(1, XDATA, add(CFA_XSP16, literal(-3)))
          CFI (cfiCond239) DPL0 load(1, XDATA, add(CFA_XSP16, literal(-2)))
          CFI (cfiCond239) DPH0 load(1, XDATA, add(CFA_XSP16, literal(-1)))
          CFI (cfiCond239) CFA_SP SP+-2
          CFI (cfiCond239) CFA_XSP16 add(XSP16, 48)
          CFI Block cfiPicker240 Using cfiCommon1
          CFI (cfiPicker240) NoFunction
          CFI (cfiPicker240) Picker
        INC     DPTR
        INC     DPTR
          CFI EndBlock cfiCond234
          CFI EndBlock cfiCond235
          CFI EndBlock cfiCond236
          CFI EndBlock cfiCond237
          CFI EndBlock cfiCond238
          CFI EndBlock cfiCond239
          CFI EndBlock cfiPicker240
        REQUIRE ??Subroutine47_0
        ; // Fall through to label ??Subroutine47_0

        RSEG BANKED_CODE:CODE:NOROOT(0)
??Subroutine47_0:
          CFI Block cfiCond241 Using cfiCommon0
          CFI Function afDelete
          CFI Conditional ??CrossCallReturnLabel_104
          CFI R6 load(1, XDATA, add(CFA_XSP16, literal(-9)))
          CFI VB load(1, XDATA, add(CFA_XSP16, literal(-8)))
          CFI V0 load(1, XDATA, add(CFA_XSP16, literal(-7)))
          CFI R7 load(1, XDATA, add(CFA_XSP16, literal(-6)))
          CFI ?RET_LOW load(1, XDATA, add(CFA_XSP16, literal(-5)))
          CFI ?RET_HIGH load(1, XDATA, add(CFA_XSP16, literal(-4)))
          CFI ?BRET_EXT load(1, XDATA, add(CFA_XSP16, literal(-3)))
          CFI DPL0 load(1, XDATA, add(CFA_XSP16, literal(-2)))
          CFI DPH0 load(1, XDATA, add(CFA_XSP16, literal(-1)))
          CFI CFA_SP SP+-2
          CFI CFA_XSP16 add(XSP16, 9)
          CFI Block cfiCond242 Using cfiCommon0
          CFI (cfiCond242) Function AF_DataRequest
          CFI (cfiCond242) Conditional ??CrossCallReturnLabel_105
          CFI (cfiCond242) R6 load(1, XDATA, add(CFA_XSP16, literal(-18)))
          CFI (cfiCond242) VB load(1, XDATA, add(CFA_XSP16, literal(-17)))
          CFI (cfiCond242) V0 load(1, XDATA, add(CFA_XSP16, literal(-16)))
          CFI (cfiCond242) V1 load(1, XDATA, add(CFA_XSP16, literal(-15)))
          CFI (cfiCond242) V2 load(1, XDATA, add(CFA_XSP16, literal(-14)))
          CFI (cfiCond242) V3 load(1, XDATA, add(CFA_XSP16, literal(-13)))
          CFI (cfiCond242) V4 load(1, XDATA, add(CFA_XSP16, literal(-12)))
          CFI (cfiCond242) V5 load(1, XDATA, add(CFA_XSP16, literal(-11)))
          CFI (cfiCond242) V6 load(1, XDATA, add(CFA_XSP16, literal(-10)))
          CFI (cfiCond242) V7 load(1, XDATA, add(CFA_XSP16, literal(-9)))
          CFI (cfiCond242) V8 load(1, XDATA, add(CFA_XSP16, literal(-8)))
          CFI (cfiCond242) V9 load(1, XDATA, add(CFA_XSP16, literal(-7)))
          CFI (cfiCond242) R7 load(1, XDATA, add(CFA_XSP16, literal(-6)))
          CFI (cfiCond242) ?RET_LOW load(1, XDATA, add(CFA_XSP16, literal(-5)))
          CFI (cfiCond242) ?RET_HIGH load(1, XDATA, add(CFA_XSP16, literal(-4)))
          CFI (cfiCond242) ?BRET_EXT load(1, XDATA, add(CFA_XSP16, literal(-3)))
          CFI (cfiCond242) DPL0 load(1, XDATA, add(CFA_XSP16, literal(-2)))
          CFI (cfiCond242) DPH0 load(1, XDATA, add(CFA_XSP16, literal(-1)))
          CFI (cfiCond242) CFA_SP SP+-2
          CFI (cfiCond242) CFA_XSP16 add(XSP16, 48)
          CFI Block cfiCond243 Using cfiCommon0
          CFI (cfiCond243) Function AF_DataRequest
          CFI (cfiCond243) Conditional ??CrossCallReturnLabel_106
          CFI (cfiCond243) R6 load(1, XDATA, add(CFA_XSP16, literal(-18)))
          CFI (cfiCond243) VB load(1, XDATA, add(CFA_XSP16, literal(-17)))
          CFI (cfiCond243) V0 load(1, XDATA, add(CFA_XSP16, literal(-16)))
          CFI (cfiCond243) V1 load(1, XDATA, add(CFA_XSP16, literal(-15)))
          CFI (cfiCond243) V2 load(1, XDATA, add(CFA_XSP16, literal(-14)))
          CFI (cfiCond243) V3 load(1, XDATA, add(CFA_XSP16, literal(-13)))
          CFI (cfiCond243) V4 load(1, XDATA, add(CFA_XSP16, literal(-12)))
          CFI (cfiCond243) V5 load(1, XDATA, add(CFA_XSP16, literal(-11)))
          CFI (cfiCond243) V6 load(1, XDATA, add(CFA_XSP16, literal(-10)))
          CFI (cfiCond243) V7 load(1, XDATA, add(CFA_XSP16, literal(-9)))
          CFI (cfiCond243) V8 load(1, XDATA, add(CFA_XSP16, literal(-8)))
          CFI (cfiCond243) V9 load(1, XDATA, add(CFA_XSP16, literal(-7)))
          CFI (cfiCond243) R7 load(1, XDATA, add(CFA_XSP16, literal(-6)))
          CFI (cfiCond243) ?RET_LOW load(1, XDATA, add(CFA_XSP16, literal(-5)))
          CFI (cfiCond243) ?RET_HIGH load(1, XDATA, add(CFA_XSP16, literal(-4)))
          CFI (cfiCond243) ?BRET_EXT load(1, XDATA, add(CFA_XSP16, literal(-3)))
          CFI (cfiCond243) DPL0 load(1, XDATA, add(CFA_XSP16, literal(-2)))
          CFI (cfiCond243) DPH0 load(1, XDATA, add(CFA_XSP16, literal(-1)))
          CFI (cfiCond243) CFA_SP SP+-2
          CFI (cfiCond243) CFA_XSP16 add(XSP16, 48)
          CFI Block cfiCond244 Using cfiCommon0
          CFI (cfiCond244) Function AF_DataRequestSrcRtg
          CFI (cfiCond244) Conditional ??CrossCallReturnLabel_107
          CFI (cfiCond244) R6 load(1, XDATA, add(CFA_XSP16, literal(-12)))
          CFI (cfiCond244) VB load(1, XDATA, add(CFA_XSP16, literal(-11)))
          CFI (cfiCond244) V0 load(1, XDATA, add(CFA_XSP16, literal(-10)))
          CFI (cfiCond244) V1 load(1, XDATA, add(CFA_XSP16, literal(-9)))
          CFI (cfiCond244) V2 load(1, XDATA, add(CFA_XSP16, literal(-8)))
          CFI (cfiCond244) V3 load(1, XDATA, add(CFA_XSP16, literal(-7)))
          CFI (cfiCond244) R7 load(1, XDATA, add(CFA_XSP16, literal(-6)))
          CFI (cfiCond244) ?RET_LOW load(1, XDATA, add(CFA_XSP16, literal(-5)))
          CFI (cfiCond244) ?RET_HIGH load(1, XDATA, add(CFA_XSP16, literal(-4)))
          CFI (cfiCond244) ?BRET_EXT load(1, XDATA, add(CFA_XSP16, literal(-3)))
          CFI (cfiCond244) DPL0 load(1, XDATA, add(CFA_XSP16, literal(-2)))
          CFI (cfiCond244) DPH0 load(1, XDATA, add(CFA_XSP16, literal(-1)))
          CFI (cfiCond244) CFA_SP SP+-2
          CFI (cfiCond244) CFA_XSP16 add(XSP16, 12)
          CFI Block cfiCond245 Using cfiCommon0
          CFI (cfiCond245) Function afNumEndPoints
          CFI (cfiCond245) Conditional ??CrossCallReturnLabel_108
          CFI (cfiCond245) DPL0 Frame(CFA_SP, 4)
          CFI (cfiCond245) DPH0 Frame(CFA_SP, 5)
          CFI (cfiCond245) CFA_SP SP+-7
          CFI Block cfiCond246 Using cfiCommon0
          CFI (cfiCond246) Function AF_DataRequest
          CFI (cfiCond246) Conditional ??CrossCallReturnLabel_109
          CFI (cfiCond246) R6 load(1, XDATA, add(CFA_XSP16, literal(-18)))
          CFI (cfiCond246) VB load(1, XDATA, add(CFA_XSP16, literal(-17)))
          CFI (cfiCond246) V0 load(1, XDATA, add(CFA_XSP16, literal(-16)))
          CFI (cfiCond246) V1 load(1, XDATA, add(CFA_XSP16, literal(-15)))
          CFI (cfiCond246) V2 load(1, XDATA, add(CFA_XSP16, literal(-14)))
          CFI (cfiCond246) V3 load(1, XDATA, add(CFA_XSP16, literal(-13)))
          CFI (cfiCond246) V4 load(1, XDATA, add(CFA_XSP16, literal(-12)))
          CFI (cfiCond246) V5 load(1, XDATA, add(CFA_XSP16, literal(-11)))
          CFI (cfiCond246) V6 load(1, XDATA, add(CFA_XSP16, literal(-10)))
          CFI (cfiCond246) V7 load(1, XDATA, add(CFA_XSP16, literal(-9)))
          CFI (cfiCond246) V8 load(1, XDATA, add(CFA_XSP16, literal(-8)))
          CFI (cfiCond246) V9 load(1, XDATA, add(CFA_XSP16, literal(-7)))
          CFI (cfiCond246) R7 load(1, XDATA, add(CFA_XSP16, literal(-6)))
          CFI (cfiCond246) ?RET_LOW load(1, XDATA, add(CFA_XSP16, literal(-5)))
          CFI (cfiCond246) ?RET_HIGH load(1, XDATA, add(CFA_XSP16, literal(-4)))
          CFI (cfiCond246) ?BRET_EXT load(1, XDATA, add(CFA_XSP16, literal(-3)))
          CFI (cfiCond246) DPL0 load(1, XDATA, add(CFA_XSP16, literal(-2)))
          CFI (cfiCond246) DPH0 load(1, XDATA, add(CFA_XSP16, literal(-1)))
          CFI (cfiCond246) CFA_SP SP+-2
          CFI (cfiCond246) CFA_XSP16 add(XSP16, 48)
          CFI Block cfiCond247 Using cfiCommon0
          CFI (cfiCond247) Function afFindEndPointDesc
          CFI (cfiCond247) Conditional ??CrossCallReturnLabel_110
          CFI (cfiCond247) R6 load(1, XDATA, add(CFA_XSP16, literal(-10)))
          CFI (cfiCond247) VB load(1, XDATA, add(CFA_XSP16, literal(-9)))
          CFI (cfiCond247) V0 load(1, XDATA, add(CFA_XSP16, literal(-8)))
          CFI (cfiCond247) V1 load(1, XDATA, add(CFA_XSP16, literal(-7)))
          CFI (cfiCond247) R7 load(1, XDATA, add(CFA_XSP16, literal(-6)))
          CFI (cfiCond247) ?RET_LOW load(1, XDATA, add(CFA_XSP16, literal(-5)))
          CFI (cfiCond247) ?RET_HIGH load(1, XDATA, add(CFA_XSP16, literal(-4)))
          CFI (cfiCond247) ?BRET_EXT load(1, XDATA, add(CFA_XSP16, literal(-3)))
          CFI (cfiCond247) DPL0 load(1, XDATA, add(CFA_XSP16, literal(-2)))
          CFI (cfiCond247) DPH0 load(1, XDATA, add(CFA_XSP16, literal(-1)))
          CFI (cfiCond247) CFA_SP SP+-2
          CFI (cfiCond247) CFA_XSP16 add(XSP16, 10)
          CFI Block cfiCond248 Using cfiCommon0
          CFI (cfiCond248) Function afFindSimpleDesc
          CFI (cfiCond248) Conditional ??CrossCallReturnLabel_111
          CFI (cfiCond248) R6 load(1, XDATA, add(CFA_XSP16, literal(-12)))
          CFI (cfiCond248) VB load(1, XDATA, add(CFA_XSP16, literal(-11)))
          CFI (cfiCond248) V0 load(1, XDATA, add(CFA_XSP16, literal(-10)))
          CFI (cfiCond248) V1 load(1, XDATA, add(CFA_XSP16, literal(-9)))
          CFI (cfiCond248) V2 load(1, XDATA, add(CFA_XSP16, literal(-8)))
          CFI (cfiCond248) V3 load(1, XDATA, add(CFA_XSP16, literal(-7)))
          CFI (cfiCond248) R7 load(1, XDATA, add(CFA_XSP16, literal(-6)))
          CFI (cfiCond248) ?RET_LOW load(1, XDATA, add(CFA_XSP16, literal(-5)))
          CFI (cfiCond248) ?RET_HIGH load(1, XDATA, add(CFA_XSP16, literal(-4)))
          CFI (cfiCond248) ?BRET_EXT load(1, XDATA, add(CFA_XSP16, literal(-3)))
          CFI (cfiCond248) DPL0 load(1, XDATA, add(CFA_XSP16, literal(-2)))
          CFI (cfiCond248) DPH0 load(1, XDATA, add(CFA_XSP16, literal(-1)))
          CFI (cfiCond248) CFA_SP SP+-2
          CFI (cfiCond248) CFA_XSP16 add(XSP16, 12)
          CFI Block cfiCond249 Using cfiCommon0
          CFI (cfiCond249) Function afIncomingData
          CFI (cfiCond249) Conditional ??CrossCallReturnLabel_112
          CFI (cfiCond249) R6 load(1, XDATA, add(CFA_XSP16, literal(-24)))
          CFI (cfiCond249) VB load(1, XDATA, add(CFA_XSP16, literal(-23)))
          CFI (cfiCond249) V0 load(1, XDATA, add(CFA_XSP16, literal(-22)))
          CFI (cfiCond249) V1 load(1, XDATA, add(CFA_XSP16, literal(-21)))
          CFI (cfiCond249) V2 load(1, XDATA, add(CFA_XSP16, literal(-20)))
          CFI (cfiCond249) V3 load(1, XDATA, add(CFA_XSP16, literal(-19)))
          CFI (cfiCond249) V4 load(1, XDATA, add(CFA_XSP16, literal(-18)))
          CFI (cfiCond249) V5 load(1, XDATA, add(CFA_XSP16, literal(-17)))
          CFI (cfiCond249) V6 load(1, XDATA, add(CFA_XSP16, literal(-16)))
          CFI (cfiCond249) V7 load(1, XDATA, add(CFA_XSP16, literal(-15)))
          CFI (cfiCond249) V8 load(1, XDATA, add(CFA_XSP16, literal(-14)))
          CFI (cfiCond249) V9 load(1, XDATA, add(CFA_XSP16, literal(-13)))
          CFI (cfiCond249) V10 load(1, XDATA, add(CFA_XSP16, literal(-12)))
          CFI (cfiCond249) V11 load(1, XDATA, add(CFA_XSP16, literal(-11)))
          CFI (cfiCond249) V12 load(1, XDATA, add(CFA_XSP16, literal(-10)))
          CFI (cfiCond249) V13 load(1, XDATA, add(CFA_XSP16, literal(-9)))
          CFI (cfiCond249) V14 load(1, XDATA, add(CFA_XSP16, literal(-8)))
          CFI (cfiCond249) V15 load(1, XDATA, add(CFA_XSP16, literal(-7)))
          CFI (cfiCond249) R7 load(1, XDATA, add(CFA_XSP16, literal(-6)))
          CFI (cfiCond249) ?RET_LOW load(1, XDATA, add(CFA_XSP16, literal(-5)))
          CFI (cfiCond249) ?RET_HIGH load(1, XDATA, add(CFA_XSP16, literal(-4)))
          CFI (cfiCond249) ?BRET_EXT load(1, XDATA, add(CFA_XSP16, literal(-3)))
          CFI (cfiCond249) DPL0 load(1, XDATA, add(CFA_XSP16, literal(-2)))
          CFI (cfiCond249) DPH0 load(1, XDATA, add(CFA_XSP16, literal(-1)))
          CFI (cfiCond249) CFA_SP SP+-2
          CFI (cfiCond249) CFA_XSP16 add(XSP16, 28)
          CFI Block cfiCond250 Using cfiCommon0
          CFI (cfiCond250) Function afIncomingData
          CFI (cfiCond250) Conditional ??CrossCallReturnLabel_113
          CFI (cfiCond250) R6 load(1, XDATA, add(CFA_XSP16, literal(-24)))
          CFI (cfiCond250) VB load(1, XDATA, add(CFA_XSP16, literal(-23)))
          CFI (cfiCond250) V0 load(1, XDATA, add(CFA_XSP16, literal(-22)))
          CFI (cfiCond250) V1 load(1, XDATA, add(CFA_XSP16, literal(-21)))
          CFI (cfiCond250) V2 load(1, XDATA, add(CFA_XSP16, literal(-20)))
          CFI (cfiCond250) V3 load(1, XDATA, add(CFA_XSP16, literal(-19)))
          CFI (cfiCond250) V4 load(1, XDATA, add(CFA_XSP16, literal(-18)))
          CFI (cfiCond250) V5 load(1, XDATA, add(CFA_XSP16, literal(-17)))
          CFI (cfiCond250) V6 load(1, XDATA, add(CFA_XSP16, literal(-16)))
          CFI (cfiCond250) V7 load(1, XDATA, add(CFA_XSP16, literal(-15)))
          CFI (cfiCond250) V8 load(1, XDATA, add(CFA_XSP16, literal(-14)))
          CFI (cfiCond250) V9 load(1, XDATA, add(CFA_XSP16, literal(-13)))
          CFI (cfiCond250) V10 load(1, XDATA, add(CFA_XSP16, literal(-12)))
          CFI (cfiCond250) V11 load(1, XDATA, add(CFA_XSP16, literal(-11)))
          CFI (cfiCond250) V12 load(1, XDATA, add(CFA_XSP16, literal(-10)))
          CFI (cfiCond250) V13 load(1, XDATA, add(CFA_XSP16, literal(-9)))
          CFI (cfiCond250) V14 load(1, XDATA, add(CFA_XSP16, literal(-8)))
          CFI (cfiCond250) V15 load(1, XDATA, add(CFA_XSP16, literal(-7)))
          CFI (cfiCond250) R7 load(1, XDATA, add(CFA_XSP16, literal(-6)))
          CFI (cfiCond250) ?RET_LOW load(1, XDATA, add(CFA_XSP16, literal(-5)))
          CFI (cfiCond250) ?RET_HIGH load(1, XDATA, add(CFA_XSP16, literal(-4)))
          CFI (cfiCond250) ?BRET_EXT load(1, XDATA, add(CFA_XSP16, literal(-3)))
          CFI (cfiCond250) DPL0 load(1, XDATA, add(CFA_XSP16, literal(-2)))
          CFI (cfiCond250) DPH0 load(1, XDATA, add(CFA_XSP16, literal(-1)))
          CFI (cfiCond250) CFA_SP SP+-2
          CFI (cfiCond250) CFA_XSP16 add(XSP16, 28)
          CFI Block cfiCond251 Using cfiCommon0
          CFI (cfiCond251) Function AF_DataRequest
          CFI (cfiCond251) Conditional ??CrossCallReturnLabel_114
          CFI (cfiCond251) R6 load(1, XDATA, add(CFA_XSP16, literal(-18)))
          CFI (cfiCond251) VB load(1, XDATA, add(CFA_XSP16, literal(-17)))
          CFI (cfiCond251) V0 load(1, XDATA, add(CFA_XSP16, literal(-16)))
          CFI (cfiCond251) V1 load(1, XDATA, add(CFA_XSP16, literal(-15)))
          CFI (cfiCond251) V2 load(1, XDATA, add(CFA_XSP16, literal(-14)))
          CFI (cfiCond251) V3 load(1, XDATA, add(CFA_XSP16, literal(-13)))
          CFI (cfiCond251) V4 load(1, XDATA, add(CFA_XSP16, literal(-12)))
          CFI (cfiCond251) V5 load(1, XDATA, add(CFA_XSP16, literal(-11)))
          CFI (cfiCond251) V6 load(1, XDATA, add(CFA_XSP16, literal(-10)))
          CFI (cfiCond251) V7 load(1, XDATA, add(CFA_XSP16, literal(-9)))
          CFI (cfiCond251) V8 load(1, XDATA, add(CFA_XSP16, literal(-8)))
          CFI (cfiCond251) V9 load(1, XDATA, add(CFA_XSP16, literal(-7)))
          CFI (cfiCond251) R7 load(1, XDATA, add(CFA_XSP16, literal(-6)))
          CFI (cfiCond251) ?RET_LOW load(1, XDATA, add(CFA_XSP16, literal(-5)))
          CFI (cfiCond251) ?RET_HIGH load(1, XDATA, add(CFA_XSP16, literal(-4)))
          CFI (cfiCond251) ?BRET_EXT load(1, XDATA, add(CFA_XSP16, literal(-3)))
          CFI (cfiCond251) DPL0 load(1, XDATA, add(CFA_XSP16, literal(-2)))
          CFI (cfiCond251) DPH0 load(1, XDATA, add(CFA_XSP16, literal(-1)))
          CFI (cfiCond251) CFA_SP SP+-2
          CFI (cfiCond251) CFA_XSP16 add(XSP16, 48)
          CFI Block cfiPicker252 Using cfiCommon1
          CFI (cfiPicker252) NoFunction
          CFI (cfiPicker252) Picker
        MOVX    A,@DPTR
        MOV     R2,A
        INC     DPTR
        MOVX    A,@DPTR
        MOV     R3,A
        RET
          CFI EndBlock cfiCond241
          CFI EndBlock cfiCond242
          CFI EndBlock cfiCond243
          CFI EndBlock cfiCond244
          CFI EndBlock cfiCond245
          CFI EndBlock cfiCond246
          CFI EndBlock cfiCond247
          CFI EndBlock cfiCond248
          CFI EndBlock cfiCond249
          CFI EndBlock cfiCond250
          CFI EndBlock cfiCond251
          CFI EndBlock cfiPicker252
// 1065 
// 1066 /*********************************************************************
// 1067  * @fn      afEndPoints
// 1068  *
// 1069  * @brief   Fills in the passed in buffer with the endpoint (numbers).
// 1070  *          Use afNumEndPoints to find out how big a buffer to supply.
// 1071  *
// 1072  * @param   epBuf - pointer to mem used
// 1073  *
// 1074  * @return  void
// 1075  */

        RSEG BANKED_CODE:CODE:NOROOT(0)
// 1076 void afEndPoints( uint8 *epBuf, uint8 skipZDO )
afEndPoints:
          CFI Block cfiBlock253 Using cfiCommon0
          CFI Function afEndPoints
        CODE
// 1077 {
        PUSH    DPL
          CFI DPL0 Frame(CFA_SP, 4)
          CFI CFA_SP SP+-4
        PUSH    DPH
          CFI DPH0 Frame(CFA_SP, 5)
          CFI CFA_SP SP+-5
        ; Saved register size: 2
        ; Auto size: 0
// 1078   epList_t *epSearch;
// 1079   uint8 endPoint;
// 1080 
// 1081   // Start at the beginning
// 1082   epSearch = epList;
        MOV     DPTR,#epList
        SJMP    ??afEndPoints_0
// 1083 
// 1084   while ( epSearch )
// 1085   {
// 1086     endPoint = epSearch->epDesc->endPoint;
??afEndPoints_1:
        LCALL   ?Subroutine9 & 0xFFFF
??CrossCallReturnLabel_103:
        MOVX    A,@DPTR
        MOV     R0,A
// 1087 
// 1088     if ( !skipZDO || endPoint != 0 )
        MOV     A,R1
        JZ      ??afEndPoints_2
        MOV     A,R0
        JZ      ??afEndPoints_3
// 1089       *epBuf++ = endPoint;
??afEndPoints_2:
        MOV     A,R0
        MOV     DPL,R2
        MOV     DPH,R3
        MOVX    @DPTR,A
        INC     DPTR
        MOV     R2,DPL
        MOV     R3,DPH
// 1090 
// 1091     epSearch = epSearch->nextDesc;
??afEndPoints_3:
        MOV     DPL,R4
        MOV     DPH,R5
// 1092   }
??afEndPoints_0:
        LCALL   ?Subroutine10 & 0xFFFF
??CrossCallReturnLabel_9:
        MOV     A,R4
        ORL     A,R5
        JNZ     ??afEndPoints_1
// 1093 }
        LJMP    ?Subroutine3 & 0xFFFF
          CFI EndBlock cfiBlock253
// 1094 
// 1095 /*********************************************************************
// 1096  * @fn      afCopyAddress
// 1097  *
// 1098  * @brief   Fills in the passed in afAddrType_t parameter with the corresponding information
// 1099  *          from the zAddrType_t parameter.
// 1100  *
// 1101  * @param   epBuf - pointer to mem used
// 1102  *
// 1103  * @return  void
// 1104  */

        RSEG BANKED_CODE:CODE:NOROOT(0)
// 1105 void afCopyAddress( afAddrType_t *afAddr, zAddrType_t *zAddr )
afCopyAddress:
          CFI Block cfiBlock254 Using cfiCommon0
          CFI Function afCopyAddress
        CODE
// 1106 {
        FUNCALL afCopyAddress, sAddrExtCpy
        LOCFRAME ISTACK, 0, STACK
        LOCFRAME PSTACK, 0, STACK
        LOCFRAME XSTACK, 9, STACK
        LOCFRAME IOVERLAY, 0, STATIC
        LOCFRAME DOVERLAY, 0, STATIC
        ARGFRAME ISTACK, 0, STACK
        ARGFRAME PSTACK, 0, STACK
        ARGFRAME XSTACK, 9, STACK
        ARGFRAME IOVERLAY, 0, STATIC
        ARGFRAME DOVERLAY, 0, STATIC
        MOV     A,#-0x9
        LCALL   ?BANKED_ENTER_XDATA
          CFI DPH0 load(1, XDATA, add(CFA_XSP16, literal(-1)))
          CFI DPL0 load(1, XDATA, add(CFA_XSP16, literal(-2)))
          CFI ?BRET_EXT load(1, XDATA, add(CFA_XSP16, literal(-3)))
          CFI ?RET_HIGH load(1, XDATA, add(CFA_XSP16, literal(-4)))
          CFI ?RET_LOW load(1, XDATA, add(CFA_XSP16, literal(-5)))
          CFI R7 load(1, XDATA, add(CFA_XSP16, literal(-6)))
          CFI V0 load(1, XDATA, add(CFA_XSP16, literal(-7)))
          CFI VB load(1, XDATA, add(CFA_XSP16, literal(-8)))
          CFI R6 load(1, XDATA, add(CFA_XSP16, literal(-9)))
          CFI CFA_SP SP+0
          CFI CFA_XSP16 add(XSP16, 9)
        ; Saved register size: 9
        ; Auto size: 0
        MOV     A,R2
        MOV     R6,A
        MOV     A,R3
        MOV     R7,A
// 1107   afAddr->addrMode = (afAddrMode_t)zAddr->addrMode;
        MOV     A,R4
        ADD     A,#0x8
        MOV     R0,A
        CLR     A
        ADDC    A,R5
        MOV     R1,A
        MOV     DPL,R0
        MOV     DPH,R1
        MOVX    A,@DPTR
        MOV     DPL,R6
        MOV     DPH,R7
        INC     DPTR
        INC     DPTR
        INC     DPTR
        INC     DPTR
        INC     DPTR
        INC     DPTR
        INC     DPTR
        INC     DPTR
        LCALL   ?Subroutine25 & 0xFFFF
// 1108   if ( zAddr->addrMode == Addr64Bit )
??CrossCallReturnLabel_34:
        JNZ     ??afCopyAddress_0
// 1109   {
// 1110     (void)osal_cpyExtAddr( afAddr->addr.extAddr, zAddr->addr.extAddr );
        ; Setup parameters for call to function sAddrExtCpy
        LCALL   `??sAddrExtCpy::?relay`; Banked call to: sAddrExtCpy
        SJMP    ??CrossCallReturnLabel_75
// 1111   }
// 1112   else
// 1113   {
// 1114     afAddr->addr.shortAddr = zAddr->addr.shortAddr;
??afCopyAddress_0:
        MOV     DPL,R4
        MOV     DPH,R5
        MOVX    A,@DPTR
        MOV     R0,A
        LCALL   ?Subroutine13 & 0xFFFF
// 1115   }
??CrossCallReturnLabel_94:
        LCALL   ??Subroutine38_0 & 0xFFFF
// 1116 
// 1117   // Since zAddrType_t has no INTER-PAN information, set the panId member to zero.
// 1118   afAddr->panId = 0;
??CrossCallReturnLabel_75:
        MOV     DPL,R6
        MOV     DPH,R7
        INC     DPTR
        INC     DPTR
        INC     DPTR
        INC     DPTR
        INC     DPTR
        INC     DPTR
        INC     DPTR
        INC     DPTR
        INC     DPTR
        INC     DPTR
        CLR     A
        MOVX    @DPTR,A
        INC     DPTR
        MOVX    @DPTR,A
// 1119 }
        LJMP    ?Subroutine2 & 0xFFFF
          CFI EndBlock cfiBlock254

        RSEG BANKED_CODE:CODE:NOROOT(0)
?Subroutine25:
          CFI Block cfiCond255 Using cfiCommon0
          CFI Function AF_DataRequest
          CFI Conditional ??CrossCallReturnLabel_33
          CFI R6 load(1, XDATA, add(CFA_XSP16, literal(-18)))
          CFI VB load(1, XDATA, add(CFA_XSP16, literal(-17)))
          CFI V0 load(1, XDATA, add(CFA_XSP16, literal(-16)))
          CFI V1 load(1, XDATA, add(CFA_XSP16, literal(-15)))
          CFI V2 load(1, XDATA, add(CFA_XSP16, literal(-14)))
          CFI V3 load(1, XDATA, add(CFA_XSP16, literal(-13)))
          CFI V4 load(1, XDATA, add(CFA_XSP16, literal(-12)))
          CFI V5 load(1, XDATA, add(CFA_XSP16, literal(-11)))
          CFI V6 load(1, XDATA, add(CFA_XSP16, literal(-10)))
          CFI V7 load(1, XDATA, add(CFA_XSP16, literal(-9)))
          CFI V8 load(1, XDATA, add(CFA_XSP16, literal(-8)))
          CFI V9 load(1, XDATA, add(CFA_XSP16, literal(-7)))
          CFI R7 load(1, XDATA, add(CFA_XSP16, literal(-6)))
          CFI ?RET_LOW load(1, XDATA, add(CFA_XSP16, literal(-5)))
          CFI ?RET_HIGH load(1, XDATA, add(CFA_XSP16, literal(-4)))
          CFI ?BRET_EXT load(1, XDATA, add(CFA_XSP16, literal(-3)))
          CFI DPL0 load(1, XDATA, add(CFA_XSP16, literal(-2)))
          CFI DPH0 load(1, XDATA, add(CFA_XSP16, literal(-1)))
          CFI CFA_SP SP+-2
          CFI CFA_XSP16 add(XSP16, 48)
          CFI Block cfiCond256 Using cfiCommon0
          CFI (cfiCond256) Function afCopyAddress
          CFI (cfiCond256) Conditional ??CrossCallReturnLabel_34
          CFI (cfiCond256) R6 load(1, XDATA, add(CFA_XSP16, literal(-9)))
          CFI (cfiCond256) VB load(1, XDATA, add(CFA_XSP16, literal(-8)))
          CFI (cfiCond256) V0 load(1, XDATA, add(CFA_XSP16, literal(-7)))
          CFI (cfiCond256) R7 load(1, XDATA, add(CFA_XSP16, literal(-6)))
          CFI (cfiCond256) ?RET_LOW load(1, XDATA, add(CFA_XSP16, literal(-5)))
          CFI (cfiCond256) ?RET_HIGH load(1, XDATA, add(CFA_XSP16, literal(-4)))
          CFI (cfiCond256) ?BRET_EXT load(1, XDATA, add(CFA_XSP16, literal(-3)))
          CFI (cfiCond256) DPL0 load(1, XDATA, add(CFA_XSP16, literal(-2)))
          CFI (cfiCond256) DPH0 load(1, XDATA, add(CFA_XSP16, literal(-1)))
          CFI (cfiCond256) CFA_SP SP+-2
          CFI (cfiCond256) CFA_XSP16 add(XSP16, 9)
          CFI Block cfiPicker257 Using cfiCommon1
          CFI (cfiPicker257) NoFunction
          CFI (cfiPicker257) Picker
        LCALL   ?Subroutine30 & 0xFFFF
??CrossCallReturnLabel_47:
        MOVX    A,@DPTR
        XRL     A,#0x3
        RET
          CFI EndBlock cfiCond255
          CFI EndBlock cfiCond256
          CFI EndBlock cfiPicker257

        RSEG BANKED_CODE:CODE:NOROOT(0)
?Subroutine30:
          CFI Block cfiCond258 Using cfiCommon0
          CFI Function afBuildMSGIncoming
          CFI Conditional ??CrossCallReturnLabel_44
          CFI R6 load(1, XDATA, add(CFA_XSP16, literal(-19)))
          CFI VB load(1, XDATA, add(CFA_XSP16, literal(-18)))
          CFI V0 load(1, XDATA, add(CFA_XSP16, literal(-17)))
          CFI V1 load(1, XDATA, add(CFA_XSP16, literal(-16)))
          CFI V2 load(1, XDATA, add(CFA_XSP16, literal(-15)))
          CFI V3 load(1, XDATA, add(CFA_XSP16, literal(-14)))
          CFI V4 load(1, XDATA, add(CFA_XSP16, literal(-13)))
          CFI V5 load(1, XDATA, add(CFA_XSP16, literal(-12)))
          CFI V6 load(1, XDATA, add(CFA_XSP16, literal(-11)))
          CFI V7 load(1, XDATA, add(CFA_XSP16, literal(-10)))
          CFI V8 load(1, XDATA, add(CFA_XSP16, literal(-9)))
          CFI V9 load(1, XDATA, add(CFA_XSP16, literal(-8)))
          CFI V10 load(1, XDATA, add(CFA_XSP16, literal(-7)))
          CFI R7 load(1, XDATA, add(CFA_XSP16, literal(-6)))
          CFI ?RET_LOW load(1, XDATA, add(CFA_XSP16, literal(-5)))
          CFI ?RET_HIGH load(1, XDATA, add(CFA_XSP16, literal(-4)))
          CFI ?BRET_EXT load(1, XDATA, add(CFA_XSP16, literal(-3)))
          CFI DPL0 load(1, XDATA, add(CFA_XSP16, literal(-2)))
          CFI DPH0 load(1, XDATA, add(CFA_XSP16, literal(-1)))
          CFI CFA_SP SP+-2
          CFI CFA_XSP16 add(XSP16, 19)
          CFI Block cfiCond259 Using cfiCommon0
          CFI (cfiCond259) Function afBuildMSGIncoming
          CFI (cfiCond259) Conditional ??CrossCallReturnLabel_45
          CFI (cfiCond259) R6 load(1, XDATA, add(CFA_XSP16, literal(-19)))
          CFI (cfiCond259) VB load(1, XDATA, add(CFA_XSP16, literal(-18)))
          CFI (cfiCond259) V0 load(1, XDATA, add(CFA_XSP16, literal(-17)))
          CFI (cfiCond259) V1 load(1, XDATA, add(CFA_XSP16, literal(-16)))
          CFI (cfiCond259) V2 load(1, XDATA, add(CFA_XSP16, literal(-15)))
          CFI (cfiCond259) V3 load(1, XDATA, add(CFA_XSP16, literal(-14)))
          CFI (cfiCond259) V4 load(1, XDATA, add(CFA_XSP16, literal(-13)))
          CFI (cfiCond259) V5 load(1, XDATA, add(CFA_XSP16, literal(-12)))
          CFI (cfiCond259) V6 load(1, XDATA, add(CFA_XSP16, literal(-11)))
          CFI (cfiCond259) V7 load(1, XDATA, add(CFA_XSP16, literal(-10)))
          CFI (cfiCond259) V8 load(1, XDATA, add(CFA_XSP16, literal(-9)))
          CFI (cfiCond259) V9 load(1, XDATA, add(CFA_XSP16, literal(-8)))
          CFI (cfiCond259) V10 load(1, XDATA, add(CFA_XSP16, literal(-7)))
          CFI (cfiCond259) R7 load(1, XDATA, add(CFA_XSP16, literal(-6)))
          CFI (cfiCond259) ?RET_LOW load(1, XDATA, add(CFA_XSP16, literal(-5)))
          CFI (cfiCond259) ?RET_HIGH load(1, XDATA, add(CFA_XSP16, literal(-4)))
          CFI (cfiCond259) ?BRET_EXT load(1, XDATA, add(CFA_XSP16, literal(-3)))
          CFI (cfiCond259) DPL0 load(1, XDATA, add(CFA_XSP16, literal(-2)))
          CFI (cfiCond259) DPH0 load(1, XDATA, add(CFA_XSP16, literal(-1)))
          CFI (cfiCond259) CFA_SP SP+-2
          CFI (cfiCond259) CFA_XSP16 add(XSP16, 19)
          CFI Block cfiCond260 Using cfiCommon0
          CFI (cfiCond260) Function afBuildMSGIncoming
          CFI (cfiCond260) Conditional ??CrossCallReturnLabel_46
          CFI (cfiCond260) R6 load(1, XDATA, add(CFA_XSP16, literal(-19)))
          CFI (cfiCond260) VB load(1, XDATA, add(CFA_XSP16, literal(-18)))
          CFI (cfiCond260) V0 load(1, XDATA, add(CFA_XSP16, literal(-17)))
          CFI (cfiCond260) V1 load(1, XDATA, add(CFA_XSP16, literal(-16)))
          CFI (cfiCond260) V2 load(1, XDATA, add(CFA_XSP16, literal(-15)))
          CFI (cfiCond260) V3 load(1, XDATA, add(CFA_XSP16, literal(-14)))
          CFI (cfiCond260) V4 load(1, XDATA, add(CFA_XSP16, literal(-13)))
          CFI (cfiCond260) V5 load(1, XDATA, add(CFA_XSP16, literal(-12)))
          CFI (cfiCond260) V6 load(1, XDATA, add(CFA_XSP16, literal(-11)))
          CFI (cfiCond260) V7 load(1, XDATA, add(CFA_XSP16, literal(-10)))
          CFI (cfiCond260) V8 load(1, XDATA, add(CFA_XSP16, literal(-9)))
          CFI (cfiCond260) V9 load(1, XDATA, add(CFA_XSP16, literal(-8)))
          CFI (cfiCond260) V10 load(1, XDATA, add(CFA_XSP16, literal(-7)))
          CFI (cfiCond260) R7 load(1, XDATA, add(CFA_XSP16, literal(-6)))
          CFI (cfiCond260) ?RET_LOW load(1, XDATA, add(CFA_XSP16, literal(-5)))
          CFI (cfiCond260) ?RET_HIGH load(1, XDATA, add(CFA_XSP16, literal(-4)))
          CFI (cfiCond260) ?BRET_EXT load(1, XDATA, add(CFA_XSP16, literal(-3)))
          CFI (cfiCond260) DPL0 load(1, XDATA, add(CFA_XSP16, literal(-2)))
          CFI (cfiCond260) DPH0 load(1, XDATA, add(CFA_XSP16, literal(-1)))
          CFI (cfiCond260) CFA_SP SP+-2
          CFI (cfiCond260) CFA_XSP16 add(XSP16, 19)
          CFI Block cfiCond261 Using cfiCommon0
          CFI (cfiCond261) Function AF_DataRequest
          CFI (cfiCond261) Conditional ??CrossCallReturnLabel_47, ??CrossCallReturnLabel_33
          CFI (cfiCond261) R6 load(1, XDATA, add(CFA_XSP16, literal(-18)))
          CFI (cfiCond261) VB load(1, XDATA, add(CFA_XSP16, literal(-17)))
          CFI (cfiCond261) V0 load(1, XDATA, add(CFA_XSP16, literal(-16)))
          CFI (cfiCond261) V1 load(1, XDATA, add(CFA_XSP16, literal(-15)))
          CFI (cfiCond261) V2 load(1, XDATA, add(CFA_XSP16, literal(-14)))
          CFI (cfiCond261) V3 load(1, XDATA, add(CFA_XSP16, literal(-13)))
          CFI (cfiCond261) V4 load(1, XDATA, add(CFA_XSP16, literal(-12)))
          CFI (cfiCond261) V5 load(1, XDATA, add(CFA_XSP16, literal(-11)))
          CFI (cfiCond261) V6 load(1, XDATA, add(CFA_XSP16, literal(-10)))
          CFI (cfiCond261) V7 load(1, XDATA, add(CFA_XSP16, literal(-9)))
          CFI (cfiCond261) V8 load(1, XDATA, add(CFA_XSP16, literal(-8)))
          CFI (cfiCond261) V9 load(1, XDATA, add(CFA_XSP16, literal(-7)))
          CFI (cfiCond261) R7 load(1, XDATA, add(CFA_XSP16, literal(-6)))
          CFI (cfiCond261) ?RET_LOW load(1, XDATA, add(CFA_XSP16, literal(-5)))
          CFI (cfiCond261) ?RET_HIGH load(1, XDATA, add(CFA_XSP16, literal(-4)))
          CFI (cfiCond261) ?BRET_EXT load(1, XDATA, add(CFA_XSP16, literal(-3)))
          CFI (cfiCond261) DPL0 load(1, XDATA, add(CFA_XSP16, literal(-2)))
          CFI (cfiCond261) DPH0 load(1, XDATA, add(CFA_XSP16, literal(-1)))
          CFI (cfiCond261) CFA_SP SP+-4
          CFI (cfiCond261) CFA_XSP16 add(XSP16, 48)
          CFI Block cfiCond262 Using cfiCommon0
          CFI (cfiCond262) Function afCopyAddress
          CFI (cfiCond262) Conditional ??CrossCallReturnLabel_47, ??CrossCallReturnLabel_34
          CFI (cfiCond262) R6 load(1, XDATA, add(CFA_XSP16, literal(-9)))
          CFI (cfiCond262) VB load(1, XDATA, add(CFA_XSP16, literal(-8)))
          CFI (cfiCond262) V0 load(1, XDATA, add(CFA_XSP16, literal(-7)))
          CFI (cfiCond262) R7 load(1, XDATA, add(CFA_XSP16, literal(-6)))
          CFI (cfiCond262) ?RET_LOW load(1, XDATA, add(CFA_XSP16, literal(-5)))
          CFI (cfiCond262) ?RET_HIGH load(1, XDATA, add(CFA_XSP16, literal(-4)))
          CFI (cfiCond262) ?BRET_EXT load(1, XDATA, add(CFA_XSP16, literal(-3)))
          CFI (cfiCond262) DPL0 load(1, XDATA, add(CFA_XSP16, literal(-2)))
          CFI (cfiCond262) DPH0 load(1, XDATA, add(CFA_XSP16, literal(-1)))
          CFI (cfiCond262) CFA_SP SP+-4
          CFI (cfiCond262) CFA_XSP16 add(XSP16, 9)
          CFI Block cfiPicker263 Using cfiCommon1
          CFI (cfiPicker263) NoFunction
          CFI (cfiPicker263) Picker
        MOVX    @DPTR,A
        MOV     DPL,R0
        MOV     DPH,R1
        RET
          CFI EndBlock cfiCond258
          CFI EndBlock cfiCond259
          CFI EndBlock cfiCond260
          CFI EndBlock cfiCond261
          CFI EndBlock cfiCond262
          CFI EndBlock cfiPicker263
// 1120 
// 1121 /**************************************************************************************************
// 1122  * @fn          afAPSF_ConfigGet
// 1123  *
// 1124  * @brief       This function ascertains the fragmentation configuration that corresponds to
// 1125  *              the specified EndPoint.
// 1126  *
// 1127  * input parameters
// 1128  *
// 1129  * @param       endPoint - The source EP of a Tx or destination EP of a Rx fragmented message.
// 1130  *
// 1131  * output parameters
// 1132  *
// 1133  * @param       pCfg - A pointer to an APSF configuration structure to fill with values.
// 1134  *
// 1135  * @return      None.
// 1136  */

        RSEG BANKED_CODE:CODE:NOROOT(0)
// 1137 void afAPSF_ConfigGet(uint8 endPoint, afAPSF_Config_t *pCfg)
afAPSF_ConfigGet:
          CFI Block cfiBlock264 Using cfiCommon0
          CFI Function afAPSF_ConfigGet
        CODE
// 1138 {
        FUNCALL afAPSF_ConfigGet, afFindEndPointDescList
        LOCFRAME ISTACK, 0, STACK
        LOCFRAME PSTACK, 0, STACK
        LOCFRAME XSTACK, 12, STACK
        LOCFRAME IOVERLAY, 0, STATIC
        LOCFRAME DOVERLAY, 0, STATIC
        ARGFRAME ISTACK, 0, STACK
        ARGFRAME PSTACK, 0, STACK
        ARGFRAME XSTACK, 12, STACK
        ARGFRAME IOVERLAY, 0, STATIC
        ARGFRAME DOVERLAY, 0, STATIC
        FUNCALL afAPSF_ConfigGet, osal_memcpy
        LOCFRAME ISTACK, 0, STACK
        LOCFRAME PSTACK, 0, STACK
        LOCFRAME XSTACK, 15, STACK
        LOCFRAME IOVERLAY, 0, STATIC
        LOCFRAME DOVERLAY, 0, STATIC
        ARGFRAME ISTACK, 0, STACK
        ARGFRAME PSTACK, 0, STACK
        ARGFRAME XSTACK, 15, STACK
        ARGFRAME IOVERLAY, 0, STATIC
        ARGFRAME DOVERLAY, 0, STATIC
        REQUIRE ?V0
        REQUIRE ?V1
        REQUIRE ?V2
        REQUIRE ?V3
        MOV     A,#-0xc
        LCALL   ?BANKED_ENTER_XDATA
          CFI DPH0 load(1, XDATA, add(CFA_XSP16, literal(-1)))
          CFI DPL0 load(1, XDATA, add(CFA_XSP16, literal(-2)))
          CFI ?BRET_EXT load(1, XDATA, add(CFA_XSP16, literal(-3)))
          CFI ?RET_HIGH load(1, XDATA, add(CFA_XSP16, literal(-4)))
          CFI ?RET_LOW load(1, XDATA, add(CFA_XSP16, literal(-5)))
          CFI R7 load(1, XDATA, add(CFA_XSP16, literal(-6)))
          CFI V3 load(1, XDATA, add(CFA_XSP16, literal(-7)))
          CFI V2 load(1, XDATA, add(CFA_XSP16, literal(-8)))
          CFI V1 load(1, XDATA, add(CFA_XSP16, literal(-9)))
          CFI V0 load(1, XDATA, add(CFA_XSP16, literal(-10)))
          CFI VB load(1, XDATA, add(CFA_XSP16, literal(-11)))
          CFI R6 load(1, XDATA, add(CFA_XSP16, literal(-12)))
          CFI CFA_SP SP+0
          CFI CFA_XSP16 add(XSP16, 12)
        ; Saved register size: 12
        ; Auto size: 0
        MOV     A,R2
        MOV     R6,A
        MOV     A,R3
        MOV     R7,A
// 1139   epList_t *pList = afFindEndPointDescList(endPoint);
        ; Setup parameters for call to function afFindEndPointDescList
        LCALL   `??afFindEndPointDescList::?relay`; Banked call to: afFindEndPointDescList
        MOV     ?V0,R2
        MOV     ?V1,R3
        MOV     R0,?V0
        MOV     R1,?V1
// 1140 
// 1141   if (pList == NULL)
        MOV     A,R0
        ORL     A,R1
        JNZ     ??afAPSF_ConfigGet_0
// 1142   {
// 1143     pCfg->frameDelay = APSF_DEFAULT_INTERFRAME_DELAY;
        MOV     DPL,R6
        MOV     DPH,R7
        MOV     A,#0x32
        MOVX    @DPTR,A
// 1144     pCfg->windowSize = APSF_DEFAULT_WINDOW_SIZE;
        INC     DPTR
        MOV     A,#0x1
        MOVX    @DPTR,A
        SJMP    ??afAPSF_ConfigGet_1
// 1145   }
// 1146   else
// 1147   {
// 1148     (void)osal_memcpy(pCfg, &pList->apsfCfg, sizeof(afAPSF_Config_t));
??afAPSF_ConfigGet_0:
        ; Setup parameters for call to function osal_memcpy
        MOV     A,R0
        ADD     A,#0x6
        MOV     ?V0,A
        CLR     A
        ADDC    A,R1
        MOV     ?V1,A
        MOV     ?V2,#0x0
        MOV     R0,#?V0
        LCALL   ?PUSH_XSTACK_I_THREE
          CFI CFA_XSP16 add(XSP16, 15)
        MOV     R4,#0x2
        MOV     R5,#0x0
        MOV     A,R6
        MOV     R2,A
        MOV     A,R7
        MOV     R3,A
        LCALL   `??osal_memcpy::?relay`; Banked call to: osal_memcpy
        MOV     A,#0x3
        LCALL   ?DEALLOC_XSTACK8
          CFI CFA_XSP16 add(XSP16, 12)
// 1149   }
// 1150 }
??afAPSF_ConfigGet_1:
          CFI EndBlock cfiBlock264
        REQUIRE ?Subroutine0
        ; // Fall through to label ?Subroutine0

        RSEG BANKED_CODE:CODE:NOROOT(0)
?Subroutine0:
          CFI Block cfiBlock265 Using cfiCommon0
          CFI NoFunction
          CFI CFA_SP SP+0
          CFI CFA_XSP16 add(XSP16, 12)
          CFI VB load(1, XDATA, add(CFA_XSP16, literal(-11)))
          CFI DPL0 load(1, XDATA, add(CFA_XSP16, literal(-2)))
          CFI DPH0 load(1, XDATA, add(CFA_XSP16, literal(-1)))
          CFI R6 load(1, XDATA, add(CFA_XSP16, literal(-12)))
          CFI R7 load(1, XDATA, add(CFA_XSP16, literal(-6)))
          CFI V0 load(1, XDATA, add(CFA_XSP16, literal(-10)))
          CFI V1 load(1, XDATA, add(CFA_XSP16, literal(-9)))
          CFI V2 load(1, XDATA, add(CFA_XSP16, literal(-8)))
          CFI V3 load(1, XDATA, add(CFA_XSP16, literal(-7)))
          CFI ?BRET_EXT load(1, XDATA, add(CFA_XSP16, literal(-3)))
          CFI ?RET_HIGH load(1, XDATA, add(CFA_XSP16, literal(-4)))
          CFI ?RET_LOW load(1, XDATA, add(CFA_XSP16, literal(-5)))
        MOV     R7,#0x4
        LJMP    ?BANKED_LEAVE_XDATA
          CFI EndBlock cfiBlock265
// 1151 
// 1152 /**************************************************************************************************
// 1153  * @fn          afAPSF_ConfigSet
// 1154  *
// 1155  * @brief       This function attempts to set the fragmentation configuration that corresponds to
// 1156  *              the specified EndPoint.
// 1157  *
// 1158  * input parameters
// 1159  *
// 1160  * @param       endPoint - The specific EndPoint for which to set the fragmentation configuration.
// 1161  * @param       pCfg - A pointer to an APSF configuration structure to fill with values.
// 1162  *
// 1163  * output parameters
// 1164  *
// 1165  * None.
// 1166  *
// 1167  * @return      afStatus_SUCCESS for success.
// 1168  *              afStatus_INVALID_PARAMETER if the specified EndPoint is not registered.
// 1169  */

        RSEG BANKED_CODE:CODE:NOROOT(0)
// 1170 afStatus_t afAPSF_ConfigSet(uint8 endPoint, afAPSF_Config_t *pCfg)
afAPSF_ConfigSet:
          CFI Block cfiBlock266 Using cfiCommon0
          CFI Function afAPSF_ConfigSet
        CODE
// 1171 {
        FUNCALL afAPSF_ConfigSet, afFindEndPointDescList
        LOCFRAME ISTACK, 0, STACK
        LOCFRAME PSTACK, 0, STACK
        LOCFRAME XSTACK, 12, STACK
        LOCFRAME IOVERLAY, 0, STATIC
        LOCFRAME DOVERLAY, 0, STATIC
        ARGFRAME ISTACK, 0, STACK
        ARGFRAME PSTACK, 0, STACK
        ARGFRAME XSTACK, 12, STACK
        ARGFRAME IOVERLAY, 0, STATIC
        ARGFRAME DOVERLAY, 0, STATIC
        FUNCALL afAPSF_ConfigSet, osal_memcpy
        LOCFRAME ISTACK, 0, STACK
        LOCFRAME PSTACK, 0, STACK
        LOCFRAME XSTACK, 15, STACK
        LOCFRAME IOVERLAY, 0, STATIC
        LOCFRAME DOVERLAY, 0, STATIC
        ARGFRAME ISTACK, 0, STACK
        ARGFRAME PSTACK, 0, STACK
        ARGFRAME XSTACK, 15, STACK
        ARGFRAME IOVERLAY, 0, STATIC
        ARGFRAME DOVERLAY, 0, STATIC
        REQUIRE ?V0
        REQUIRE ?V1
        REQUIRE ?V2
        REQUIRE ?V3
        MOV     A,#-0xc
        LCALL   ?BANKED_ENTER_XDATA
          CFI DPH0 load(1, XDATA, add(CFA_XSP16, literal(-1)))
          CFI DPL0 load(1, XDATA, add(CFA_XSP16, literal(-2)))
          CFI ?BRET_EXT load(1, XDATA, add(CFA_XSP16, literal(-3)))
          CFI ?RET_HIGH load(1, XDATA, add(CFA_XSP16, literal(-4)))
          CFI ?RET_LOW load(1, XDATA, add(CFA_XSP16, literal(-5)))
          CFI R7 load(1, XDATA, add(CFA_XSP16, literal(-6)))
          CFI V3 load(1, XDATA, add(CFA_XSP16, literal(-7)))
          CFI V2 load(1, XDATA, add(CFA_XSP16, literal(-8)))
          CFI V1 load(1, XDATA, add(CFA_XSP16, literal(-9)))
          CFI V0 load(1, XDATA, add(CFA_XSP16, literal(-10)))
          CFI VB load(1, XDATA, add(CFA_XSP16, literal(-11)))
          CFI R6 load(1, XDATA, add(CFA_XSP16, literal(-12)))
          CFI CFA_SP SP+0
          CFI CFA_XSP16 add(XSP16, 12)
        ; Saved register size: 12
        ; Auto size: 0
        MOV     A,R2
        MOV     R6,A
        MOV     A,R3
        MOV     R7,A
// 1172   epList_t *pList = afFindEndPointDescList(endPoint);
        ; Setup parameters for call to function afFindEndPointDescList
        LCALL   `??afFindEndPointDescList::?relay`; Banked call to: afFindEndPointDescList
// 1173 
// 1174   if (pList == NULL)
        MOV     A,R2
        ORL     A,R3
        JNZ     ??afAPSF_ConfigSet_0
// 1175   {
// 1176     return afStatus_INVALID_PARAMETER;
        MOV     R1,#0x2
        SJMP    ??afAPSF_ConfigSet_1
// 1177   }
// 1178 
// 1179   (void)osal_memcpy(&pList->apsfCfg, pCfg, sizeof(afAPSF_Config_t));
??afAPSF_ConfigSet_0:
        ; Setup parameters for call to function osal_memcpy
        MOV     ?V0,R6
        MOV     ?V1,R7
        MOV     ?V2,#0x0
        MOV     R0,#?V0
        LCALL   ?PUSH_XSTACK_I_THREE
          CFI CFA_XSP16 add(XSP16, 15)
        MOV     R4,#0x2
        MOV     R5,#0x0
        MOV     A,R2
        ADD     A,#0x6
        MOV     R2,A
        JNC     ??afAPSF_ConfigSet_2
        INC     R3
??afAPSF_ConfigSet_2:
        LCALL   `??osal_memcpy::?relay`; Banked call to: osal_memcpy
        MOV     A,#0x3
        LCALL   ?DEALLOC_XSTACK8
          CFI CFA_XSP16 add(XSP16, 12)
// 1180   return afStatus_SUCCESS;
        MOV     R1,#0x0
??afAPSF_ConfigSet_1:
        SJMP    ?Subroutine0
// 1181 }
          CFI EndBlock cfiBlock266
// 1182 
// 1183 /**************************************************************************************************
// 1184  * @fn          afSetApplCB
// 1185  *
// 1186  * @brief       Sets the pointer to the Application Callback function for a
// 1187  *              specific EndPoint.
// 1188  *
// 1189  * input parameters
// 1190  *
// 1191  * @param       endPoint - The specific EndPoint for which to set Application Callback.
// 1192  * @param       pApplFn - A pointer to the Application Callback function.
// 1193  *
// 1194  * output parameters
// 1195  *
// 1196  * None.
// 1197  *
// 1198  * @return      TRUE if success, FALSE if endpoint not found
// 1199  */

        RSEG BANKED_CODE:CODE:NOROOT(0)
// 1200 uint8 afSetApplCB( uint8 endPoint, pApplCB pApplFn )
afSetApplCB:
          CFI Block cfiBlock267 Using cfiCommon0
          CFI Function afSetApplCB
        CODE
// 1201 {
        FUNCALL afSetApplCB, afFindEndPointDescList
        LOCFRAME ISTACK, 0, STACK
        LOCFRAME PSTACK, 0, STACK
        LOCFRAME XSTACK, 12, STACK
        LOCFRAME IOVERLAY, 0, STATIC
        LOCFRAME DOVERLAY, 0, STATIC
        ARGFRAME ISTACK, 0, STACK
        ARGFRAME PSTACK, 0, STACK
        ARGFRAME XSTACK, 12, STACK
        ARGFRAME IOVERLAY, 0, STATIC
        ARGFRAME DOVERLAY, 0, STATIC
        REQUIRE ?V0
        REQUIRE ?V2
        REQUIRE ?V3
        MOV     A,#-0xc
        LCALL   ?BANKED_ENTER_XDATA
          CFI DPH0 load(1, XDATA, add(CFA_XSP16, literal(-1)))
          CFI DPL0 load(1, XDATA, add(CFA_XSP16, literal(-2)))
          CFI ?BRET_EXT load(1, XDATA, add(CFA_XSP16, literal(-3)))
          CFI ?RET_HIGH load(1, XDATA, add(CFA_XSP16, literal(-4)))
          CFI ?RET_LOW load(1, XDATA, add(CFA_XSP16, literal(-5)))
          CFI R7 load(1, XDATA, add(CFA_XSP16, literal(-6)))
          CFI V3 load(1, XDATA, add(CFA_XSP16, literal(-7)))
          CFI V2 load(1, XDATA, add(CFA_XSP16, literal(-8)))
          CFI V1 load(1, XDATA, add(CFA_XSP16, literal(-9)))
          CFI V0 load(1, XDATA, add(CFA_XSP16, literal(-10)))
          CFI VB load(1, XDATA, add(CFA_XSP16, literal(-11)))
          CFI R6 load(1, XDATA, add(CFA_XSP16, literal(-12)))
          CFI CFA_SP SP+0
          CFI CFA_XSP16 add(XSP16, 12)
        ; Saved register size: 12
        ; Auto size: 0
        MOV     A,R2
        MOV     R6,A
        MOV     A,R3
        MOV     R7,A
// 1202   if ( pApplFn != NULL )
        MOV     A,R6
        ORL     A,R7
        JZ      ??afSetApplCB_0
// 1203   {
// 1204     epList_t *epSearch;
// 1205 
// 1206     // Look for the endpoint
// 1207     epSearch = afFindEndPointDescList( endPoint );
        ; Setup parameters for call to function afFindEndPointDescList
        LCALL   `??afFindEndPointDescList::?relay`; Banked call to: afFindEndPointDescList
        MOV     DPL,R2
        MOV     DPH,R3
// 1208 
// 1209     if ( epSearch )
        MOV     A,DPL
        ORL     A,DPH
        JZ      ??afSetApplCB_0
// 1210     {
// 1211       epSearch->pfnApplCB = pApplFn;
        INC     DPTR
        INC     DPTR
        INC     DPTR
        INC     DPTR
        INC     DPTR
        INC     DPTR
        INC     DPTR
        INC     DPTR
        INC     DPTR
        MOV     A,R6
        MOVX    @DPTR,A
        INC     DPTR
        MOV     A,R7
        MOVX    @DPTR,A
// 1212 
// 1213       return ( TRUE );
        MOV     R1,#0x1
        SJMP    ??afSetApplCB_1
// 1214     }
// 1215   }
// 1216 
// 1217   return ( FALSE );
??afSetApplCB_0:
        MOV     R1,#0x0
??afSetApplCB_1:
        SJMP    ?Subroutine0
// 1218 }
          CFI EndBlock cfiBlock267

        RSEG XDATA_ID:CODE:NOROOT(0)
`?<Initializer for AF_DataRequestDiscoverRoute>`:
        DATA8
        DB 1

        RSEG BANK_RELAYS:CODE:REORDER:NOROOT(0)
`??afRegisterExtended::?relay`:
        CODE
        LCALL   ?BDISPATCH
        DATA24
        DC24    afRegisterExtended

        RSEG BANK_RELAYS:CODE:REORDER:NOROOT(0)
`??afRegister::?relay`:
        CODE
        LCALL   ?BDISPATCH
        DATA24
        DC24    afRegister

        RSEG BANK_RELAYS:CODE:REORDER:NOROOT(0)
`??afDelete::?relay`:
        CODE
        LCALL   ?BDISPATCH
        DATA24
        DC24    afDelete

        RSEG BANK_RELAYS:CODE:REORDER:NOROOT(0)
`??afDataConfirm::?relay`:
        CODE
        LCALL   ?BDISPATCH
        DATA24
        DC24    afDataConfirm

        RSEG BANK_RELAYS:CODE:REORDER:NOROOT(0)
`??afReflectError::?relay`:
        CODE
        LCALL   ?BDISPATCH
        DATA24
        DC24    afReflectError

        RSEG BANK_RELAYS:CODE:REORDER:NOROOT(0)
`??afIncomingData::?relay`:
        CODE
        LCALL   ?BDISPATCH
        DATA24
        DC24    afIncomingData

        RSEG BANK_RELAYS:CODE:REORDER:NOROOT(0)
`??afBuildMSGIncoming::?relay`:
        CODE
        LCALL   ?BDISPATCH
        DATA24
        DC24    afBuildMSGIncoming

        RSEG BANK_RELAYS:CODE:REORDER:NOROOT(0)
`??AF_DataRequest::?relay`:
        CODE
        LCALL   ?BDISPATCH
        DATA24
        DC24    AF_DataRequest

        RSEG BANK_RELAYS:CODE:REORDER:NOROOT(0)
`??AF_DataRequestSrcRtg::?relay`:
        CODE
        LCALL   ?BDISPATCH
        DATA24
        DC24    AF_DataRequestSrcRtg

        RSEG BANK_RELAYS:CODE:REORDER:NOROOT(0)
`??afFindEndPointDescList::?relay`:
        CODE
        LCALL   ?BDISPATCH
        DATA24
        DC24    afFindEndPointDescList

        RSEG BANK_RELAYS:CODE:REORDER:NOROOT(0)
`??afFindEndPointDesc::?relay`:
        CODE
        LCALL   ?BDISPATCH
        DATA24
        DC24    afFindEndPointDesc

        RSEG BANK_RELAYS:CODE:REORDER:NOROOT(0)
`??afFindSimpleDesc::?relay`:
        CODE
        LCALL   ?BDISPATCH
        DATA24
        DC24    afFindSimpleDesc

        RSEG BANK_RELAYS:CODE:REORDER:NOROOT(0)
`??afDataReqMTU::?relay`:
        CODE
        LCALL   ?BDISPATCH
        DATA24
        DC24    afDataReqMTU

        RSEG BANK_RELAYS:CODE:REORDER:NOROOT(0)
`??afGetMatch::?relay`:
        CODE
        LCALL   ?BDISPATCH
        DATA24
        DC24    afGetMatch

        RSEG BANK_RELAYS:CODE:REORDER:NOROOT(0)
`??afSetMatch::?relay`:
        CODE
        LCALL   ?BDISPATCH
        DATA24
        DC24    afSetMatch

        RSEG BANK_RELAYS:CODE:REORDER:NOROOT(0)
`??afNumEndPoints::?relay`:
        CODE
        LCALL   ?BDISPATCH
        DATA24
        DC24    afNumEndPoints

        RSEG BANK_RELAYS:CODE:REORDER:NOROOT(0)
`??afEndPoints::?relay`:
        CODE
        LCALL   ?BDISPATCH
        DATA24
        DC24    afEndPoints

        RSEG BANK_RELAYS:CODE:REORDER:NOROOT(0)
`??afCopyAddress::?relay`:
        CODE
        LCALL   ?BDISPATCH
        DATA24
        DC24    afCopyAddress

        RSEG BANK_RELAYS:CODE:REORDER:NOROOT(0)
`??afAPSF_ConfigGet::?relay`:
        CODE
        LCALL   ?BDISPATCH
        DATA24
        DC24    afAPSF_ConfigGet

        RSEG BANK_RELAYS:CODE:REORDER:NOROOT(0)
`??afAPSF_ConfigSet::?relay`:
        CODE
        LCALL   ?BDISPATCH
        DATA24
        DC24    afAPSF_ConfigSet

        RSEG BANK_RELAYS:CODE:REORDER:NOROOT(0)
`??afSetApplCB::?relay`:
        CODE
        LCALL   ?BDISPATCH
        DATA24
        DC24    afSetApplCB

        END
// 1219 
// 1220 /**************************************************************************************************
// 1221 */
// 
// 3 418 bytes in segment BANKED_CODE
//   126 bytes in segment BANK_RELAYS
//     1 byte  in segment XDATA_I
//     1 byte  in segment XDATA_ID
//     2 bytes in segment XDATA_Z
// 
// 3 545 bytes of CODE  memory
//     3 bytes of XDATA memory
//
//Errors: none
//Warnings: none
