///////////////////////////////////////////////////////////////////////////////
//
// IAR C/C++ Compiler V9.30.1.3056 for 8051               21/Nov/2018  13:52:05
// Copyright 2004-2015 IAR Systems AB.
// Standalone license - IAR Embedded Workbench for 8051
//
//    Core               =  plain
//    Code model         =  banked
//    Data model         =  large
//    Calling convention =  xdata reentrant
//    Constant location  =  data_rom
//    Dptr setup         =  1,16
//                          
//    Source file        =  
//        D:\1.embedded\kit\cc2530\Reference\Z-Stack Mesh
//        1.0.0\Components\hal\target\CC2530ZNP\hal_sleep.c
//    Command line       =  
//        -f "D:\1.embedded\kit\cc2530\Reference\Z-Stack Mesh
//        1.0.0\Projects\zstack\ZNP\CC253x\..\Source\znp.cfg"
//        (-DMAC_CFG_APP_PENDING_QUEUE=TRUE
//        "-DZSTACK_DEVICE_BUILD=(DEVICE_BUILD_COORDINATOR |
//        DEVICE_BUILD_ROUTER | DEVICE_BUILD_ENDDEVICE)" -DNWK_AUTO_POLL
//        -DZNP_RUN_WDOG=FALSE -DZNP_UART_BAUD=HAL_UART_BR_115200 -DZIGBEEPRO
//        -DZIGBEE_FRAGMENTATION -DINTER_PAN -DOSAL_CLOCK -DOSAL_SAPI=FALSE
//        -DSAPI_CB_FUNC=FALSE -DHOLD_AUTO_START -DNV_RESTORE -DNV_INIT
//        -DNUM_DISC_ATTEMPTS=0 -DMT_UTIL_FUNC -DMT_SYS_FUNC -DMT_AF_FUNC
//        -DMT_SAPI_FUNC -DMT_SAPI_CB_FUNC -DMT_ZDO_CB_FUNC -DMT_ZDO_FUNC
//        -DMT_ZDO_MGMT -DMT_ZDO_EXTENSIONS -DMT_APP_FUNC) -f
//        "D:\1.embedded\kit\cc2530\Reference\Z-Stack Mesh
//        1.0.0\Projects\zstack\ZNP\CC253x\..\..\Tools\CC2530DB\f8wConfig.cfg"
//        (-DZIGBEEPRO -DSECURE=1 -DZG_SECURE_DYNAMIC=0 -DREFLECTOR
//        -DDEFAULT_CHANLIST=0x00000800 -DZDAPP_CONFIG_PAN_ID=0xFFFF
//        -DNWK_START_DELAY=100 -DEXTENDED_JOINING_RANDOM_MASK=0x007F
//        -DBEACON_REQUEST_DELAY=100 -DBEACON_REQ_DELAY_MASK=0x00FF
//        -DLINK_STATUS_JITTER_MASK=0x007F -DROUTE_EXPIRY_TIME=30
//        -DAPSC_ACK_WAIT_DURATION_POLLED=3000 -DNWK_INDIRECT_MSG_TIMEOUT=7
//        -DMAX_RREQ_ENTRIES=8 -DAPSC_MAX_FRAME_RETRIES=3
//        -DNWK_MAX_DATA_RETRIES=2 -DMAX_POLL_FAILURE_RETRIES=2 -DMAX_BCAST=9
//        -DAPS_MAX_GROUPS=16 -DMAX_RTG_ENTRIES=40 -DNWK_MAX_BINDING_ENTRIES=4
//        -DMAX_BINDING_CLUSTER_IDS=4 "-DDEFAULT_KEY={0x01, 0x03, 0x05, 0x07,
//        0x09, 0x0B, 0x0D, 0x0F, 0x00, 0x02, 0x04, 0x06, 0x08, 0x0A, 0x0C,
//        0x0D}" -DMAC_MAX_FRAME_SIZE=116 -DZDNWKMGR_MIN_TRANSMISSIONS=20
//        "-DCONST=const __code" -DGENERIC=__generic -DRFD_RCVC_ALWAYS_ON=FALSE
//        -DPOLL_RATE=1000 -DQUEUED_POLL_RATE=100 -DRESPONSE_POLL_RATE=100
//        -DREJOIN_POLL_RATE=440) -f
//        "D:\1.embedded\kit\cc2530\Reference\Z-Stack Mesh
//        1.0.0\Projects\zstack\ZNP\CC253x\..\..\Tools\CC2530DB\f8wZCL.cfg"
//        "D:\1.embedded\kit\cc2530\Reference\Z-Stack Mesh
//        1.0.0\Components\hal\target\CC2530ZNP\hal_sleep.c" -D
//        FEATURE_SYSTEM_STATS -D POWER_SAVING -lC
//        "D:\1.embedded\kit\cc2530\Reference\Z-Stack Mesh
//        1.0.0\Projects\zstack\ZNP\CC253x\CC2530-Debug\List" -lA
//        "D:\1.embedded\kit\cc2530\Reference\Z-Stack Mesh
//        1.0.0\Projects\zstack\ZNP\CC253x\CC2530-Debug\List" --diag_suppress
//        Pe001,Pa010 -o "D:\1.embedded\kit\cc2530\Reference\Z-Stack Mesh
//        1.0.0\Projects\zstack\ZNP\CC253x\CC2530-Debug\Obj" -e
//        --no_code_motion --debug --core=plain --dptr=16,1 --data_model=large
//        --code_model=banked --calling_convention=xdata_reentrant
//        --place_constants=data_rom --nr_virtual_regs 16 -I
//        "D:\1.embedded\kit\cc2530\Reference\Z-Stack Mesh
//        1.0.0\Projects\zstack\ZNP\CC253x\" -I
//        "D:\1.embedded\kit\cc2530\Reference\Z-Stack Mesh
//        1.0.0\Projects\zstack\ZNP\CC253x\Source\" -I
//        "D:\1.embedded\kit\cc2530\Reference\Z-Stack Mesh
//        1.0.0\Projects\zstack\ZNP\CC253x\..\Source\" -I
//        "D:\1.embedded\kit\cc2530\Reference\Z-Stack Mesh
//        1.0.0\Projects\zstack\ZNP\CC253x\..\..\SE\Source\" -I
//        "D:\1.embedded\kit\cc2530\Reference\Z-Stack Mesh
//        1.0.0\Projects\zstack\ZNP\CC253x\..\..\ZMain\TI2530ZNP\" -I
//        "D:\1.embedded\kit\cc2530\Reference\Z-Stack Mesh
//        1.0.0\Projects\zstack\ZNP\CC253x\..\..\..\..\Components\hal\include\"
//        -I "D:\1.embedded\kit\cc2530\Reference\Z-Stack Mesh
//        1.0.0\Projects\zstack\ZNP\CC253x\..\..\..\..\Components\hal\target\CC2530ZNP\"
//        -I "D:\1.embedded\kit\cc2530\Reference\Z-Stack Mesh
//        1.0.0\Projects\zstack\ZNP\CC253x\..\..\..\..\Components\mac\include\"
//        -I "D:\1.embedded\kit\cc2530\Reference\Z-Stack Mesh
//        1.0.0\Projects\zstack\ZNP\CC253x\..\..\..\..\Components\mac\high_level\"
//        -I "D:\1.embedded\kit\cc2530\Reference\Z-Stack Mesh
//        1.0.0\Projects\zstack\ZNP\CC253x\..\..\..\..\Components\mac\low_level\srf04\"
//        -I "D:\1.embedded\kit\cc2530\Reference\Z-Stack Mesh
//        1.0.0\Projects\zstack\ZNP\CC253x\..\..\..\..\Components\mac\low_level\srf04\single_chip\"
//        -I "D:\1.embedded\kit\cc2530\Reference\Z-Stack Mesh
//        1.0.0\Projects\zstack\ZNP\CC253x\..\..\..\..\Components\mt\" -I
//        "D:\1.embedded\kit\cc2530\Reference\Z-Stack Mesh
//        1.0.0\Projects\zstack\ZNP\CC253x\..\..\..\..\Components\osal\include\"
//        -I "D:\1.embedded\kit\cc2530\Reference\Z-Stack Mesh
//        1.0.0\Projects\zstack\ZNP\CC253x\..\..\..\..\Components\services\saddr\"
//        -I "D:\1.embedded\kit\cc2530\Reference\Z-Stack Mesh
//        1.0.0\Projects\zstack\ZNP\CC253x\..\..\..\..\Components\services\sdata\"
//        -I "D:\1.embedded\kit\cc2530\Reference\Z-Stack Mesh
//        1.0.0\Projects\zstack\ZNP\CC253x\..\..\..\..\Components\stack\af\" -I
//        "D:\1.embedded\kit\cc2530\Reference\Z-Stack Mesh
//        1.0.0\Projects\zstack\ZNP\CC253x\..\..\..\..\Components\stack\nwk\"
//        -I "D:\1.embedded\kit\cc2530\Reference\Z-Stack Mesh
//        1.0.0\Projects\zstack\ZNP\CC253x\..\..\..\..\Components\stack\sapi\"
//        -I "D:\1.embedded\kit\cc2530\Reference\Z-Stack Mesh
//        1.0.0\Projects\zstack\ZNP\CC253x\..\..\..\..\Components\stack\sec\"
//        -I "D:\1.embedded\kit\cc2530\Reference\Z-Stack Mesh
//        1.0.0\Projects\zstack\ZNP\CC253x\..\..\..\..\Components\stack\sys\"
//        -I "D:\1.embedded\kit\cc2530\Reference\Z-Stack Mesh
//        1.0.0\Projects\zstack\ZNP\CC253x\..\..\..\..\Components\stack\zcl\"
//        -I "D:\1.embedded\kit\cc2530\Reference\Z-Stack Mesh
//        1.0.0\Projects\zstack\ZNP\CC253x\..\..\..\..\Components\stack\zdo\"
//        -I "D:\1.embedded\kit\cc2530\Reference\Z-Stack Mesh
//        1.0.0\Projects\zstack\ZNP\CC253x\..\..\..\..\Components\zmac\" -I
//        "D:\1.embedded\kit\cc2530\Reference\Z-Stack Mesh
//        1.0.0\Projects\zstack\ZNP\CC253x\..\..\..\..\Components\zmac\f8w\"
//        -Ohz --require_prototypes
//    List file          =  
//        D:\1.embedded\kit\cc2530\Reference\Z-Stack Mesh
//        1.0.0\Projects\zstack\ZNP\CC253x\CC2530-Debug\List\hal_sleep.s51
//
///////////////////////////////////////////////////////////////////////////////

        NAME hal_sleep

        RTMODEL "__SystemLibrary", "CLib"
        RTMODEL "__calling_convention", "xdata_reentrant"
        RTMODEL "__code_model", "banked"
        RTMODEL "__core", "plain"
        RTMODEL "__data_model", "large"
        RTMODEL "__dptr_size", "16"
        RTMODEL "__extended_stack", "disabled"
        RTMODEL "__location_for_constants", "data"
        RTMODEL "__number_of_dptrs", "1"
        RTMODEL "__rt_version", "1"

        RSEG DOVERLAY:DATA:NOROOT(0)
        RSEG IOVERLAY:IDATA:NOROOT(0)
        RSEG ISTACK:IDATA:NOROOT(0)
        RSEG PSTACK:XDATA:NOROOT(0)
        RSEG XSTACK:XDATA:NOROOT(0)

        EXTERN ?V0
        EXTERN ?V1
        EXTERN ?V2
        EXTERN ?V3
        EXTERN ?V4
        EXTERN ?V5
        EXTERN ?V6
        EXTERN ?V7
        EXTERN ?ALLOC_XSTACK8
        EXTERN ?BANKED_ENTER_XDATA
        EXTERN ?BANKED_LEAVE_XDATA
        EXTERN ?BDISPATCH
        EXTERN ?BRET
        EXTERN ?DEALLOC_XSTACK8
        EXTERN ?L_ADD_TO_X
        EXTERN ?L_ADD_X
        EXTERN ?L_MOV_TO_X
        EXTERN ?L_MOV_X
        EXTERN ?L_MUL
        EXTERN ?UL_GE_X
        EXTERN ?UL_GT
        EXTERN ?UL_GT_X
        EXTERN ?UL_SHR
        EXTERN ?XLOAD_R2345
        EXTERN ?XSP
        EXTERN ?XSTACK_DISP0_8
        EXTERN __INIT_DATA_I
        EXTERN __INIT_XDATA_I
        EXTERN __INIT_XDATA_Z

        PUBLIC `??TimerElapsed::?relay`
        FUNCTION `??TimerElapsed::?relay`,0203H
        PUBLIC `??halRestoreSleepLevel::?relay`
        FUNCTION `??halRestoreSleepLevel::?relay`,0203H
        PUBLIC `??halSetMaxSleepLoopTime::?relay`
        FUNCTION `??halSetMaxSleepLoopTime::?relay`,0203H
        PUBLIC `??halSetSleepMode::?relay`
        FUNCTION `??halSetSleepMode::?relay`,0203H
        PUBLIC `??halSleep::?relay`
        FUNCTION `??halSleep::?relay`,0203H
        PUBLIC `??halSleepSetTimer::?relay`
        FUNCTION `??halSleepSetTimer::?relay`,0203H
        PUBWEAK `??halSleepTimerIsr::??INTVEC 43`
        PUBWEAK IEN2
        PUBWEAK PCON
        PUBWEAK SLEEPCMD
        PUBWEAK ST0
        PUBWEAK ST1
        PUBWEAK ST2
        PUBWEAK STLOAD
        PUBLIC TimerElapsed
        FUNCTION TimerElapsed,0203H
        ARGFRAME XSTACK, 0, STACK
        PUBWEAK _A_IEN0
        PUBWEAK _A_IEN1
        PUBWEAK _A_IRCON
        PUBWEAK __Constant_185196
        PUBWEAK __Constant_185197
        PUBWEAK __Constant_1f
        PUBWEAK __Constant_29f
        PUBWEAK __Constant_64
        PUBWEAK __Constant_8
        PUBWEAK __Constant_ffe7ae6a
        PUBWEAK __Constant_ffffffe9
        PUBWEAK __Constant_fffffffe
        PUBLIC halRestoreSleepLevel
        FUNCTION halRestoreSleepLevel,0203H
        ARGFRAME XSTACK, 0, STACK
        PUBLIC halSetMaxSleepLoopTime
        FUNCTION halSetMaxSleepLoopTime,080203H
        ARGFRAME XSTACK, 0, STACK
        LOCFRAME XSTACK, 12, STACK
        PUBLIC halSetSleepMode
        FUNCTION halSetSleepMode,080203H
        ARGFRAME XSTACK, 16, STACK
        ARGFRAME IOVERLAY, 0, STATIC
        ARGFRAME DOVERLAY, 0, STATIC
        PUBLIC halSleep
        FUNCTION halSleep,0a1203H
        ARGFRAME XSTACK, 0, STACK
        LOCFRAME XSTACK, 16, STACK
        PUBLIC halSleepPconValue
        PUBLIC halSleepSetTimer
        FUNCTION halSleepSetTimer,080203H
        ARGFRAME XSTACK, 16, STACK
        ARGFRAME IOVERLAY, 0, STATIC
        ARGFRAME DOVERLAY, 0, STATIC
        LOCFRAME ISTACK, 1, STACK
        LOCFRAME XSTACK, 20, STACK
        PUBLIC halSleepTimerIsr
        FUNCTION halSleepTimerIsr,0233H
        ARGFRAME XSTACK, 0, STACK
        LOCFRAME ISTACK, 4, STACK
        
          CFI Names cfiNames0
          CFI StackFrame CFA_SP SP IDATA
          CFI StackFrame CFA_PSP16 PSP16 XDATA
          CFI StackFrame CFA_XSP16 XSP16 XDATA
          CFI StaticOverlayFrame CFA_IOVERLAY IOVERLAY
          CFI StaticOverlayFrame CFA_DOVERLAY DOVERLAY
          CFI Resource `PSW.CY`:1, `B.BR0`:1, `B.BR1`:1, `B.BR2`:1, `B.BR3`:1
          CFI Resource `B.BR4`:1, `B.BR5`:1, `B.BR6`:1, `B.BR7`:1, `VB.BR8`:1
          CFI Resource `VB.BR9`:1, `VB.BR10`:1, `VB.BR11`:1, `VB.BR12`:1
          CFI Resource `VB.BR13`:1, `VB.BR14`:1, `VB.BR15`:1, VB:8, B:8, A:8
          CFI Resource PSW:8, DPL0:8, DPH0:8, R0:8, R1:8, R2:8, R3:8, R4:8, R5:8
          CFI Resource R6:8, R7:8, V0:8, V1:8, V2:8, V3:8, V4:8, V5:8, V6:8, V7:8
          CFI Resource V8:8, V9:8, V10:8, V11:8, V12:8, V13:8, V14:8, V15:8, SP:8
          CFI Resource PSPH:8, PSPL:8, PSP16:16, XSPH:8, XSPL:8, XSP16:16
          CFI VirtualResource ?RET:24
          CFI Resource ?BRET_EXT:8
          CFI VirtualResource ?RET_HIGH:8, ?RET_LOW:8
          CFI ResourceParts PSP16 PSPH, PSPL
          CFI ResourceParts XSP16 XSPH, XSPL
          CFI ResourceParts ?RET ?BRET_EXT, ?RET_HIGH, ?RET_LOW
          CFI EndNames cfiNames0
        
          CFI Common cfiCommon0 Using cfiNames0
          CFI CodeAlign 1
          CFI DataAlign -1
          CFI ReturnAddress ?RET CODE
          CFI CFA_DOVERLAY Used
          CFI CFA_IOVERLAY Used
          CFI CFA_SP SP+-3
          CFI CFA_PSP16 PSP16+0
          CFI CFA_XSP16 XSP16+0
          CFI `PSW.CY` SameValue
          CFI `B.BR0` SameValue
          CFI `B.BR1` SameValue
          CFI `B.BR2` SameValue
          CFI `B.BR3` SameValue
          CFI `B.BR4` SameValue
          CFI `B.BR5` SameValue
          CFI `B.BR6` SameValue
          CFI `B.BR7` SameValue
          CFI `VB.BR8` SameValue
          CFI `VB.BR9` SameValue
          CFI `VB.BR10` SameValue
          CFI `VB.BR11` SameValue
          CFI `VB.BR12` SameValue
          CFI `VB.BR13` SameValue
          CFI `VB.BR14` SameValue
          CFI `VB.BR15` SameValue
          CFI VB SameValue
          CFI B Undefined
          CFI A Undefined
          CFI PSW SameValue
          CFI DPL0 SameValue
          CFI DPH0 SameValue
          CFI R0 Undefined
          CFI R1 Undefined
          CFI R2 Undefined
          CFI R3 Undefined
          CFI R4 Undefined
          CFI R5 Undefined
          CFI R6 SameValue
          CFI R7 SameValue
          CFI V0 SameValue
          CFI V1 SameValue
          CFI V2 SameValue
          CFI V3 SameValue
          CFI V4 SameValue
          CFI V5 SameValue
          CFI V6 SameValue
          CFI V7 SameValue
          CFI V8 SameValue
          CFI V9 SameValue
          CFI V10 SameValue
          CFI V11 SameValue
          CFI V12 SameValue
          CFI V13 SameValue
          CFI V14 SameValue
          CFI V15 SameValue
          CFI PSPH Undefined
          CFI PSPL Undefined
          CFI XSPH Undefined
          CFI XSPL Undefined
          CFI ?RET Concat
          CFI ?BRET_EXT Frame(CFA_SP, 3)
          CFI ?RET_HIGH Frame(CFA_SP, 2)
          CFI ?RET_LOW Frame(CFA_SP, 1)
          CFI EndCommon cfiCommon0
        
        
          CFI Common cfiCommon1 Using cfiNames0
          CFI CodeAlign 1
          CFI DataAlign -1
          CFI ReturnAddress ?RET CODE
          CFI CFA_DOVERLAY Used
          CFI CFA_IOVERLAY Used
          CFI CFA_SP SP+-2
          CFI CFA_PSP16 PSP16+0
          CFI CFA_XSP16 XSP16+0
          CFI `PSW.CY` SameValue
          CFI `B.BR0` SameValue
          CFI `B.BR1` SameValue
          CFI `B.BR2` SameValue
          CFI `B.BR3` SameValue
          CFI `B.BR4` SameValue
          CFI `B.BR5` SameValue
          CFI `B.BR6` SameValue
          CFI `B.BR7` SameValue
          CFI `VB.BR8` SameValue
          CFI `VB.BR9` SameValue
          CFI `VB.BR10` SameValue
          CFI `VB.BR11` SameValue
          CFI `VB.BR12` SameValue
          CFI `VB.BR13` SameValue
          CFI `VB.BR14` SameValue
          CFI `VB.BR15` SameValue
          CFI VB SameValue
          CFI B SameValue
          CFI A SameValue
          CFI PSW SameValue
          CFI DPL0 SameValue
          CFI DPH0 SameValue
          CFI R0 SameValue
          CFI R1 SameValue
          CFI R2 SameValue
          CFI R3 SameValue
          CFI R4 SameValue
          CFI R5 SameValue
          CFI R6 SameValue
          CFI R7 SameValue
          CFI V0 SameValue
          CFI V1 SameValue
          CFI V2 SameValue
          CFI V3 SameValue
          CFI V4 SameValue
          CFI V5 SameValue
          CFI V6 SameValue
          CFI V7 SameValue
          CFI V8 SameValue
          CFI V9 SameValue
          CFI V10 SameValue
          CFI V11 SameValue
          CFI V12 SameValue
          CFI V13 SameValue
          CFI V14 SameValue
          CFI V15 SameValue
          CFI PSPH Undefined
          CFI PSPL Undefined
          CFI XSPH Undefined
          CFI XSPL Undefined
          CFI ?RET Concat
          CFI ?BRET_EXT SameValue
          CFI ?RET_HIGH Frame(CFA_SP, 2)
          CFI ?RET_LOW Frame(CFA_SP, 1)
          CFI EndCommon cfiCommon1
        
HalLedEnterSleep    SYMBOL "HalLedEnterSleep"
`??HalLedEnterSleep::?relay` SYMBOL "?relay", HalLedEnterSleep
HalLedExitSleep     SYMBOL "HalLedExitSleep"
`??HalLedExitSleep::?relay` SYMBOL "?relay", HalLedExitSleep
HalUARTResume       SYMBOL "HalUARTResume"
`??HalUARTResume::?relay` SYMBOL "?relay", HalUARTResume
HalUARTSuspend      SYMBOL "HalUARTSuspend"
`??HalUARTSuspend::?relay` SYMBOL "?relay", HalUARTSuspend
MAC_PwrNextTimeout  SYMBOL "MAC_PwrNextTimeout"
`??MAC_PwrNextTimeout::?relay` SYMBOL "?relay", MAC_PwrNextTimeout
MAC_PwrOffReq       SYMBOL "MAC_PwrOffReq"
`??MAC_PwrOffReq::?relay` SYMBOL "?relay", MAC_PwrOffReq
MAC_PwrOnReq        SYMBOL "MAC_PwrOnReq"
`??MAC_PwrOnReq::?relay` SYMBOL "?relay", MAC_PwrOnReq
halAssertHandler    SYMBOL "halAssertHandler"
`??halAssertHandler::?relay` SYMBOL "?relay", halAssertHandler
macMcuTimer2OverflowWorkaround SYMBOL "macMcuTimer2OverflowWorkaround"
`??macMcuTimer2OverflowWorkaround::?relay` SYMBOL "?relay", macMcuTimer2OverflowWorkaround
TimerElapsed        SYMBOL "TimerElapsed"
`??TimerElapsed::?relay` SYMBOL "?relay", TimerElapsed
halRestoreSleepLevel SYMBOL "halRestoreSleepLevel"
`??halRestoreSleepLevel::?relay` SYMBOL "?relay", halRestoreSleepLevel
halSetMaxSleepLoopTime SYMBOL "halSetMaxSleepLoopTime"
`??halSetMaxSleepLoopTime::?relay` SYMBOL "?relay", halSetMaxSleepLoopTime
halSetSleepMode     SYMBOL "halSetSleepMode"
`??halSetSleepMode::?relay` SYMBOL "?relay", halSetSleepMode
halSleep            SYMBOL "halSleep"
`??halSleep::?relay` SYMBOL "?relay", halSleep
halSleepSetTimer    SYMBOL "halSleepSetTimer"
`??halSleepSetTimer::?relay` SYMBOL "?relay", halSleepSetTimer
halSleepTimerIsr    SYMBOL "halSleepTimerIsr"
`??halSleepTimerIsr::??INTVEC 43` SYMBOL "??INTVEC 43", halSleepTimerIsr

        EXTERN `??HalLedEnterSleep::?relay`
        FUNCTION `??HalLedEnterSleep::?relay`,00H
        EXTERN `??HalLedExitSleep::?relay`
        FUNCTION `??HalLedExitSleep::?relay`,00H
        EXTERN `??HalUARTResume::?relay`
        FUNCTION `??HalUARTResume::?relay`,00H
        EXTERN `??HalUARTSuspend::?relay`
        FUNCTION `??HalUARTSuspend::?relay`,00H
        EXTERN `??MAC_PwrNextTimeout::?relay`
        FUNCTION `??MAC_PwrNextTimeout::?relay`,00H
        EXTERN `??MAC_PwrOffReq::?relay`
        FUNCTION `??MAC_PwrOffReq::?relay`,00H
        EXTERN `??MAC_PwrOnReq::?relay`
        FUNCTION `??MAC_PwrOnReq::?relay`,00H
        EXTERN `??halAssertHandler::?relay`
        FUNCTION `??halAssertHandler::?relay`,00H
        EXTERN `??macMcuTimer2OverflowWorkaround::?relay`
        FUNCTION `??macMcuTimer2OverflowWorkaround::?relay`,00H
        EXTERN HalLedEnterSleep
        FUNCTION HalLedEnterSleep,0202H
        ARGFRAME ISTACK, 0, STACK
        ARGFRAME PSTACK, 0, STACK
        ARGFRAME XSTACK, 16, STACK
        ARGFRAME IOVERLAY, 0, STATIC
        ARGFRAME DOVERLAY, 0, STATIC
        EXTERN HalLedExitSleep
        FUNCTION HalLedExitSleep,0202H
        ARGFRAME ISTACK, 0, STACK
        ARGFRAME PSTACK, 0, STACK
        ARGFRAME XSTACK, 16, STACK
        ARGFRAME IOVERLAY, 0, STATIC
        ARGFRAME DOVERLAY, 0, STATIC
        EXTERN HalUARTResume
        FUNCTION HalUARTResume,0202H
        ARGFRAME ISTACK, 0, STACK
        ARGFRAME PSTACK, 0, STACK
        ARGFRAME XSTACK, 16, STACK
        ARGFRAME IOVERLAY, 0, STATIC
        ARGFRAME DOVERLAY, 0, STATIC
        EXTERN HalUARTSuspend
        FUNCTION HalUARTSuspend,0202H
        ARGFRAME ISTACK, 0, STACK
        ARGFRAME PSTACK, 0, STACK
        ARGFRAME XSTACK, 16, STACK
        ARGFRAME IOVERLAY, 0, STATIC
        ARGFRAME DOVERLAY, 0, STATIC
        EXTERN MAC_PwrNextTimeout
        FUNCTION MAC_PwrNextTimeout,0202H
        ARGFRAME ISTACK, 0, STACK
        ARGFRAME PSTACK, 0, STACK
        ARGFRAME XSTACK, 16, STACK
        ARGFRAME IOVERLAY, 0, STATIC
        ARGFRAME DOVERLAY, 0, STATIC
        EXTERN MAC_PwrOffReq
        FUNCTION MAC_PwrOffReq,0202H
        ARGFRAME ISTACK, 0, STACK
        ARGFRAME PSTACK, 0, STACK
        ARGFRAME XSTACK, 16, STACK
        ARGFRAME IOVERLAY, 0, STATIC
        ARGFRAME DOVERLAY, 0, STATIC
        EXTERN MAC_PwrOnReq
        FUNCTION MAC_PwrOnReq,0202H
        ARGFRAME ISTACK, 0, STACK
        ARGFRAME PSTACK, 0, STACK
        ARGFRAME XSTACK, 16, STACK
        ARGFRAME IOVERLAY, 0, STATIC
        ARGFRAME DOVERLAY, 0, STATIC
        EXTERN halAssertHandler
        FUNCTION halAssertHandler,0202H
        ARGFRAME ISTACK, 0, STACK
        ARGFRAME PSTACK, 0, STACK
        ARGFRAME XSTACK, 16, STACK
        ARGFRAME IOVERLAY, 0, STATIC
        ARGFRAME DOVERLAY, 0, STATIC
        EXTERN macMcuTimer2OverflowWorkaround
        FUNCTION macMcuTimer2OverflowWorkaround,0202H
        ARGFRAME ISTACK, 0, STACK
        ARGFRAME PSTACK, 0, STACK
        ARGFRAME XSTACK, 16, STACK
        ARGFRAME IOVERLAY, 0, STATIC
        ARGFRAME DOVERLAY, 0, STATIC
        EXTERN zgPollRate
        EXTERN znpCfg1

// D:\1.embedded\kit\cc2530\Reference\Z-Stack Mesh 1.0.0\Components\hal\target\CC2530ZNP\hal_sleep.c
//    1 /**************************************************************************************************
//    2   Filename:       hal_sleep.c
//    3   Revised:        $Date: 2012-03-27 13:03:05 -0700 (Tue, 27 Mar 2012) $
//    4   Revision:       $Revision: 29907 $
//    5 
//    6   Description:    This module contains the HAL power management procedures for the CC2530.
//    7 
//    8 
//    9   Copyright 2006-2012 Texas Instruments Incorporated. All rights reserved.
//   10 
//   11   IMPORTANT: Your use of this Software is limited to those specific rights
//   12   granted under the terms of a software license agreement between the user
//   13   who downloaded the software, his/her employer (which must be your employer)
//   14   and Texas Instruments Incorporated (the "License"). You may not use this
//   15   Software unless you agree to abide by the terms of the License. The License
//   16   limits your use, and you acknowledge, that the Software may not be modified,
//   17   copied or distributed unless embedded on a Texas Instruments microcontroller
//   18   or used solely and exclusively in conjunction with a Texas Instruments radio
//   19   frequency transceiver, which is integrated into your product. Other than for
//   20   the foregoing purpose, you may not use, reproduce, copy, prepare derivative
//   21   works of, modify, distribute, perform, display or sell this Software and/or
//   22   its documentation for any purpose.
//   23 
//   24   YOU FURTHER ACKNOWLEDGE AND AGREE THAT THE SOFTWARE AND DOCUMENTATION ARE
//   25   PROVIDED “AS IS” WITHOUT WARRANTY OF ANY KIND, EITHER EXPRESS OR IMPLIED,
//   26   INCLUDING WITHOUT LIMITATION, ANY WARRANTY OF MERCHANTABILITY, TITLE,
//   27   NON-INFRINGEMENT AND FITNESS FOR A PARTICULAR PURPOSE. IN NO EVENT SHALL
//   28   TEXAS INSTRUMENTS OR ITS LICENSORS BE LIABLE OR OBLIGATED UNDER CONTRACT,
//   29   NEGLIGENCE, STRICT LIABILITY, CONTRIBUTION, BREACH OF WARRANTY, OR OTHER
//   30   LEGAL EQUITABLE THEORY ANY DIRECT OR INDIRECT DAMAGES OR EXPENSES
//   31   INCLUDING BUT NOT LIMITED TO ANY INCIDENTAL, SPECIAL, INDIRECT, PUNITIVE
//   32   OR CONSEQUENTIAL DAMAGES, LOST PROFITS OR LOST DATA, COST OF PROCUREMENT
//   33   OF SUBSTITUTE GOODS, TECHNOLOGY, SERVICES, OR ANY CLAIMS BY THIRD PARTIES
//   34   (INCLUDING BUT NOT LIMITED TO ANY DEFENSE THEREOF), OR OTHER SIMILAR COSTS.
//   35 
//   36   Should you have any questions regarding your right to use this Software,
//   37   contact Texas Instruments Incorporated at www.TI.com.
//   38 **************************************************************************************************/
//   39 
//   40 /* ------------------------------------------------------------------------------------------------
//   41  *                                          Includes
//   42  * ------------------------------------------------------------------------------------------------
//   43  */
//   44 #include "hal_types.h"
//   45 #include "hal_mcu.h"

        ASEGN SFR_AN:DATA:NOROOT,087H
// unsigned char volatile __sfr PCON
PCON:
        DATA8
        DS 1

        ASEGN SFR_AN:DATA:NOROOT,095H
// unsigned char volatile __sfr ST0
ST0:
        DATA8
        DS 1

        ASEGN SFR_AN:DATA:NOROOT,096H
// unsigned char volatile __sfr ST1
ST1:
        DATA8
        DS 1

        ASEGN SFR_AN:DATA:NOROOT,097H
// unsigned char volatile __sfr ST2
ST2:
        DATA8
        DS 1

        ASEGN SFR_AN:DATA:NOROOT,09aH
// unsigned char volatile __sfr IEN2
IEN2:
        DATA8
        DS 1

        ASEGN SFR_AN:DATA:NOROOT,0a8H
// union <unnamed> volatile __sfr _A_IEN0
_A_IEN0:
        DATA8
        DS 1

        ASEGN SFR_AN:DATA:NOROOT,0adH
// unsigned char volatile __sfr STLOAD
STLOAD:
        DATA8
        DS 1

        ASEGN SFR_AN:DATA:NOROOT,0b8H
// union <unnamed> volatile __sfr _A_IEN1
_A_IEN1:
        DATA8
        DS 1

        ASEGN SFR_AN:DATA:NOROOT,0beH
// unsigned char volatile __sfr SLEEPCMD
SLEEPCMD:
        DATA8
        DS 1

        ASEGN SFR_AN:DATA:NOROOT,0c0H
// union <unnamed> volatile __sfr _A_IRCON
_A_IRCON:
        DATA8
        DS 1
//   46 #include "hal_board.h"
//   47 #include "hal_sleep.h"
//   48 #include "hal_led.h"
//   49 #include "hal_key.h"
//   50 #include "mac_api.h"
//   51 #include "OSAL.h"
//   52 #include "OSAL_Timers.h"
//   53 #include "OSAL_Tasks.h"
//   54 #include "OSAL_PwrMgr.h"
//   55 #include "OnBoard.h"
//   56 #include "hal_drivers.h"
//   57 #include "hal_assert.h"
//   58 #include "mac_mcu.h"
//   59 #include "ZGlobals.h"
//   60 #include "hal_uart.h"
//   61 
//   62 #if !defined ZG_BUILD_ENDDEVICE_TYPE
//   63 #define ZG_BUILD_ENDDEVICE_TYPE FALSE
//   64 #endif
//   65 
//   66 #if ZG_BUILD_ENDDEVICE_TYPE && defined (NWK_AUTO_POLL)
//   67 #include "nwk_globals.h"
//   68 #include "ZGlobals.h"
//   69 #endif
//   70 
//   71 /* ------------------------------------------------------------------------------------------------
//   72  *                                           Macros
//   73  * ------------------------------------------------------------------------------------------------
//   74  */
//   75 
//   76 /* POWER CONSERVATION DEFINITIONS
//   77  * Sleep mode H/W definitions (enabled with POWER_SAVING compile option)
//   78  */
//   79 #define CC2530_PM0            0  /* PM0, Clock oscillators on, voltage regulator on */
//   80 #define CC2530_PM1            1  /* PM1, 32.768 kHz oscillators on, voltage regulator on */
//   81 #define CC2530_PM2            2  /* PM2, 32.768 kHz oscillators on, voltage regulator off */
//   82 #define CC2530_PM3            3  /* PM3, All clock oscillators off, voltage regulator off */
//   83 
//   84 /* HAL power management mode is set according to the power management state. The default
//   85  * setting is HAL_SLEEP_OFF. The actual value is tailored to different HW platform. Both
//   86  * HAL_SLEEP_TIMER and HAL_SLEEP_DEEP selections will:
//   87  *   1. turn off the system clock, and
//   88  *   2. halt the MCU.
//   89  * HAL_SLEEP_TIMER can be woken up by sleep timer interrupt, I/O interrupt and reset.
//   90  * HAL_SLEEP_DEEP can be woken up by I/O interrupt and reset.
//   91  */
//   92 #define HAL_SLEEP_OFF         CC2530_PM0
//   93 #define HAL_SLEEP_TIMER       CC2530_PM2
//   94 #define HAL_SLEEP_DEEP        CC2530_PM3
//   95 
//   96 /* MAX_SLEEP_TIME calculation:
//   97  *   Sleep timer maximum duration = 0xFFFF7F / 32768 Hz = 511.996 seconds
//   98  *   Round it to 510 seconds or 510000 ms
//   99  */
//  100 #define MAX_SLEEP_TIME                   510000             /* maximum time to sleep allowed by ST */
//  101 #define TICKS_SUBTRACTED                 2
//  102 
//  103 /* 
//  104  * Choosing value to be lower than MAC_BACKOFF_TIMER_DEFAULT_NONBEACON_ROLLOVER
//  105  *  The unit is in ms. The back off timer rollover should be greater 
//  106  * than the value below
//  107  */ 
//  108 #define MAX_SLEEP_LOOP_TIME              0x510000           /* ~84 minutes */ 
//  109 #define TICKS_SUBTRACTED                 2
//  110 
//  111 /* minimum time to sleep, this macro is to:
//  112  * 1. avoid thrashing in-and-out of sleep with short OSAL timer (~2ms)
//  113  * 2. define minimum safe sleep period
//  114  */
//  115 #if !defined (PM_MIN_SLEEP_TIME)
//  116 #define PM_MIN_SLEEP_TIME                2                  /* default to minimum safe sleep time minimum CAP */
//  117 #endif
//  118 
//  119 /* The PCON instruction must be 4-byte aligned. The following code may cause excessive power
//  120  * consumption if not aligned. See linker file ".xcl" for actual placement.
//  121  */
//  122 #pragma location = "SLEEP_CODE"
//  123 void halSetSleepMode(void);
//  124 
//  125 /* This value is used to adjust the sleep timer compare value such that the sleep timer
//  126  * compare takes into account the amount of processing time spent in function halSleep().
//  127  * The first value is determined by measuring the number of sleep timer ticks it from
//  128  * the beginning of the function to entering sleep mode or more precisely, when
//  129  * MAC_PwrNextTimeout() is called.  The second value is determined by measuring the number
//  130  * of sleep timer ticks from exit of sleep mode to the call to MAC_PwrOnReq() where the
//  131  * MAC timer is restarted.
//  132  */
//  133 #define HAL_SLEEP_ADJ_TICKS   (11 + 12)
//  134 
//  135 #ifndef HAL_SLEEP_DEBUG_POWER_MODE
//  136 /* set CC2530 power mode; always use PM2 */
//  137 #define HAL_SLEEP_PREP_POWER_MODE(mode)     st( SLEEPCMD &= ~PMODE; /* clear mode bits */    \ 
//  138                                                 SLEEPCMD |= mode;   /* set mode bits   */    \ 
//  139                                                 while (!(STLOAD & LDRDY));                   \ 
//  140                                                 halSleepPconValue = PCON_IDLE;               \ 
//  141                                               )
//  142 #define HAL_SLEEP_SET_POWER_MODE()          halSetSleepMode()
//  143 #else
//  144 /* Debug: don't set power mode, just block until sleep timer interrupt */
//  145 #define HAL_SLEEP_PREP_POWER_MODE(mode)     /* nothing */
//  146 #define HAL_SLEEP_SET_POWER_MODE()          st( while(halSleepInt == FALSE); \ 
//  147                                                 halSleepInt = FALSE;         \ 
//  148                                                 HAL_DISABLE_INTERRUPTS();    \ 
//  149                                               )
//  150 #endif
//  151 
//  152 /* sleep and external interrupt port masks */
//  153 #define STIE_BV                             BV(5)
//  154 #define P0IE_BV                             BV(5)
//  155 #define P1IE_BV                             BV(4)
//  156 #define P2IE_BV                             BV(1)
//  157 
//  158 /* sleep timer interrupt control */
//  159 #define HAL_SLEEP_TIMER_ENABLE_INT()        st(IEN0 |= STIE_BV;)     /* enable sleep timer interrupt */
//  160 #define HAL_SLEEP_TIMER_DISABLE_INT()       st(IEN0 &= ~STIE_BV;)    /* disable sleep timer interrupt */
//  161 #define HAL_SLEEP_TIMER_CLEAR_INT()         st(STIF = 0;)            /* clear sleep interrupt flag */
//  162 
//  163 /* backup interrupt enable registers before sleep */
//  164 #define HAL_SLEEP_IE_BACKUP_AND_DISABLE(ien0, ien1, ien2) st(ien0  = IEN0;    /* backup IEN0 register */ \ 
//  165                                                              ien1  = IEN1;    /* backup IEN1 register */ \ 
//  166                                                              ien2  = IEN2;    /* backup IEN2 register */ \ 
//  167                                                              IEN0 &= STIE_BV; /* disable IEN0 except STIE */ \ 
//  168                                                              IEN1 &= P0IE_BV; /* disable IEN1 except P0IE */ \ 
//  169                                                              IEN2 &= (P1IE_BV|P2IE_BV);) /* disable IEN2 except P1IE, P2IE */
//  170 
//  171 /* restore interrupt enable registers before sleep */
//  172 #define HAL_SLEEP_IE_RESTORE(ien0, ien1, ien2) st(IEN0 = ien0;   /* restore IEN0 register */ \ 
//  173                                                   IEN1 = ien1;   /* restore IEN1 register */ \ 
//  174                                                   IEN2 = ien2;)  /* restore IEN2 register */
//  175 
//  176 /* convert msec to 320 usec units with round */
//  177 #define HAL_SLEEP_MS_TO_320US(ms)           (((((uint32) (ms)) * 100) + 31) / 32)
//  178 
//  179 /* for optimized indexing of uint32's */
//  180 #if HAL_MCU_LITTLE_ENDIAN()
//  181 #define UINT32_NDX0   0
//  182 #define UINT32_NDX1   1
//  183 #define UINT32_NDX2   2
//  184 #define UINT32_NDX3   3
//  185 #else
//  186 #define UINT32_NDX0   3
//  187 #define UINT32_NDX1   2
//  188 #define UINT32_NDX2   1
//  189 #define UINT32_NDX3   0
//  190 #endif
//  191 
//  192 /* ------------------------------------------------------------------------------------------------
//  193  *                                        Global Variables
//  194  * ------------------------------------------------------------------------------------------------
//  195  */
//  196 /* PCON register value to program when setting power mode */

        RSEG DATA_I:DATA:NOROOT(0)
//  197 volatile __data uint8 halSleepPconValue = PCON_IDLE;
halSleepPconValue:
        DATA8
        DS 1
        REQUIRE `?<Initializer for halSleepPconValue>`
        REQUIRE __INIT_DATA_I
//  198 

        RSEG XDATA_I:XDATA:NOROOT(0)
//  199 static uint32 maxSleepLoopTime =  HAL_SLEEP_MS_TO_320US(MAX_SLEEP_TIME);
maxSleepLoopTime:
        DATA32
        DS 4
        REQUIRE `?<Initializer for maxSleepLoopTime>`
        REQUIRE __INIT_XDATA_I
//  200 
//  201 /* ------------------------------------------------------------------------------------------------
//  202  *                                        Local Variables
//  203  * ------------------------------------------------------------------------------------------------
//  204  */
//  205 
//  206 /* HAL power management mode is set according to the power management state.
//  207  */

        RSEG XDATA_Z:XDATA:NOROOT(0)
        DATA8
//  208 static uint8 halPwrMgtMode = HAL_SLEEP_OFF;
halPwrMgtMode:
        DS 1
        REQUIRE __INIT_XDATA_Z
//  209 
//  210 #ifdef HAL_SLEEP_DEBUG_POWER_MODE
//  211 static bool halSleepInt = FALSE;
//  212 #endif
//  213 
//  214 /* ------------------------------------------------------------------------------------------------
//  215  *                                      Function Prototypes
//  216  * ------------------------------------------------------------------------------------------------
//  217  */
//  218 
//  219 void halSleepSetTimer(uint32 timeout);
//  220 
//  221 /**************************************************************************************************
//  222  * @fn          halSetSleepMode
//  223  *
//  224  * @brief       This function put the CC2530 to sleep. The PCON instruction must be 4-byte aligned.
//  225  *              The following code may cause excessive power consumption if not aligned. See linker
//  226  *              file ".xcl" for actual placement.
//  227  *
//  228  * input parameters
//  229  *
//  230  * @param       None.
//  231  *
//  232  * output parameters
//  233  *
//  234  * None.
//  235  *
//  236  * @return      None.
//  237  **************************************************************************************************
//  238  */

        RSEG SLEEP_CODE:CODE:NOROOT(0)
//  239 void halSetSleepMode(void)
halSetSleepMode:
          CFI Block cfiBlock0 Using cfiCommon0
          CFI Function halSetSleepMode
        CODE
//  240 {
        ; Saved register size: 0
        ; Auto size: 0
//  241   PCON = halSleepPconValue;
        MOV     0x87,halSleepPconValue
//  242   asm("NOP");
        NOP
//  243 }
        LJMP    ?BRET
          CFI EndBlock cfiBlock0
        REQUIRE PCON
//  244 
//  245 /**************************************************************************************************
//  246  * @fn          halSetMaxSleepLoopTime
//  247  *
//  248  * @brief       This function is to used to setup the maximum sleep loop time. This sleep loop time 
//  249  *              should be lesser than T2 rollover so that a maximum of only one rollover occurs 
//  250  *              when cc2530 is in sleep. This function should be called whenever rolloverTime is 
//  251  *              changed using the function macBackoffTimerSetRollover(macTimerRollover);
//  252  *
//  253  * input parameters
//  254  *
//  255  * @param       rolloverTime.
//  256  *
//  257  * output parameters
//  258  *
//  259  * None.
//  260  *
//  261  * @return      None.
//  262  **************************************************************************************************
//  263  */

        RSEG BANKED_CODE:CODE:NOROOT(0)
//  264 void halSetMaxSleepLoopTime(uint32 rolloverTime)
halSetMaxSleepLoopTime:
          CFI Block cfiBlock1 Using cfiCommon0
          CFI Function halSetMaxSleepLoopTime
        CODE
//  265 {
        REQUIRE ?V0
        REQUIRE ?V1
        REQUIRE ?V2
        REQUIRE ?V3
        MOV     A,#-0xc
        LCALL   ?BANKED_ENTER_XDATA
          CFI DPH0 load(1, XDATA, add(CFA_XSP16, literal(-1)))
          CFI DPL0 load(1, XDATA, add(CFA_XSP16, literal(-2)))
          CFI ?BRET_EXT load(1, XDATA, add(CFA_XSP16, literal(-3)))
          CFI ?RET_HIGH load(1, XDATA, add(CFA_XSP16, literal(-4)))
          CFI ?RET_LOW load(1, XDATA, add(CFA_XSP16, literal(-5)))
          CFI R7 load(1, XDATA, add(CFA_XSP16, literal(-6)))
          CFI V3 load(1, XDATA, add(CFA_XSP16, literal(-7)))
          CFI V2 load(1, XDATA, add(CFA_XSP16, literal(-8)))
          CFI V1 load(1, XDATA, add(CFA_XSP16, literal(-9)))
          CFI V0 load(1, XDATA, add(CFA_XSP16, literal(-10)))
          CFI VB load(1, XDATA, add(CFA_XSP16, literal(-11)))
          CFI R6 load(1, XDATA, add(CFA_XSP16, literal(-12)))
          CFI CFA_SP SP+0
          CFI CFA_XSP16 add(XSP16, 12)
        ; Saved register size: 12
        ; Auto size: 0
        MOV     ?V0,R2
        MOV     ?V1,R3
        MOV     ?V2,R4
        MOV     ?V3,R5
//  266   if( rolloverTime > HAL_SLEEP_MS_TO_320US(MAX_SLEEP_TIME) )
//  267   {
//  268     maxSleepLoopTime = HAL_SLEEP_MS_TO_320US(MAX_SLEEP_TIME);
//  269   }
//  270   maxSleepLoopTime = (rolloverTime - TICKS_SUBTRACTED);
        MOV     DPTR,#__Constant_fffffffe
        MOV     R0,#?V0
        LCALL   ?L_ADD_X
        MOV     DPTR,#maxSleepLoopTime
        MOV     R0,#?V0
        LCALL   ?L_MOV_TO_X
//  271 }
        MOV     R7,#0x4
        LJMP    ?BANKED_LEAVE_XDATA
          CFI EndBlock cfiBlock1
//  272 
//  273 /**************************************************************************************************
//  274  * @fn          halSleep
//  275  *
//  276  * @brief       This function is called from the OSAL task loop using and existing OSAL
//  277  *              interface.  It sets the low power mode of the MAC and the CC2530.
//  278  *
//  279  * input parameters
//  280  *
//  281  * @param       osal_timeout - Next OSAL timer timeout.
//  282  *
//  283  * output parameters
//  284  *
//  285  * None.
//  286  *
//  287  * @return      None.
//  288  **************************************************************************************************
//  289  */

        RSEG BANKED_CODE:CODE:NOROOT(0)
//  290 void halSleep( uint32 osal_timeout )
halSleep:
          CFI Block cfiBlock2 Using cfiCommon0
          CFI Function halSleep
        CODE
//  291 {
        FUNCALL halSleep, MAC_PwrNextTimeout
        LOCFRAME ISTACK, 0, STACK
        LOCFRAME PSTACK, 0, STACK
        LOCFRAME XSTACK, 16, STACK
        LOCFRAME IOVERLAY, 0, STATIC
        LOCFRAME DOVERLAY, 0, STATIC
        ARGFRAME ISTACK, 0, STACK
        ARGFRAME PSTACK, 0, STACK
        ARGFRAME XSTACK, 16, STACK
        ARGFRAME IOVERLAY, 0, STATIC
        ARGFRAME DOVERLAY, 0, STATIC
        FUNCALL halSleep, MAC_PwrNextTimeout
        LOCFRAME ISTACK, 0, STACK
        LOCFRAME PSTACK, 0, STACK
        LOCFRAME XSTACK, 16, STACK
        LOCFRAME IOVERLAY, 0, STATIC
        LOCFRAME DOVERLAY, 0, STATIC
        ARGFRAME ISTACK, 0, STACK
        ARGFRAME PSTACK, 0, STACK
        ARGFRAME XSTACK, 16, STACK
        ARGFRAME IOVERLAY, 0, STATIC
        ARGFRAME DOVERLAY, 0, STATIC
        FUNCALL halSleep, halAssertHandler
        LOCFRAME ISTACK, 0, STACK
        LOCFRAME PSTACK, 0, STACK
        LOCFRAME XSTACK, 16, STACK
        LOCFRAME IOVERLAY, 0, STATIC
        LOCFRAME DOVERLAY, 0, STATIC
        ARGFRAME ISTACK, 0, STACK
        ARGFRAME PSTACK, 0, STACK
        ARGFRAME XSTACK, 16, STACK
        ARGFRAME IOVERLAY, 0, STATIC
        ARGFRAME DOVERLAY, 0, STATIC
        FUNCALL halSleep, MAC_PwrOffReq
        LOCFRAME ISTACK, 0, STACK
        LOCFRAME PSTACK, 0, STACK
        LOCFRAME XSTACK, 16, STACK
        LOCFRAME IOVERLAY, 0, STATIC
        LOCFRAME DOVERLAY, 0, STATIC
        ARGFRAME ISTACK, 0, STACK
        ARGFRAME PSTACK, 0, STACK
        ARGFRAME XSTACK, 16, STACK
        ARGFRAME IOVERLAY, 0, STATIC
        ARGFRAME DOVERLAY, 0, STATIC
        FUNCALL halSleep, HalLedEnterSleep
        LOCFRAME ISTACK, 0, STACK
        LOCFRAME PSTACK, 0, STACK
        LOCFRAME XSTACK, 16, STACK
        LOCFRAME IOVERLAY, 0, STATIC
        LOCFRAME DOVERLAY, 0, STATIC
        ARGFRAME ISTACK, 0, STACK
        ARGFRAME PSTACK, 0, STACK
        ARGFRAME XSTACK, 16, STACK
        ARGFRAME IOVERLAY, 0, STATIC
        ARGFRAME DOVERLAY, 0, STATIC
        FUNCALL halSleep, halSleepSetTimer
        LOCFRAME ISTACK, 0, STACK
        LOCFRAME PSTACK, 0, STACK
        LOCFRAME XSTACK, 16, STACK
        LOCFRAME IOVERLAY, 0, STATIC
        LOCFRAME DOVERLAY, 0, STATIC
        ARGFRAME ISTACK, 0, STACK
        ARGFRAME PSTACK, 0, STACK
        ARGFRAME XSTACK, 16, STACK
        ARGFRAME IOVERLAY, 0, STATIC
        ARGFRAME DOVERLAY, 0, STATIC
        FUNCALL halSleep, halSleepSetTimer
        LOCFRAME ISTACK, 0, STACK
        LOCFRAME PSTACK, 0, STACK
        LOCFRAME XSTACK, 16, STACK
        LOCFRAME IOVERLAY, 0, STATIC
        LOCFRAME DOVERLAY, 0, STATIC
        ARGFRAME ISTACK, 0, STACK
        ARGFRAME PSTACK, 0, STACK
        ARGFRAME XSTACK, 16, STACK
        ARGFRAME IOVERLAY, 0, STATIC
        ARGFRAME DOVERLAY, 0, STATIC
        FUNCALL halSleep, HalUARTSuspend
        LOCFRAME ISTACK, 0, STACK
        LOCFRAME PSTACK, 0, STACK
        LOCFRAME XSTACK, 16, STACK
        LOCFRAME IOVERLAY, 0, STATIC
        LOCFRAME DOVERLAY, 0, STATIC
        ARGFRAME ISTACK, 0, STACK
        ARGFRAME PSTACK, 0, STACK
        ARGFRAME XSTACK, 16, STACK
        ARGFRAME IOVERLAY, 0, STATIC
        ARGFRAME DOVERLAY, 0, STATIC
        FUNCALL halSleep, halSetSleepMode
        LOCFRAME ISTACK, 0, STACK
        LOCFRAME PSTACK, 0, STACK
        LOCFRAME XSTACK, 16, STACK
        LOCFRAME IOVERLAY, 0, STATIC
        LOCFRAME DOVERLAY, 0, STATIC
        ARGFRAME ISTACK, 0, STACK
        ARGFRAME PSTACK, 0, STACK
        ARGFRAME XSTACK, 16, STACK
        ARGFRAME IOVERLAY, 0, STATIC
        ARGFRAME DOVERLAY, 0, STATIC
        FUNCALL halSleep, HalUARTResume
        LOCFRAME ISTACK, 0, STACK
        LOCFRAME PSTACK, 0, STACK
        LOCFRAME XSTACK, 16, STACK
        LOCFRAME IOVERLAY, 0, STATIC
        LOCFRAME DOVERLAY, 0, STATIC
        ARGFRAME ISTACK, 0, STACK
        ARGFRAME PSTACK, 0, STACK
        ARGFRAME XSTACK, 16, STACK
        ARGFRAME IOVERLAY, 0, STATIC
        ARGFRAME DOVERLAY, 0, STATIC
        FUNCALL halSleep, HalLedExitSleep
        LOCFRAME ISTACK, 0, STACK
        LOCFRAME PSTACK, 0, STACK
        LOCFRAME XSTACK, 16, STACK
        LOCFRAME IOVERLAY, 0, STATIC
        LOCFRAME DOVERLAY, 0, STATIC
        ARGFRAME ISTACK, 0, STACK
        ARGFRAME PSTACK, 0, STACK
        ARGFRAME XSTACK, 16, STACK
        ARGFRAME IOVERLAY, 0, STATIC
        ARGFRAME DOVERLAY, 0, STATIC
        FUNCALL halSleep, MAC_PwrOnReq
        LOCFRAME ISTACK, 0, STACK
        LOCFRAME PSTACK, 0, STACK
        LOCFRAME XSTACK, 16, STACK
        LOCFRAME IOVERLAY, 0, STATIC
        LOCFRAME DOVERLAY, 0, STATIC
        ARGFRAME ISTACK, 0, STACK
        ARGFRAME PSTACK, 0, STACK
        ARGFRAME XSTACK, 16, STACK
        ARGFRAME IOVERLAY, 0, STATIC
        ARGFRAME DOVERLAY, 0, STATIC
        FUNCALL halSleep, macMcuTimer2OverflowWorkaround
        LOCFRAME ISTACK, 0, STACK
        LOCFRAME PSTACK, 0, STACK
        LOCFRAME XSTACK, 16, STACK
        LOCFRAME IOVERLAY, 0, STATIC
        LOCFRAME DOVERLAY, 0, STATIC
        ARGFRAME ISTACK, 0, STACK
        ARGFRAME PSTACK, 0, STACK
        ARGFRAME XSTACK, 16, STACK
        ARGFRAME IOVERLAY, 0, STATIC
        ARGFRAME DOVERLAY, 0, STATIC
        REQUIRE ?V0
        REQUIRE ?V1
        REQUIRE ?V2
        REQUIRE ?V3
        REQUIRE ?V4
        REQUIRE ?V5
        REQUIRE ?V6
        REQUIRE ?V7
        MOV     A,#-0x10
        LCALL   ?BANKED_ENTER_XDATA
          CFI DPH0 load(1, XDATA, add(CFA_XSP16, literal(-1)))
          CFI DPL0 load(1, XDATA, add(CFA_XSP16, literal(-2)))
          CFI ?BRET_EXT load(1, XDATA, add(CFA_XSP16, literal(-3)))
          CFI ?RET_HIGH load(1, XDATA, add(CFA_XSP16, literal(-4)))
          CFI ?RET_LOW load(1, XDATA, add(CFA_XSP16, literal(-5)))
          CFI R7 load(1, XDATA, add(CFA_XSP16, literal(-6)))
          CFI V7 load(1, XDATA, add(CFA_XSP16, literal(-7)))
          CFI V6 load(1, XDATA, add(CFA_XSP16, literal(-8)))
          CFI V5 load(1, XDATA, add(CFA_XSP16, literal(-9)))
          CFI V4 load(1, XDATA, add(CFA_XSP16, literal(-10)))
          CFI V3 load(1, XDATA, add(CFA_XSP16, literal(-11)))
          CFI V2 load(1, XDATA, add(CFA_XSP16, literal(-12)))
          CFI V1 load(1, XDATA, add(CFA_XSP16, literal(-13)))
          CFI V0 load(1, XDATA, add(CFA_XSP16, literal(-14)))
          CFI VB load(1, XDATA, add(CFA_XSP16, literal(-15)))
          CFI R6 load(1, XDATA, add(CFA_XSP16, literal(-16)))
          CFI CFA_SP SP+0
          CFI CFA_XSP16 add(XSP16, 16)
        ; Saved register size: 16
        ; Auto size: 0
        MOV     ?V0,R2
        MOV     ?V1,R3
        MOV     ?V2,R4
        MOV     ?V3,R5
//  292   uint32        timeout;
//  293   uint32        macTimeout = 0;
//  294 
//  295   /* get next OSAL timer expiration converted to 320 usec units */
//  296   timeout = HAL_SLEEP_MS_TO_320US(osal_timeout);
        MOV     DPTR,#__Constant_64
        MOV     R0,#?V4
        LCALL   ?L_MOV_X
        MOV     R0,#?V0
        MOV     R1,#?V4
        LCALL   ?L_MUL
        MOV     DPTR,#__Constant_1f
        MOV     R0,#?V0
        LCALL   ?L_ADD_X
        MOV     A,#0x5
        MOV     R0,#?V0
        LCALL   ?UL_SHR
//  297   if (timeout == 0)
        LCALL   ?Subroutine1 & 0xFFFF
??CrossCallReturnLabel_1:
        JNZ     ??halSleep_0
//  298   {
//  299     timeout = MAC_PwrNextTimeout();
        ; Setup parameters for call to function MAC_PwrNextTimeout
        LCALL   `??MAC_PwrNextTimeout::?relay`; Banked call to: MAC_PwrNextTimeout
        MOV     ?V0,R2
        MOV     ?V1,R3
        MOV     ?V2,R4
        MOV     ?V3,R5
//  300   }
//  301   else
//  302   {
//  303     /* get next MAC timer expiration */
//  304     macTimeout = MAC_PwrNextTimeout();
//  305 
//  306     /* get lesser of two timeouts */
//  307     if ((macTimeout != 0) && (macTimeout < timeout))
//  308     {
//  309       timeout = macTimeout;
//  310     }
//  311   }
//  312 
//  313   /* HAL_SLEEP_PM2 is entered only if the timeout is zero and
//  314    * the device is a stimulated device.
//  315    */
//  316   halPwrMgtMode = (timeout == 0) ? HAL_SLEEP_DEEP : HAL_SLEEP_TIMER;
        MOV     A,R2
        LCALL   ??Subroutine2_0 & 0xFFFF
??CrossCallReturnLabel_0:
        JNZ     ??halSleep_1
        MOV     DPTR,#halPwrMgtMode
        MOV     A,#0x3
        MOVX    @DPTR,A
        SJMP    ??halSleep_2
??halSleep_0:
        ; Setup parameters for call to function MAC_PwrNextTimeout
        LCALL   `??MAC_PwrNextTimeout::?relay`; Banked call to: MAC_PwrNextTimeout
        MOV     ?V4,R2
        MOV     ?V5,R3
        MOV     ?V6,R4
        MOV     ?V7,R5
        MOV     A,R2
        ORL     A,?V5
        ORL     A,?V6
        ORL     A,?V7
        JZ      ??halSleep_1
        MOV     R0,#?V0
        MOV     R1,#?V4
        LCALL   ?UL_GT
        JNC     ??halSleep_1
        MOV     ?V0,R2
        MOV     ?V1,R3
        MOV     ?V2,R4
        MOV     ?V3,R5
??halSleep_1:
        MOV     DPTR,#halPwrMgtMode
        MOV     A,#0x2
        MOVX    @DPTR,A
//  317 
//  318   /* DEEP sleep can only be entered when zgPollRate == 0.
//  319    * This is to eliminate any possibility of entering PM3 between
//  320    * two network timers.
//  321    */
//  322 #if ZG_BUILD_ENDDEVICE_TYPE && defined (NWK_AUTO_POLL)
//  323   if ((timeout > HAL_SLEEP_MS_TO_320US(PM_MIN_SLEEP_TIME)) ||
//  324       (timeout == 0 && zgPollRate == 0))
        MOV     DPTR,#__Constant_8
        MOV     R0,#?V0
        LCALL   ?UL_GE_X
        JC      ??halSleep_3
        LCALL   ?Subroutine1 & 0xFFFF
??CrossCallReturnLabel_2:
        JZ      $+5
        LJMP    ??halSleep_4 & 0xFFFF
??halSleep_2:
        MOV     DPTR,#zgPollRate
        MOVX    A,@DPTR
        MOV     R0,A
        INC     DPTR
        MOVX    A,@DPTR
        MOV     R1,A
        MOV     A,R0
        ORL     A,R1
        JZ      $+5
        LJMP    ??halSleep_4 & 0xFFFF
//  325 #else
//  326   if ((timeout > HAL_SLEEP_MS_TO_320US(PM_MIN_SLEEP_TIME)) ||
//  327       (timeout == 0))
//  328 #endif
//  329   {
//  330     halIntState_t ien0, ien1, ien2;
//  331 
//  332     HAL_ASSERT(HAL_INTERRUPTS_ARE_ENABLED());
??halSleep_3:
        MOV     C,0xa8.7
        JC      ??halSleep_5
        ; Setup parameters for call to function halAssertHandler
        LCALL   `??halAssertHandler::?relay`; Banked call to: halAssertHandler
//  333     HAL_DISABLE_INTERRUPTS();
??halSleep_5:
        CLR     0xa8.7
//  334 
//  335     /* always use "deep sleep" to turn off radio VREG on CC2530 */
//  336     if (halSleepPconValue != 0 && MAC_PwrOffReq(MAC_PWR_SLEEP_DEEP) == MAC_SUCCESS)
        MOV     A,halSleepPconValue
        JNZ     $+5
        LJMP    ??halSleep_6 & 0xFFFF
        ; Setup parameters for call to function MAC_PwrOffReq
        MOV     R1,#0x2
        LCALL   `??MAC_PwrOffReq::?relay`; Banked call to: MAC_PwrOffReq
        MOV     A,R1
        JZ      $+5
        LJMP    ??halSleep_6 & 0xFFFF
//  337     {
//  338       /* The PCON value is not zero. There is no interrupt overriding the 
//  339        * sleep decision. Also, the radio granted the sleep request.
//  340        */
//  341 
//  342 #if ((defined HAL_KEY) && (HAL_KEY == TRUE))
//  343       /* get peripherals ready for sleep */
//  344       HalKeyEnterSleep();
//  345 #endif
//  346 
//  347 #ifdef HAL_SLEEP_DEBUG_LED
//  348       HAL_TURN_OFF_LED3();
//  349 #else
//  350       /* use this to turn LEDs off during sleep */
//  351       HalLedEnterSleep();
        ; Setup parameters for call to function HalLedEnterSleep
        LCALL   `??HalLedEnterSleep::?relay`; Banked call to: HalLedEnterSleep
//  352 #endif
//  353 
//  354       if(timeout > maxSleepLoopTime)
        MOV     DPTR,#maxSleepLoopTime
        MOV     R0,#?V0
        LCALL   ?UL_GT_X
        JNC     ??halSleep_7
//  355       {
//  356         timeout = maxSleepLoopTime;
        MOV     DPTR,#maxSleepLoopTime
        MOV     R0,#?V0
        LCALL   ?L_MOV_X
//  357       }  
//  358       
//  359       do
//  360       {
//  361         /* enable sleep timer interrupt */
//  362         if(timeout != 0)
??halSleep_7:
        LCALL   ?Subroutine1 & 0xFFFF
??CrossCallReturnLabel_3:
        JZ      ??halSleep_8
//  363         { 
//  364           if (timeout > HAL_SLEEP_MS_TO_320US( MAX_SLEEP_TIME ))
        MOV     DPTR,#__Constant_185197
        MOV     R0,#?V0
        LCALL   ?UL_GE_X
        JNC     ??halSleep_9
//  365           {
//  366             timeout -= HAL_SLEEP_MS_TO_320US( MAX_SLEEP_TIME );
        MOV     DPTR,#__Constant_ffe7ae6a
        MOV     R0,#?V0
        LCALL   ?L_ADD_X
//  367             halSleepSetTimer(HAL_SLEEP_MS_TO_320US( MAX_SLEEP_TIME ));
        ; Setup parameters for call to function halSleepSetTimer
        MOV     DPTR,#__Constant_185196
        LCALL   ?XLOAD_R2345
        LCALL   `??halSleepSetTimer::?relay`; Banked call to: halSleepSetTimer
        SJMP    ??halSleep_10
//  368           }
//  369           else
//  370           {
//  371             /* set sleep timer */
//  372             halSleepSetTimer(timeout);
??halSleep_9:
        ; Setup parameters for call to function halSleepSetTimer
        MOV     R2,?V0
        MOV     R3,?V1
        MOV     R4,?V2
        MOV     R5,?V3
        LCALL   `??halSleepSetTimer::?relay`; Banked call to: halSleepSetTimer
//  373             timeout = 0;
        MOV     ?V0,#0x0
        MOV     ?V1,#0x0
        MOV     ?V2,#0x0
        MOV     ?V3,#0x0
//  374           }
//  375           
//  376           /* set up sleep timer interrupt */
//  377           HAL_SLEEP_TIMER_CLEAR_INT();
??halSleep_10:
        CLR     0xc0.7
//  378           HAL_SLEEP_TIMER_ENABLE_INT();
        SETB    0xa8.5
//  379         }
//  380 
//  381 #ifdef HAL_SLEEP_DEBUG_LED
//  382         if (halPwrMgtMode == CC2530_PM1)
//  383         {
//  384           HAL_TURN_ON_LED1();
//  385         }
//  386         else
//  387         {
//  388           HAL_TURN_OFF_LED1();
//  389         }
//  390 #endif
//  391 
//  392         if (ZNP_CFG1_UART == znpCfg1)
??halSleep_8:
        MOV     DPTR,#znpCfg1
        MOVX    A,@DPTR
        JNZ     ??halSleep_11
//  393         {
//  394           HalUARTSuspend();
        ; Setup parameters for call to function HalUARTSuspend
        LCALL   `??HalUARTSuspend::?relay`; Banked call to: HalUARTSuspend
//  395         }
//  396 
//  397         /* Prep CC2530 power mode */
//  398         HAL_SLEEP_PREP_POWER_MODE(halPwrMgtMode);
??halSleep_11:
        ANL     0xbe,#0xfc
        MOV     DPTR,#halPwrMgtMode
        MOVX    A,@DPTR
        ORL     0xbe,A
??halSleep_12:
        MOV     A,0xad
        MOV     C,0xE0 /* A   */.0
        JNC     ??halSleep_12
        MOV     halSleepPconValue,#0x1
//  399 
//  400         /* save interrupt enable registers and disable all interrupts */
//  401         HAL_SLEEP_IE_BACKUP_AND_DISABLE(ien0, ien1, ien2);
        MOV     ?V4,0xa8+0x0
        MOV     R7,0xb8+0x0
        MOV     R6,0x9a+0x0
        ANL     0xa8,#0x20
        ANL     0xb8,#0x20
        ANL     0x9a,#0x12
//  402         HAL_ENABLE_INTERRUPTS();
        SETB    0xa8.7
//  403 
//  404         /* set CC2530 power mode, interrupt is disabled after this function
//  405          * Note that an ISR (that could wake up from power mode) which runs
//  406          * between the previous instruction enabling interrupts and before
//  407          * power mode is set would switch the halSleepPconValue so that
//  408          * power mode shall not be entered in such a case. 
//  409          */
//  410         HAL_SLEEP_SET_POWER_MODE();
        ; Setup parameters for call to function halSetSleepMode
        LCALL   `??halSetSleepMode::?relay`; Banked call to: halSetSleepMode
//  411 
//  412         /* Disable interrupt immediately */
//  413         HAL_DISABLE_INTERRUPTS();
        CLR     0xa8.7
//  414 
//  415         /* restore interrupt enable registers */
//  416         HAL_SLEEP_IE_RESTORE(ien0, ien1, ien2);
        MOV     0xa8,?V4
        MOV     0xb8,R7
        MOV     0x9a,R6
//  417 
//  418         /* disable sleep timer interrupt */
//  419         HAL_SLEEP_TIMER_DISABLE_INT();
        CLR     0xa8.5
//  420 
//  421         if (ZNP_CFG1_UART == znpCfg1)
        MOV     DPTR,#znpCfg1
        MOVX    A,@DPTR
        JNZ     ??halSleep_13
//  422         {
//  423           HalUARTResume();
        ; Setup parameters for call to function HalUARTResume
        LCALL   `??HalUARTResume::?relay`; Banked call to: HalUARTResume
//  424         }
//  425 
//  426 #ifdef HAL_SLEEP_DEBUG_LED
//  427         HAL_TURN_ON_LED3();
//  428 #else
//  429       /* use this to turn LEDs back on after sleep */
//  430         HalLedExitSleep();
??halSleep_13:
        ; Setup parameters for call to function HalLedExitSleep
        LCALL   `??HalLedExitSleep::?relay`; Banked call to: HalLedExitSleep
//  431 #endif
//  432 
//  433 #if ((defined HAL_KEY) && (HAL_KEY == TRUE))
//  434         /* handle peripherals */
//  435         if(HalKeyExitSleep())
//  436         {
//  437           break; 
//  438         }
//  439 #endif
//  440 
//  441       } while(timeout != 0);
        LCALL   ?Subroutine1 & 0xFFFF
??CrossCallReturnLabel_4:
        JZ      $+5
        LJMP    ??halSleep_7 & 0xFFFF
//  442 
//  443       /* power on the MAC; blocks until completion */
//  444       MAC_PwrOnReq();
        ; Setup parameters for call to function MAC_PwrOnReq
        LCALL   `??MAC_PwrOnReq::?relay`; Banked call to: MAC_PwrOnReq
//  445 
//  446       HAL_ENABLE_INTERRUPTS();
        SETB    0xa8.7
//  447 
//  448       /* For CC2530, T2 interrupt won’t be generated when the current count is greater than
//  449        * the comparator. The interrupt is only generated when the current count is equal to
//  450        * the comparator. When the CC2530 is waking up from sleep, there is a small window
//  451        * that the count may be grater than the comparator, therefore, missing the interrupt.
//  452        * This workaround will call the T2 ISR when the current T2 count is greater than the
//  453        * comparator. The problem only occurs when POWER_SAVING is turned on, i.e. the 32KHz
//  454        * drives the chip in sleep and SYNC start is used.
//  455        */
//  456       macMcuTimer2OverflowWorkaround();
        ; Setup parameters for call to function macMcuTimer2OverflowWorkaround
        LCALL   `??macMcuTimer2OverflowWorkaround::?relay`; Banked call to: macMcuTimer2OverflowWorkaround
        SJMP    ??halSleep_4
//  457     }
//  458     else
//  459     {
//  460       /* An interrupt may have changed the sleep decision. Do not sleep at all. Turn on
//  461        * the interrupt, exit normally, and the next sleep will be allowed.
//  462        */
//  463       HAL_ENABLE_INTERRUPTS();
??halSleep_6:
        SETB    0xa8.7
//  464     }
//  465   }
//  466 }
??halSleep_4:
          CFI EndBlock cfiBlock2
        REQUIRE ?Subroutine0
        REQUIRE _A_IEN0
        REQUIRE _A_IRCON
        REQUIRE SLEEPCMD
        REQUIRE STLOAD
        REQUIRE _A_IEN1
        REQUIRE IEN2
        ; // Fall through to label ?Subroutine0

        RSEG BANKED_CODE:CODE:NOROOT(0)
?Subroutine0:
          CFI Block cfiBlock3 Using cfiCommon0
          CFI NoFunction
          CFI CFA_SP SP+0
          CFI CFA_XSP16 add(XSP16, 16)
          CFI VB load(1, XDATA, add(CFA_XSP16, literal(-15)))
          CFI DPL0 load(1, XDATA, add(CFA_XSP16, literal(-2)))
          CFI DPH0 load(1, XDATA, add(CFA_XSP16, literal(-1)))
          CFI R6 load(1, XDATA, add(CFA_XSP16, literal(-16)))
          CFI R7 load(1, XDATA, add(CFA_XSP16, literal(-6)))
          CFI V0 load(1, XDATA, add(CFA_XSP16, literal(-14)))
          CFI V1 load(1, XDATA, add(CFA_XSP16, literal(-13)))
          CFI V2 load(1, XDATA, add(CFA_XSP16, literal(-12)))
          CFI V3 load(1, XDATA, add(CFA_XSP16, literal(-11)))
          CFI V4 load(1, XDATA, add(CFA_XSP16, literal(-10)))
          CFI V5 load(1, XDATA, add(CFA_XSP16, literal(-9)))
          CFI V6 load(1, XDATA, add(CFA_XSP16, literal(-8)))
          CFI V7 load(1, XDATA, add(CFA_XSP16, literal(-7)))
          CFI ?BRET_EXT load(1, XDATA, add(CFA_XSP16, literal(-3)))
          CFI ?RET_HIGH load(1, XDATA, add(CFA_XSP16, literal(-4)))
          CFI ?RET_LOW load(1, XDATA, add(CFA_XSP16, literal(-5)))
        MOV     R7,#0x8
        LJMP    ?BANKED_LEAVE_XDATA
          CFI EndBlock cfiBlock3

        RSEG BANKED_CODE:CODE:NOROOT(0)
?Subroutine1:
          CFI Block cfiCond4 Using cfiCommon0
          CFI Function halSleep
          CFI Conditional ??CrossCallReturnLabel_1
          CFI R6 load(1, XDATA, add(CFA_XSP16, literal(-16)))
          CFI VB load(1, XDATA, add(CFA_XSP16, literal(-15)))
          CFI V0 load(1, XDATA, add(CFA_XSP16, literal(-14)))
          CFI V1 load(1, XDATA, add(CFA_XSP16, literal(-13)))
          CFI V2 load(1, XDATA, add(CFA_XSP16, literal(-12)))
          CFI V3 load(1, XDATA, add(CFA_XSP16, literal(-11)))
          CFI V4 load(1, XDATA, add(CFA_XSP16, literal(-10)))
          CFI V5 load(1, XDATA, add(CFA_XSP16, literal(-9)))
          CFI V6 load(1, XDATA, add(CFA_XSP16, literal(-8)))
          CFI V7 load(1, XDATA, add(CFA_XSP16, literal(-7)))
          CFI R7 load(1, XDATA, add(CFA_XSP16, literal(-6)))
          CFI ?RET_LOW load(1, XDATA, add(CFA_XSP16, literal(-5)))
          CFI ?RET_HIGH load(1, XDATA, add(CFA_XSP16, literal(-4)))
          CFI ?BRET_EXT load(1, XDATA, add(CFA_XSP16, literal(-3)))
          CFI DPL0 load(1, XDATA, add(CFA_XSP16, literal(-2)))
          CFI DPH0 load(1, XDATA, add(CFA_XSP16, literal(-1)))
          CFI CFA_SP SP+-2
          CFI CFA_XSP16 add(XSP16, 16)
          CFI Block cfiCond5 Using cfiCommon0
          CFI (cfiCond5) Function halSleep
          CFI (cfiCond5) Conditional ??CrossCallReturnLabel_2
          CFI (cfiCond5) R6 load(1, XDATA, add(CFA_XSP16, literal(-16)))
          CFI (cfiCond5) VB load(1, XDATA, add(CFA_XSP16, literal(-15)))
          CFI (cfiCond5) V0 load(1, XDATA, add(CFA_XSP16, literal(-14)))
          CFI (cfiCond5) V1 load(1, XDATA, add(CFA_XSP16, literal(-13)))
          CFI (cfiCond5) V2 load(1, XDATA, add(CFA_XSP16, literal(-12)))
          CFI (cfiCond5) V3 load(1, XDATA, add(CFA_XSP16, literal(-11)))
          CFI (cfiCond5) V4 load(1, XDATA, add(CFA_XSP16, literal(-10)))
          CFI (cfiCond5) V5 load(1, XDATA, add(CFA_XSP16, literal(-9)))
          CFI (cfiCond5) V6 load(1, XDATA, add(CFA_XSP16, literal(-8)))
          CFI (cfiCond5) V7 load(1, XDATA, add(CFA_XSP16, literal(-7)))
          CFI (cfiCond5) R7 load(1, XDATA, add(CFA_XSP16, literal(-6)))
          CFI (cfiCond5) ?RET_LOW load(1, XDATA, add(CFA_XSP16, literal(-5)))
          CFI (cfiCond5) ?RET_HIGH load(1, XDATA, add(CFA_XSP16, literal(-4)))
          CFI (cfiCond5) ?BRET_EXT load(1, XDATA, add(CFA_XSP16, literal(-3)))
          CFI (cfiCond5) DPL0 load(1, XDATA, add(CFA_XSP16, literal(-2)))
          CFI (cfiCond5) DPH0 load(1, XDATA, add(CFA_XSP16, literal(-1)))
          CFI (cfiCond5) CFA_SP SP+-2
          CFI (cfiCond5) CFA_XSP16 add(XSP16, 16)
          CFI Block cfiCond6 Using cfiCommon0
          CFI (cfiCond6) Function halSleep
          CFI (cfiCond6) Conditional ??CrossCallReturnLabel_3
          CFI (cfiCond6) R6 load(1, XDATA, add(CFA_XSP16, literal(-16)))
          CFI (cfiCond6) VB load(1, XDATA, add(CFA_XSP16, literal(-15)))
          CFI (cfiCond6) V0 load(1, XDATA, add(CFA_XSP16, literal(-14)))
          CFI (cfiCond6) V1 load(1, XDATA, add(CFA_XSP16, literal(-13)))
          CFI (cfiCond6) V2 load(1, XDATA, add(CFA_XSP16, literal(-12)))
          CFI (cfiCond6) V3 load(1, XDATA, add(CFA_XSP16, literal(-11)))
          CFI (cfiCond6) V4 load(1, XDATA, add(CFA_XSP16, literal(-10)))
          CFI (cfiCond6) V5 load(1, XDATA, add(CFA_XSP16, literal(-9)))
          CFI (cfiCond6) V6 load(1, XDATA, add(CFA_XSP16, literal(-8)))
          CFI (cfiCond6) V7 load(1, XDATA, add(CFA_XSP16, literal(-7)))
          CFI (cfiCond6) R7 load(1, XDATA, add(CFA_XSP16, literal(-6)))
          CFI (cfiCond6) ?RET_LOW load(1, XDATA, add(CFA_XSP16, literal(-5)))
          CFI (cfiCond6) ?RET_HIGH load(1, XDATA, add(CFA_XSP16, literal(-4)))
          CFI (cfiCond6) ?BRET_EXT load(1, XDATA, add(CFA_XSP16, literal(-3)))
          CFI (cfiCond6) DPL0 load(1, XDATA, add(CFA_XSP16, literal(-2)))
          CFI (cfiCond6) DPH0 load(1, XDATA, add(CFA_XSP16, literal(-1)))
          CFI (cfiCond6) CFA_SP SP+-2
          CFI (cfiCond6) CFA_XSP16 add(XSP16, 16)
          CFI Block cfiCond7 Using cfiCommon0
          CFI (cfiCond7) Function halSleep
          CFI (cfiCond7) Conditional ??CrossCallReturnLabel_4
          CFI (cfiCond7) R6 load(1, XDATA, add(CFA_XSP16, literal(-16)))
          CFI (cfiCond7) VB load(1, XDATA, add(CFA_XSP16, literal(-15)))
          CFI (cfiCond7) V0 load(1, XDATA, add(CFA_XSP16, literal(-14)))
          CFI (cfiCond7) V1 load(1, XDATA, add(CFA_XSP16, literal(-13)))
          CFI (cfiCond7) V2 load(1, XDATA, add(CFA_XSP16, literal(-12)))
          CFI (cfiCond7) V3 load(1, XDATA, add(CFA_XSP16, literal(-11)))
          CFI (cfiCond7) V4 load(1, XDATA, add(CFA_XSP16, literal(-10)))
          CFI (cfiCond7) V5 load(1, XDATA, add(CFA_XSP16, literal(-9)))
          CFI (cfiCond7) V6 load(1, XDATA, add(CFA_XSP16, literal(-8)))
          CFI (cfiCond7) V7 load(1, XDATA, add(CFA_XSP16, literal(-7)))
          CFI (cfiCond7) R7 load(1, XDATA, add(CFA_XSP16, literal(-6)))
          CFI (cfiCond7) ?RET_LOW load(1, XDATA, add(CFA_XSP16, literal(-5)))
          CFI (cfiCond7) ?RET_HIGH load(1, XDATA, add(CFA_XSP16, literal(-4)))
          CFI (cfiCond7) ?BRET_EXT load(1, XDATA, add(CFA_XSP16, literal(-3)))
          CFI (cfiCond7) DPL0 load(1, XDATA, add(CFA_XSP16, literal(-2)))
          CFI (cfiCond7) DPH0 load(1, XDATA, add(CFA_XSP16, literal(-1)))
          CFI (cfiCond7) CFA_SP SP+-2
          CFI (cfiCond7) CFA_XSP16 add(XSP16, 16)
          CFI Block cfiPicker8 Using cfiCommon1
          CFI (cfiPicker8) NoFunction
          CFI (cfiPicker8) Picker
        MOV     A,?V0
          CFI EndBlock cfiCond4
          CFI EndBlock cfiCond5
          CFI EndBlock cfiCond6
          CFI EndBlock cfiCond7
          CFI EndBlock cfiPicker8
        REQUIRE ??Subroutine2_0
        ; // Fall through to label ??Subroutine2_0

        RSEG BANKED_CODE:CODE:NOROOT(0)
??Subroutine2_0:
          CFI Block cfiCond9 Using cfiCommon0
          CFI Function halSleep
          CFI Conditional ??CrossCallReturnLabel_0
          CFI R6 load(1, XDATA, add(CFA_XSP16, literal(-16)))
          CFI VB load(1, XDATA, add(CFA_XSP16, literal(-15)))
          CFI V0 load(1, XDATA, add(CFA_XSP16, literal(-14)))
          CFI V1 load(1, XDATA, add(CFA_XSP16, literal(-13)))
          CFI V2 load(1, XDATA, add(CFA_XSP16, literal(-12)))
          CFI V3 load(1, XDATA, add(CFA_XSP16, literal(-11)))
          CFI V4 load(1, XDATA, add(CFA_XSP16, literal(-10)))
          CFI V5 load(1, XDATA, add(CFA_XSP16, literal(-9)))
          CFI V6 load(1, XDATA, add(CFA_XSP16, literal(-8)))
          CFI V7 load(1, XDATA, add(CFA_XSP16, literal(-7)))
          CFI R7 load(1, XDATA, add(CFA_XSP16, literal(-6)))
          CFI ?RET_LOW load(1, XDATA, add(CFA_XSP16, literal(-5)))
          CFI ?RET_HIGH load(1, XDATA, add(CFA_XSP16, literal(-4)))
          CFI ?BRET_EXT load(1, XDATA, add(CFA_XSP16, literal(-3)))
          CFI DPL0 load(1, XDATA, add(CFA_XSP16, literal(-2)))
          CFI DPH0 load(1, XDATA, add(CFA_XSP16, literal(-1)))
          CFI CFA_SP SP+-2
          CFI CFA_XSP16 add(XSP16, 16)
          CFI Block cfiCond10 Using cfiCommon0
          CFI (cfiCond10) Function halSleep
          CFI (cfiCond10) Conditional ??CrossCallReturnLabel_1
          CFI (cfiCond10) R6 load(1, XDATA, add(CFA_XSP16, literal(-16)))
          CFI (cfiCond10) VB load(1, XDATA, add(CFA_XSP16, literal(-15)))
          CFI (cfiCond10) V0 load(1, XDATA, add(CFA_XSP16, literal(-14)))
          CFI (cfiCond10) V1 load(1, XDATA, add(CFA_XSP16, literal(-13)))
          CFI (cfiCond10) V2 load(1, XDATA, add(CFA_XSP16, literal(-12)))
          CFI (cfiCond10) V3 load(1, XDATA, add(CFA_XSP16, literal(-11)))
          CFI (cfiCond10) V4 load(1, XDATA, add(CFA_XSP16, literal(-10)))
          CFI (cfiCond10) V5 load(1, XDATA, add(CFA_XSP16, literal(-9)))
          CFI (cfiCond10) V6 load(1, XDATA, add(CFA_XSP16, literal(-8)))
          CFI (cfiCond10) V7 load(1, XDATA, add(CFA_XSP16, literal(-7)))
          CFI (cfiCond10) R7 load(1, XDATA, add(CFA_XSP16, literal(-6)))
          CFI (cfiCond10) ?RET_LOW load(1, XDATA, add(CFA_XSP16, literal(-5)))
          CFI (cfiCond10) ?RET_HIGH load(1, XDATA, add(CFA_XSP16, literal(-4)))
          CFI (cfiCond10) ?BRET_EXT load(1, XDATA, add(CFA_XSP16, literal(-3)))
          CFI (cfiCond10) DPL0 load(1, XDATA, add(CFA_XSP16, literal(-2)))
          CFI (cfiCond10) DPH0 load(1, XDATA, add(CFA_XSP16, literal(-1)))
          CFI (cfiCond10) CFA_SP SP+-2
          CFI (cfiCond10) CFA_XSP16 add(XSP16, 16)
          CFI Block cfiCond11 Using cfiCommon0
          CFI (cfiCond11) Function halSleep
          CFI (cfiCond11) Conditional ??CrossCallReturnLabel_2
          CFI (cfiCond11) R6 load(1, XDATA, add(CFA_XSP16, literal(-16)))
          CFI (cfiCond11) VB load(1, XDATA, add(CFA_XSP16, literal(-15)))
          CFI (cfiCond11) V0 load(1, XDATA, add(CFA_XSP16, literal(-14)))
          CFI (cfiCond11) V1 load(1, XDATA, add(CFA_XSP16, literal(-13)))
          CFI (cfiCond11) V2 load(1, XDATA, add(CFA_XSP16, literal(-12)))
          CFI (cfiCond11) V3 load(1, XDATA, add(CFA_XSP16, literal(-11)))
          CFI (cfiCond11) V4 load(1, XDATA, add(CFA_XSP16, literal(-10)))
          CFI (cfiCond11) V5 load(1, XDATA, add(CFA_XSP16, literal(-9)))
          CFI (cfiCond11) V6 load(1, XDATA, add(CFA_XSP16, literal(-8)))
          CFI (cfiCond11) V7 load(1, XDATA, add(CFA_XSP16, literal(-7)))
          CFI (cfiCond11) R7 load(1, XDATA, add(CFA_XSP16, literal(-6)))
          CFI (cfiCond11) ?RET_LOW load(1, XDATA, add(CFA_XSP16, literal(-5)))
          CFI (cfiCond11) ?RET_HIGH load(1, XDATA, add(CFA_XSP16, literal(-4)))
          CFI (cfiCond11) ?BRET_EXT load(1, XDATA, add(CFA_XSP16, literal(-3)))
          CFI (cfiCond11) DPL0 load(1, XDATA, add(CFA_XSP16, literal(-2)))
          CFI (cfiCond11) DPH0 load(1, XDATA, add(CFA_XSP16, literal(-1)))
          CFI (cfiCond11) CFA_SP SP+-2
          CFI (cfiCond11) CFA_XSP16 add(XSP16, 16)
          CFI Block cfiCond12 Using cfiCommon0
          CFI (cfiCond12) Function halSleep
          CFI (cfiCond12) Conditional ??CrossCallReturnLabel_3
          CFI (cfiCond12) R6 load(1, XDATA, add(CFA_XSP16, literal(-16)))
          CFI (cfiCond12) VB load(1, XDATA, add(CFA_XSP16, literal(-15)))
          CFI (cfiCond12) V0 load(1, XDATA, add(CFA_XSP16, literal(-14)))
          CFI (cfiCond12) V1 load(1, XDATA, add(CFA_XSP16, literal(-13)))
          CFI (cfiCond12) V2 load(1, XDATA, add(CFA_XSP16, literal(-12)))
          CFI (cfiCond12) V3 load(1, XDATA, add(CFA_XSP16, literal(-11)))
          CFI (cfiCond12) V4 load(1, XDATA, add(CFA_XSP16, literal(-10)))
          CFI (cfiCond12) V5 load(1, XDATA, add(CFA_XSP16, literal(-9)))
          CFI (cfiCond12) V6 load(1, XDATA, add(CFA_XSP16, literal(-8)))
          CFI (cfiCond12) V7 load(1, XDATA, add(CFA_XSP16, literal(-7)))
          CFI (cfiCond12) R7 load(1, XDATA, add(CFA_XSP16, literal(-6)))
          CFI (cfiCond12) ?RET_LOW load(1, XDATA, add(CFA_XSP16, literal(-5)))
          CFI (cfiCond12) ?RET_HIGH load(1, XDATA, add(CFA_XSP16, literal(-4)))
          CFI (cfiCond12) ?BRET_EXT load(1, XDATA, add(CFA_XSP16, literal(-3)))
          CFI (cfiCond12) DPL0 load(1, XDATA, add(CFA_XSP16, literal(-2)))
          CFI (cfiCond12) DPH0 load(1, XDATA, add(CFA_XSP16, literal(-1)))
          CFI (cfiCond12) CFA_SP SP+-2
          CFI (cfiCond12) CFA_XSP16 add(XSP16, 16)
          CFI Block cfiCond13 Using cfiCommon0
          CFI (cfiCond13) Function halSleep
          CFI (cfiCond13) Conditional ??CrossCallReturnLabel_4
          CFI (cfiCond13) R6 load(1, XDATA, add(CFA_XSP16, literal(-16)))
          CFI (cfiCond13) VB load(1, XDATA, add(CFA_XSP16, literal(-15)))
          CFI (cfiCond13) V0 load(1, XDATA, add(CFA_XSP16, literal(-14)))
          CFI (cfiCond13) V1 load(1, XDATA, add(CFA_XSP16, literal(-13)))
          CFI (cfiCond13) V2 load(1, XDATA, add(CFA_XSP16, literal(-12)))
          CFI (cfiCond13) V3 load(1, XDATA, add(CFA_XSP16, literal(-11)))
          CFI (cfiCond13) V4 load(1, XDATA, add(CFA_XSP16, literal(-10)))
          CFI (cfiCond13) V5 load(1, XDATA, add(CFA_XSP16, literal(-9)))
          CFI (cfiCond13) V6 load(1, XDATA, add(CFA_XSP16, literal(-8)))
          CFI (cfiCond13) V7 load(1, XDATA, add(CFA_XSP16, literal(-7)))
          CFI (cfiCond13) R7 load(1, XDATA, add(CFA_XSP16, literal(-6)))
          CFI (cfiCond13) ?RET_LOW load(1, XDATA, add(CFA_XSP16, literal(-5)))
          CFI (cfiCond13) ?RET_HIGH load(1, XDATA, add(CFA_XSP16, literal(-4)))
          CFI (cfiCond13) ?BRET_EXT load(1, XDATA, add(CFA_XSP16, literal(-3)))
          CFI (cfiCond13) DPL0 load(1, XDATA, add(CFA_XSP16, literal(-2)))
          CFI (cfiCond13) DPH0 load(1, XDATA, add(CFA_XSP16, literal(-1)))
          CFI (cfiCond13) CFA_SP SP+-2
          CFI (cfiCond13) CFA_XSP16 add(XSP16, 16)
          CFI Block cfiPicker14 Using cfiCommon1
          CFI (cfiPicker14) NoFunction
          CFI (cfiPicker14) Picker
        ORL     A,?V1
        ORL     A,?V2
        ORL     A,?V3
        RET
          CFI EndBlock cfiCond9
          CFI EndBlock cfiCond10
          CFI EndBlock cfiCond11
          CFI EndBlock cfiCond12
          CFI EndBlock cfiCond13
          CFI EndBlock cfiPicker14
//  467 
//  468 /**************************************************************************************************
//  469  * @fn          halSleepSetTimer
//  470  *
//  471  * @brief       This function sets the CC2530 sleep timer compare value.  First it reads and
//  472  *              stores the value of the sleep timer; this value is used later to update OSAL
//  473  *              timers.  Then the timeout value is converted from 320 usec units to 32 kHz
//  474  *              period units and the compare value is set to the timeout.
//  475  *
//  476  * input parameters
//  477  *
//  478  * @param       timeout - Timeout value in 320 usec units.  The sleep timer compare is set to
//  479  *                        this value.
//  480  *
//  481  * output parameters
//  482  *
//  483  * None.
//  484  *
//  485  * @return      None.
//  486  **************************************************************************************************
//  487  */

        RSEG BANKED_CODE:CODE:NOROOT(0)
//  488 void halSleepSetTimer(uint32 timeout)
halSleepSetTimer:
          CFI Block cfiBlock15 Using cfiCommon0
          CFI Function halSleepSetTimer
        CODE
//  489 {
        REQUIRE ?V0
        REQUIRE ?V1
        REQUIRE ?V2
        REQUIRE ?V3
        REQUIRE ?V4
        REQUIRE ?V5
        REQUIRE ?V6
        REQUIRE ?V7
        MOV     A,#-0x10
        LCALL   ?BANKED_ENTER_XDATA
          CFI DPH0 load(1, XDATA, add(CFA_XSP16, literal(-1)))
          CFI DPL0 load(1, XDATA, add(CFA_XSP16, literal(-2)))
          CFI ?BRET_EXT load(1, XDATA, add(CFA_XSP16, literal(-3)))
          CFI ?RET_HIGH load(1, XDATA, add(CFA_XSP16, literal(-4)))
          CFI ?RET_LOW load(1, XDATA, add(CFA_XSP16, literal(-5)))
          CFI R7 load(1, XDATA, add(CFA_XSP16, literal(-6)))
          CFI V7 load(1, XDATA, add(CFA_XSP16, literal(-7)))
          CFI V6 load(1, XDATA, add(CFA_XSP16, literal(-8)))
          CFI V5 load(1, XDATA, add(CFA_XSP16, literal(-9)))
          CFI V4 load(1, XDATA, add(CFA_XSP16, literal(-10)))
          CFI V3 load(1, XDATA, add(CFA_XSP16, literal(-11)))
          CFI V2 load(1, XDATA, add(CFA_XSP16, literal(-12)))
          CFI V1 load(1, XDATA, add(CFA_XSP16, literal(-13)))
          CFI V0 load(1, XDATA, add(CFA_XSP16, literal(-14)))
          CFI VB load(1, XDATA, add(CFA_XSP16, literal(-15)))
          CFI R6 load(1, XDATA, add(CFA_XSP16, literal(-16)))
          CFI CFA_SP SP+0
          CFI CFA_XSP16 add(XSP16, 16)
        ; Saved register size: 16
        ; Auto size: 4
        MOV     A,#-0x4
        LCALL   ?ALLOC_XSTACK8
          CFI CFA_XSP16 add(XSP16, 20)
        MOV     ?V0,R2
        MOV     ?V1,R3
        MOV     ?V2,R4
        MOV     ?V3,R5
//  490   uint32 ticks;
//  491 
//  492   /* read the sleep timer; ST0 must be read first */
//  493   ((uint8 *) &ticks)[UINT32_NDX0] = ST0;
        MOV     A,0x95
        MOV     DPL,?XSP + 0
        MOV     DPH,?XSP + 1
        MOVX    @DPTR,A
//  494   ((uint8 *) &ticks)[UINT32_NDX1] = ST1;
        MOV     A,0x96
        PUSH    A
          CFI CFA_SP SP+-1
        MOV     A,#0x1
        LCALL   ?XSTACK_DISP0_8
        POP     A
          CFI CFA_SP SP+0
        MOVX    @DPTR,A
//  495   ((uint8 *) &ticks)[UINT32_NDX2] = ST2;
        MOV     A,0x97
        PUSH    A
          CFI CFA_SP SP+-1
        MOV     A,#0x2
        LCALL   ?XSTACK_DISP0_8
        POP     A
          CFI CFA_SP SP+0
        MOVX    @DPTR,A
//  496   ((uint8 *) &ticks)[UINT32_NDX3] = 0;
        MOV     A,#0x3
        LCALL   ?XSTACK_DISP0_8
        CLR     A
        MOVX    @DPTR,A
//  497 
//  498   /* Compute sleep timer compare value.  The ratio of 32 kHz ticks to 320 usec ticks
//  499    * is 32768/3125 = 10.48576.  This is nearly 671/64 = 10.484375.
//  500    */
//  501   ticks += (timeout * 671) / 64;
//  502 
//  503   /* subtract the processing time spent in function halSleep() */
//  504   ticks -= HAL_SLEEP_ADJ_TICKS;
        MOV     DPTR,#__Constant_29f
        MOV     R0,#?V4
        LCALL   ?L_MOV_X
        MOV     R0,#?V0
        MOV     R1,#?V4
        LCALL   ?L_MUL
        MOV     A,#0x6
        MOV     R0,#?V0
        LCALL   ?UL_SHR
        MOV     DPTR,#__Constant_ffffffe9
        MOV     R0,#?V0
        LCALL   ?L_ADD_X
        MOV     DPL,?XSP + 0
        MOV     DPH,?XSP + 1
        MOV     R0,#?V0
        LCALL   ?L_ADD_TO_X
//  505 
//  506   /* set sleep timer compare; ST0 must be written last */
//  507   ST2 = ((uint8 *) &ticks)[UINT32_NDX2];
        MOV     A,#0x2
        LCALL   ?XSTACK_DISP0_8
        MOVX    A,@DPTR
        MOV     0x97,A
//  508   ST1 = ((uint8 *) &ticks)[UINT32_NDX1];
        MOV     A,#0x1
        LCALL   ?XSTACK_DISP0_8
        MOVX    A,@DPTR
        MOV     0x96,A
//  509   ST0 = ((uint8 *) &ticks)[UINT32_NDX0];
        MOV     DPL,?XSP + 0
        MOV     DPH,?XSP + 1
        MOVX    A,@DPTR
        MOV     0x95,A
//  510 }
        MOV     A,#0x4
        LCALL   ?DEALLOC_XSTACK8
          CFI CFA_XSP16 add(XSP16, 16)
        LJMP    ?Subroutine0 & 0xFFFF
          CFI EndBlock cfiBlock15
        REQUIRE ST0
        REQUIRE ST1
        REQUIRE ST2
//  511 
//  512 /**************************************************************************************************
//  513  * @fn          TimerElapsed
//  514  *
//  515  * @brief       Determine the number of OSAL timer ticks elapsed during sleep.
//  516  *              Deprecated for CC2530 and CC2430 SoC.
//  517  *
//  518  * input parameters
//  519  *
//  520  * @param       None.
//  521  *
//  522  * output parameters
//  523  *
//  524  * None.
//  525  *
//  526  * @return      Number of timer ticks elapsed during sleep.
//  527  **************************************************************************************************
//  528  */

        RSEG BANKED_CODE:CODE:NOROOT(0)
//  529 uint32 TimerElapsed( void )
TimerElapsed:
          CFI Block cfiBlock16 Using cfiCommon0
          CFI Function TimerElapsed
        CODE
//  530 {
        ; Saved register size: 0
        ; Auto size: 0
//  531   /* Stubs */
//  532   return (0);
        MOV     R2,#0x0
        MOV     R3,#0x0
        MOV     R4,#0x0
        MOV     R5,#0x0
        LJMP    ?BRET
//  533 }
          CFI EndBlock cfiBlock16
//  534 
//  535 /**************************************************************************************************
//  536  * @fn          halRestoreSleepLevel
//  537  *
//  538  * @brief       Restore the deepest timer sleep level.
//  539  *
//  540  * input parameters
//  541  *
//  542  * @param       None
//  543  *
//  544  * output parameters
//  545  *
//  546  *              None.
//  547  *
//  548  * @return      None.
//  549  **************************************************************************************************
//  550  */

        RSEG BANKED_CODE:CODE:NOROOT(0)
//  551 void halRestoreSleepLevel( void )
halRestoreSleepLevel:
          CFI Block cfiBlock17 Using cfiCommon0
          CFI Function halRestoreSleepLevel
        CODE
//  552 {
        ; Saved register size: 0
        ; Auto size: 0
//  553   /* Stubs */
//  554 }
        LJMP    ?BRET
          CFI EndBlock cfiBlock17
//  555 
//  556 /**************************************************************************************************
//  557  * @fn          halSleepTimerIsr
//  558  *
//  559  * @brief       Sleep timer ISR.
//  560  *
//  561  * input parameters
//  562  *
//  563  * None.
//  564  *
//  565  * output parameters
//  566  *
//  567  * None.
//  568  *
//  569  * @return      None.
//  570  **************************************************************************************************
//  571  */

        RSEG NEAR_CODE:CODE:NOROOT(0)
//  572 HAL_ISR_FUNCTION(halSleepTimerIsr, ST_VECTOR)
halSleepTimerIsr:
          CFI Block cfiBlock18 Using cfiCommon1
          CFI Function halSleepTimerIsr
        CODE
//  573 {
        PUSH    A
          CFI A Frame(CFA_SP, 3)
          CFI CFA_SP SP+-3
        PUSH    PSW
          CFI PSW Frame(CFA_SP, 4)
          CFI CFA_SP SP+-4
        MOV     A,R0
          CFI R0 A
        PUSH    A
          CFI R0 Frame(CFA_SP, 5)
          CFI CFA_SP SP+-5
        MOV     A,R1
          CFI R1 A
        PUSH    A
          CFI R1 Frame(CFA_SP, 6)
          CFI CFA_SP SP+-6
        ; Saved register size: 4
        ; Auto size: 0
//  574   HAL_ENTER_ISR();
        MOV     R1,0xa8+0x0
        SETB    0xa8.7
//  575   HAL_SLEEP_TIMER_CLEAR_INT();
        CLR     0xc0.7
//  576 
//  577 #ifdef HAL_SLEEP_DEBUG_POWER_MODE
//  578   halSleepInt = TRUE;
//  579 #endif
//  580   
//  581   CLEAR_SLEEP_MODE();
        MOV     halSleepPconValue,#0x0
//  582   HAL_EXIT_ISR();
        MOV     A,R1
        MOV     C,0xE0 /* A   */.7
        CLR     A
        RLC     A
        MOV     R0,A
        MOV     A,R1
        MOV     C,0xE0 /* A   */.7
        MOV     0xa8.7,C
//  583 }
        POP     A
          CFI R1 A
          CFI CFA_SP SP+-5
        MOV     R1,A
          CFI R1 SameValue
        POP     A
          CFI R0 A
          CFI CFA_SP SP+-4
        MOV     R0,A
          CFI R0 SameValue
        POP     PSW
          CFI PSW SameValue
          CFI CFA_SP SP+-3
        POP     A
          CFI A SameValue
          CFI CFA_SP SP+-2
        RETI
          CFI EndBlock cfiBlock18
        REQUIRE _A_IEN0
        REQUIRE _A_IRCON

        COMMON INTVEC:CODE:ROOT(0)
        ORG 43
`??halSleepTimerIsr::??INTVEC 43`:
        LJMP       (halSleepTimerIsr)

        RSEG DATA_ID:CODE:NOROOT(0)
`?<Initializer for halSleepPconValue>`:
        DATA8
        DB 1

        RSEG XDATA_ID:CODE:NOROOT(0)
`?<Initializer for maxSleepLoopTime>`:
        DATA32
        DD 1593750

        RSEG XDATA_ROM_C:CONST:REORDER:NOROOT(0)
        DATA32
__Constant_fffffffe:
        DD 4294967294

        RSEG XDATA_ROM_C:CONST:REORDER:NOROOT(0)
        DATA32
__Constant_64:
        DD 100

        RSEG XDATA_ROM_C:CONST:REORDER:NOROOT(0)
        DATA32
__Constant_1f:
        DD 31

        RSEG XDATA_ROM_C:CONST:REORDER:NOROOT(0)
        DATA32
__Constant_8:
        DD 8

        RSEG XDATA_ROM_C:CONST:REORDER:NOROOT(0)
        DATA32
__Constant_185197:
        DD 1593751

        RSEG XDATA_ROM_C:CONST:REORDER:NOROOT(0)
        DATA32
__Constant_ffe7ae6a:
        DD 4293373546

        RSEG XDATA_ROM_C:CONST:REORDER:NOROOT(0)
        DATA32
__Constant_185196:
        DD 1593750

        RSEG XDATA_ROM_C:CONST:REORDER:NOROOT(0)
        DATA32
__Constant_29f:
        DD 671

        RSEG XDATA_ROM_C:CONST:REORDER:NOROOT(0)
        DATA32
__Constant_ffffffe9:
        DD 4294967273

        RSEG BANK_RELAYS:CODE:REORDER:NOROOT(0)
`??halSetSleepMode::?relay`:
        CODE
        LCALL   ?BDISPATCH
        DATA24
        DC24    halSetSleepMode

        RSEG BANK_RELAYS:CODE:REORDER:NOROOT(0)
`??halSetMaxSleepLoopTime::?relay`:
        CODE
        LCALL   ?BDISPATCH
        DATA24
        DC24    halSetMaxSleepLoopTime

        RSEG BANK_RELAYS:CODE:REORDER:NOROOT(0)
`??halSleep::?relay`:
        CODE
        LCALL   ?BDISPATCH
        DATA24
        DC24    halSleep

        RSEG BANK_RELAYS:CODE:REORDER:NOROOT(0)
`??halSleepSetTimer::?relay`:
        CODE
        LCALL   ?BDISPATCH
        DATA24
        DC24    halSleepSetTimer

        RSEG BANK_RELAYS:CODE:REORDER:NOROOT(0)
`??TimerElapsed::?relay`:
        CODE
        LCALL   ?BDISPATCH
        DATA24
        DC24    TimerElapsed

        RSEG BANK_RELAYS:CODE:REORDER:NOROOT(0)
`??halRestoreSleepLevel::?relay`:
        CODE
        LCALL   ?BDISPATCH
        DATA24
        DC24    halRestoreSleepLevel

        END
//  584 
// 
// 543 bytes in segment BANKED_CODE
//  36 bytes in segment BANK_RELAYS
//   1 byte  in segment DATA_I
//   1 byte  in segment DATA_ID
//   3 bytes in segment INTVEC
//  41 bytes in segment NEAR_CODE
//  10 bytes in segment SFR_AN
//   7 bytes in segment SLEEP_CODE
//   4 bytes in segment XDATA_I
//   4 bytes in segment XDATA_ID
//  36 bytes in segment XDATA_ROM_C
//   1 byte  in segment XDATA_Z
// 
// 632 bytes of CODE  memory (+  3 bytes shared)
//   0 bytes of CONST memory (+ 36 bytes shared)
//   1 byte  of DATA  memory (+ 10 bytes shared)
//   5 bytes of XDATA memory
//
//Errors: none
//Warnings: none
