///////////////////////////////////////////////////////////////////////////////
//
// IAR C/C++ Compiler V9.30.1.3056 for 8051               21/Nov/2018  13:52:06
// Copyright 2004-2015 IAR Systems AB.
// Standalone license - IAR Embedded Workbench for 8051
//
//    Core               =  plain
//    Code model         =  banked
//    Data model         =  large
//    Calling convention =  xdata reentrant
//    Constant location  =  data_rom
//    Dptr setup         =  1,16
//                          
//    Source file        =  
//        D:\1.embedded\kit\cc2530\Reference\Z-Stack Mesh
//        1.0.0\Components\mac\low_level\srf04\mac_low_level.c
//    Command line       =  
//        -f "D:\1.embedded\kit\cc2530\Reference\Z-Stack Mesh
//        1.0.0\Projects\zstack\ZNP\CC253x\..\Source\znp.cfg"
//        (-DMAC_CFG_APP_PENDING_QUEUE=TRUE
//        "-DZSTACK_DEVICE_BUILD=(DEVICE_BUILD_COORDINATOR |
//        DEVICE_BUILD_ROUTER | DEVICE_BUILD_ENDDEVICE)" -DNWK_AUTO_POLL
//        -DZNP_RUN_WDOG=FALSE -DZNP_UART_BAUD=HAL_UART_BR_115200 -DZIGBEEPRO
//        -DZIGBEE_FRAGMENTATION -DINTER_PAN -DOSAL_CLOCK -DOSAL_SAPI=FALSE
//        -DSAPI_CB_FUNC=FALSE -DHOLD_AUTO_START -DNV_RESTORE -DNV_INIT
//        -DNUM_DISC_ATTEMPTS=0 -DMT_UTIL_FUNC -DMT_SYS_FUNC -DMT_AF_FUNC
//        -DMT_SAPI_FUNC -DMT_SAPI_CB_FUNC -DMT_ZDO_CB_FUNC -DMT_ZDO_FUNC
//        -DMT_ZDO_MGMT -DMT_ZDO_EXTENSIONS -DMT_APP_FUNC) -f
//        "D:\1.embedded\kit\cc2530\Reference\Z-Stack Mesh
//        1.0.0\Projects\zstack\ZNP\CC253x\..\..\Tools\CC2530DB\f8wConfig.cfg"
//        (-DZIGBEEPRO -DSECURE=1 -DZG_SECURE_DYNAMIC=0 -DREFLECTOR
//        -DDEFAULT_CHANLIST=0x00000800 -DZDAPP_CONFIG_PAN_ID=0xFFFF
//        -DNWK_START_DELAY=100 -DEXTENDED_JOINING_RANDOM_MASK=0x007F
//        -DBEACON_REQUEST_DELAY=100 -DBEACON_REQ_DELAY_MASK=0x00FF
//        -DLINK_STATUS_JITTER_MASK=0x007F -DROUTE_EXPIRY_TIME=30
//        -DAPSC_ACK_WAIT_DURATION_POLLED=3000 -DNWK_INDIRECT_MSG_TIMEOUT=7
//        -DMAX_RREQ_ENTRIES=8 -DAPSC_MAX_FRAME_RETRIES=3
//        -DNWK_MAX_DATA_RETRIES=2 -DMAX_POLL_FAILURE_RETRIES=2 -DMAX_BCAST=9
//        -DAPS_MAX_GROUPS=16 -DMAX_RTG_ENTRIES=40 -DNWK_MAX_BINDING_ENTRIES=4
//        -DMAX_BINDING_CLUSTER_IDS=4 "-DDEFAULT_KEY={0x01, 0x03, 0x05, 0x07,
//        0x09, 0x0B, 0x0D, 0x0F, 0x00, 0x02, 0x04, 0x06, 0x08, 0x0A, 0x0C,
//        0x0D}" -DMAC_MAX_FRAME_SIZE=116 -DZDNWKMGR_MIN_TRANSMISSIONS=20
//        "-DCONST=const __code" -DGENERIC=__generic -DRFD_RCVC_ALWAYS_ON=FALSE
//        -DPOLL_RATE=1000 -DQUEUED_POLL_RATE=100 -DRESPONSE_POLL_RATE=100
//        -DREJOIN_POLL_RATE=440) -f
//        "D:\1.embedded\kit\cc2530\Reference\Z-Stack Mesh
//        1.0.0\Projects\zstack\ZNP\CC253x\..\..\Tools\CC2530DB\f8wZCL.cfg"
//        "D:\1.embedded\kit\cc2530\Reference\Z-Stack Mesh
//        1.0.0\Components\mac\low_level\srf04\mac_low_level.c" -D
//        FEATURE_SYSTEM_STATS -D POWER_SAVING -lC
//        "D:\1.embedded\kit\cc2530\Reference\Z-Stack Mesh
//        1.0.0\Projects\zstack\ZNP\CC253x\CC2530-Debug\List" -lA
//        "D:\1.embedded\kit\cc2530\Reference\Z-Stack Mesh
//        1.0.0\Projects\zstack\ZNP\CC253x\CC2530-Debug\List" --diag_suppress
//        Pe001,Pa010 -o "D:\1.embedded\kit\cc2530\Reference\Z-Stack Mesh
//        1.0.0\Projects\zstack\ZNP\CC253x\CC2530-Debug\Obj" -e
//        --no_code_motion --debug --core=plain --dptr=16,1 --data_model=large
//        --code_model=banked --calling_convention=xdata_reentrant
//        --place_constants=data_rom --nr_virtual_regs 16 -I
//        "D:\1.embedded\kit\cc2530\Reference\Z-Stack Mesh
//        1.0.0\Projects\zstack\ZNP\CC253x\" -I
//        "D:\1.embedded\kit\cc2530\Reference\Z-Stack Mesh
//        1.0.0\Projects\zstack\ZNP\CC253x\Source\" -I
//        "D:\1.embedded\kit\cc2530\Reference\Z-Stack Mesh
//        1.0.0\Projects\zstack\ZNP\CC253x\..\Source\" -I
//        "D:\1.embedded\kit\cc2530\Reference\Z-Stack Mesh
//        1.0.0\Projects\zstack\ZNP\CC253x\..\..\SE\Source\" -I
//        "D:\1.embedded\kit\cc2530\Reference\Z-Stack Mesh
//        1.0.0\Projects\zstack\ZNP\CC253x\..\..\ZMain\TI2530ZNP\" -I
//        "D:\1.embedded\kit\cc2530\Reference\Z-Stack Mesh
//        1.0.0\Projects\zstack\ZNP\CC253x\..\..\..\..\Components\hal\include\"
//        -I "D:\1.embedded\kit\cc2530\Reference\Z-Stack Mesh
//        1.0.0\Projects\zstack\ZNP\CC253x\..\..\..\..\Components\hal\target\CC2530ZNP\"
//        -I "D:\1.embedded\kit\cc2530\Reference\Z-Stack Mesh
//        1.0.0\Projects\zstack\ZNP\CC253x\..\..\..\..\Components\mac\include\"
//        -I "D:\1.embedded\kit\cc2530\Reference\Z-Stack Mesh
//        1.0.0\Projects\zstack\ZNP\CC253x\..\..\..\..\Components\mac\high_level\"
//        -I "D:\1.embedded\kit\cc2530\Reference\Z-Stack Mesh
//        1.0.0\Projects\zstack\ZNP\CC253x\..\..\..\..\Components\mac\low_level\srf04\"
//        -I "D:\1.embedded\kit\cc2530\Reference\Z-Stack Mesh
//        1.0.0\Projects\zstack\ZNP\CC253x\..\..\..\..\Components\mac\low_level\srf04\single_chip\"
//        -I "D:\1.embedded\kit\cc2530\Reference\Z-Stack Mesh
//        1.0.0\Projects\zstack\ZNP\CC253x\..\..\..\..\Components\mt\" -I
//        "D:\1.embedded\kit\cc2530\Reference\Z-Stack Mesh
//        1.0.0\Projects\zstack\ZNP\CC253x\..\..\..\..\Components\osal\include\"
//        -I "D:\1.embedded\kit\cc2530\Reference\Z-Stack Mesh
//        1.0.0\Projects\zstack\ZNP\CC253x\..\..\..\..\Components\services\saddr\"
//        -I "D:\1.embedded\kit\cc2530\Reference\Z-Stack Mesh
//        1.0.0\Projects\zstack\ZNP\CC253x\..\..\..\..\Components\services\sdata\"
//        -I "D:\1.embedded\kit\cc2530\Reference\Z-Stack Mesh
//        1.0.0\Projects\zstack\ZNP\CC253x\..\..\..\..\Components\stack\af\" -I
//        "D:\1.embedded\kit\cc2530\Reference\Z-Stack Mesh
//        1.0.0\Projects\zstack\ZNP\CC253x\..\..\..\..\Components\stack\nwk\"
//        -I "D:\1.embedded\kit\cc2530\Reference\Z-Stack Mesh
//        1.0.0\Projects\zstack\ZNP\CC253x\..\..\..\..\Components\stack\sapi\"
//        -I "D:\1.embedded\kit\cc2530\Reference\Z-Stack Mesh
//        1.0.0\Projects\zstack\ZNP\CC253x\..\..\..\..\Components\stack\sec\"
//        -I "D:\1.embedded\kit\cc2530\Reference\Z-Stack Mesh
//        1.0.0\Projects\zstack\ZNP\CC253x\..\..\..\..\Components\stack\sys\"
//        -I "D:\1.embedded\kit\cc2530\Reference\Z-Stack Mesh
//        1.0.0\Projects\zstack\ZNP\CC253x\..\..\..\..\Components\stack\zcl\"
//        -I "D:\1.embedded\kit\cc2530\Reference\Z-Stack Mesh
//        1.0.0\Projects\zstack\ZNP\CC253x\..\..\..\..\Components\stack\zdo\"
//        -I "D:\1.embedded\kit\cc2530\Reference\Z-Stack Mesh
//        1.0.0\Projects\zstack\ZNP\CC253x\..\..\..\..\Components\zmac\" -I
//        "D:\1.embedded\kit\cc2530\Reference\Z-Stack Mesh
//        1.0.0\Projects\zstack\ZNP\CC253x\..\..\..\..\Components\zmac\f8w\"
//        -Ohz --require_prototypes
//    List file          =  
//        D:\1.embedded\kit\cc2530\Reference\Z-Stack Mesh
//        1.0.0\Projects\zstack\ZNP\CC253x\CC2530-Debug\List\mac_low_level.s51
//
///////////////////////////////////////////////////////////////////////////////

        NAME mac_low_level

        RTMODEL "__SystemLibrary", "CLib"
        RTMODEL "__calling_convention", "xdata_reentrant"
        RTMODEL "__code_model", "banked"
        RTMODEL "__core", "plain"
        RTMODEL "__data_model", "large"
        RTMODEL "__dptr_size", "16"
        RTMODEL "__extended_stack", "disabled"
        RTMODEL "__location_for_constants", "data"
        RTMODEL "__number_of_dptrs", "1"
        RTMODEL "__rt_version", "1"

        RSEG DOVERLAY:DATA:NOROOT(0)
        RSEG IOVERLAY:IDATA:NOROOT(0)
        RSEG ISTACK:IDATA:NOROOT(0)
        RSEG PSTACK:XDATA:NOROOT(0)
        RSEG XSTACK:XDATA:NOROOT(0)

        EXTERN ?V0
        EXTERN ?V1
        EXTERN ?V2
        EXTERN ?V3
        EXTERN ?ALLOC_XSTACK8
        EXTERN ?BANKED_ENTER_XDATA
        EXTERN ?BANKED_LEAVE_XDATA
        EXTERN ?BDISPATCH
        EXTERN ?BRET
        EXTERN ?DEALLOC_XSTACK8
        EXTERN ?L_ADD_TO_X
        EXTERN ?L_MOV_X
        EXTERN ?XSP

        PUBLIC `??macLowLevelDiags::?relay`
        FUNCTION `??macLowLevelDiags::?relay`,0203H
        PUBLIC `??macLowLevelInit::?relay`
        FUNCTION `??macLowLevelInit::?relay`,0203H
        PUBLIC `??macLowLevelReset::?relay`
        FUNCTION `??macLowLevelReset::?relay`,0203H
        PUBLIC `??macLowLevelResume::?relay`
        FUNCTION `??macLowLevelResume::?relay`,0203H
        PUBLIC `??macLowLevelYield::?relay`
        FUNCTION `??macLowLevelYield::?relay`,0203H
        PUBWEAK _A_IEN0
        PUBWEAK __Constant_1
        PUBLIC macLowLevelDiags
        FUNCTION macLowLevelDiags,0a1203H
        ARGFRAME XSTACK, 0, STACK
        LOCFRAME XSTACK, 16, STACK
        PUBLIC macLowLevelInit
        FUNCTION macLowLevelInit,021203H
        ARGFRAME XSTACK, 0, STACK
        LOCFRAME ISTACK, 2, STACK
        PUBLIC macLowLevelReset
        FUNCTION macLowLevelReset,021203H
        ARGFRAME XSTACK, 0, STACK
        LOCFRAME ISTACK, 2, STACK
        PUBLIC macLowLevelResume
        FUNCTION macLowLevelResume,021203H
        ARGFRAME XSTACK, 0, STACK
        LOCFRAME ISTACK, 2, STACK
        PUBLIC macLowLevelYield
        FUNCTION macLowLevelYield,0203H
        ARGFRAME XSTACK, 0, STACK
        LOCFRAME ISTACK, 2, STACK
        
          CFI Names cfiNames0
          CFI StackFrame CFA_SP SP IDATA
          CFI StackFrame CFA_PSP16 PSP16 XDATA
          CFI StackFrame CFA_XSP16 XSP16 XDATA
          CFI StaticOverlayFrame CFA_IOVERLAY IOVERLAY
          CFI StaticOverlayFrame CFA_DOVERLAY DOVERLAY
          CFI Resource `PSW.CY`:1, `B.BR0`:1, `B.BR1`:1, `B.BR2`:1, `B.BR3`:1
          CFI Resource `B.BR4`:1, `B.BR5`:1, `B.BR6`:1, `B.BR7`:1, `VB.BR8`:1
          CFI Resource `VB.BR9`:1, `VB.BR10`:1, `VB.BR11`:1, `VB.BR12`:1
          CFI Resource `VB.BR13`:1, `VB.BR14`:1, `VB.BR15`:1, VB:8, B:8, A:8
          CFI Resource PSW:8, DPL0:8, DPH0:8, R0:8, R1:8, R2:8, R3:8, R4:8, R5:8
          CFI Resource R6:8, R7:8, V0:8, V1:8, V2:8, V3:8, V4:8, V5:8, V6:8, V7:8
          CFI Resource V8:8, V9:8, V10:8, V11:8, V12:8, V13:8, V14:8, V15:8, SP:8
          CFI Resource PSPH:8, PSPL:8, PSP16:16, XSPH:8, XSPL:8, XSP16:16
          CFI VirtualResource ?RET:24
          CFI Resource ?BRET_EXT:8
          CFI VirtualResource ?RET_HIGH:8, ?RET_LOW:8
          CFI ResourceParts PSP16 PSPH, PSPL
          CFI ResourceParts XSP16 XSPH, XSPL
          CFI ResourceParts ?RET ?BRET_EXT, ?RET_HIGH, ?RET_LOW
          CFI EndNames cfiNames0
        
          CFI Common cfiCommon0 Using cfiNames0
          CFI CodeAlign 1
          CFI DataAlign -1
          CFI ReturnAddress ?RET CODE
          CFI CFA_DOVERLAY Used
          CFI CFA_IOVERLAY Used
          CFI CFA_SP SP+-3
          CFI CFA_PSP16 PSP16+0
          CFI CFA_XSP16 XSP16+0
          CFI `PSW.CY` SameValue
          CFI `B.BR0` SameValue
          CFI `B.BR1` SameValue
          CFI `B.BR2` SameValue
          CFI `B.BR3` SameValue
          CFI `B.BR4` SameValue
          CFI `B.BR5` SameValue
          CFI `B.BR6` SameValue
          CFI `B.BR7` SameValue
          CFI `VB.BR8` SameValue
          CFI `VB.BR9` SameValue
          CFI `VB.BR10` SameValue
          CFI `VB.BR11` SameValue
          CFI `VB.BR12` SameValue
          CFI `VB.BR13` SameValue
          CFI `VB.BR14` SameValue
          CFI `VB.BR15` SameValue
          CFI VB SameValue
          CFI B Undefined
          CFI A Undefined
          CFI PSW SameValue
          CFI DPL0 SameValue
          CFI DPH0 SameValue
          CFI R0 Undefined
          CFI R1 Undefined
          CFI R2 Undefined
          CFI R3 Undefined
          CFI R4 Undefined
          CFI R5 Undefined
          CFI R6 SameValue
          CFI R7 SameValue
          CFI V0 SameValue
          CFI V1 SameValue
          CFI V2 SameValue
          CFI V3 SameValue
          CFI V4 SameValue
          CFI V5 SameValue
          CFI V6 SameValue
          CFI V7 SameValue
          CFI V8 SameValue
          CFI V9 SameValue
          CFI V10 SameValue
          CFI V11 SameValue
          CFI V12 SameValue
          CFI V13 SameValue
          CFI V14 SameValue
          CFI V15 SameValue
          CFI PSPH Undefined
          CFI PSPL Undefined
          CFI XSPH Undefined
          CFI XSPL Undefined
          CFI ?RET Concat
          CFI ?BRET_EXT Frame(CFA_SP, 3)
          CFI ?RET_HIGH Frame(CFA_SP, 2)
          CFI ?RET_LOW Frame(CFA_SP, 1)
          CFI EndCommon cfiCommon0
        
MAC_MlmeGetReq      SYMBOL "MAC_MlmeGetReq"
`??MAC_MlmeGetReq::?relay` SYMBOL "?relay", MAC_MlmeGetReq
MAC_MlmeSetReq      SYMBOL "MAC_MlmeSetReq"
`??MAC_MlmeSetReq::?relay` SYMBOL "?relay", MAC_MlmeSetReq
halAssertHandler    SYMBOL "halAssertHandler"
`??halAssertHandler::?relay` SYMBOL "?relay", halAssertHandler
macBackoffTimerInit SYMBOL "macBackoffTimerInit"
`??macBackoffTimerInit::?relay` SYMBOL "?relay", macBackoffTimerInit
macBackoffTimerReset SYMBOL "macBackoffTimerReset"
`??macBackoffTimerReset::?relay` SYMBOL "?relay", macBackoffTimerReset
macMcuInit          SYMBOL "macMcuInit"
`??macMcuInit::?relay` SYMBOL "?relay", macMcuInit
macRadioInit        SYMBOL "macRadioInit"
`??macRadioInit::?relay` SYMBOL "?relay", macRadioInit
macRadioReset       SYMBOL "macRadioReset"
`??macRadioReset::?relay` SYMBOL "?relay", macRadioReset
macRxInit           SYMBOL "macRxInit"
`??macRxInit::?relay` SYMBOL "?relay", macRxInit
macRxOnOffInit      SYMBOL "macRxOnOffInit"
`??macRxOnOffInit::?relay` SYMBOL "?relay", macRxOnOffInit
macRxTxReset        SYMBOL "macRxTxReset"
`??macRxTxReset::?relay` SYMBOL "?relay", macRxTxReset
macSleepWakeUp      SYMBOL "macSleepWakeUp"
`??macSleepWakeUp::?relay` SYMBOL "?relay", macSleepWakeUp
macTxInit           SYMBOL "macTxInit"
`??macTxInit::?relay` SYMBOL "?relay", macTxInit
macLowLevelDiags    SYMBOL "macLowLevelDiags"
`??macLowLevelDiags::?relay` SYMBOL "?relay", macLowLevelDiags
macLowLevelInit     SYMBOL "macLowLevelInit"
`??macLowLevelInit::?relay` SYMBOL "?relay", macLowLevelInit
macLowLevelReset    SYMBOL "macLowLevelReset"
`??macLowLevelReset::?relay` SYMBOL "?relay", macLowLevelReset
macLowLevelResume   SYMBOL "macLowLevelResume"
`??macLowLevelResume::?relay` SYMBOL "?relay", macLowLevelResume
macLowLevelYield    SYMBOL "macLowLevelYield"
`??macLowLevelYield::?relay` SYMBOL "?relay", macLowLevelYield

        EXTERN `??MAC_MlmeGetReq::?relay`
        FUNCTION `??MAC_MlmeGetReq::?relay`,00H
        EXTERN `??MAC_MlmeSetReq::?relay`
        FUNCTION `??MAC_MlmeSetReq::?relay`,00H
        EXTERN `??halAssertHandler::?relay`
        FUNCTION `??halAssertHandler::?relay`,00H
        EXTERN `??macBackoffTimerInit::?relay`
        FUNCTION `??macBackoffTimerInit::?relay`,00H
        EXTERN `??macBackoffTimerReset::?relay`
        FUNCTION `??macBackoffTimerReset::?relay`,00H
        EXTERN `??macMcuInit::?relay`
        FUNCTION `??macMcuInit::?relay`,00H
        EXTERN `??macRadioInit::?relay`
        FUNCTION `??macRadioInit::?relay`,00H
        EXTERN `??macRadioReset::?relay`
        FUNCTION `??macRadioReset::?relay`,00H
        EXTERN `??macRxInit::?relay`
        FUNCTION `??macRxInit::?relay`,00H
        EXTERN `??macRxOnOffInit::?relay`
        FUNCTION `??macRxOnOffInit::?relay`,00H
        EXTERN `??macRxTxReset::?relay`
        FUNCTION `??macRxTxReset::?relay`,00H
        EXTERN `??macSleepWakeUp::?relay`
        FUNCTION `??macSleepWakeUp::?relay`,00H
        EXTERN `??macTxInit::?relay`
        FUNCTION `??macTxInit::?relay`,00H
        EXTERN MAC_MlmeGetReq
        FUNCTION MAC_MlmeGetReq,0202H
        ARGFRAME ISTACK, 0, STACK
        ARGFRAME PSTACK, 0, STACK
        ARGFRAME XSTACK, 16, STACK
        ARGFRAME IOVERLAY, 0, STATIC
        ARGFRAME DOVERLAY, 0, STATIC
        EXTERN MAC_MlmeSetReq
        FUNCTION MAC_MlmeSetReq,0202H
        ARGFRAME ISTACK, 0, STACK
        ARGFRAME PSTACK, 0, STACK
        ARGFRAME XSTACK, 16, STACK
        ARGFRAME IOVERLAY, 0, STATIC
        ARGFRAME DOVERLAY, 0, STATIC
        EXTERN halAssertHandler
        FUNCTION halAssertHandler,0202H
        ARGFRAME ISTACK, 2, STACK
        ARGFRAME PSTACK, 0, STACK
        ARGFRAME XSTACK, 0, STACK
        ARGFRAME IOVERLAY, 0, STATIC
        ARGFRAME DOVERLAY, 0, STATIC
        EXTERN macBackoffTimerInit
        FUNCTION macBackoffTimerInit,0202H
        ARGFRAME ISTACK, 2, STACK
        ARGFRAME PSTACK, 0, STACK
        ARGFRAME XSTACK, 0, STACK
        ARGFRAME IOVERLAY, 0, STATIC
        ARGFRAME DOVERLAY, 0, STATIC
        EXTERN macBackoffTimerReset
        FUNCTION macBackoffTimerReset,0202H
        ARGFRAME ISTACK, 2, STACK
        ARGFRAME PSTACK, 0, STACK
        ARGFRAME XSTACK, 0, STACK
        ARGFRAME IOVERLAY, 0, STATIC
        ARGFRAME DOVERLAY, 0, STATIC
        EXTERN macMcuInit
        FUNCTION macMcuInit,0202H
        ARGFRAME ISTACK, 2, STACK
        ARGFRAME PSTACK, 0, STACK
        ARGFRAME XSTACK, 0, STACK
        ARGFRAME IOVERLAY, 0, STATIC
        ARGFRAME DOVERLAY, 0, STATIC
        EXTERN macRadioInit
        FUNCTION macRadioInit,0202H
        ARGFRAME ISTACK, 2, STACK
        ARGFRAME PSTACK, 0, STACK
        ARGFRAME XSTACK, 0, STACK
        ARGFRAME IOVERLAY, 0, STATIC
        ARGFRAME DOVERLAY, 0, STATIC
        EXTERN macRadioReset
        FUNCTION macRadioReset,0202H
        ARGFRAME ISTACK, 2, STACK
        ARGFRAME PSTACK, 0, STACK
        ARGFRAME XSTACK, 0, STACK
        ARGFRAME IOVERLAY, 0, STATIC
        ARGFRAME DOVERLAY, 0, STATIC
        EXTERN macRxActive
        EXTERN macRxEnableFlags
        EXTERN macRxInit
        FUNCTION macRxInit,0202H
        ARGFRAME ISTACK, 2, STACK
        ARGFRAME PSTACK, 0, STACK
        ARGFRAME XSTACK, 0, STACK
        ARGFRAME IOVERLAY, 0, STATIC
        ARGFRAME DOVERLAY, 0, STATIC
        EXTERN macRxOnOffInit
        FUNCTION macRxOnOffInit,0202H
        ARGFRAME ISTACK, 2, STACK
        ARGFRAME PSTACK, 0, STACK
        ARGFRAME XSTACK, 0, STACK
        ARGFRAME IOVERLAY, 0, STATIC
        ARGFRAME DOVERLAY, 0, STATIC
        EXTERN macRxOutgoingAckFlag
        EXTERN macRxTxReset
        FUNCTION macRxTxReset,0202H
        ARGFRAME ISTACK, 2, STACK
        ARGFRAME PSTACK, 0, STACK
        ARGFRAME XSTACK, 0, STACK
        ARGFRAME IOVERLAY, 0, STATIC
        ARGFRAME DOVERLAY, 0, STATIC
        EXTERN macSleepState
        EXTERN macSleepWakeUp
        FUNCTION macSleepWakeUp,0202H
        ARGFRAME ISTACK, 2, STACK
        ARGFRAME PSTACK, 0, STACK
        ARGFRAME XSTACK, 0, STACK
        ARGFRAME IOVERLAY, 0, STATIC
        ARGFRAME DOVERLAY, 0, STATIC
        EXTERN macTxActive
        EXTERN macTxInit
        FUNCTION macTxInit,0202H
        ARGFRAME ISTACK, 2, STACK
        ARGFRAME PSTACK, 0, STACK
        ARGFRAME XSTACK, 0, STACK
        ARGFRAME IOVERLAY, 0, STATIC
        ARGFRAME DOVERLAY, 0, STATIC

// D:\1.embedded\kit\cc2530\Reference\Z-Stack Mesh 1.0.0\Components\mac\low_level\srf04\mac_low_level.c
//    1 /**************************************************************************************************
//    2   Filename:       mac_low_level.c
//    3   Revised:        $Date: 2014-03-13 10:50:10 -0700 (Thu, 13 Mar 2014) $
//    4   Revision:       $Revision: 37663 $
//    5 
//    6   Description:    Describe the purpose and contents of the file.
//    7 
//    8 
//    9   Copyright 2006-2014 Texas Instruments Incorporated. All rights reserved.
//   10 
//   11   IMPORTANT: Your use of this Software is limited to those specific rights
//   12   granted under the terms of a software license agreement between the user
//   13   who downloaded the software, his/her employer (which must be your employer)
//   14   and Texas Instruments Incorporated (the "License").  You may not use this
//   15   Software unless you agree to abide by the terms of the License. The License
//   16   limits your use, and you acknowledge, that the Software may not be modified,
//   17   copied or distributed unless embedded on a Texas Instruments microcontroller
//   18   or used solely and exclusively in conjunction with a Texas Instruments radio
//   19   frequency transceiver, which is integrated into your product.  Other than for
//   20   the foregoing purpose, you may not use, reproduce, copy, prepare derivative
//   21   works of, modify, distribute, perform, display or sell this Software and/or
//   22   its documentation for any purpose.
//   23 
//   24   YOU FURTHER ACKNOWLEDGE AND AGREE THAT THE SOFTWARE AND DOCUMENTATION ARE
//   25   PROVIDED “AS IS” WITHOUT WARRANTY OF ANY KIND, EITHER EXPRESS OR IMPLIED,
//   26   INCLUDING WITHOUT LIMITATION, ANY WARRANTY OF MERCHANTABILITY, TITLE,
//   27   NON-INFRINGEMENT AND FITNESS FOR A PARTICULAR PURPOSE. IN NO EVENT SHALL
//   28   TEXAS INSTRUMENTS OR ITS LICENSORS BE LIABLE OR OBLIGATED UNDER CONTRACT,
//   29   NEGLIGENCE, STRICT LIABILITY, CONTRIBUTION, BREACH OF WARRANTY, OR OTHER
//   30   LEGAL EQUITABLE THEORY ANY DIRECT OR INDIRECT DAMAGES OR EXPENSES
//   31   INCLUDING BUT NOT LIMITED TO ANY INCIDENTAL, SPECIAL, INDIRECT, PUNITIVE
//   32   OR CONSEQUENTIAL DAMAGES, LOST PROFITS OR LOST DATA, COST OF PROCUREMENT
//   33   OF SUBSTITUTE GOODS, TECHNOLOGY, SERVICES, OR ANY CLAIMS BY THIRD PARTIES
//   34   (INCLUDING BUT NOT LIMITED TO ANY DEFENSE THEREOF), OR OTHER SIMILAR COSTS.
//   35 
//   36   Should you have any questions regarding your right to use this Software,
//   37   contact Texas Instruments Incorporated at www.TI.com.
//   38 **************************************************************************************************/
//   39 
//   40 /* ------------------------------------------------------------------------------------------------
//   41  *                                          Includes
//   42  * ------------------------------------------------------------------------------------------------
//   43  */
//   44 
//   45 /* hal */
//   46 #include "hal_types.h"
//   47 #include "hal_mcu.h"

        ASEGN SFR_AN:DATA:NOROOT,0a8H
// union <unnamed> volatile __sfr _A_IEN0
_A_IEN0:
        DATA8
        DS 1
//   48 
//   49 #include "mac_main.h"
//   50 
//   51 /* exported low-level */
//   52 #include "mac_low_level.h"
//   53 
//   54 /* low-level specific */
//   55 #include "mac_radio.h"
//   56 #include "mac_rx.h"
//   57 #include "mac_tx.h"
//   58 #include "mac_rx_onoff.h"
//   59 #include "mac_backoff_timer.h"
//   60 #include "mac_sleep.h"
//   61 
//   62 /* target specific */
//   63 #include "mac_radio_defs.h"
//   64 
//   65 /* debug */
//   66 #include "mac_assert.h"
//   67 
//   68 #if !defined ( HAL_CLOCK_CRYSTAL )
//   69 /* DCO has a frequency error of 2% */
//   70 const uint16 CODE macBeaconMarginDCO[] =
//   71 {
//   72   3,
//   73   3,
//   74   4,
//   75   8,
//   76   16,
//   77   31,
//   78   62,
//   79   123,
//   80   246,
//   81   492,
//   82   983,
//   83   1967,
//   84   3933,
//   85   7865,
//   86   15729,
//   87   0
//   88 };
//   89 #endif
//   90 
//   91 /**************************************************************************************************
//   92  * @fn          macLowLevelInit
//   93  *
//   94  * @brief       Initialize low-level MAC.  Called only once on system power-up.
//   95  *
//   96  * @param       none
//   97  *
//   98  * @return      none
//   99  **************************************************************************************************
//  100  */

        RSEG BANKED_CODE:CODE:NOROOT(0)
//  101 MAC_INTERNAL_API void macLowLevelInit(void)
macLowLevelInit:
          CFI Block cfiBlock0 Using cfiCommon0
          CFI Function macLowLevelInit
        CODE
//  102 {
        FUNCALL macLowLevelInit, macMcuInit
        LOCFRAME ISTACK, 2, STACK
        LOCFRAME PSTACK, 0, STACK
        LOCFRAME XSTACK, 0, STACK
        LOCFRAME IOVERLAY, 0, STATIC
        LOCFRAME DOVERLAY, 0, STATIC
        ARGFRAME ISTACK, 2, STACK
        ARGFRAME PSTACK, 0, STACK
        ARGFRAME XSTACK, 0, STACK
        ARGFRAME IOVERLAY, 0, STATIC
        ARGFRAME DOVERLAY, 0, STATIC
        FUNCALL macLowLevelInit, macRadioInit
        LOCFRAME ISTACK, 2, STACK
        LOCFRAME PSTACK, 0, STACK
        LOCFRAME XSTACK, 0, STACK
        LOCFRAME IOVERLAY, 0, STATIC
        LOCFRAME DOVERLAY, 0, STATIC
        ARGFRAME ISTACK, 2, STACK
        ARGFRAME PSTACK, 0, STACK
        ARGFRAME XSTACK, 0, STACK
        ARGFRAME IOVERLAY, 0, STATIC
        ARGFRAME DOVERLAY, 0, STATIC
        FUNCALL macLowLevelInit, macRxOnOffInit
        LOCFRAME ISTACK, 2, STACK
        LOCFRAME PSTACK, 0, STACK
        LOCFRAME XSTACK, 0, STACK
        LOCFRAME IOVERLAY, 0, STATIC
        LOCFRAME DOVERLAY, 0, STATIC
        ARGFRAME ISTACK, 2, STACK
        ARGFRAME PSTACK, 0, STACK
        ARGFRAME XSTACK, 0, STACK
        ARGFRAME IOVERLAY, 0, STATIC
        ARGFRAME DOVERLAY, 0, STATIC
        FUNCALL macLowLevelInit, macRxInit
        LOCFRAME ISTACK, 2, STACK
        LOCFRAME PSTACK, 0, STACK
        LOCFRAME XSTACK, 0, STACK
        LOCFRAME IOVERLAY, 0, STATIC
        LOCFRAME DOVERLAY, 0, STATIC
        ARGFRAME ISTACK, 2, STACK
        ARGFRAME PSTACK, 0, STACK
        ARGFRAME XSTACK, 0, STACK
        ARGFRAME IOVERLAY, 0, STATIC
        ARGFRAME DOVERLAY, 0, STATIC
        FUNCALL macLowLevelInit, macTxInit
        LOCFRAME ISTACK, 2, STACK
        LOCFRAME PSTACK, 0, STACK
        LOCFRAME XSTACK, 0, STACK
        LOCFRAME IOVERLAY, 0, STATIC
        LOCFRAME DOVERLAY, 0, STATIC
        ARGFRAME ISTACK, 2, STACK
        ARGFRAME PSTACK, 0, STACK
        ARGFRAME XSTACK, 0, STACK
        ARGFRAME IOVERLAY, 0, STATIC
        ARGFRAME DOVERLAY, 0, STATIC
        FUNCALL macLowLevelInit, macBackoffTimerInit
        LOCFRAME ISTACK, 2, STACK
        LOCFRAME PSTACK, 0, STACK
        LOCFRAME XSTACK, 0, STACK
        LOCFRAME IOVERLAY, 0, STATIC
        LOCFRAME DOVERLAY, 0, STATIC
        ARGFRAME ISTACK, 2, STACK
        ARGFRAME PSTACK, 0, STACK
        ARGFRAME XSTACK, 0, STACK
        ARGFRAME IOVERLAY, 0, STATIC
        ARGFRAME DOVERLAY, 0, STATIC
        PUSH    DPL
          CFI DPL0 Frame(CFA_SP, 4)
          CFI CFA_SP SP+-4
        PUSH    DPH
          CFI DPH0 Frame(CFA_SP, 5)
          CFI CFA_SP SP+-5
        ; Saved register size: 2
        ; Auto size: 0
//  103   /* initialize mcu before anything else */
//  104   MAC_RADIO_MCU_INIT();
        ; Setup parameters for call to function macMcuInit
        LCALL   `??macMcuInit::?relay`; Banked call to: macMcuInit
//  105 
//  106   /* initialize (override) beacon margin timing table */
//  107 #if !defined ( HAL_CLOCK_CRYSTAL )
//  108   {
//  109     uint8 i;
//  110 
//  111     for (i = 0; i < sizeof(macBeaconMarginDCO)/sizeof(macBeaconMarginDCO[0]); i++)
//  112     {
//  113       macBeaconMargin[i] = macBeaconMarginDCO[i];
//  114     }
//  115   }
//  116 #endif
//  117 
//  118   /* software initialziation */
//  119   macRadioInit();
        ; Setup parameters for call to function macRadioInit
        LCALL   `??macRadioInit::?relay`; Banked call to: macRadioInit
//  120   macRxOnOffInit();
        ; Setup parameters for call to function macRxOnOffInit
        LCALL   `??macRxOnOffInit::?relay`; Banked call to: macRxOnOffInit
//  121   macRxInit();
        ; Setup parameters for call to function macRxInit
        LCALL   `??macRxInit::?relay`; Banked call to: macRxInit
//  122   macTxInit();
        ; Setup parameters for call to function macTxInit
        LCALL   `??macTxInit::?relay`; Banked call to: macTxInit
//  123   macBackoffTimerInit();
        ; Setup parameters for call to function macBackoffTimerInit
        LCALL   `??macBackoffTimerInit::?relay`; Banked call to: macBackoffTimerInit
//  124 }
        SJMP    ?Subroutine0
          CFI EndBlock cfiBlock0
//  125 
//  126 
//  127 /**************************************************************************************************
//  128  * @fn          macLowLevelReset
//  129  *
//  130  * @brief       Reset low-level MAC.
//  131  *
//  132  * @param       none
//  133  *
//  134  * @return      none
//  135  **************************************************************************************************
//  136  */

        RSEG BANKED_CODE:CODE:NOROOT(0)
//  137 MAC_INTERNAL_API void macLowLevelReset(void)
macLowLevelReset:
          CFI Block cfiBlock1 Using cfiCommon0
          CFI Function macLowLevelReset
        CODE
//  138 {
        FUNCALL macLowLevelReset, halAssertHandler
        LOCFRAME ISTACK, 2, STACK
        LOCFRAME PSTACK, 0, STACK
        LOCFRAME XSTACK, 0, STACK
        LOCFRAME IOVERLAY, 0, STATIC
        LOCFRAME DOVERLAY, 0, STATIC
        ARGFRAME ISTACK, 2, STACK
        ARGFRAME PSTACK, 0, STACK
        ARGFRAME XSTACK, 0, STACK
        ARGFRAME IOVERLAY, 0, STATIC
        ARGFRAME DOVERLAY, 0, STATIC
        FUNCALL macLowLevelReset, macRxTxReset
        LOCFRAME ISTACK, 2, STACK
        LOCFRAME PSTACK, 0, STACK
        LOCFRAME XSTACK, 0, STACK
        LOCFRAME IOVERLAY, 0, STATIC
        LOCFRAME DOVERLAY, 0, STATIC
        ARGFRAME ISTACK, 2, STACK
        ARGFRAME PSTACK, 0, STACK
        ARGFRAME XSTACK, 0, STACK
        ARGFRAME IOVERLAY, 0, STATIC
        ARGFRAME DOVERLAY, 0, STATIC
        FUNCALL macLowLevelReset, macRadioReset
        LOCFRAME ISTACK, 2, STACK
        LOCFRAME PSTACK, 0, STACK
        LOCFRAME XSTACK, 0, STACK
        LOCFRAME IOVERLAY, 0, STATIC
        LOCFRAME DOVERLAY, 0, STATIC
        ARGFRAME ISTACK, 2, STACK
        ARGFRAME PSTACK, 0, STACK
        ARGFRAME XSTACK, 0, STACK
        ARGFRAME IOVERLAY, 0, STATIC
        ARGFRAME DOVERLAY, 0, STATIC
        FUNCALL macLowLevelReset, macBackoffTimerReset
        LOCFRAME ISTACK, 2, STACK
        LOCFRAME PSTACK, 0, STACK
        LOCFRAME XSTACK, 0, STACK
        LOCFRAME IOVERLAY, 0, STATIC
        LOCFRAME DOVERLAY, 0, STATIC
        ARGFRAME ISTACK, 2, STACK
        ARGFRAME PSTACK, 0, STACK
        ARGFRAME XSTACK, 0, STACK
        ARGFRAME IOVERLAY, 0, STATIC
        ARGFRAME DOVERLAY, 0, STATIC
        FUNCALL macLowLevelReset, macSleepWakeUp
        LOCFRAME ISTACK, 2, STACK
        LOCFRAME PSTACK, 0, STACK
        LOCFRAME XSTACK, 0, STACK
        LOCFRAME IOVERLAY, 0, STATIC
        LOCFRAME DOVERLAY, 0, STATIC
        ARGFRAME ISTACK, 2, STACK
        ARGFRAME PSTACK, 0, STACK
        ARGFRAME XSTACK, 0, STACK
        ARGFRAME IOVERLAY, 0, STATIC
        ARGFRAME DOVERLAY, 0, STATIC
        PUSH    DPL
          CFI DPL0 Frame(CFA_SP, 4)
          CFI CFA_SP SP+-4
        PUSH    DPH
          CFI DPH0 Frame(CFA_SP, 5)
          CFI CFA_SP SP+-5
        ; Saved register size: 2
        ; Auto size: 0
//  139   MAC_ASSERT(!HAL_INTERRUPTS_ARE_ENABLED());   /* interrupts must be disabled */
        MOV     C,0xa8.7
        JNC     ??macLowLevelReset_0
        ; Setup parameters for call to function halAssertHandler
        LCALL   `??halAssertHandler::?relay`; Banked call to: halAssertHandler
//  140 
//  141   /* reset radio modules;  if not awake, skip this */
//  142   if (macSleepState == MAC_SLEEP_STATE_AWAKE)
??macLowLevelReset_0:
        MOV     DPTR,#macSleepState
        MOVX    A,@DPTR
        JNZ     ??macLowLevelReset_1
//  143   {
//  144     macRxTxReset();
        ; Setup parameters for call to function macRxTxReset
        LCALL   `??macRxTxReset::?relay`; Banked call to: macRxTxReset
//  145     macRadioReset();
        ; Setup parameters for call to function macRadioReset
        LCALL   `??macRadioReset::?relay`; Banked call to: macRadioReset
//  146   }
//  147 
//  148   /* reset timer */
//  149   macBackoffTimerReset();
??macLowLevelReset_1:
        ; Setup parameters for call to function macBackoffTimerReset
        LCALL   `??macBackoffTimerReset::?relay`; Banked call to: macBackoffTimerReset
//  150 
//  151   /* power up the radio */
//  152   macSleepWakeUp();
        ; Setup parameters for call to function macSleepWakeUp
        LCALL   `??macSleepWakeUp::?relay`; Banked call to: macSleepWakeUp
//  153 }
        SJMP    ?Subroutine0
          CFI EndBlock cfiBlock1
        REQUIRE _A_IEN0
//  154 
//  155 
//  156 /**************************************************************************************************
//  157  * @fn          macLowLevelResume
//  158  *
//  159  * @brief       Resume the low-level MAC after a successful return from macLowLevelYield.
//  160  *              Note: assuming interrupts are disabled.
//  161  *
//  162  * input parameters
//  163  *
//  164  * None.
//  165  *
//  166  * output parameters
//  167  *
//  168  * None.
//  169  *
//  170  * @return      None.
//  171  **************************************************************************************************
//  172  */

        RSEG BANKED_CODE:CODE:NOROOT(0)
//  173 MAC_INTERNAL_API void macLowLevelResume(void)
macLowLevelResume:
          CFI Block cfiBlock2 Using cfiCommon0
          CFI Function macLowLevelResume
        CODE
//  174 {
        FUNCALL macLowLevelResume, macRadioInit
        LOCFRAME ISTACK, 2, STACK
        LOCFRAME PSTACK, 0, STACK
        LOCFRAME XSTACK, 0, STACK
        LOCFRAME IOVERLAY, 0, STATIC
        LOCFRAME DOVERLAY, 0, STATIC
        ARGFRAME ISTACK, 2, STACK
        ARGFRAME PSTACK, 0, STACK
        ARGFRAME XSTACK, 0, STACK
        ARGFRAME IOVERLAY, 0, STATIC
        ARGFRAME DOVERLAY, 0, STATIC
        PUSH    DPL
          CFI DPL0 Frame(CFA_SP, 4)
          CFI CFA_SP SP+-4
        PUSH    DPH
          CFI DPH0 Frame(CFA_SP, 5)
          CFI CFA_SP SP+-5
        ; Saved register size: 2
        ; Auto size: 0
//  175   macRadioInit();
        ; Setup parameters for call to function macRadioInit
        LCALL   `??macRadioInit::?relay`; Banked call to: macRadioInit
//  176 }
          CFI EndBlock cfiBlock2
        REQUIRE ?Subroutine0
        ; // Fall through to label ?Subroutine0

        RSEG BANKED_CODE:CODE:NOROOT(0)
?Subroutine0:
          CFI Block cfiBlock3 Using cfiCommon0
          CFI NoFunction
          CFI CFA_SP SP+-5
          CFI DPL0 Frame(CFA_SP, 4)
          CFI DPH0 Frame(CFA_SP, 5)
        POP     DPH
          CFI CFA_SP SP+-4
          CFI DPH0 SameValue
        POP     DPL
          CFI CFA_SP SP+-3
          CFI DPL0 SameValue
        LJMP    ?BRET
          CFI EndBlock cfiBlock3
//  177 
//  178 
//  179 /**************************************************************************************************
//  180  * @fn          macLowLevelYield
//  181  *
//  182  * @brief       Check whether or not the low-level MAC is ready to yield.
//  183  *
//  184  * input parameters
//  185  *
//  186  * None.
//  187  *
//  188  * output parameters
//  189  *
//  190  * None.
//  191  *
//  192  * @return      TRUE or FALSE whether the low-level MAC is ready to yield.
//  193  **************************************************************************************************
//  194  */

        RSEG BANKED_CODE:CODE:NOROOT(0)
//  195 MAC_INTERNAL_API bool macLowLevelYield(void)
macLowLevelYield:
          CFI Block cfiBlock4 Using cfiCommon0
          CFI Function macLowLevelYield
        CODE
//  196 {
        PUSH    DPL
          CFI DPL0 Frame(CFA_SP, 4)
          CFI CFA_SP SP+-4
        PUSH    DPH
          CFI DPH0 Frame(CFA_SP, 5)
          CFI CFA_SP SP+-5
        ; Saved register size: 2
        ; Auto size: 0
//  197   bool rtrn = TRUE;
        MOV     R1,#0x1
//  198   halIntState_t  s;
//  199   HAL_ENTER_CRITICAL_SECTION(s);
        MOV     C,0xa8.7
        CLR     A
        RLC     A
        MOV     R0,A
        CLR     0xa8.7
//  200 
//  201   // If RX or TX is active or any RX enable flags are set, it's not OK to yield.
//  202   if (macRxActive || macRxOutgoingAckFlag || macTxActive || (macRxEnableFlags & ~MAC_RX_WHEN_IDLE))
        MOV     DPTR,#macRxActive
        MOVX    A,@DPTR
        JNZ     ??macLowLevelYield_0
        MOV     DPTR,#macRxOutgoingAckFlag
        MOVX    A,@DPTR
        JNZ     ??macLowLevelYield_0
        MOV     DPTR,#macTxActive
        MOVX    A,@DPTR
        JNZ     ??macLowLevelYield_0
        MOV     DPTR,#macRxEnableFlags
        MOVX    A,@DPTR
        ANL     A,#0xfd
        JZ      ??macLowLevelYield_1
//  203   {
//  204     rtrn = FALSE;
??macLowLevelYield_0:
        MOV     R1,#0x0
//  205   }
//  206 
//  207   HAL_EXIT_CRITICAL_SECTION(s);
??macLowLevelYield_1:
        MOV     A,R0
        MOV     C,0xE0 /* A   */.0
        MOV     0xa8.7,C
//  208   return rtrn;
        SJMP    ?Subroutine0
          CFI EndBlock cfiBlock4
        REQUIRE _A_IEN0
//  209 }
//  210 
//  211 
//  212 /**************************************************************************************************
//  213  * @fn          macLowLevelDiags
//  214  *
//  215  * @brief       Increments a specified diagnostic counter (stored in the PIB).
//  216  *
//  217  * @param       pibAttribute - PIB attribute to be incremented.
//  218  *
//  219  * @return      none
//  220  **************************************************************************************************
//  221  */

        RSEG BANKED_CODE:CODE:NOROOT(0)
//  222 MAC_INTERNAL_API void macLowLevelDiags( uint8 pibAttribute )
macLowLevelDiags:
          CFI Block cfiBlock5 Using cfiCommon0
          CFI Function macLowLevelDiags
        CODE
//  223 {
        FUNCALL macLowLevelDiags, MAC_MlmeGetReq
        LOCFRAME ISTACK, 0, STACK
        LOCFRAME PSTACK, 0, STACK
        LOCFRAME XSTACK, 16, STACK
        LOCFRAME IOVERLAY, 0, STATIC
        LOCFRAME DOVERLAY, 0, STATIC
        ARGFRAME ISTACK, 0, STACK
        ARGFRAME PSTACK, 0, STACK
        ARGFRAME XSTACK, 16, STACK
        ARGFRAME IOVERLAY, 0, STATIC
        ARGFRAME DOVERLAY, 0, STATIC
        FUNCALL macLowLevelDiags, MAC_MlmeSetReq
        LOCFRAME ISTACK, 0, STACK
        LOCFRAME PSTACK, 0, STACK
        LOCFRAME XSTACK, 16, STACK
        LOCFRAME IOVERLAY, 0, STATIC
        LOCFRAME DOVERLAY, 0, STATIC
        ARGFRAME ISTACK, 0, STACK
        ARGFRAME PSTACK, 0, STACK
        ARGFRAME XSTACK, 16, STACK
        ARGFRAME IOVERLAY, 0, STATIC
        ARGFRAME DOVERLAY, 0, STATIC
        REQUIRE ?V0
        REQUIRE ?V1
        REQUIRE ?V2
        REQUIRE ?V3
        MOV     A,#-0xc
        LCALL   ?BANKED_ENTER_XDATA
          CFI DPH0 load(1, XDATA, add(CFA_XSP16, literal(-1)))
          CFI DPL0 load(1, XDATA, add(CFA_XSP16, literal(-2)))
          CFI ?BRET_EXT load(1, XDATA, add(CFA_XSP16, literal(-3)))
          CFI ?RET_HIGH load(1, XDATA, add(CFA_XSP16, literal(-4)))
          CFI ?RET_LOW load(1, XDATA, add(CFA_XSP16, literal(-5)))
          CFI R7 load(1, XDATA, add(CFA_XSP16, literal(-6)))
          CFI V3 load(1, XDATA, add(CFA_XSP16, literal(-7)))
          CFI V2 load(1, XDATA, add(CFA_XSP16, literal(-8)))
          CFI V1 load(1, XDATA, add(CFA_XSP16, literal(-9)))
          CFI V0 load(1, XDATA, add(CFA_XSP16, literal(-10)))
          CFI VB load(1, XDATA, add(CFA_XSP16, literal(-11)))
          CFI R6 load(1, XDATA, add(CFA_XSP16, literal(-12)))
          CFI CFA_SP SP+0
          CFI CFA_XSP16 add(XSP16, 12)
        ; Saved register size: 12
        ; Auto size: 4
        MOV     A,#-0x4
        LCALL   ?ALLOC_XSTACK8
          CFI CFA_XSP16 add(XSP16, 16)
        MOV     A,R1
        MOV     R6,A
//  224 #if defined ( FEATURE_SYSTEM_STATS )
//  225   if ( ( pibAttribute >= MAC_DIAGS_RX_CRC_PASS ) &&
//  226        ( pibAttribute <= MAC_DIAGS_TX_UCAST_FAIL ) )
        MOV     A,#0x19
        ADD     A,R1
        CLR     C
        SUBB    A,#0x8
        JNC     ??macLowLevelDiags_0
//  227   {
//  228     uint32 value;
//  229 
//  230     /* Update Diagnostics counter */
//  231     MAC_MlmeGetReq( pibAttribute, &value );
        ; Setup parameters for call to function MAC_MlmeGetReq
        MOV     R2,?XSP + 0
        MOV     R3,?XSP + 1
        LCALL   `??MAC_MlmeGetReq::?relay`; Banked call to: MAC_MlmeGetReq
//  232     value++;
        MOV     DPTR,#__Constant_1
        MOV     R0,#?V0
        LCALL   ?L_MOV_X
        MOV     DPL,?XSP + 0
        MOV     DPH,?XSP + 1
        MOV     R0,#?V0
        LCALL   ?L_ADD_TO_X
//  233     MAC_MlmeSetReq( pibAttribute, &value );
        ; Setup parameters for call to function MAC_MlmeSetReq
        MOV     R2,?XSP + 0
        MOV     R3,?XSP + 1
        MOV     A,R6
        MOV     R1,A
        LCALL   `??MAC_MlmeSetReq::?relay`; Banked call to: MAC_MlmeSetReq
//  234   }
//  235 #endif
//  236 }
??macLowLevelDiags_0:
        MOV     A,#0x4
        LCALL   ?DEALLOC_XSTACK8
          CFI CFA_XSP16 add(XSP16, 12)
        MOV     R7,#0x4
        LJMP    ?BANKED_LEAVE_XDATA
          CFI EndBlock cfiBlock5

        RSEG XDATA_ROM_C:CONST:REORDER:NOROOT(0)
        DATA32
__Constant_1:
        DD 1

        RSEG BANK_RELAYS:CODE:REORDER:NOROOT(0)
`??macLowLevelInit::?relay`:
        CODE
        LCALL   ?BDISPATCH
        DATA24
        DC24    macLowLevelInit

        RSEG BANK_RELAYS:CODE:REORDER:NOROOT(0)
`??macLowLevelReset::?relay`:
        CODE
        LCALL   ?BDISPATCH
        DATA24
        DC24    macLowLevelReset

        RSEG BANK_RELAYS:CODE:REORDER:NOROOT(0)
`??macLowLevelResume::?relay`:
        CODE
        LCALL   ?BDISPATCH
        DATA24
        DC24    macLowLevelResume

        RSEG BANK_RELAYS:CODE:REORDER:NOROOT(0)
`??macLowLevelYield::?relay`:
        CODE
        LCALL   ?BDISPATCH
        DATA24
        DC24    macLowLevelYield

        RSEG BANK_RELAYS:CODE:REORDER:NOROOT(0)
`??macLowLevelDiags::?relay`:
        CODE
        LCALL   ?BDISPATCH
        DATA24
        DC24    macLowLevelDiags

        END
//  237 
//  238 
//  239 /**************************************************************************************************
//  240 */
// 
// 182 bytes in segment BANKED_CODE
//  30 bytes in segment BANK_RELAYS
//   1 byte  in segment SFR_AN
//   4 bytes in segment XDATA_ROM_C
// 
// 212 bytes of CODE  memory
//   0 bytes of CONST memory (+ 4 bytes shared)
//   0 bytes of DATA  memory (+ 1 byte  shared)
//
//Errors: none
//Warnings: none
