///////////////////////////////////////////////////////////////////////////////
//
// IAR C/C++ Compiler V9.30.1.3056 for 8051               21/Nov/2018  13:52:06
// Copyright 2004-2015 IAR Systems AB.
// Standalone license - IAR Embedded Workbench for 8051
//
//    Core               =  plain
//    Code model         =  banked
//    Data model         =  large
//    Calling convention =  xdata reentrant
//    Constant location  =  data_rom
//    Dptr setup         =  1,16
//                          
//    Source file        =  
//        D:\1.embedded\kit\cc2530\Reference\Z-Stack Mesh
//        1.0.0\Components\mac\high_level\mac_pib.c
//    Command line       =  
//        -f "D:\1.embedded\kit\cc2530\Reference\Z-Stack Mesh
//        1.0.0\Projects\zstack\ZNP\CC253x\..\Source\znp.cfg"
//        (-DMAC_CFG_APP_PENDING_QUEUE=TRUE
//        "-DZSTACK_DEVICE_BUILD=(DEVICE_BUILD_COORDINATOR |
//        DEVICE_BUILD_ROUTER | DEVICE_BUILD_ENDDEVICE)" -DNWK_AUTO_POLL
//        -DZNP_RUN_WDOG=FALSE -DZNP_UART_BAUD=HAL_UART_BR_115200 -DZIGBEEPRO
//        -DZIGBEE_FRAGMENTATION -DINTER_PAN -DOSAL_CLOCK -DOSAL_SAPI=FALSE
//        -DSAPI_CB_FUNC=FALSE -DHOLD_AUTO_START -DNV_RESTORE -DNV_INIT
//        -DNUM_DISC_ATTEMPTS=0 -DMT_UTIL_FUNC -DMT_SYS_FUNC -DMT_AF_FUNC
//        -DMT_SAPI_FUNC -DMT_SAPI_CB_FUNC -DMT_ZDO_CB_FUNC -DMT_ZDO_FUNC
//        -DMT_ZDO_MGMT -DMT_ZDO_EXTENSIONS -DMT_APP_FUNC) -f
//        "D:\1.embedded\kit\cc2530\Reference\Z-Stack Mesh
//        1.0.0\Projects\zstack\ZNP\CC253x\..\..\Tools\CC2530DB\f8wConfig.cfg"
//        (-DZIGBEEPRO -DSECURE=1 -DZG_SECURE_DYNAMIC=0 -DREFLECTOR
//        -DDEFAULT_CHANLIST=0x00000800 -DZDAPP_CONFIG_PAN_ID=0xFFFF
//        -DNWK_START_DELAY=100 -DEXTENDED_JOINING_RANDOM_MASK=0x007F
//        -DBEACON_REQUEST_DELAY=100 -DBEACON_REQ_DELAY_MASK=0x00FF
//        -DLINK_STATUS_JITTER_MASK=0x007F -DROUTE_EXPIRY_TIME=30
//        -DAPSC_ACK_WAIT_DURATION_POLLED=3000 -DNWK_INDIRECT_MSG_TIMEOUT=7
//        -DMAX_RREQ_ENTRIES=8 -DAPSC_MAX_FRAME_RETRIES=3
//        -DNWK_MAX_DATA_RETRIES=2 -DMAX_POLL_FAILURE_RETRIES=2 -DMAX_BCAST=9
//        -DAPS_MAX_GROUPS=16 -DMAX_RTG_ENTRIES=40 -DNWK_MAX_BINDING_ENTRIES=4
//        -DMAX_BINDING_CLUSTER_IDS=4 "-DDEFAULT_KEY={0x01, 0x03, 0x05, 0x07,
//        0x09, 0x0B, 0x0D, 0x0F, 0x00, 0x02, 0x04, 0x06, 0x08, 0x0A, 0x0C,
//        0x0D}" -DMAC_MAX_FRAME_SIZE=116 -DZDNWKMGR_MIN_TRANSMISSIONS=20
//        "-DCONST=const __code" -DGENERIC=__generic -DRFD_RCVC_ALWAYS_ON=FALSE
//        -DPOLL_RATE=1000 -DQUEUED_POLL_RATE=100 -DRESPONSE_POLL_RATE=100
//        -DREJOIN_POLL_RATE=440) -f
//        "D:\1.embedded\kit\cc2530\Reference\Z-Stack Mesh
//        1.0.0\Projects\zstack\ZNP\CC253x\..\..\Tools\CC2530DB\f8wZCL.cfg"
//        "D:\1.embedded\kit\cc2530\Reference\Z-Stack Mesh
//        1.0.0\Components\mac\high_level\mac_pib.c" -D FEATURE_SYSTEM_STATS -D
//        POWER_SAVING -lC "D:\1.embedded\kit\cc2530\Reference\Z-Stack Mesh
//        1.0.0\Projects\zstack\ZNP\CC253x\CC2530-Debug\List" -lA
//        "D:\1.embedded\kit\cc2530\Reference\Z-Stack Mesh
//        1.0.0\Projects\zstack\ZNP\CC253x\CC2530-Debug\List" --diag_suppress
//        Pe001,Pa010 -o "D:\1.embedded\kit\cc2530\Reference\Z-Stack Mesh
//        1.0.0\Projects\zstack\ZNP\CC253x\CC2530-Debug\Obj" -e
//        --no_code_motion --debug --core=plain --dptr=16,1 --data_model=large
//        --code_model=banked --calling_convention=xdata_reentrant
//        --place_constants=data_rom --nr_virtual_regs 16 -I
//        "D:\1.embedded\kit\cc2530\Reference\Z-Stack Mesh
//        1.0.0\Projects\zstack\ZNP\CC253x\" -I
//        "D:\1.embedded\kit\cc2530\Reference\Z-Stack Mesh
//        1.0.0\Projects\zstack\ZNP\CC253x\Source\" -I
//        "D:\1.embedded\kit\cc2530\Reference\Z-Stack Mesh
//        1.0.0\Projects\zstack\ZNP\CC253x\..\Source\" -I
//        "D:\1.embedded\kit\cc2530\Reference\Z-Stack Mesh
//        1.0.0\Projects\zstack\ZNP\CC253x\..\..\SE\Source\" -I
//        "D:\1.embedded\kit\cc2530\Reference\Z-Stack Mesh
//        1.0.0\Projects\zstack\ZNP\CC253x\..\..\ZMain\TI2530ZNP\" -I
//        "D:\1.embedded\kit\cc2530\Reference\Z-Stack Mesh
//        1.0.0\Projects\zstack\ZNP\CC253x\..\..\..\..\Components\hal\include\"
//        -I "D:\1.embedded\kit\cc2530\Reference\Z-Stack Mesh
//        1.0.0\Projects\zstack\ZNP\CC253x\..\..\..\..\Components\hal\target\CC2530ZNP\"
//        -I "D:\1.embedded\kit\cc2530\Reference\Z-Stack Mesh
//        1.0.0\Projects\zstack\ZNP\CC253x\..\..\..\..\Components\mac\include\"
//        -I "D:\1.embedded\kit\cc2530\Reference\Z-Stack Mesh
//        1.0.0\Projects\zstack\ZNP\CC253x\..\..\..\..\Components\mac\high_level\"
//        -I "D:\1.embedded\kit\cc2530\Reference\Z-Stack Mesh
//        1.0.0\Projects\zstack\ZNP\CC253x\..\..\..\..\Components\mac\low_level\srf04\"
//        -I "D:\1.embedded\kit\cc2530\Reference\Z-Stack Mesh
//        1.0.0\Projects\zstack\ZNP\CC253x\..\..\..\..\Components\mac\low_level\srf04\single_chip\"
//        -I "D:\1.embedded\kit\cc2530\Reference\Z-Stack Mesh
//        1.0.0\Projects\zstack\ZNP\CC253x\..\..\..\..\Components\mt\" -I
//        "D:\1.embedded\kit\cc2530\Reference\Z-Stack Mesh
//        1.0.0\Projects\zstack\ZNP\CC253x\..\..\..\..\Components\osal\include\"
//        -I "D:\1.embedded\kit\cc2530\Reference\Z-Stack Mesh
//        1.0.0\Projects\zstack\ZNP\CC253x\..\..\..\..\Components\services\saddr\"
//        -I "D:\1.embedded\kit\cc2530\Reference\Z-Stack Mesh
//        1.0.0\Projects\zstack\ZNP\CC253x\..\..\..\..\Components\services\sdata\"
//        -I "D:\1.embedded\kit\cc2530\Reference\Z-Stack Mesh
//        1.0.0\Projects\zstack\ZNP\CC253x\..\..\..\..\Components\stack\af\" -I
//        "D:\1.embedded\kit\cc2530\Reference\Z-Stack Mesh
//        1.0.0\Projects\zstack\ZNP\CC253x\..\..\..\..\Components\stack\nwk\"
//        -I "D:\1.embedded\kit\cc2530\Reference\Z-Stack Mesh
//        1.0.0\Projects\zstack\ZNP\CC253x\..\..\..\..\Components\stack\sapi\"
//        -I "D:\1.embedded\kit\cc2530\Reference\Z-Stack Mesh
//        1.0.0\Projects\zstack\ZNP\CC253x\..\..\..\..\Components\stack\sec\"
//        -I "D:\1.embedded\kit\cc2530\Reference\Z-Stack Mesh
//        1.0.0\Projects\zstack\ZNP\CC253x\..\..\..\..\Components\stack\sys\"
//        -I "D:\1.embedded\kit\cc2530\Reference\Z-Stack Mesh
//        1.0.0\Projects\zstack\ZNP\CC253x\..\..\..\..\Components\stack\zcl\"
//        -I "D:\1.embedded\kit\cc2530\Reference\Z-Stack Mesh
//        1.0.0\Projects\zstack\ZNP\CC253x\..\..\..\..\Components\stack\zdo\"
//        -I "D:\1.embedded\kit\cc2530\Reference\Z-Stack Mesh
//        1.0.0\Projects\zstack\ZNP\CC253x\..\..\..\..\Components\zmac\" -I
//        "D:\1.embedded\kit\cc2530\Reference\Z-Stack Mesh
//        1.0.0\Projects\zstack\ZNP\CC253x\..\..\..\..\Components\zmac\f8w\"
//        -Ohz --require_prototypes
//    List file          =  
//        D:\1.embedded\kit\cc2530\Reference\Z-Stack Mesh
//        1.0.0\Projects\zstack\ZNP\CC253x\CC2530-Debug\List\mac_pib.s51
//
///////////////////////////////////////////////////////////////////////////////

        NAME mac_pib

        RTMODEL "__SystemLibrary", "CLib"
        RTMODEL "__calling_convention", "xdata_reentrant"
        RTMODEL "__code_model", "banked"
        RTMODEL "__core", "plain"
        RTMODEL "__data_model", "large"
        RTMODEL "__dptr_size", "16"
        RTMODEL "__extended_stack", "disabled"
        RTMODEL "__location_for_constants", "data"
        RTMODEL "__number_of_dptrs", "1"
        RTMODEL "__rt_version", "1"

        RSEG DOVERLAY:DATA:NOROOT(0)
        RSEG IOVERLAY:IDATA:NOROOT(0)
        RSEG ISTACK:IDATA:NOROOT(0)
        RSEG PSTACK:XDATA:NOROOT(0)
        RSEG XSTACK:XDATA:NOROOT(0)

        EXTERN ?V0
        EXTERN ?V1
        EXTERN ?V2
        EXTERN ?V3
        EXTERN ?V4
        EXTERN ?V5
        EXTERN ?ALLOC_XSTACK8
        EXTERN ?BANKED_ENTER_XDATA
        EXTERN ?BANKED_LEAVE_XDATA
        EXTERN ?BDISPATCH
        EXTERN ?BRET
        EXTERN ?DEALLOC_XSTACK8
        EXTERN ?MOVE_LONG8_XDATA_CODE
        EXTERN ?PUSH_XSTACK_I_THREE
        EXTERN ?S_SHL
        EXTERN ?XSP
        EXTERN ?XSTACK_DISP101_8
        EXTERN __INIT_XDATA_Z

        PUBLIC `??MAC_MlmeGetReq::?relay`
        FUNCTION `??MAC_MlmeGetReq::?relay`,0203H
        PUBLIC `??MAC_MlmeGetReqSize::?relay`
        FUNCTION `??MAC_MlmeGetReqSize::?relay`,0203H
        PUBLIC `??MAC_MlmeSetReq::?relay`
        FUNCTION `??MAC_MlmeSetReq::?relay`,0203H
        PUBLIC `??macPibIndex::?relay`
        FUNCTION `??macPibIndex::?relay`,0203H
        PUBLIC `??macPibReset::?relay`
        FUNCTION `??macPibReset::?relay`,0203H
        PUBLIC MAC_MlmeGetReq
        FUNCTION MAC_MlmeGetReq,0a1203H
        ARGFRAME XSTACK, 0, STACK
        LOCFRAME XSTACK, 16, STACK
        PUBLIC MAC_MlmeGetReqSize
        FUNCTION MAC_MlmeGetReqSize,0a1203H
        ARGFRAME XSTACK, 0, STACK
        LOCFRAME XSTACK, 10, STACK
        PUBLIC MAC_MlmeSetReq
        FUNCTION MAC_MlmeSetReq,0a1203H
        ARGFRAME XSTACK, 0, STACK
        LOCFRAME XSTACK, 17, STACK
        PUBWEAK _A_IEN0
        PUBLIC macPib
        PUBLIC macPibIndex
        FUNCTION macPibIndex,0203H
        ARGFRAME XSTACK, 14, STACK
        ARGFRAME IOVERLAY, 0, STATIC
        ARGFRAME DOVERLAY, 0, STATIC
        PUBLIC macPibReset
        FUNCTION macPibReset,0a1203H
        ARGFRAME XSTACK, 0, STACK
        LOCFRAME XSTACK, 46, STACK
        
          CFI Names cfiNames0
          CFI StackFrame CFA_SP SP IDATA
          CFI StackFrame CFA_PSP16 PSP16 XDATA
          CFI StackFrame CFA_XSP16 XSP16 XDATA
          CFI StaticOverlayFrame CFA_IOVERLAY IOVERLAY
          CFI StaticOverlayFrame CFA_DOVERLAY DOVERLAY
          CFI Resource `PSW.CY`:1, `B.BR0`:1, `B.BR1`:1, `B.BR2`:1, `B.BR3`:1
          CFI Resource `B.BR4`:1, `B.BR5`:1, `B.BR6`:1, `B.BR7`:1, `VB.BR8`:1
          CFI Resource `VB.BR9`:1, `VB.BR10`:1, `VB.BR11`:1, `VB.BR12`:1
          CFI Resource `VB.BR13`:1, `VB.BR14`:1, `VB.BR15`:1, VB:8, B:8, A:8
          CFI Resource PSW:8, DPL0:8, DPH0:8, R0:8, R1:8, R2:8, R3:8, R4:8, R5:8
          CFI Resource R6:8, R7:8, V0:8, V1:8, V2:8, V3:8, V4:8, V5:8, V6:8, V7:8
          CFI Resource V8:8, V9:8, V10:8, V11:8, V12:8, V13:8, V14:8, V15:8, SP:8
          CFI Resource PSPH:8, PSPL:8, PSP16:16, XSPH:8, XSPL:8, XSP16:16
          CFI VirtualResource ?RET:24
          CFI Resource ?BRET_EXT:8
          CFI VirtualResource ?RET_HIGH:8, ?RET_LOW:8
          CFI ResourceParts PSP16 PSPH, PSPL
          CFI ResourceParts XSP16 XSPH, XSPL
          CFI ResourceParts ?RET ?BRET_EXT, ?RET_HIGH, ?RET_LOW
          CFI EndNames cfiNames0
        
          CFI Common cfiCommon0 Using cfiNames0
          CFI CodeAlign 1
          CFI DataAlign -1
          CFI ReturnAddress ?RET CODE
          CFI CFA_DOVERLAY Used
          CFI CFA_IOVERLAY Used
          CFI CFA_SP SP+-3
          CFI CFA_PSP16 PSP16+0
          CFI CFA_XSP16 XSP16+0
          CFI `PSW.CY` SameValue
          CFI `B.BR0` SameValue
          CFI `B.BR1` SameValue
          CFI `B.BR2` SameValue
          CFI `B.BR3` SameValue
          CFI `B.BR4` SameValue
          CFI `B.BR5` SameValue
          CFI `B.BR6` SameValue
          CFI `B.BR7` SameValue
          CFI `VB.BR8` SameValue
          CFI `VB.BR9` SameValue
          CFI `VB.BR10` SameValue
          CFI `VB.BR11` SameValue
          CFI `VB.BR12` SameValue
          CFI `VB.BR13` SameValue
          CFI `VB.BR14` SameValue
          CFI `VB.BR15` SameValue
          CFI VB SameValue
          CFI B Undefined
          CFI A Undefined
          CFI PSW SameValue
          CFI DPL0 SameValue
          CFI DPH0 SameValue
          CFI R0 Undefined
          CFI R1 Undefined
          CFI R2 Undefined
          CFI R3 Undefined
          CFI R4 Undefined
          CFI R5 Undefined
          CFI R6 SameValue
          CFI R7 SameValue
          CFI V0 SameValue
          CFI V1 SameValue
          CFI V2 SameValue
          CFI V3 SameValue
          CFI V4 SameValue
          CFI V5 SameValue
          CFI V6 SameValue
          CFI V7 SameValue
          CFI V8 SameValue
          CFI V9 SameValue
          CFI V10 SameValue
          CFI V11 SameValue
          CFI V12 SameValue
          CFI V13 SameValue
          CFI V14 SameValue
          CFI V15 SameValue
          CFI PSPH Undefined
          CFI PSPL Undefined
          CFI XSPH Undefined
          CFI XSPL Undefined
          CFI ?RET Concat
          CFI ?BRET_EXT Frame(CFA_SP, 3)
          CFI ?RET_HIGH Frame(CFA_SP, 2)
          CFI ?RET_LOW Frame(CFA_SP, 1)
          CFI EndCommon cfiCommon0
        
        
          CFI Common cfiCommon1 Using cfiNames0
          CFI CodeAlign 1
          CFI DataAlign -1
          CFI ReturnAddress ?RET CODE
          CFI CFA_DOVERLAY Used
          CFI CFA_IOVERLAY Used
          CFI CFA_SP SP+-2
          CFI CFA_PSP16 PSP16+0
          CFI CFA_XSP16 XSP16+0
          CFI `PSW.CY` SameValue
          CFI `B.BR0` SameValue
          CFI `B.BR1` SameValue
          CFI `B.BR2` SameValue
          CFI `B.BR3` SameValue
          CFI `B.BR4` SameValue
          CFI `B.BR5` SameValue
          CFI `B.BR6` SameValue
          CFI `B.BR7` SameValue
          CFI `VB.BR8` SameValue
          CFI `VB.BR9` SameValue
          CFI `VB.BR10` SameValue
          CFI `VB.BR11` SameValue
          CFI `VB.BR12` SameValue
          CFI `VB.BR13` SameValue
          CFI `VB.BR14` SameValue
          CFI `VB.BR15` SameValue
          CFI VB SameValue
          CFI B SameValue
          CFI A SameValue
          CFI PSW SameValue
          CFI DPL0 SameValue
          CFI DPH0 SameValue
          CFI R0 SameValue
          CFI R1 SameValue
          CFI R2 SameValue
          CFI R3 SameValue
          CFI R4 SameValue
          CFI R5 SameValue
          CFI R6 SameValue
          CFI R7 SameValue
          CFI V0 SameValue
          CFI V1 SameValue
          CFI V2 SameValue
          CFI V3 SameValue
          CFI V4 SameValue
          CFI V5 SameValue
          CFI V6 SameValue
          CFI V7 SameValue
          CFI V8 SameValue
          CFI V9 SameValue
          CFI V10 SameValue
          CFI V11 SameValue
          CFI V12 SameValue
          CFI V13 SameValue
          CFI V14 SameValue
          CFI V15 SameValue
          CFI PSPH Undefined
          CFI PSPL Undefined
          CFI XSPH Undefined
          CFI XSPL Undefined
          CFI ?RET Concat
          CFI ?BRET_EXT SameValue
          CFI ?RET_HIGH Frame(CFA_SP, 2)
          CFI ?RET_LOW Frame(CFA_SP, 1)
          CFI EndCommon cfiCommon1
        
macRadioRandomByte  SYMBOL "macRadioRandomByte"
`??macRadioRandomByte::?relay` SYMBOL "?relay", macRadioRandomByte
macRadioSetChannel  SYMBOL "macRadioSetChannel"
`??macRadioSetChannel::?relay` SYMBOL "?relay", macRadioSetChannel
macRadioSetIEEEAddr SYMBOL "macRadioSetIEEEAddr"
`??macRadioSetIEEEAddr::?relay` SYMBOL "?relay", macRadioSetIEEEAddr
macRadioSetPanID    SYMBOL "macRadioSetPanID"
`??macRadioSetPanID::?relay` SYMBOL "?relay", macRadioSetPanID
macRadioSetShortAddr SYMBOL "macRadioSetShortAddr"
`??macRadioSetShortAddr::?relay` SYMBOL "?relay", macRadioSetShortAddr
macRadioSetTxPower  SYMBOL "macRadioSetTxPower"
`??macRadioSetTxPower::?relay` SYMBOL "?relay", macRadioSetTxPower
macRxDisable        SYMBOL "macRxDisable"
`??macRxDisable::?relay` SYMBOL "?relay", macRxDisable
macRxEnable         SYMBOL "macRxEnable"
`??macRxEnable::?relay` SYMBOL "?relay", macRxEnable
osal_memcpy         SYMBOL "osal_memcpy"
`??osal_memcpy::?relay` SYMBOL "?relay", osal_memcpy
MAC_MlmeGetReq      SYMBOL "MAC_MlmeGetReq"
`??MAC_MlmeGetReq::?relay` SYMBOL "?relay", MAC_MlmeGetReq
MAC_MlmeGetReqSize  SYMBOL "MAC_MlmeGetReqSize"
`??MAC_MlmeGetReqSize::?relay` SYMBOL "?relay", MAC_MlmeGetReqSize
MAC_MlmeSetReq      SYMBOL "MAC_MlmeSetReq"
`??MAC_MlmeSetReq::?relay` SYMBOL "?relay", MAC_MlmeSetReq
macPibIndex         SYMBOL "macPibIndex"
`??macPibIndex::?relay` SYMBOL "?relay", macPibIndex
macPibReset         SYMBOL "macPibReset"
`??macPibReset::?relay` SYMBOL "?relay", macPibReset

        EXTERN `??macRadioRandomByte::?relay`
        FUNCTION `??macRadioRandomByte::?relay`,00H
        EXTERN `??macRadioSetChannel::?relay`
        FUNCTION `??macRadioSetChannel::?relay`,00H
        EXTERN `??macRadioSetIEEEAddr::?relay`
        FUNCTION `??macRadioSetIEEEAddr::?relay`,00H
        EXTERN `??macRadioSetPanID::?relay`
        FUNCTION `??macRadioSetPanID::?relay`,00H
        EXTERN `??macRadioSetShortAddr::?relay`
        FUNCTION `??macRadioSetShortAddr::?relay`,00H
        EXTERN `??macRadioSetTxPower::?relay`
        FUNCTION `??macRadioSetTxPower::?relay`,00H
        EXTERN `??macRxDisable::?relay`
        FUNCTION `??macRxDisable::?relay`,00H
        EXTERN `??macRxEnable::?relay`
        FUNCTION `??macRxEnable::?relay`,00H
        EXTERN `??osal_memcpy::?relay`
        FUNCTION `??osal_memcpy::?relay`,00H
        EXTERN macRadioRandomByte
        FUNCTION macRadioRandomByte,0202H
        ARGFRAME ISTACK, 0, STACK
        ARGFRAME PSTACK, 0, STACK
        ARGFRAME XSTACK, 43, STACK
        ARGFRAME IOVERLAY, 0, STATIC
        ARGFRAME DOVERLAY, 0, STATIC
        EXTERN macRadioSetChannel
        FUNCTION macRadioSetChannel,0202H
        ARGFRAME ISTACK, 0, STACK
        ARGFRAME PSTACK, 0, STACK
        ARGFRAME XSTACK, 14, STACK
        ARGFRAME IOVERLAY, 0, STATIC
        ARGFRAME DOVERLAY, 0, STATIC
        EXTERN macRadioSetIEEEAddr
        FUNCTION macRadioSetIEEEAddr,0202H
        ARGFRAME ISTACK, 0, STACK
        ARGFRAME PSTACK, 0, STACK
        ARGFRAME XSTACK, 14, STACK
        ARGFRAME IOVERLAY, 0, STATIC
        ARGFRAME DOVERLAY, 0, STATIC
        EXTERN macRadioSetPanID
        FUNCTION macRadioSetPanID,0202H
        ARGFRAME ISTACK, 0, STACK
        ARGFRAME PSTACK, 0, STACK
        ARGFRAME XSTACK, 14, STACK
        ARGFRAME IOVERLAY, 0, STATIC
        ARGFRAME DOVERLAY, 0, STATIC
        EXTERN macRadioSetShortAddr
        FUNCTION macRadioSetShortAddr,0202H
        ARGFRAME ISTACK, 0, STACK
        ARGFRAME PSTACK, 0, STACK
        ARGFRAME XSTACK, 14, STACK
        ARGFRAME IOVERLAY, 0, STATIC
        ARGFRAME DOVERLAY, 0, STATIC
        EXTERN macRadioSetTxPower
        FUNCTION macRadioSetTxPower,0202H
        ARGFRAME ISTACK, 0, STACK
        ARGFRAME PSTACK, 0, STACK
        ARGFRAME XSTACK, 14, STACK
        ARGFRAME IOVERLAY, 0, STATIC
        ARGFRAME DOVERLAY, 0, STATIC
        EXTERN macRxDisable
        FUNCTION macRxDisable,0202H
        ARGFRAME ISTACK, 0, STACK
        ARGFRAME PSTACK, 0, STACK
        ARGFRAME XSTACK, 14, STACK
        ARGFRAME IOVERLAY, 0, STATIC
        ARGFRAME DOVERLAY, 0, STATIC
        EXTERN macRxEnable
        FUNCTION macRxEnable,0202H
        ARGFRAME ISTACK, 0, STACK
        ARGFRAME PSTACK, 0, STACK
        ARGFRAME XSTACK, 14, STACK
        ARGFRAME IOVERLAY, 0, STATIC
        ARGFRAME DOVERLAY, 0, STATIC
        EXTERN osal_memcpy
        FUNCTION osal_memcpy,0202H
        ARGFRAME ISTACK, 0, STACK
        ARGFRAME PSTACK, 0, STACK
        ARGFRAME XSTACK, 46, STACK
        ARGFRAME IOVERLAY, 0, STATIC
        ARGFRAME DOVERLAY, 0, STATIC

// D:\1.embedded\kit\cc2530\Reference\Z-Stack Mesh 1.0.0\Components\mac\high_level\mac_pib.c
//    1 /**************************************************************************************************
//    2   Filename:       mac_pib.c
//    3   Revised:        $Date: 2014-07-22 11:05:31 -0700 (Tue, 22 Jul 2014) $
//    4   Revision:       $Revision: 39478 $
//    5 
//    6   Description:    This module contains procedures for the MAC PIB.
//    7 
//    8 
//    9   Copyright 2006-2014 Texas Instruments Incorporated. All rights reserved.
//   10 
//   11   IMPORTANT: Your use of this Software is limited to those specific rights
//   12   granted under the terms of a software license agreement between the user
//   13   who downloaded the software, his/her employer (which must be your employer)
//   14   and Texas Instruments Incorporated (the "License").  You may not use this
//   15   Software unless you agree to abide by the terms of the License. The License
//   16   limits your use, and you acknowledge, that the Software may not be modified,
//   17   copied or distributed unless embedded on a Texas Instruments microcontroller
//   18   or used solely and exclusively in conjunction with a Texas Instruments radio
//   19   frequency transceiver, which is integrated into your product.  Other than for
//   20   the foregoing purpose, you may not use, reproduce, copy, prepare derivative
//   21   works of, modify, distribute, perform, display or sell this Software and/or
//   22   its documentation for any purpose.
//   23 
//   24   YOU FURTHER ACKNOWLEDGE AND AGREE THAT THE SOFTWARE AND DOCUMENTATION ARE
//   25   PROVIDED “AS IS” WITHOUT WARRANTY OF ANY KIND, EITHER EXPRESS OR IMPLIED,
//   26   INCLUDING WITHOUT LIMITATION, ANY WARRANTY OF MERCHANTABILITY, TITLE,
//   27   NON-INFRINGEMENT AND FITNESS FOR A PARTICULAR PURPOSE. IN NO EVENT SHALL
//   28   TEXAS INSTRUMENTS OR ITS LICENSORS BE LIABLE OR OBLIGATED UNDER CONTRACT,
//   29   NEGLIGENCE, STRICT LIABILITY, CONTRIBUTION, BREACH OF WARRANTY, OR OTHER
//   30   LEGAL EQUITABLE THEORY ANY DIRECT OR INDIRECT DAMAGES OR EXPENSES
//   31   INCLUDING BUT NOT LIMITED TO ANY INCIDENTAL, SPECIAL, INDIRECT, PUNITIVE
//   32   OR CONSEQUENTIAL DAMAGES, LOST PROFITS OR LOST DATA, COST OF PROCUREMENT
//   33   OF SUBSTITUTE GOODS, TECHNOLOGY, SERVICES, OR ANY CLAIMS BY THIRD PARTIES
//   34   (INCLUDING BUT NOT LIMITED TO ANY DEFENSE THEREOF), OR OTHER SIMILAR COSTS.
//   35 
//   36   Should you have any questions regarding your right to use this Software,
//   37   contact Texas Instruments Incorporated at www.TI.com.
//   38 **************************************************************************************************/
//   39 
//   40 /* ------------------------------------------------------------------------------------------------
//   41  *                                          Includes
//   42  * ------------------------------------------------------------------------------------------------
//   43  */
//   44 #include "hal_mcu.h"

        ASEGN SFR_AN:DATA:NOROOT,0a8H
// union <unnamed> volatile __sfr _A_IEN0
_A_IEN0:
        DATA8
        DS 1
//   45 #include "hal_board.h"
//   46 #include "mac_api.h"
//   47 #include "mac_spec.h"
//   48 #include "mac_low_level.h"
//   49 #include "mac_radio_defs.h"
//   50 #include "mac_main.h"
//   51 #include "mac_pib.h"
//   52 #include "OSAL.h"
//   53 #include <stddef.h>
//   54 
//   55 #include "R2R_FlashJT.h"
//   56 #if defined( CC26XX ) || defined( CC26XX_PG2 )
//   57 #include "R2F_FlashJT.h"
//   58 #endif /* CC26XX || CC26XX_PG2 */
//   59 
//   60 /* ------------------------------------------------------------------------------------------------
//   61  *                                           Constants
//   62  * ------------------------------------------------------------------------------------------------
//   63  */
//   64 
//   65 /* Attribute index constants, based on attribute ID values from spec */
//   66 #define MAC_ATTR_SET1_START       0x40
//   67 #define MAC_ATTR_SET1_END         0x5D
//   68 #define MAC_ATTR_SET1_OFFSET      0
//   69 #define MAC_ATTR_SET2_START       0xE0
//   70 #define MAC_ATTR_SET2_END         0xEF
//   71 #define MAC_ATTR_SET2_OFFSET      (MAC_ATTR_SET1_END - MAC_ATTR_SET1_START + MAC_ATTR_SET1_OFFSET + 1)
//   72 
//   73 /* frame response values */
//   74 #define MAC_MAX_FRAME_RESPONSE_MIN  143
//   75 #define MAC_MAX_FRAME_RESPONSE_MAX  25776
//   76 
//   77 /* ------------------------------------------------------------------------------------------------
//   78  *                                           Typedefs
//   79  * ------------------------------------------------------------------------------------------------
//   80  */
//   81 
//   82 /* PIB access and min/max table type */
//   83 typedef struct
//   84 {
//   85   uint8     offset;
//   86   uint8     len;
//   87   uint8     min;
//   88   uint8     max;
//   89 } macPibTbl_t;
//   90 
//   91 /* ------------------------------------------------------------------------------------------------
//   92  *                                           Local Variables
//   93  * ------------------------------------------------------------------------------------------------
//   94  */
//   95 
//   96 /* PIB default values */

        RSEG CODE_C:CODE:REORDER:NOROOT(0)
        DATA8
//   97 static CODE const macPib_t macPibDefaults =
macPibDefaults:
        DB 54
        DB 0
        DB 1
        DB 0
        DB 6
        DATA16
        DW 0H
        DATA8
        DB 0
        DB 15
        DATA32
        DD 0
        DATA8
        DB 0
        DATA16
        DW 0
        DB 0, 0, 0, 0, 0, 0
        DATA8
        DB 3
        DATA16
        DW 65535
        DATA8
        DB 0
        DB 0
        DB 4
        DB 3
        DATA16
        DW 65535
        DATA8
        DB 0
        DB 0
        DATA16
        DW 65535
        DATA8
        DB 15
        DATA16
        DW 500
        DATA8
        DB 0
        DB 5
        DATA16
        DW 1220
        DATA8
        DB 3
        DB 32
        DB 0
        DB 1
        DB 0
        DB 0
        DB 11
        DATA16
        DW 0
        DB 0, 0, 0, 0, 0, 0
        DATA8
        DB 3
        DB 1
        DB 15
        DB 0
        DB 0
        DATA32
        DD 0
        DD 0
        DD 0
        DD 0
        DD 0
        DD 0
        DD 0
        DD 0
        DB 0, 0, 0, 0, 0, 0, 0, 0
        DB 0, 0, 0, 0, 0, 0, 0, 0
        DB 0, 0, 0, 0, 0, 0, 0, 0
        DB 0, 0, 0, 0, 0, 0, 0, 0
//   98 {
//   99   54,                                         /* ackWaitDuration */
//  100   FALSE,                                      /* associationPermit */
//  101   TRUE,                                       /* autoRequest */
//  102   FALSE,                                      /* battLifeExt */
//  103   6,                                          /* battLifeExtPeriods */
//  104 
//  105   NULL,                                       /* *pMacBeaconPayload */
//  106   0,                                          /* beaconPayloadLength */
//  107   MAC_BO_NON_BEACON,                          /* beaconOrder */
//  108   0,                                          /* beaconTxTime */
//  109   0,                                          /* bsn */
//  110 
//  111   {0, SADDR_MODE_EXT},                        /* coordExtendedAddress */
//  112   MAC_SHORT_ADDR_NONE,                        /* coordShortAddress */
//  113   0,                                          /* dsn */
//  114   FALSE,                                      /* gtsPermit */
//  115   4,                                          /* maxCsmaBackoffs */
//  116 
//  117   3,                                          /* minBe */
//  118   0xFFFF,                                     /* panId */
//  119   FALSE,                                      /* promiscuousMode */
//  120   FALSE,                                      /* rxOnWhenIdle */
//  121   MAC_SHORT_ADDR_NONE,                        /* shortAddress */
//  122 
//  123   MAC_SO_NONE,                                /* superframeOrder */
//  124   0x01F4,                                     /* transactionPersistenceTime */
//  125   FALSE,                                      /* assocciatedPanCoord */
//  126   5,                                          /* maxBe */
//  127   1220,                                       /* maxFrameTotalWaitTime */
//  128 
//  129   3,                                          /* maxFrameRetries */
//  130   32,                                         /* ResponseWaitTime */
//  131   0,                                          /* syncSymbolOffset */
//  132   TRUE,                                       /* timeStampSupported */
//  133   FALSE,                                      /* securityEnabled */
//  134 
//  135   /* Proprietary */
//  136   0,                                          /* phyTransmitPower */
//  137   MAC_CHAN_11,                                /* logicalChannel */
//  138   {0, SADDR_MODE_EXT},                        /* extendedAddress */
//  139   1,                                          /* altBe */
//  140   MAC_BO_NON_BEACON,                          /* deviceBeaconOrder */
//  141   0,                                          /* power savings for rf4ce */
//  142   0,                                          /* default is frame Ver is always 0, 
//  143                                                  except for security enabled packets */
//  144   0,                                          /* diagsRxCrcPass */
//  145   0,                                          /* diagsRxCrcFail */
//  146   0,                                          /* diagsRxBcast */
//  147   0,                                          /* diagsTxBcast */
//  148   0,                                          /* diagsRxUcast */
//  149   0,                                          /* diagsTxUcast */
//  150   0,                                          /* diagsTxUcastRetry */
//  151   0                                           /* diagsTxUcastFail */
//  152 };
//  153 
//  154 /* PIB access and min/max table.  min/max of 0/0 means not checked; if min/max are
//  155  * equal, element is read-only
//  156  */

        RSEG CODE_C:CODE:REORDER:NOROOT(0)
        DATA8
//  157 static CODE const macPibTbl_t macPibTbl[] =
macPibTbl:
        DB 0
        DB 1
        DB 54
        DB 54
        DB 1
        DB 1
        DB 0
        DB 1
        DB 2
        DB 1
        DB 0
        DB 1
        DB 3
        DB 1
        DB 0
        DB 1
        DB 4
        DB 1
        DB 6
        DB 6
        DB 5
        DB 2
        DB 0
        DB 0
        DB 7
        DB 1
        DB 0
        DB 52
        DB 8
        DB 1
        DB 0
        DB 15
        DB 9
        DB 4
        DB 1
        DB 1
        DB 13
        DB 1
        DB 0
        DB 255
        DB 14
        DB 8
        DB 0
        DB 0
        DB 23
        DB 2
        DB 0
        DB 0
        DB 25
        DB 1
        DB 0
        DB 255
        DB 26
        DB 1
        DB 0
        DB 1
        DB 27
        DB 1
        DB 0
        DB 254
        DB 28
        DB 1
        DB 0
        DB 8
        DB 29
        DB 2
        DB 0
        DB 0
        DB 31
        DB 1
        DB 0
        DB 1
        DB 32
        DB 1
        DB 0
        DB 1
        DB 33
        DB 2
        DB 0
        DB 0
        DB 35
        DB 1
        DB 0
        DB 15
        DB 36
        DB 2
        DB 0
        DB 0
        DB 38
        DB 1
        DB 0
        DB 1
        DB 39
        DB 1
        DB 0
        DB 8
        DB 40
        DB 2
        DB 0
        DB 255
        DB 42
        DB 1
        DB 0
        DB 7
        DB 43
        DB 1
        DB 2
        DB 64
        DB 44
        DB 1
        DB 0
        DB 0
        DB 45
        DB 1
        DB 0
        DB 1
        DB 46
        DB 1
        DB 0
        DB 1
        DB 47
        DB 1
        DB 0
        DB 255
        DB 48
        DB 1
        DB 11
        DB 28
        DB 49
        DB 8
        DB 0
        DB 0
        DB 58
        DB 1
        DB 0
        DB 8
        DB 59
        DB 1
        DB 0
        DB 15
        DB 60
        DB 1
        DB 0
        DB 1
        DB 61
        DB 1
        DB 0
        DB 255
        DB 62
        DB 4
        DB 0
        DB 0
        DB 66
        DB 4
        DB 0
        DB 0
        DB 70
        DB 4
        DB 0
        DB 0
        DB 74
        DB 4
        DB 0
        DB 0
        DB 78
        DB 4
        DB 0
        DB 0
        DB 82
        DB 4
        DB 0
        DB 0
        DB 86
        DB 4
        DB 0
        DB 0
        DB 90
        DB 4
        DB 0
        DB 0
        DB 94
        DB 32
        DB 255
        DB 255
//  158 {
//  159   {offsetof(macPib_t, ackWaitDuration), sizeof(uint8), 54, 54},                      /* MAC_ACK_WAIT_DURATION */
//  160   {offsetof(macPib_t, associationPermit), sizeof(bool), FALSE, TRUE},                /* MAC_ASSOCIATION_PERMIT */
//  161   {offsetof(macPib_t, autoRequest), sizeof(bool), FALSE, TRUE},                      /* MAC_AUTO_REQUEST */
//  162   {offsetof(macPib_t, battLifeExt), sizeof(bool), FALSE, TRUE},                      /* MAC_BATT_LIFE_EXT */
//  163   {offsetof(macPib_t, battLifeExtPeriods), sizeof(uint8), 6, 6},                     /* MAC_BATT_LIFE_EXT_PERIODS */
//  164 
//  165   {offsetof(macPib_t, pBeaconPayload), sizeof(uint8 *), 0, 0},                       /* MAC_BEACON_PAYLOAD */
//  166   {offsetof(macPib_t, beaconPayloadLength), sizeof(uint8), 0, 52},                   /* MAC_BEACON_PAYLOAD_LENGTH */
//  167   {offsetof(macPib_t, beaconOrder), sizeof(uint8), 0, 15},                           /* MAC_BEACON_ORDER */
//  168   {offsetof(macPib_t, beaconTxTime), sizeof(uint32), 1, 1},                          /* MAC_BEACON_TX_TIME */
//  169   {offsetof(macPib_t, bsn), sizeof(uint8), 0x00, 0xFF},                              /* MAC_BSN */
//  170 
//  171   {offsetof(macPib_t, coordExtendedAddress.addr.extAddr), sizeof(sAddrExt_t), 0, 0}, /* MAC_COORD_EXTENDED_ADDRESS */
//  172   {offsetof(macPib_t, coordShortAddress), sizeof(uint16), 0, 0},                     /* MAC_COORD_SHORT_ADDRESS */
//  173   {offsetof(macPib_t, dsn), sizeof(uint8), 0x00, 0xFF},                              /* MAC_DSN */
//  174   {offsetof(macPib_t, gtsPermit), sizeof(bool), FALSE, TRUE},                        /* MAC_GTS_PERMIT */
//  175 
//  176   /* Range of maxCsmaBackoffs is between 0 and 5 in IEEE 802.15.4.
//  177    * Such restriction is removed here to allow 802.15.4 non-compliant experimental
//  178    * applications.
//  179    * To be compliant with 802.15.4, application or upper layer must not set this
//  180    * PIB attribute out of range of 802.15.4.
//  181    * The range is still restricted to 254 since value 255 would cause backoff
//  182    * counter to overflow, wrap around and loop infinitely. */
//  183   {offsetof(macPib_t, maxCsmaBackoffs), sizeof(uint8), 0, 254},                      /* MAC_MAX_CSMA_BACKOFFS */
//  184 
//  185   {offsetof(macPib_t, minBe), sizeof(uint8), 0, 8},                                  /* MAC_MIN_BE */
//  186   {offsetof(macPib_t, panId), sizeof(uint16), 0, 0},                                 /* MAC_PAN_ID */
//  187   {offsetof(macPib_t, promiscuousMode), sizeof(bool), FALSE, TRUE},                  /* MAC_PROMISCUOUS_MODE */
//  188   {offsetof(macPib_t, rxOnWhenIdle), sizeof(bool), FALSE, TRUE},                     /* MAC_RX_ON_WHEN_IDLE */
//  189   {offsetof(macPib_t, shortAddress), sizeof(uint16), 0, 0},                          /* MAC_SHORT_ADDRESS */
//  190 
//  191   {offsetof(macPib_t, superframeOrder), sizeof(uint8), 0, 15},                       /* MAC_SUPERFRAME_ORDER */
//  192   {offsetof(macPib_t, transactionPersistenceTime), sizeof(uint16), 0, 0},            /* MAC_TRANSACTION_PERSISTENCE_TIME */
//  193   {offsetof(macPib_t, associatedPanCoord), sizeof(bool), FALSE, TRUE},               /* MAC_ASSOCIATED_PAN_COORD */
//  194 
//  195   /* Range of maxBe is between 3 and 8 in IEEE 802.15.4.
//  196    * Such restriction is removed here to allow 802.15.4 non-compliant experimental
//  197    * applications.
//  198    * To be compliant with 802.15.4, application or upper layer must not set this
//  199    * PIB attribute out of range of 802.15.4. */
//  200   {offsetof(macPib_t, maxBe), sizeof(uint8), 0, 8},                                  /* MAC_MAX_BE */
//  201   {offsetof(macPib_t, maxFrameTotalWaitTime), sizeof(uint16), 0x00, 0xFF},           /* MAC_MAX_FRAME_RESPONSE_TIME */
//  202 
//  203   {offsetof(macPib_t, maxFrameRetries), sizeof(uint8), 0, 7},                        /* MAC_MAX_FRAME_RETRIES */
//  204   {offsetof(macPib_t, responseWaitTime), sizeof(uint8), 2, 64},                      /* MAC_RESPONSE_WAIT_TIME */
//  205   {offsetof(macPib_t, syncSymbolOffset), sizeof(uint8), 0, 0},                       /* MAC_SYNC_SYMBOL_OFFSET */
//  206   {offsetof(macPib_t, timeStampSupported), sizeof(bool), FALSE, TRUE},               /* MAC_TIMESTAMP_SUPPORTED */
//  207   {offsetof(macPib_t, securityEnabled), sizeof(bool), FALSE, TRUE},                  /* MAC_SECURITY_ENABLED */
//  208 
//  209   /* Proprietary PIBs */
//  210   {offsetof(macPib_t, phyTransmitPower), sizeof(uint8), 0, 0xFF},                    /* MAC_PHY_TRANSMIT_POWER_SIGNED */
//  211   {offsetof(macPib_t, logicalChannel), sizeof(uint8), MAC_CHAN_11, MAC_CHAN_28},     /* MAC_LOGICAL_CHANNEL */
//  212   {offsetof(macPib_t, extendedAddress.addr.extAddr), sizeof(sAddrExt_t), 0, 0},      /* MAC_EXTENDED_ADDRESS */
//  213   {offsetof(macPib_t, altBe), sizeof(uint8), 0, 8},                                  /* MAC_ALT_BE */
//  214   {offsetof(macPib_t, deviceBeaconOrder), sizeof(uint8), 0, 15},                     /* MAC_DEVICE_BEACON_ORDER */
//  215   {offsetof(macPib_t, rf4cepowerSavings), sizeof(uint8), 0, 1},                      /* MAC_RF4CE_POWER_SAVINGS */
//  216   {offsetof(macPib_t, frameVersionSupport), sizeof(uint8), 0, 0xFF},                 /* MAC_FRAME_VERSION_SUPPORT */
//  217   {offsetof(macPib_t, diagsRxCrcPass), sizeof(uint32), 0, 0},                        /* MAC_DIAGS_RX_CRC_PASS */
//  218   {offsetof(macPib_t, diagsRxCrcFail), sizeof(uint32), 0, 0},                        /* MAC_DIAGS_RX_CRC_FAIL */
//  219   {offsetof(macPib_t, diagsRxBcast), sizeof(uint32), 0, 0},                          /* MAC_DIAGS_RX_BCAST */
//  220   {offsetof(macPib_t, diagsTxBcast), sizeof(uint32), 0, 0},                          /* MAC_DIAGS_TX_BCAST */
//  221   {offsetof(macPib_t, diagsRxUcast), sizeof(uint32), 0, 0},                          /* MAC_DIAGS_RX_UCAST */
//  222   {offsetof(macPib_t, diagsTxUcast), sizeof(uint32), 0, 0},                          /* MAC_DIAGS_TX_UCAST */
//  223   {offsetof(macPib_t, diagsTxUcastRetry), sizeof(uint32), 0, 0},                     /* MAC_DIAGS_TX_UCAST_RETRY */
//  224   {offsetof(macPib_t, diagsTxUcastFail), sizeof(uint32), 0, 0},                      /* MAC_DIAGS_TX_UCAST_FAIL *//* MAC_DIAGS_TX_UCAST_FAIL */
//  225   {offsetof(macPib_t, randomSeed), MAC_RANDOM_SEED_LEN, 0xFF, 0xFF}                  /* MAC_RANDOM_SEED */
//  226 };
//  227 
//  228 /* Invalid PIB table index used for error code */
//  229 #define MAC_PIB_INVALID     ((uint8) (sizeof(macPibTbl) / sizeof(macPibTbl[0])))
//  230 
//  231 /* ------------------------------------------------------------------------------------------------
//  232  *                                           Global Variables
//  233  * ------------------------------------------------------------------------------------------------
//  234  */
//  235 
//  236 /* MAC PIB */

        RSEG XDATA_Z:XDATA:NOROOT(0)
        DATA8
//  237 macPib_t macPib;
macPib:
        DS 126
        REQUIRE __INIT_XDATA_Z
//  238 
//  239 extern uint8 MAC_MlmeGetReqSize( uint8 pibAttribute );
//  240 
//  241 #if defined( FEATURE_MAC_PIB_PTR )
//  242 
//  243 /* Pointer to the MAC PIB */
//  244 macPib_t* pMacPib = &macPib;
//  245 
//  246 /**************************************************************************************************
//  247  * @fn          MAC_MlmeSetActivePib
//  248  *
//  249  * @brief       This function initializes the PIB.
//  250  *
//  251  * input parameters
//  252  *
//  253  * @param       None.
//  254  *
//  255  * output parameters
//  256  *
//  257  * None.
//  258  *
//  259  * @return      None.
//  260  **************************************************************************************************
//  261  */
//  262 void MAC_MlmeSetActivePib( void* pPib )
//  263 {
//  264   halIntState_t intState;
//  265   HAL_ENTER_CRITICAL_SECTION(intState);
//  266   pMacPib = (macPib_t *)pPib;
//  267   HAL_EXIT_CRITICAL_SECTION(intState);
//  268 }
//  269 #endif /* FEATURE_MAC_PIB_PTR */
//  270 
//  271 /**************************************************************************************************
//  272  * @fn          macPibReset
//  273  *
//  274  * @brief       This function initializes the PIB.
//  275  *
//  276  * input parameters
//  277  *
//  278  * @param       None.
//  279  *
//  280  * output parameters
//  281  *
//  282  * None.
//  283  *
//  284  * @return      None.
//  285  **************************************************************************************************
//  286  */

        RSEG BANKED_CODE:CODE:NOROOT(0)
//  287 MAC_INTERNAL_API void macPibReset(void)
macPibReset:
          CFI Block cfiBlock0 Using cfiCommon0
          CFI Function macPibReset
        CODE
//  288 {
        FUNCALL macPibReset, osal_memcpy
        LOCFRAME ISTACK, 0, STACK
        LOCFRAME PSTACK, 0, STACK
        LOCFRAME XSTACK, 46, STACK
        LOCFRAME IOVERLAY, 0, STATIC
        LOCFRAME DOVERLAY, 0, STATIC
        ARGFRAME ISTACK, 0, STACK
        ARGFRAME PSTACK, 0, STACK
        ARGFRAME XSTACK, 46, STACK
        ARGFRAME IOVERLAY, 0, STATIC
        ARGFRAME DOVERLAY, 0, STATIC
        FUNCALL macPibReset, osal_memcpy
        LOCFRAME ISTACK, 0, STACK
        LOCFRAME PSTACK, 0, STACK
        LOCFRAME XSTACK, 46, STACK
        LOCFRAME IOVERLAY, 0, STATIC
        LOCFRAME DOVERLAY, 0, STATIC
        ARGFRAME ISTACK, 0, STACK
        ARGFRAME PSTACK, 0, STACK
        ARGFRAME XSTACK, 46, STACK
        ARGFRAME IOVERLAY, 0, STATIC
        ARGFRAME DOVERLAY, 0, STATIC
        FUNCALL macPibReset, macRadioRandomByte
        LOCFRAME ISTACK, 0, STACK
        LOCFRAME PSTACK, 0, STACK
        LOCFRAME XSTACK, 43, STACK
        LOCFRAME IOVERLAY, 0, STATIC
        LOCFRAME DOVERLAY, 0, STATIC
        ARGFRAME ISTACK, 0, STACK
        ARGFRAME PSTACK, 0, STACK
        ARGFRAME XSTACK, 43, STACK
        ARGFRAME IOVERLAY, 0, STATIC
        ARGFRAME DOVERLAY, 0, STATIC
        FUNCALL macPibReset, macRadioRandomByte
        LOCFRAME ISTACK, 0, STACK
        LOCFRAME PSTACK, 0, STACK
        LOCFRAME XSTACK, 43, STACK
        LOCFRAME IOVERLAY, 0, STATIC
        LOCFRAME DOVERLAY, 0, STATIC
        ARGFRAME ISTACK, 0, STACK
        ARGFRAME PSTACK, 0, STACK
        ARGFRAME XSTACK, 43, STACK
        ARGFRAME IOVERLAY, 0, STATIC
        ARGFRAME DOVERLAY, 0, STATIC
        REQUIRE ?V0
        REQUIRE ?V1
        REQUIRE ?V2
        MOV     A,#-0xb
        LCALL   ?BANKED_ENTER_XDATA
          CFI DPH0 load(1, XDATA, add(CFA_XSP16, literal(-1)))
          CFI DPL0 load(1, XDATA, add(CFA_XSP16, literal(-2)))
          CFI ?BRET_EXT load(1, XDATA, add(CFA_XSP16, literal(-3)))
          CFI ?RET_HIGH load(1, XDATA, add(CFA_XSP16, literal(-4)))
          CFI ?RET_LOW load(1, XDATA, add(CFA_XSP16, literal(-5)))
          CFI R7 load(1, XDATA, add(CFA_XSP16, literal(-6)))
          CFI V2 load(1, XDATA, add(CFA_XSP16, literal(-7)))
          CFI V1 load(1, XDATA, add(CFA_XSP16, literal(-8)))
          CFI V0 load(1, XDATA, add(CFA_XSP16, literal(-9)))
          CFI VB load(1, XDATA, add(CFA_XSP16, literal(-10)))
          CFI R6 load(1, XDATA, add(CFA_XSP16, literal(-11)))
          CFI CFA_SP SP+0
          CFI CFA_XSP16 add(XSP16, 11)
        ; Saved register size: 11
        ; Auto size: 32
        MOV     A,#-0x20
        LCALL   ?ALLOC_XSTACK8
          CFI CFA_XSP16 add(XSP16, 43)
//  289   /* Preserve initialized proprietary values. */
//  290   uint8 randomSeed[MAC_RANDOM_SEED_LEN];
//  291   osal_memcpy(randomSeed, pMacPib->randomSeed, MAC_RANDOM_SEED_LEN);
        ; Setup parameters for call to function osal_memcpy
        MOV     ?V0,#(macPib + 94) & 0xff
        MOV     ?V1,#((macPib + 94) >> 8) & 0xff
        MOV     ?V2,#0x0
        MOV     R0,#?V0
        LCALL   ?PUSH_XSTACK_I_THREE
          CFI CFA_XSP16 add(XSP16, 46)
        MOV     R4,#0x20
        MOV     R5,#0x0
        MOV     A,#0x3
        LCALL   ?XSTACK_DISP101_8
        LCALL   `??osal_memcpy::?relay`; Banked call to: osal_memcpy
        MOV     A,#0x3
        LCALL   ?DEALLOC_XSTACK8
          CFI CFA_XSP16 add(XSP16, 43)
//  292 
//  293   /* copy PIB defaults */
//  294 #if defined( FEATURE_MAC_PIB_PTR )  
//  295   *pMacPib = macPibDefaults;
//  296 #else
//  297   macPib = macPibDefaults;
        MOV     DPTR,#macPibDefaults
        MOV     R4,#macPib & 0xff
        MOV     R5,#(macPib >> 8) & 0xff
        MOV     A,#0x7e
        LCALL   ?MOVE_LONG8_XDATA_CODE
//  298 #endif /* FEATURE_MAC_PIB_PTR */
//  299   
//  300   osal_memcpy(pMacPib->randomSeed, randomSeed, MAC_RANDOM_SEED_LEN);
        ; Setup parameters for call to function osal_memcpy
        MOV     R0,?XSP + 0
        MOV     R1,?XSP + 1
        MOV     ?V0,R0
        MOV     ?V1,R1
        MOV     R0,#?V0
        LCALL   ?PUSH_XSTACK_I_THREE
          CFI CFA_XSP16 add(XSP16, 46)
        MOV     R4,#0x20
        MOV     R5,#0x0
        MOV     R2,#(macPib + 94) & 0xff
        MOV     R3,#((macPib + 94) >> 8) & 0xff
        LCALL   `??osal_memcpy::?relay`; Banked call to: osal_memcpy
        MOV     A,#0x3
        LCALL   ?DEALLOC_XSTACK8
          CFI CFA_XSP16 add(XSP16, 43)
//  301 
//  302   /* initialize random sequence numbers */
//  303   pMacPib->dsn = macRadioRandomByte();
        ; Setup parameters for call to function macRadioRandomByte
        LCALL   `??macRadioRandomByte::?relay`; Banked call to: macRadioRandomByte
        MOV     A,R1
        MOV     DPTR,#macPib + 25
        MOVX    @DPTR,A
//  304   pMacPib->bsn = macRadioRandomByte();
        ; Setup parameters for call to function macRadioRandomByte
        LCALL   `??macRadioRandomByte::?relay`; Banked call to: macRadioRandomByte
        MOV     A,R1
        MOV     DPTR,#macPib + 13
        MOVX    @DPTR,A
//  305 }
        MOV     A,#0x20
        LCALL   ?DEALLOC_XSTACK8
          CFI CFA_XSP16 add(XSP16, 11)
        MOV     R7,#0x3
        LJMP    ?BANKED_LEAVE_XDATA
          CFI EndBlock cfiBlock0
//  306 
//  307 /**************************************************************************************************
//  308  * @fn          macPibIndex
//  309  *
//  310  * @brief       This function takes an PIB attribute and returns the index in to
//  311  *              macPibTbl for the attribute.
//  312  *
//  313  * input parameters
//  314  *
//  315  * @param       pibAttribute - PIB attribute to look up.
//  316  *
//  317  * output parameters
//  318  *
//  319  * None.
//  320  *
//  321  * @return      Index in to macPibTbl for the attribute or MAC_PIB_INVALID.
//  322  **************************************************************************************************
//  323  */

        RSEG BANKED_CODE:CODE:NOROOT(0)
//  324 MAC_INTERNAL_API uint8 macPibIndex(uint8 pibAttribute)
macPibIndex:
          CFI Block cfiBlock1 Using cfiCommon0
          CFI Function macPibIndex
        CODE
//  325 {
        ; Saved register size: 0
        ; Auto size: 0
//  326   if ((pibAttribute >= MAC_ATTR_SET1_START) && (pibAttribute <= MAC_ATTR_SET1_END))
        MOV     A,#-0x40
        ADD     A,R1
        CLR     C
        SUBB    A,#0x1e
        JNC     ??macPibIndex_0
//  327   {
//  328     return (pibAttribute - MAC_ATTR_SET1_START + MAC_ATTR_SET1_OFFSET);
        MOV     A,#-0x40
        SJMP    ??macPibIndex_1
//  329   }
//  330   else if ((pibAttribute >= MAC_ATTR_SET2_START) && (pibAttribute <= MAC_ATTR_SET2_END))
??macPibIndex_0:
        MOV     A,#0x20
        ADD     A,R1
        CLR     C
        SUBB    A,#0x10
        JNC     ??macPibIndex_2
//  331   {
//  332     return (pibAttribute - MAC_ATTR_SET2_START + MAC_ATTR_SET2_OFFSET);
        MOV     A,#0x3e
??macPibIndex_1:
        ADD     A,R1
        MOV     R1,A
        SJMP    ??macPibIndex_3
//  333   }
//  334   else
//  335   {
//  336     return MAC_PIB_INVALID;
??macPibIndex_2:
        MOV     R1,#0x2e
??macPibIndex_3:
        LJMP    ?BRET
//  337   }
//  338 }
          CFI EndBlock cfiBlock1
//  339 
//  340 
//  341 /**************************************************************************************************
//  342  * @fn          MAC_MlmeGetReq
//  343  *
//  344  * @brief       This direct execute function retrieves an attribute value
//  345  *              from the MAC PIB.
//  346  *
//  347  * input parameters
//  348  *
//  349  * @param       pibAttribute - The attribute identifier.
//  350  * @param       pValue - pointer to the attribute value.
//  351  *
//  352  * output parameters
//  353  *
//  354  * @param       pValue - pointer to the attribute value.
//  355  *
//  356  * @return      The status of the request, as follows:
//  357  *              MAC_SUCCESS Operation successful.
//  358  *              MAC_UNSUPPORTED_ATTRIBUTE Attribute not found.
//  359  *
//  360  **************************************************************************************************
//  361  */

        RSEG BANKED_CODE:CODE:NOROOT(0)
//  362 uint8 MAC_MlmeGetReq(uint8 pibAttribute, void *pValue)
MAC_MlmeGetReq:
          CFI Block cfiBlock2 Using cfiCommon0
          CFI Function MAC_MlmeGetReq
        CODE
//  363 {
        FUNCALL MAC_MlmeGetReq, macPibIndex
        LOCFRAME ISTACK, 0, STACK
        LOCFRAME PSTACK, 0, STACK
        LOCFRAME XSTACK, 13, STACK
        LOCFRAME IOVERLAY, 0, STATIC
        LOCFRAME DOVERLAY, 0, STATIC
        ARGFRAME ISTACK, 0, STACK
        ARGFRAME PSTACK, 0, STACK
        ARGFRAME XSTACK, 13, STACK
        ARGFRAME IOVERLAY, 0, STATIC
        ARGFRAME DOVERLAY, 0, STATIC
        FUNCALL MAC_MlmeGetReq, osal_memcpy
        LOCFRAME ISTACK, 0, STACK
        LOCFRAME PSTACK, 0, STACK
        LOCFRAME XSTACK, 16, STACK
        LOCFRAME IOVERLAY, 0, STATIC
        LOCFRAME DOVERLAY, 0, STATIC
        ARGFRAME ISTACK, 0, STACK
        ARGFRAME PSTACK, 0, STACK
        ARGFRAME XSTACK, 16, STACK
        ARGFRAME IOVERLAY, 0, STATIC
        ARGFRAME DOVERLAY, 0, STATIC
        REQUIRE ?V0
        REQUIRE ?V1
        REQUIRE ?V2
        REQUIRE ?V3
        REQUIRE ?V4
        MOV     A,#-0xd
        LCALL   ?BANKED_ENTER_XDATA
          CFI DPH0 load(1, XDATA, add(CFA_XSP16, literal(-1)))
          CFI DPL0 load(1, XDATA, add(CFA_XSP16, literal(-2)))
          CFI ?BRET_EXT load(1, XDATA, add(CFA_XSP16, literal(-3)))
          CFI ?RET_HIGH load(1, XDATA, add(CFA_XSP16, literal(-4)))
          CFI ?RET_LOW load(1, XDATA, add(CFA_XSP16, literal(-5)))
          CFI R7 load(1, XDATA, add(CFA_XSP16, literal(-6)))
          CFI V4 load(1, XDATA, add(CFA_XSP16, literal(-7)))
          CFI V3 load(1, XDATA, add(CFA_XSP16, literal(-8)))
          CFI V2 load(1, XDATA, add(CFA_XSP16, literal(-9)))
          CFI V1 load(1, XDATA, add(CFA_XSP16, literal(-10)))
          CFI V0 load(1, XDATA, add(CFA_XSP16, literal(-11)))
          CFI VB load(1, XDATA, add(CFA_XSP16, literal(-12)))
          CFI R6 load(1, XDATA, add(CFA_XSP16, literal(-13)))
          CFI CFA_SP SP+0
          CFI CFA_XSP16 add(XSP16, 13)
        ; Saved register size: 13
        ; Auto size: 0
        MOV     A,R2
        MOV     R6,A
        MOV     A,R3
        MOV     R7,A
//  364   uint8         i;
//  365   halIntState_t intState;
//  366 
//  367   if ((i = MAP_macPibIndex(pibAttribute)) == MAC_PIB_INVALID)
        ; Setup parameters for call to function macPibIndex
        LCALL   `??macPibIndex::?relay`; Banked call to: macPibIndex
        MOV     A,R1
        MOV     ?V0,A
        MOV     A,#0x2e
        XRL     A,?V0
        JNZ     ??MAC_MlmeGetReq_0
//  368   {
//  369     return MAC_UNSUPPORTED_ATTRIBUTE;
        MOV     R1,#-0xc
        SJMP    ??MAC_MlmeGetReq_1
//  370   }
//  371 
//  372   HAL_ENTER_CRITICAL_SECTION(intState);
??MAC_MlmeGetReq_0:
        MOV     ?V3,0xa8+0x0
        CLR     0xa8.7
//  373   osal_memcpy(pValue, (uint8 *) pMacPib + macPibTbl[i].offset, macPibTbl[i].len);
        MOV     ?V1,#0x0
        MOV     A,#0x2
        MOV     R0,#?V0
        LCALL   ?S_SHL
        MOV     A,#macPibTbl & 0xff
        ADD     A,?V0
        MOV     R2,A
        MOV     A,#(macPibTbl >> 8) & 0xff
        ADDC    A,?V1
        MOV     R3,A
        ; Setup parameters for call to function osal_memcpy
        MOV     DPL,R2
        MOV     DPH,R3
        CLR     A
        MOVC    A,@A+DPTR
        MOV     R0,A
        MOV     A,#macPib & 0xff
        ADD     A,R0
        MOV     ?V0,A
        CLR     A
        ADDC    A,#(macPib >> 8) & 0xff
        MOV     ?V1,A
        MOV     ?V2,#0x0
        MOV     R0,#?V0
        LCALL   ?PUSH_XSTACK_I_THREE
          CFI CFA_XSP16 add(XSP16, 16)
        MOV     DPL,R2
        MOV     DPH,R3
        INC     DPTR
        CLR     A
        MOVC    A,@A+DPTR
        MOV     R4,A
        MOV     R5,#0x0
        MOV     A,R6
        MOV     R2,A
        MOV     A,R7
        MOV     R3,A
        LCALL   `??osal_memcpy::?relay`; Banked call to: osal_memcpy
        MOV     A,#0x3
        LCALL   ?DEALLOC_XSTACK8
          CFI CFA_XSP16 add(XSP16, 13)
//  374   HAL_EXIT_CRITICAL_SECTION(intState);
        MOV     A,?V3
        MOV     C,0xE0 /* A   */.7
        CLR     A
        RLC     A
        MOV     R0,A
        MOV     A,?V3
        MOV     C,0xE0 /* A   */.7
        MOV     0xa8.7,C
//  375   return MAC_SUCCESS;
        MOV     R1,#0x0
??MAC_MlmeGetReq_1:
        MOV     R7,#0x5
        LJMP    ?BANKED_LEAVE_XDATA
          CFI EndBlock cfiBlock2
        REQUIRE _A_IEN0
//  376 }
//  377 
//  378 /**************************************************************************************************
//  379  * @fn          MAC_MlmeGetReqSize
//  380  *
//  381  * @brief       This direct execute function gets the MAC PIB attribute size
//  382  *
//  383  * input parameters
//  384  *
//  385  * @param       pibAttribute - The attribute identifier.
//  386  *
//  387  * output parameters
//  388  *
//  389  * None.
//  390  *
//  391  * @return      size in bytes
//  392  *
//  393  **************************************************************************************************
//  394  */

        RSEG BANKED_CODE:CODE:NOROOT(0)
//  395 uint8 MAC_MlmeGetReqSize( uint8 pibAttribute )
MAC_MlmeGetReqSize:
          CFI Block cfiBlock3 Using cfiCommon0
          CFI Function MAC_MlmeGetReqSize
        CODE
//  396 {
        FUNCALL MAC_MlmeGetReqSize, macPibIndex
        LOCFRAME ISTACK, 0, STACK
        LOCFRAME PSTACK, 0, STACK
        LOCFRAME XSTACK, 10, STACK
        LOCFRAME IOVERLAY, 0, STATIC
        LOCFRAME DOVERLAY, 0, STATIC
        ARGFRAME ISTACK, 0, STACK
        ARGFRAME PSTACK, 0, STACK
        ARGFRAME XSTACK, 10, STACK
        ARGFRAME IOVERLAY, 0, STATIC
        ARGFRAME DOVERLAY, 0, STATIC
        REQUIRE ?V0
        REQUIRE ?V1
        MOV     A,#-0xa
        LCALL   ?BANKED_ENTER_XDATA
          CFI DPH0 load(1, XDATA, add(CFA_XSP16, literal(-1)))
          CFI DPL0 load(1, XDATA, add(CFA_XSP16, literal(-2)))
          CFI ?BRET_EXT load(1, XDATA, add(CFA_XSP16, literal(-3)))
          CFI ?RET_HIGH load(1, XDATA, add(CFA_XSP16, literal(-4)))
          CFI ?RET_LOW load(1, XDATA, add(CFA_XSP16, literal(-5)))
          CFI R7 load(1, XDATA, add(CFA_XSP16, literal(-6)))
          CFI V1 load(1, XDATA, add(CFA_XSP16, literal(-7)))
          CFI V0 load(1, XDATA, add(CFA_XSP16, literal(-8)))
          CFI VB load(1, XDATA, add(CFA_XSP16, literal(-9)))
          CFI R6 load(1, XDATA, add(CFA_XSP16, literal(-10)))
          CFI CFA_SP SP+0
          CFI CFA_XSP16 add(XSP16, 10)
        ; Saved register size: 10
        ; Auto size: 0
//  397   uint8 index;
//  398 
//  399   if ((index = MAP_macPibIndex(pibAttribute)) == MAC_PIB_INVALID)
        ; Setup parameters for call to function macPibIndex
        LCALL   `??macPibIndex::?relay`; Banked call to: macPibIndex
        MOV     A,R1
        MOV     ?V0,A
        MOV     A,#0x2e
        XRL     A,?V0
        JNZ     ??MAC_MlmeGetReqSize_0
//  400   {
//  401     return 0;
        MOV     R1,#0x0
        SJMP    ??MAC_MlmeGetReqSize_1
//  402   }
//  403 
//  404   return ( macPibTbl[index].len );
??MAC_MlmeGetReqSize_0:
        MOV     ?V1,#0x0
        MOV     A,#0x2
        MOV     R0,#?V0
        LCALL   ?S_SHL
        MOV     A,#(macPibTbl + 1) & 0xff
        ADD     A,?V0
        MOV     DPL,A
        MOV     A,#((macPibTbl + 1) >> 8) & 0xff
        ADDC    A,?V1
        MOV     DPH,A
        CLR     A
        MOVC    A,@A+DPTR
        MOV     R1,A
??MAC_MlmeGetReqSize_1:
        MOV     R7,#0x2
        LJMP    ?BANKED_LEAVE_XDATA
//  405 }
          CFI EndBlock cfiBlock3
//  406 
//  407 /**************************************************************************************************
//  408  * @fn          MAC_MlmeSetReq
//  409  *
//  410  * @brief       This direct execute function sets an attribute value
//  411  *              in the MAC PIB.
//  412  *
//  413  * input parameters
//  414  *
//  415  * @param       pibAttribute - The attribute identifier.
//  416  * @param       pValue - pointer to the attribute value.
//  417  *
//  418  * output parameters
//  419  *
//  420  * None.
//  421  *
//  422  * @return      The status of the request, as follows:
//  423  *              MAC_SUCCESS Operation successful.
//  424  *              MAC_UNSUPPORTED_ATTRIBUTE Attribute not found.
//  425  *
//  426  **************************************************************************************************
//  427  */

        RSEG BANKED_CODE:CODE:NOROOT(0)
//  428 uint8 MAC_MlmeSetReq(uint8 pibAttribute, void *pValue)
MAC_MlmeSetReq:
          CFI Block cfiBlock4 Using cfiCommon0
          CFI Function MAC_MlmeSetReq
        CODE
//  429 {
        FUNCALL MAC_MlmeSetReq, macPibIndex
        LOCFRAME ISTACK, 0, STACK
        LOCFRAME PSTACK, 0, STACK
        LOCFRAME XSTACK, 14, STACK
        LOCFRAME IOVERLAY, 0, STATIC
        LOCFRAME DOVERLAY, 0, STATIC
        ARGFRAME ISTACK, 0, STACK
        ARGFRAME PSTACK, 0, STACK
        ARGFRAME XSTACK, 14, STACK
        ARGFRAME IOVERLAY, 0, STATIC
        ARGFRAME DOVERLAY, 0, STATIC
        FUNCALL MAC_MlmeSetReq, osal_memcpy
        LOCFRAME ISTACK, 0, STACK
        LOCFRAME PSTACK, 0, STACK
        LOCFRAME XSTACK, 17, STACK
        LOCFRAME IOVERLAY, 0, STATIC
        LOCFRAME DOVERLAY, 0, STATIC
        ARGFRAME ISTACK, 0, STACK
        ARGFRAME PSTACK, 0, STACK
        ARGFRAME XSTACK, 17, STACK
        ARGFRAME IOVERLAY, 0, STATIC
        ARGFRAME DOVERLAY, 0, STATIC
        FUNCALL MAC_MlmeSetReq, macRadioSetPanID
        LOCFRAME ISTACK, 0, STACK
        LOCFRAME PSTACK, 0, STACK
        LOCFRAME XSTACK, 14, STACK
        LOCFRAME IOVERLAY, 0, STATIC
        LOCFRAME DOVERLAY, 0, STATIC
        ARGFRAME ISTACK, 0, STACK
        ARGFRAME PSTACK, 0, STACK
        ARGFRAME XSTACK, 14, STACK
        ARGFRAME IOVERLAY, 0, STATIC
        ARGFRAME DOVERLAY, 0, STATIC
        FUNCALL MAC_MlmeSetReq, macRadioSetShortAddr
        LOCFRAME ISTACK, 0, STACK
        LOCFRAME PSTACK, 0, STACK
        LOCFRAME XSTACK, 14, STACK
        LOCFRAME IOVERLAY, 0, STATIC
        LOCFRAME DOVERLAY, 0, STATIC
        ARGFRAME ISTACK, 0, STACK
        ARGFRAME PSTACK, 0, STACK
        ARGFRAME XSTACK, 14, STACK
        ARGFRAME IOVERLAY, 0, STATIC
        ARGFRAME DOVERLAY, 0, STATIC
        FUNCALL MAC_MlmeSetReq, macRxEnable
        LOCFRAME ISTACK, 0, STACK
        LOCFRAME PSTACK, 0, STACK
        LOCFRAME XSTACK, 14, STACK
        LOCFRAME IOVERLAY, 0, STATIC
        LOCFRAME DOVERLAY, 0, STATIC
        ARGFRAME ISTACK, 0, STACK
        ARGFRAME PSTACK, 0, STACK
        ARGFRAME XSTACK, 14, STACK
        ARGFRAME IOVERLAY, 0, STATIC
        ARGFRAME DOVERLAY, 0, STATIC
        FUNCALL MAC_MlmeSetReq, macRxDisable
        LOCFRAME ISTACK, 0, STACK
        LOCFRAME PSTACK, 0, STACK
        LOCFRAME XSTACK, 14, STACK
        LOCFRAME IOVERLAY, 0, STATIC
        LOCFRAME DOVERLAY, 0, STATIC
        ARGFRAME ISTACK, 0, STACK
        ARGFRAME PSTACK, 0, STACK
        ARGFRAME XSTACK, 14, STACK
        ARGFRAME IOVERLAY, 0, STATIC
        ARGFRAME DOVERLAY, 0, STATIC
        FUNCALL MAC_MlmeSetReq, macRadioSetChannel
        LOCFRAME ISTACK, 0, STACK
        LOCFRAME PSTACK, 0, STACK
        LOCFRAME XSTACK, 14, STACK
        LOCFRAME IOVERLAY, 0, STATIC
        LOCFRAME DOVERLAY, 0, STATIC
        ARGFRAME ISTACK, 0, STACK
        ARGFRAME PSTACK, 0, STACK
        ARGFRAME XSTACK, 14, STACK
        ARGFRAME IOVERLAY, 0, STATIC
        ARGFRAME DOVERLAY, 0, STATIC
        FUNCALL MAC_MlmeSetReq, macRadioSetIEEEAddr
        LOCFRAME ISTACK, 0, STACK
        LOCFRAME PSTACK, 0, STACK
        LOCFRAME XSTACK, 14, STACK
        LOCFRAME IOVERLAY, 0, STATIC
        LOCFRAME DOVERLAY, 0, STATIC
        ARGFRAME ISTACK, 0, STACK
        ARGFRAME PSTACK, 0, STACK
        ARGFRAME XSTACK, 14, STACK
        ARGFRAME IOVERLAY, 0, STATIC
        ARGFRAME DOVERLAY, 0, STATIC
        FUNCALL MAC_MlmeSetReq, macRadioSetTxPower
        LOCFRAME ISTACK, 0, STACK
        LOCFRAME PSTACK, 0, STACK
        LOCFRAME XSTACK, 14, STACK
        LOCFRAME IOVERLAY, 0, STATIC
        LOCFRAME DOVERLAY, 0, STATIC
        ARGFRAME ISTACK, 0, STACK
        ARGFRAME PSTACK, 0, STACK
        ARGFRAME XSTACK, 14, STACK
        ARGFRAME IOVERLAY, 0, STATIC
        ARGFRAME DOVERLAY, 0, STATIC
        REQUIRE ?V0
        REQUIRE ?V1
        REQUIRE ?V2
        REQUIRE ?V3
        REQUIRE ?V4
        REQUIRE ?V5
        MOV     A,#-0xe
        LCALL   ?BANKED_ENTER_XDATA
          CFI DPH0 load(1, XDATA, add(CFA_XSP16, literal(-1)))
          CFI DPL0 load(1, XDATA, add(CFA_XSP16, literal(-2)))
          CFI ?BRET_EXT load(1, XDATA, add(CFA_XSP16, literal(-3)))
          CFI ?RET_HIGH load(1, XDATA, add(CFA_XSP16, literal(-4)))
          CFI ?RET_LOW load(1, XDATA, add(CFA_XSP16, literal(-5)))
          CFI R7 load(1, XDATA, add(CFA_XSP16, literal(-6)))
          CFI V5 load(1, XDATA, add(CFA_XSP16, literal(-7)))
          CFI V4 load(1, XDATA, add(CFA_XSP16, literal(-8)))
          CFI V3 load(1, XDATA, add(CFA_XSP16, literal(-9)))
          CFI V2 load(1, XDATA, add(CFA_XSP16, literal(-10)))
          CFI V1 load(1, XDATA, add(CFA_XSP16, literal(-11)))
          CFI V0 load(1, XDATA, add(CFA_XSP16, literal(-12)))
          CFI VB load(1, XDATA, add(CFA_XSP16, literal(-13)))
          CFI R6 load(1, XDATA, add(CFA_XSP16, literal(-14)))
          CFI CFA_SP SP+0
          CFI CFA_XSP16 add(XSP16, 14)
        ; Saved register size: 14
        ; Auto size: 0
        MOV     ?V3,R1
        MOV     A,R2
        MOV     R6,A
        MOV     A,R3
        MOV     R7,A
//  430   uint8         i;
//  431   halIntState_t intState;
//  432 
//  433   if (pibAttribute == MAC_BEACON_PAYLOAD)
        MOV     A,#0x45
        XRL     A,?V3
        JNZ     ??MAC_MlmeSetReq_0
//  434   {
//  435     pMacPib->pBeaconPayload = pValue;
        MOV     DPTR,#macPib + 5
        MOV     A,R6
        MOVX    @DPTR,A
        INC     DPTR
        MOV     A,R7
        LJMP    ??MAC_MlmeSetReq_1 & 0xFFFF
//  436     return MAC_SUCCESS;
//  437   }
//  438 
//  439   /* look up attribute in PIB table */
//  440   if ((i = MAP_macPibIndex(pibAttribute)) == MAC_PIB_INVALID)
??MAC_MlmeSetReq_0:
        ; Setup parameters for call to function macPibIndex
        LCALL   `??macPibIndex::?relay`; Banked call to: macPibIndex
        MOV     A,R1
        MOV     ?V0,A
        MOV     A,#0x2e
        XRL     A,?V0
        JNZ     ??MAC_MlmeSetReq_2
//  441   {
//  442     return MAC_UNSUPPORTED_ATTRIBUTE;
        MOV     R1,#-0xc
        LJMP    ??MAC_MlmeSetReq_3 & 0xFFFF
//  443   }
//  444 
//  445   /* do range check; no range check if min and max are zero */
//  446   if ((macPibTbl[i].min != 0) || (macPibTbl[i].max != 0))
??MAC_MlmeSetReq_2:
        MOV     ?V4,R1
        MOV     ?V5,#0x0
        MOV     A,#0x2
        MOV     R0,#?V4
        LCALL   ?S_SHL
        LCALL   ?Subroutine0 & 0xFFFF
??CrossCallReturnLabel_0:
        JNZ     ??MAC_MlmeSetReq_4
        MOV     ?V4,R1
        MOV     ?V5,#0x0
        MOV     A,#0x2
        MOV     R0,#?V4
        LCALL   ?S_SHL
        LCALL   ?Subroutine1 & 0xFFFF
??CrossCallReturnLabel_2:
        JNZ     $+5
        LJMP    ??MAC_MlmeSetReq_5 & 0xFFFF
//  447   {
//  448     /* if min == max, this is a read-only attribute */
//  449     if (macPibTbl[i].min == macPibTbl[i].max)
??MAC_MlmeSetReq_4:
        MOV     ?V4,R1
        MOV     ?V5,#0x0
        MOV     A,#0x2
        MOV     R0,#?V4
        LCALL   ?S_SHL
        MOV     A,#macPibTbl & 0xff
        ADD     A,?V4
        MOV     R2,A
        MOV     A,#(macPibTbl >> 8) & 0xff
        ADDC    A,?V5
        MOV     R3,A
        MOV     DPL,R2
        MOV     DPH,R3
        INC     DPTR
        INC     DPTR
        CLR     A
        MOVC    A,@A+DPTR
        MOV     R0,A
        MOV     DPL,R2
        MOV     DPH,R3
        INC     DPTR
        INC     DPTR
        INC     DPTR
        CLR     A
        MOVC    A,@A+DPTR
        XRL     A,R0
        JNZ     ??MAC_MlmeSetReq_6
//  450     {
//  451       return MAC_READ_ONLY;
        MOV     R1,#-0x5
        LJMP    ??MAC_MlmeSetReq_3 & 0xFFFF
//  452     }
//  453 
//  454     /* check for special cases */
//  455     if (pibAttribute == MAC_MAX_FRAME_TOTAL_WAIT_TIME)
??MAC_MlmeSetReq_6:
        MOV     A,#0x58
        XRL     A,?V3
        JNZ     ??MAC_MlmeSetReq_7
//  456     {
//  457       if ((*((uint16 *) pValue) < MAC_MAX_FRAME_RESPONSE_MIN) ||
//  458           (*((uint16 *) pValue) > MAC_MAX_FRAME_RESPONSE_MAX))
        MOV     DPL,R6
        MOV     DPH,R7
        MOVX    A,@DPTR
        ADD     A,#0x71
        MOV     R0,A
        INC     DPTR
        MOVX    A,@DPTR
        ADDC    A,#-0x1
        MOV     R1,A
        CLR     C
        MOV     A,R0
        SUBB    A,#0x22
        MOV     A,R1
        SUBB    A,#0x64
        JNC     ??MAC_MlmeSetReq_8
//  459       {
//  460         return MAC_INVALID_PARAMETER;
//  461       }
//  462     }
//  463 
//  464     /* range check for general case */
//  465     if ((*((uint8 *) pValue) < macPibTbl[i].min) || (*((uint8 *) pValue) > macPibTbl[i].max))
??MAC_MlmeSetReq_7:
        MOV     ?V4,?V0
        MOV     ?V5,#0x0
        MOV     A,#0x2
        MOV     R0,#?V4
        LCALL   ?S_SHL
        LCALL   ?Subroutine0 & 0xFFFF
??CrossCallReturnLabel_1:
        MOV     R0,A
        MOV     DPL,R6
        MOV     DPH,R7
        MOVX    A,@DPTR
        CLR     C
        SUBB    A,R0
        JC      ??MAC_MlmeSetReq_8
        MOVX    A,@DPTR
        MOV     R1,A
        MOV     ?V4,?V0
        MOV     ?V5,#0x0
        MOV     A,#0x2
        MOV     R0,#?V4
        LCALL   ?S_SHL
        LCALL   ?Subroutine1 & 0xFFFF
??CrossCallReturnLabel_3:
        CLR     C
        SUBB    A,R1
        JNC     ??MAC_MlmeSetReq_5
//  466     {
//  467       return MAC_INVALID_PARAMETER;
??MAC_MlmeSetReq_8:
        MOV     R1,#-0x18
        LJMP    ??MAC_MlmeSetReq_3 & 0xFFFF
//  468     }
//  469 
//  470   }
//  471 
//  472   /* set value in PIB */
//  473   HAL_ENTER_CRITICAL_SECTION(intState);
??MAC_MlmeSetReq_5:
        MOV     ?V4,0xa8+0x0
        CLR     0xa8.7
//  474   osal_memcpy((uint8 *) pMacPib + macPibTbl[i].offset, pValue, macPibTbl[i].len);
        MOV     ?V1,#0x0
        MOV     A,#0x2
        MOV     R0,#?V0
        LCALL   ?S_SHL
        MOV     A,#macPibTbl & 0xff
        ADD     A,?V0
        MOV     R0,A
        MOV     A,#(macPibTbl >> 8) & 0xff
        ADDC    A,?V1
        MOV     R1,A
        MOV     A,R0
        MOV     R2,A
        MOV     A,R1
        MOV     R3,A
        ; Setup parameters for call to function osal_memcpy
        MOV     ?V0,R6
        MOV     ?V1,R7
        MOV     ?V2,#0x0
        MOV     R0,#?V0
        LCALL   ?PUSH_XSTACK_I_THREE
          CFI CFA_XSP16 add(XSP16, 17)
        MOV     DPL,R2
        MOV     DPH,R3
        INC     DPTR
        CLR     A
        MOVC    A,@A+DPTR
        MOV     R4,A
        MOV     R5,#0x0
        MOV     DPL,R2
        MOV     DPH,R3
        CLR     A
        MOVC    A,@A+DPTR
        MOV     R0,A
        MOV     A,#macPib & 0xff
        ADD     A,R0
        MOV     R2,A
        CLR     A
        ADDC    A,#(macPib >> 8) & 0xff
        MOV     R3,A
        LCALL   `??osal_memcpy::?relay`; Banked call to: osal_memcpy
        MOV     A,#0x3
        LCALL   ?DEALLOC_XSTACK8
          CFI CFA_XSP16 add(XSP16, 14)
//  475   HAL_EXIT_CRITICAL_SECTION(intState);
        MOV     A,?V4
        MOV     C,0xE0 /* A   */.7
        CLR     A
        RLC     A
        MOV     R0,A
        MOV     A,?V4
        MOV     C,0xE0 /* A   */.7
        MOV     0xa8.7,C
//  476 
//  477   /* handle special cases */
//  478   switch (pibAttribute)
        MOV     A,?V3
        ADD     A,#-0x50
        JZ      ??MAC_MlmeSetReq_9
        ADD     A,#-0x2
        JZ      ??MAC_MlmeSetReq_10
        DEC     A
        JZ      ??MAC_MlmeSetReq_11
        ADD     A,#0x73
        JZ      ??MAC_MlmeSetReq_12
        DEC     A
        JZ      ??MAC_MlmeSetReq_13
        DEC     A
        JZ      ??MAC_MlmeSetReq_14
        ADD     A,#-0x3
        JZ      ??MAC_MlmeSetReq_15
        DEC     A
        JZ      ??MAC_MlmeSetReq_16
        SJMP    ??MAC_MlmeSetReq_17
//  479   {
//  480     case MAC_PAN_ID:
//  481       /* set pan id in radio */
//  482       macRadioSetPanID(pMacPib->panId);
??MAC_MlmeSetReq_9:
        ; Setup parameters for call to function macRadioSetPanID
        MOV     DPTR,#macPib + 29
        MOVX    A,@DPTR
        MOV     R2,A
        INC     DPTR
        MOVX    A,@DPTR
        MOV     R3,A
        LCALL   `??macRadioSetPanID::?relay`; Banked call to: macRadioSetPanID
//  483       break;
        SJMP    ??MAC_MlmeSetReq_17
//  484 
//  485     case MAC_SHORT_ADDRESS:
//  486       /* set short address in radio */
//  487       macRadioSetShortAddr(pMacPib->shortAddress);
??MAC_MlmeSetReq_11:
        ; Setup parameters for call to function macRadioSetShortAddr
        MOV     DPTR,#macPib + 33
        MOVX    A,@DPTR
        MOV     R2,A
        INC     DPTR
        MOVX    A,@DPTR
        MOV     R3,A
        LCALL   `??macRadioSetShortAddr::?relay`; Banked call to: macRadioSetShortAddr
//  488       break;
        SJMP    ??MAC_MlmeSetReq_17
//  489 
//  490     case MAC_RX_ON_WHEN_IDLE:
//  491       /* turn rx on or off */
//  492       if (pMacPib->rxOnWhenIdle)
??MAC_MlmeSetReq_10:
        MOV     DPTR,#macPib + 32
        MOVX    A,@DPTR
        MOV     R1,#0x2
        JZ      ??MAC_MlmeSetReq_18
//  493       {
//  494         macRxEnable(MAC_RX_WHEN_IDLE);
        ; Setup parameters for call to function macRxEnable
        LCALL   `??macRxEnable::?relay`; Banked call to: macRxEnable
        SJMP    ??MAC_MlmeSetReq_17
//  495       }
//  496       else
//  497       {
//  498         macRxDisable(MAC_RX_WHEN_IDLE);
??MAC_MlmeSetReq_18:
        ; Setup parameters for call to function macRxDisable
        LCALL   `??macRxDisable::?relay`; Banked call to: macRxDisable
        SJMP    ??MAC_MlmeSetReq_17
//  499       }
//  500       break;
//  501 
//  502     case MAC_LOGICAL_CHANNEL:
//  503       macRadioSetChannel(pMacPib->logicalChannel);
??MAC_MlmeSetReq_13:
        ; Setup parameters for call to function macRadioSetChannel
        MOV     DPTR,#macPib + 48
        MOVX    A,@DPTR
        MOV     R1,A
        LCALL   `??macRadioSetChannel::?relay`; Banked call to: macRadioSetChannel
//  504       break;
        SJMP    ??MAC_MlmeSetReq_17
//  505 
//  506     case MAC_EXTENDED_ADDRESS:
//  507       /* set ext address in radio */
//  508       macRadioSetIEEEAddr(pMacPib->extendedAddress.addr.extAddr);
??MAC_MlmeSetReq_14:
        ; Setup parameters for call to function macRadioSetIEEEAddr
        MOV     R2,#(macPib + 49) & 0xff
        MOV     R3,#((macPib + 49) >> 8) & 0xff
        LCALL   `??macRadioSetIEEEAddr::?relay`; Banked call to: macRadioSetIEEEAddr
//  509       break;
        SJMP    ??MAC_MlmeSetReq_17
//  510 
//  511     case MAC_PHY_TRANSMIT_POWER_SIGNED:
//  512       (void)macRadioSetTxPower(pMacPib->phyTransmitPower);
??MAC_MlmeSetReq_12:
        ; Setup parameters for call to function macRadioSetTxPower
        MOV     DPTR,#macPib + 47
        MOVX    A,@DPTR
        MOV     R1,A
        LCALL   `??macRadioSetTxPower::?relay`; Banked call to: macRadioSetTxPower
//  513       break;
        SJMP    ??MAC_MlmeSetReq_17
//  514 
//  515     case MAC_RF4CE_POWER_SAVINGS:
//  516       pMacPib->rf4cepowerSavings = *(uint8 *)pValue;
??MAC_MlmeSetReq_15:
        MOV     DPL,R6
        MOV     DPH,R7
        MOVX    A,@DPTR
        MOV     DPTR,#macPib + 60
        SJMP    ??MAC_MlmeSetReq_1
//  517       break;
//  518  
//  519     case MAC_FRAME_VERSION_SUPPORT:
//  520       pMacPib->frameVersionSupport = *(uint8 *)pValue;
??MAC_MlmeSetReq_16:
        MOV     DPL,R6
        MOV     DPH,R7
        MOVX    A,@DPTR
        MOV     DPTR,#macPib + 61
??MAC_MlmeSetReq_1:
        MOVX    @DPTR,A
//  521       break;
//  522 
//  523     default:
//  524       break;
//  525   }
//  526 
//  527   return MAC_SUCCESS;
??MAC_MlmeSetReq_17:
        MOV     R1,#0x0
??MAC_MlmeSetReq_3:
        MOV     R7,#0x6
        LJMP    ?BANKED_LEAVE_XDATA
          CFI EndBlock cfiBlock4
        REQUIRE _A_IEN0
//  528 }

        RSEG BANKED_CODE:CODE:NOROOT(0)
?Subroutine1:
          CFI Block cfiCond5 Using cfiCommon0
          CFI Function MAC_MlmeSetReq
          CFI Conditional ??CrossCallReturnLabel_2
          CFI R6 load(1, XDATA, add(CFA_XSP16, literal(-14)))
          CFI VB load(1, XDATA, add(CFA_XSP16, literal(-13)))
          CFI V0 load(1, XDATA, add(CFA_XSP16, literal(-12)))
          CFI V1 load(1, XDATA, add(CFA_XSP16, literal(-11)))
          CFI V2 load(1, XDATA, add(CFA_XSP16, literal(-10)))
          CFI V3 load(1, XDATA, add(CFA_XSP16, literal(-9)))
          CFI V4 load(1, XDATA, add(CFA_XSP16, literal(-8)))
          CFI V5 load(1, XDATA, add(CFA_XSP16, literal(-7)))
          CFI R7 load(1, XDATA, add(CFA_XSP16, literal(-6)))
          CFI ?RET_LOW load(1, XDATA, add(CFA_XSP16, literal(-5)))
          CFI ?RET_HIGH load(1, XDATA, add(CFA_XSP16, literal(-4)))
          CFI ?BRET_EXT load(1, XDATA, add(CFA_XSP16, literal(-3)))
          CFI DPL0 load(1, XDATA, add(CFA_XSP16, literal(-2)))
          CFI DPH0 load(1, XDATA, add(CFA_XSP16, literal(-1)))
          CFI CFA_SP SP+-2
          CFI CFA_XSP16 add(XSP16, 14)
          CFI Block cfiCond6 Using cfiCommon0
          CFI (cfiCond6) Function MAC_MlmeSetReq
          CFI (cfiCond6) Conditional ??CrossCallReturnLabel_3
          CFI (cfiCond6) R6 load(1, XDATA, add(CFA_XSP16, literal(-14)))
          CFI (cfiCond6) VB load(1, XDATA, add(CFA_XSP16, literal(-13)))
          CFI (cfiCond6) V0 load(1, XDATA, add(CFA_XSP16, literal(-12)))
          CFI (cfiCond6) V1 load(1, XDATA, add(CFA_XSP16, literal(-11)))
          CFI (cfiCond6) V2 load(1, XDATA, add(CFA_XSP16, literal(-10)))
          CFI (cfiCond6) V3 load(1, XDATA, add(CFA_XSP16, literal(-9)))
          CFI (cfiCond6) V4 load(1, XDATA, add(CFA_XSP16, literal(-8)))
          CFI (cfiCond6) V5 load(1, XDATA, add(CFA_XSP16, literal(-7)))
          CFI (cfiCond6) R7 load(1, XDATA, add(CFA_XSP16, literal(-6)))
          CFI (cfiCond6) ?RET_LOW load(1, XDATA, add(CFA_XSP16, literal(-5)))
          CFI (cfiCond6) ?RET_HIGH load(1, XDATA, add(CFA_XSP16, literal(-4)))
          CFI (cfiCond6) ?BRET_EXT load(1, XDATA, add(CFA_XSP16, literal(-3)))
          CFI (cfiCond6) DPL0 load(1, XDATA, add(CFA_XSP16, literal(-2)))
          CFI (cfiCond6) DPH0 load(1, XDATA, add(CFA_XSP16, literal(-1)))
          CFI (cfiCond6) CFA_SP SP+-2
          CFI (cfiCond6) CFA_XSP16 add(XSP16, 14)
          CFI Block cfiPicker7 Using cfiCommon1
          CFI (cfiPicker7) NoFunction
          CFI (cfiPicker7) Picker
        MOV     A,#(macPibTbl + 3) & 0xff
        ADD     A,?V4
        MOV     DPL,A
        MOV     A,#((macPibTbl + 3) >> 8) & 0xff
        ADDC    A,?V5
        MOV     DPH,A
        CLR     A
        MOVC    A,@A+DPTR
        RET
          CFI EndBlock cfiCond5
          CFI EndBlock cfiCond6
          CFI EndBlock cfiPicker7

        RSEG BANKED_CODE:CODE:NOROOT(0)
?Subroutine0:
          CFI Block cfiCond8 Using cfiCommon0
          CFI Function MAC_MlmeSetReq
          CFI Conditional ??CrossCallReturnLabel_0
          CFI R6 load(1, XDATA, add(CFA_XSP16, literal(-14)))
          CFI VB load(1, XDATA, add(CFA_XSP16, literal(-13)))
          CFI V0 load(1, XDATA, add(CFA_XSP16, literal(-12)))
          CFI V1 load(1, XDATA, add(CFA_XSP16, literal(-11)))
          CFI V2 load(1, XDATA, add(CFA_XSP16, literal(-10)))
          CFI V3 load(1, XDATA, add(CFA_XSP16, literal(-9)))
          CFI V4 load(1, XDATA, add(CFA_XSP16, literal(-8)))
          CFI V5 load(1, XDATA, add(CFA_XSP16, literal(-7)))
          CFI R7 load(1, XDATA, add(CFA_XSP16, literal(-6)))
          CFI ?RET_LOW load(1, XDATA, add(CFA_XSP16, literal(-5)))
          CFI ?RET_HIGH load(1, XDATA, add(CFA_XSP16, literal(-4)))
          CFI ?BRET_EXT load(1, XDATA, add(CFA_XSP16, literal(-3)))
          CFI DPL0 load(1, XDATA, add(CFA_XSP16, literal(-2)))
          CFI DPH0 load(1, XDATA, add(CFA_XSP16, literal(-1)))
          CFI CFA_SP SP+-2
          CFI CFA_XSP16 add(XSP16, 14)
          CFI Block cfiCond9 Using cfiCommon0
          CFI (cfiCond9) Function MAC_MlmeSetReq
          CFI (cfiCond9) Conditional ??CrossCallReturnLabel_1
          CFI (cfiCond9) R6 load(1, XDATA, add(CFA_XSP16, literal(-14)))
          CFI (cfiCond9) VB load(1, XDATA, add(CFA_XSP16, literal(-13)))
          CFI (cfiCond9) V0 load(1, XDATA, add(CFA_XSP16, literal(-12)))
          CFI (cfiCond9) V1 load(1, XDATA, add(CFA_XSP16, literal(-11)))
          CFI (cfiCond9) V2 load(1, XDATA, add(CFA_XSP16, literal(-10)))
          CFI (cfiCond9) V3 load(1, XDATA, add(CFA_XSP16, literal(-9)))
          CFI (cfiCond9) V4 load(1, XDATA, add(CFA_XSP16, literal(-8)))
          CFI (cfiCond9) V5 load(1, XDATA, add(CFA_XSP16, literal(-7)))
          CFI (cfiCond9) R7 load(1, XDATA, add(CFA_XSP16, literal(-6)))
          CFI (cfiCond9) ?RET_LOW load(1, XDATA, add(CFA_XSP16, literal(-5)))
          CFI (cfiCond9) ?RET_HIGH load(1, XDATA, add(CFA_XSP16, literal(-4)))
          CFI (cfiCond9) ?BRET_EXT load(1, XDATA, add(CFA_XSP16, literal(-3)))
          CFI (cfiCond9) DPL0 load(1, XDATA, add(CFA_XSP16, literal(-2)))
          CFI (cfiCond9) DPH0 load(1, XDATA, add(CFA_XSP16, literal(-1)))
          CFI (cfiCond9) CFA_SP SP+-2
          CFI (cfiCond9) CFA_XSP16 add(XSP16, 14)
          CFI Block cfiPicker10 Using cfiCommon1
          CFI (cfiPicker10) NoFunction
          CFI (cfiPicker10) Picker
        MOV     A,#(macPibTbl + 2) & 0xff
        ADD     A,?V4
        MOV     DPL,A
        MOV     A,#((macPibTbl + 2) >> 8) & 0xff
        ADDC    A,?V5
        MOV     DPH,A
        CLR     A
        MOVC    A,@A+DPTR
        RET
          CFI EndBlock cfiCond8
          CFI EndBlock cfiCond9
          CFI EndBlock cfiPicker10

        RSEG BANK_RELAYS:CODE:REORDER:NOROOT(0)
`??macPibReset::?relay`:
        CODE
        LCALL   ?BDISPATCH
        DATA24
        DC24    macPibReset

        RSEG BANK_RELAYS:CODE:REORDER:NOROOT(0)
`??macPibIndex::?relay`:
        CODE
        LCALL   ?BDISPATCH
        DATA24
        DC24    macPibIndex

        RSEG BANK_RELAYS:CODE:REORDER:NOROOT(0)
`??MAC_MlmeGetReq::?relay`:
        CODE
        LCALL   ?BDISPATCH
        DATA24
        DC24    MAC_MlmeGetReq

        RSEG BANK_RELAYS:CODE:REORDER:NOROOT(0)
`??MAC_MlmeGetReqSize::?relay`:
        CODE
        LCALL   ?BDISPATCH
        DATA24
        DC24    MAC_MlmeGetReqSize

        RSEG BANK_RELAYS:CODE:REORDER:NOROOT(0)
`??MAC_MlmeSetReq::?relay`:
        CODE
        LCALL   ?BDISPATCH
        DATA24
        DC24    MAC_MlmeSetReq

        END
//  529 
// 
// 765 bytes in segment BANKED_CODE
//  30 bytes in segment BANK_RELAYS
// 310 bytes in segment CODE_C
//   1 byte  in segment SFR_AN
// 126 bytes in segment XDATA_Z
// 
// 1 105 bytes of CODE  memory
//     0 bytes of DATA  memory (+ 1 byte shared)
//   126 bytes of XDATA memory
//
//Errors: none
//Warnings: none
