///////////////////////////////////////////////////////////////////////////////
//
// IAR C/C++ Compiler V9.30.1.3056 for 8051               21/Nov/2018  13:52:09
// Copyright 2004-2015 IAR Systems AB.
// Standalone license - IAR Embedded Workbench for 8051
//
//    Core               =  plain
//    Code model         =  banked
//    Data model         =  large
//    Calling convention =  xdata reentrant
//    Constant location  =  data_rom
//    Dptr setup         =  1,16
//                          
//    Source file        =  
//        D:\1.embedded\kit\cc2530\Reference\Z-Stack Mesh
//        1.0.0\Components\mt\MT_SYS.c
//    Command line       =  
//        -f "D:\1.embedded\kit\cc2530\Reference\Z-Stack Mesh
//        1.0.0\Projects\zstack\ZNP\CC253x\..\Source\znp.cfg"
//        (-DMAC_CFG_APP_PENDING_QUEUE=TRUE
//        "-DZSTACK_DEVICE_BUILD=(DEVICE_BUILD_COORDINATOR |
//        DEVICE_BUILD_ROUTER | DEVICE_BUILD_ENDDEVICE)" -DNWK_AUTO_POLL
//        -DZNP_RUN_WDOG=FALSE -DZNP_UART_BAUD=HAL_UART_BR_115200 -DZIGBEEPRO
//        -DZIGBEE_FRAGMENTATION -DINTER_PAN -DOSAL_CLOCK -DOSAL_SAPI=FALSE
//        -DSAPI_CB_FUNC=FALSE -DHOLD_AUTO_START -DNV_RESTORE -DNV_INIT
//        -DNUM_DISC_ATTEMPTS=0 -DMT_UTIL_FUNC -DMT_SYS_FUNC -DMT_AF_FUNC
//        -DMT_SAPI_FUNC -DMT_SAPI_CB_FUNC -DMT_ZDO_CB_FUNC -DMT_ZDO_FUNC
//        -DMT_ZDO_MGMT -DMT_ZDO_EXTENSIONS -DMT_APP_FUNC) -f
//        "D:\1.embedded\kit\cc2530\Reference\Z-Stack Mesh
//        1.0.0\Projects\zstack\ZNP\CC253x\..\..\Tools\CC2530DB\f8wConfig.cfg"
//        (-DZIGBEEPRO -DSECURE=1 -DZG_SECURE_DYNAMIC=0 -DREFLECTOR
//        -DDEFAULT_CHANLIST=0x00000800 -DZDAPP_CONFIG_PAN_ID=0xFFFF
//        -DNWK_START_DELAY=100 -DEXTENDED_JOINING_RANDOM_MASK=0x007F
//        -DBEACON_REQUEST_DELAY=100 -DBEACON_REQ_DELAY_MASK=0x00FF
//        -DLINK_STATUS_JITTER_MASK=0x007F -DROUTE_EXPIRY_TIME=30
//        -DAPSC_ACK_WAIT_DURATION_POLLED=3000 -DNWK_INDIRECT_MSG_TIMEOUT=7
//        -DMAX_RREQ_ENTRIES=8 -DAPSC_MAX_FRAME_RETRIES=3
//        -DNWK_MAX_DATA_RETRIES=2 -DMAX_POLL_FAILURE_RETRIES=2 -DMAX_BCAST=9
//        -DAPS_MAX_GROUPS=16 -DMAX_RTG_ENTRIES=40 -DNWK_MAX_BINDING_ENTRIES=4
//        -DMAX_BINDING_CLUSTER_IDS=4 "-DDEFAULT_KEY={0x01, 0x03, 0x05, 0x07,
//        0x09, 0x0B, 0x0D, 0x0F, 0x00, 0x02, 0x04, 0x06, 0x08, 0x0A, 0x0C,
//        0x0D}" -DMAC_MAX_FRAME_SIZE=116 -DZDNWKMGR_MIN_TRANSMISSIONS=20
//        "-DCONST=const __code" -DGENERIC=__generic -DRFD_RCVC_ALWAYS_ON=FALSE
//        -DPOLL_RATE=1000 -DQUEUED_POLL_RATE=100 -DRESPONSE_POLL_RATE=100
//        -DREJOIN_POLL_RATE=440) -f
//        "D:\1.embedded\kit\cc2530\Reference\Z-Stack Mesh
//        1.0.0\Projects\zstack\ZNP\CC253x\..\..\Tools\CC2530DB\f8wZCL.cfg"
//        "D:\1.embedded\kit\cc2530\Reference\Z-Stack Mesh
//        1.0.0\Components\mt\MT_SYS.c" -D FEATURE_SYSTEM_STATS -D POWER_SAVING
//        -lC "D:\1.embedded\kit\cc2530\Reference\Z-Stack Mesh
//        1.0.0\Projects\zstack\ZNP\CC253x\CC2530-Debug\List" -lA
//        "D:\1.embedded\kit\cc2530\Reference\Z-Stack Mesh
//        1.0.0\Projects\zstack\ZNP\CC253x\CC2530-Debug\List" --diag_suppress
//        Pe001,Pa010 -o "D:\1.embedded\kit\cc2530\Reference\Z-Stack Mesh
//        1.0.0\Projects\zstack\ZNP\CC253x\CC2530-Debug\Obj" -e
//        --no_code_motion --debug --core=plain --dptr=16,1 --data_model=large
//        --code_model=banked --calling_convention=xdata_reentrant
//        --place_constants=data_rom --nr_virtual_regs 16 -I
//        "D:\1.embedded\kit\cc2530\Reference\Z-Stack Mesh
//        1.0.0\Projects\zstack\ZNP\CC253x\" -I
//        "D:\1.embedded\kit\cc2530\Reference\Z-Stack Mesh
//        1.0.0\Projects\zstack\ZNP\CC253x\Source\" -I
//        "D:\1.embedded\kit\cc2530\Reference\Z-Stack Mesh
//        1.0.0\Projects\zstack\ZNP\CC253x\..\Source\" -I
//        "D:\1.embedded\kit\cc2530\Reference\Z-Stack Mesh
//        1.0.0\Projects\zstack\ZNP\CC253x\..\..\SE\Source\" -I
//        "D:\1.embedded\kit\cc2530\Reference\Z-Stack Mesh
//        1.0.0\Projects\zstack\ZNP\CC253x\..\..\ZMain\TI2530ZNP\" -I
//        "D:\1.embedded\kit\cc2530\Reference\Z-Stack Mesh
//        1.0.0\Projects\zstack\ZNP\CC253x\..\..\..\..\Components\hal\include\"
//        -I "D:\1.embedded\kit\cc2530\Reference\Z-Stack Mesh
//        1.0.0\Projects\zstack\ZNP\CC253x\..\..\..\..\Components\hal\target\CC2530ZNP\"
//        -I "D:\1.embedded\kit\cc2530\Reference\Z-Stack Mesh
//        1.0.0\Projects\zstack\ZNP\CC253x\..\..\..\..\Components\mac\include\"
//        -I "D:\1.embedded\kit\cc2530\Reference\Z-Stack Mesh
//        1.0.0\Projects\zstack\ZNP\CC253x\..\..\..\..\Components\mac\high_level\"
//        -I "D:\1.embedded\kit\cc2530\Reference\Z-Stack Mesh
//        1.0.0\Projects\zstack\ZNP\CC253x\..\..\..\..\Components\mac\low_level\srf04\"
//        -I "D:\1.embedded\kit\cc2530\Reference\Z-Stack Mesh
//        1.0.0\Projects\zstack\ZNP\CC253x\..\..\..\..\Components\mac\low_level\srf04\single_chip\"
//        -I "D:\1.embedded\kit\cc2530\Reference\Z-Stack Mesh
//        1.0.0\Projects\zstack\ZNP\CC253x\..\..\..\..\Components\mt\" -I
//        "D:\1.embedded\kit\cc2530\Reference\Z-Stack Mesh
//        1.0.0\Projects\zstack\ZNP\CC253x\..\..\..\..\Components\osal\include\"
//        -I "D:\1.embedded\kit\cc2530\Reference\Z-Stack Mesh
//        1.0.0\Projects\zstack\ZNP\CC253x\..\..\..\..\Components\services\saddr\"
//        -I "D:\1.embedded\kit\cc2530\Reference\Z-Stack Mesh
//        1.0.0\Projects\zstack\ZNP\CC253x\..\..\..\..\Components\services\sdata\"
//        -I "D:\1.embedded\kit\cc2530\Reference\Z-Stack Mesh
//        1.0.0\Projects\zstack\ZNP\CC253x\..\..\..\..\Components\stack\af\" -I
//        "D:\1.embedded\kit\cc2530\Reference\Z-Stack Mesh
//        1.0.0\Projects\zstack\ZNP\CC253x\..\..\..\..\Components\stack\nwk\"
//        -I "D:\1.embedded\kit\cc2530\Reference\Z-Stack Mesh
//        1.0.0\Projects\zstack\ZNP\CC253x\..\..\..\..\Components\stack\sapi\"
//        -I "D:\1.embedded\kit\cc2530\Reference\Z-Stack Mesh
//        1.0.0\Projects\zstack\ZNP\CC253x\..\..\..\..\Components\stack\sec\"
//        -I "D:\1.embedded\kit\cc2530\Reference\Z-Stack Mesh
//        1.0.0\Projects\zstack\ZNP\CC253x\..\..\..\..\Components\stack\sys\"
//        -I "D:\1.embedded\kit\cc2530\Reference\Z-Stack Mesh
//        1.0.0\Projects\zstack\ZNP\CC253x\..\..\..\..\Components\stack\zcl\"
//        -I "D:\1.embedded\kit\cc2530\Reference\Z-Stack Mesh
//        1.0.0\Projects\zstack\ZNP\CC253x\..\..\..\..\Components\stack\zdo\"
//        -I "D:\1.embedded\kit\cc2530\Reference\Z-Stack Mesh
//        1.0.0\Projects\zstack\ZNP\CC253x\..\..\..\..\Components\zmac\" -I
//        "D:\1.embedded\kit\cc2530\Reference\Z-Stack Mesh
//        1.0.0\Projects\zstack\ZNP\CC253x\..\..\..\..\Components\zmac\f8w\"
//        -Ohz --require_prototypes
//    List file          =  
//        D:\1.embedded\kit\cc2530\Reference\Z-Stack Mesh
//        1.0.0\Projects\zstack\ZNP\CC253x\CC2530-Debug\List\MT_SYS.s51
//
///////////////////////////////////////////////////////////////////////////////

        NAME MT_SYS

        RTMODEL "__SystemLibrary", "CLib"
        RTMODEL "__calling_convention", "xdata_reentrant"
        RTMODEL "__code_model", "banked"
        RTMODEL "__core", "plain"
        RTMODEL "__data_model", "large"
        RTMODEL "__dptr_size", "16"
        RTMODEL "__extended_stack", "disabled"
        RTMODEL "__location_for_constants", "data"
        RTMODEL "__number_of_dptrs", "1"
        RTMODEL "__rt_version", "1"

        RSEG DOVERLAY:DATA:NOROOT(0)
        RSEG IOVERLAY:IDATA:NOROOT(0)
        RSEG ISTACK:IDATA:NOROOT(0)
        RSEG PSTACK:XDATA:NOROOT(0)
        RSEG XSTACK:XDATA:NOROOT(0)

        EXTERN ?V0
        EXTERN ?V1
        EXTERN ?V2
        EXTERN ?V3
        EXTERN ?V4
        EXTERN ?V5
        EXTERN ?V6
        EXTERN ?V7
        EXTERN ?V8
        EXTERN ?V9
        EXTERN ?V10
        EXTERN ?V11
        EXTERN ?ALLOC_XSTACK8
        EXTERN ?BANKED_ENTER_XDATA
        EXTERN ?BANKED_LEAVE_XDATA
        EXTERN ?BDISPATCH
        EXTERN ?BRET
        EXTERN ?DEALLOC_XSTACK8
        EXTERN ?MOVE_LONG8_XDATA_XDATA
        EXTERN ?PUSH_XSTACK_I_FOUR
        EXTERN ?PUSH_XSTACK_I_THREE
        EXTERN ?PUSH_XSTACK_I_TWO
        EXTERN ?UC_SWITCH_DENSE
        EXTERN ?UC_SWITCH_SPARSE
        EXTERN ?UL_SHR
        EXTERN ?US_DIV_MOD
        EXTERN ?XSP
        EXTERN ?XSTACK_DISP0_8
        EXTERN ?XSTACK_DISP101_8
        EXTERN ?XSTACK_DISP102_8

        PUBLIC `??MT_SysAdcRead::?relay`
        FUNCTION `??MT_SysAdcRead::?relay`,0203H
        PUBLIC `??MT_SysCommandProcessing::?relay`
        FUNCTION `??MT_SysCommandProcessing::?relay`,0203H
        PUBLIC `??MT_SysGetExtAddr::?relay`
        FUNCTION `??MT_SysGetExtAddr::?relay`,0203H
        PUBLIC `??MT_SysGetUtcTime::?relay`
        FUNCTION `??MT_SysGetUtcTime::?relay`,0203H
        PUBLIC `??MT_SysGpio::?relay`
        FUNCTION `??MT_SysGpio::?relay`,0203H
        PUBLIC `??MT_SysOsalNVDelete::?relay`
        FUNCTION `??MT_SysOsalNVDelete::?relay`,0203H
        PUBLIC `??MT_SysOsalNVItemInit::?relay`
        FUNCTION `??MT_SysOsalNVItemInit::?relay`,0203H
        PUBLIC `??MT_SysOsalNVLength::?relay`
        FUNCTION `??MT_SysOsalNVLength::?relay`,0203H
        PUBLIC `??MT_SysOsalNVRead::?relay`
        FUNCTION `??MT_SysOsalNVRead::?relay`,0203H
        PUBLIC `??MT_SysOsalNVWrite::?relay`
        FUNCTION `??MT_SysOsalNVWrite::?relay`,0203H
        PUBLIC `??MT_SysOsalStartTimer::?relay`
        FUNCTION `??MT_SysOsalStartTimer::?relay`,0203H
        PUBLIC `??MT_SysOsalStopTimer::?relay`
        FUNCTION `??MT_SysOsalStopTimer::?relay`,0203H
        PUBLIC `??MT_SysOsalTimerExpired::?relay`
        FUNCTION `??MT_SysOsalTimerExpired::?relay`,0203H
        PUBLIC `??MT_SysPing::?relay`
        FUNCTION `??MT_SysPing::?relay`,0203H
        PUBLIC `??MT_SysRandom::?relay`
        FUNCTION `??MT_SysRandom::?relay`,0203H
        PUBLIC `??MT_SysReset::?relay`
        FUNCTION `??MT_SysReset::?relay`,0203H
        PUBLIC `??MT_SysResetInd::?relay`
        FUNCTION `??MT_SysResetInd::?relay`,0203H
        PUBLIC `??MT_SysSetExtAddr::?relay`
        FUNCTION `??MT_SysSetExtAddr::?relay`,0203H
        PUBLIC `??MT_SysSetTxPower::?relay`
        FUNCTION `??MT_SysSetTxPower::?relay`,0203H
        PUBLIC `??MT_SysSetUtcTime::?relay`
        FUNCTION `??MT_SysSetUtcTime::?relay`,0203H
        PUBLIC `??MT_SysStackTune::?relay`
        FUNCTION `??MT_SysStackTune::?relay`,0203H
        PUBLIC `??MT_SysVersion::?relay`
        FUNCTION `??MT_SysVersion::?relay`,0203H
        PUBLIC `??MT_SysZDiagsClearStats::?relay`
        FUNCTION `??MT_SysZDiagsClearStats::?relay`,0203H
        PUBLIC `??MT_SysZDiagsGetStatsAttr::?relay`
        FUNCTION `??MT_SysZDiagsGetStatsAttr::?relay`,0203H
        PUBLIC `??MT_SysZDiagsInitStats::?relay`
        FUNCTION `??MT_SysZDiagsInitStats::?relay`,0203H
        PUBLIC `??MT_SysZDiagsRestoreStatsFromNV::?relay`
        FUNCTION `??MT_SysZDiagsRestoreStatsFromNV::?relay`,0203H
        PUBLIC `??MT_SysZDiagsSaveStatsToNV::?relay`
        FUNCTION `??MT_SysZDiagsSaveStatsToNV::?relay`,0203H
        PUBLIC `??powerOffSoc::?relay`
        FUNCTION `??powerOffSoc::?relay`,0203H
        PUBLIC MT_SysAdcRead
        FUNCTION MT_SysAdcRead,0a1203H
        ARGFRAME XSTACK, 9, STACK
        ARGFRAME IOVERLAY, 0, STATIC
        ARGFRAME DOVERLAY, 0, STATIC
        LOCFRAME ISTACK, 1, STACK
        LOCFRAME XSTACK, 12, STACK
        PUBLIC MT_SysCommandProcessing
        FUNCTION MT_SysCommandProcessing,0a1203H
        ARGFRAME XSTACK, 0, STACK
        LOCFRAME XSTACK, 9, STACK
        PUBLIC MT_SysGetExtAddr
        FUNCTION MT_SysGetExtAddr,021203H
        ARGFRAME XSTACK, 9, STACK
        ARGFRAME IOVERLAY, 0, STATIC
        ARGFRAME DOVERLAY, 0, STATIC
        LOCFRAME ISTACK, 2, STACK
        LOCFRAME XSTACK, 8, STACK
        PUBLIC MT_SysGetUtcTime
        FUNCTION MT_SysGetUtcTime,0a1203H
        ARGFRAME XSTACK, 9, STACK
        ARGFRAME IOVERLAY, 0, STATIC
        ARGFRAME DOVERLAY, 0, STATIC
        LOCFRAME ISTACK, 1, STACK
        LOCFRAME XSTACK, 23, STACK
        PUBLIC MT_SysGpio
        FUNCTION MT_SysGpio,021203H
        ARGFRAME XSTACK, 9, STACK
        ARGFRAME IOVERLAY, 0, STATIC
        ARGFRAME DOVERLAY, 0, STATIC
        LOCFRAME ISTACK, 3, STACK
        LOCFRAME XSTACK, 1, STACK
        PUBLIC MT_SysOsalEventId
        PUBLIC MT_SysOsalNVDelete
        FUNCTION MT_SysOsalNVDelete,021203H
        ARGFRAME XSTACK, 9, STACK
        ARGFRAME IOVERLAY, 0, STATIC
        ARGFRAME DOVERLAY, 0, STATIC
        LOCFRAME ISTACK, 1, STACK
        LOCFRAME XSTACK, 10, STACK
        PUBLIC MT_SysOsalNVItemInit
        FUNCTION MT_SysOsalNVItemInit,0a1203H
        ARGFRAME XSTACK, 9, STACK
        ARGFRAME IOVERLAY, 0, STATIC
        ARGFRAME DOVERLAY, 0, STATIC
        LOCFRAME ISTACK, 1, STACK
        LOCFRAME XSTACK, 19, STACK
        PUBLIC MT_SysOsalNVLength
        FUNCTION MT_SysOsalNVLength,0a1203H
        ARGFRAME XSTACK, 9, STACK
        ARGFRAME IOVERLAY, 0, STATIC
        ARGFRAME DOVERLAY, 0, STATIC
        LOCFRAME ISTACK, 1, STACK
        LOCFRAME XSTACK, 12, STACK
        PUBLIC MT_SysOsalNVRead
        FUNCTION MT_SysOsalNVRead,0a1203H
        ARGFRAME XSTACK, 9, STACK
        ARGFRAME IOVERLAY, 0, STATIC
        ARGFRAME DOVERLAY, 0, STATIC
        LOCFRAME ISTACK, 1, STACK
        LOCFRAME XSTACK, 26, STACK
        PUBLIC MT_SysOsalNVWrite
        FUNCTION MT_SysOsalNVWrite,0a1203H
        ARGFRAME XSTACK, 9, STACK
        ARGFRAME IOVERLAY, 0, STATIC
        ARGFRAME DOVERLAY, 0, STATIC
        LOCFRAME ISTACK, 1, STACK
        LOCFRAME XSTACK, 23, STACK
        PUBLIC MT_SysOsalStartTimer
        FUNCTION MT_SysOsalStartTimer,0a1203H
        ARGFRAME XSTACK, 9, STACK
        ARGFRAME IOVERLAY, 0, STATIC
        ARGFRAME DOVERLAY, 0, STATIC
        LOCFRAME ISTACK, 1, STACK
        LOCFRAME XSTACK, 17, STACK
        PUBLIC MT_SysOsalStopTimer
        FUNCTION MT_SysOsalStopTimer,021203H
        ARGFRAME XSTACK, 9, STACK
        ARGFRAME IOVERLAY, 0, STATIC
        ARGFRAME DOVERLAY, 0, STATIC
        LOCFRAME ISTACK, 1, STACK
        LOCFRAME XSTACK, 10, STACK
        PUBLIC MT_SysOsalTimerExpired
        FUNCTION MT_SysOsalTimerExpired,021203H
        ARGFRAME XSTACK, 0, STACK
        LOCFRAME ISTACK, 1, STACK
        LOCFRAME XSTACK, 10, STACK
        PUBLIC MT_SysPing
        FUNCTION MT_SysPing,021203H
        ARGFRAME XSTACK, 9, STACK
        ARGFRAME IOVERLAY, 0, STATIC
        ARGFRAME DOVERLAY, 0, STATIC
        LOCFRAME ISTACK, 2, STACK
        LOCFRAME XSTACK, 2, STACK
        PUBLIC MT_SysRandom
        FUNCTION MT_SysRandom,0a1203H
        ARGFRAME XSTACK, 9, STACK
        ARGFRAME IOVERLAY, 0, STATIC
        ARGFRAME DOVERLAY, 0, STATIC
        LOCFRAME ISTACK, 1, STACK
        LOCFRAME XSTACK, 12, STACK
        PUBLIC MT_SysReset
        FUNCTION MT_SysReset,021203H
        ARGFRAME XSTACK, 9, STACK
        ARGFRAME IOVERLAY, 0, STATIC
        ARGFRAME DOVERLAY, 0, STATIC
        LOCFRAME ISTACK, 2, STACK
        PUBLIC MT_SysResetInd
        FUNCTION MT_SysResetInd,0a1203H
        ARGFRAME XSTACK, 0, STACK
        LOCFRAME ISTACK, 1, STACK
        LOCFRAME XSTACK, 20, STACK
        PUBLIC MT_SysSetExtAddr
        FUNCTION MT_SysSetExtAddr,0a1203H
        ARGFRAME XSTACK, 9, STACK
        ARGFRAME IOVERLAY, 0, STATIC
        ARGFRAME DOVERLAY, 0, STATIC
        LOCFRAME ISTACK, 1, STACK
        LOCFRAME XSTACK, 15, STACK
        PUBLIC MT_SysSetTxPower
        FUNCTION MT_SysSetTxPower,021203H
        ARGFRAME XSTACK, 9, STACK
        ARGFRAME IOVERLAY, 0, STATIC
        ARGFRAME DOVERLAY, 0, STATIC
        LOCFRAME ISTACK, 3, STACK
        LOCFRAME XSTACK, 2, STACK
        PUBLIC MT_SysSetUtcTime
        FUNCTION MT_SysSetUtcTime,0a1203H
        ARGFRAME XSTACK, 9, STACK
        ARGFRAME IOVERLAY, 0, STATIC
        ARGFRAME DOVERLAY, 0, STATIC
        LOCFRAME ISTACK, 1, STACK
        LOCFRAME XSTACK, 24, STACK
        PUBLIC MT_SysStackTune
        FUNCTION MT_SysStackTune,021203H
        ARGFRAME XSTACK, 9, STACK
        ARGFRAME IOVERLAY, 0, STATIC
        ARGFRAME DOVERLAY, 0, STATIC
        LOCFRAME ISTACK, 1, STACK
        LOCFRAME XSTACK, 10, STACK
        PUBLIC MT_SysVersion
        FUNCTION MT_SysVersion,021203H
        ARGFRAME XSTACK, 9, STACK
        ARGFRAME IOVERLAY, 0, STATIC
        ARGFRAME DOVERLAY, 0, STATIC
        LOCFRAME ISTACK, 2, STACK
        PUBLIC MT_SysZDiagsClearStats
        FUNCTION MT_SysZDiagsClearStats,0a1203H
        ARGFRAME XSTACK, 9, STACK
        ARGFRAME IOVERLAY, 0, STATIC
        ARGFRAME DOVERLAY, 0, STATIC
        LOCFRAME ISTACK, 1, STACK
        LOCFRAME XSTACK, 20, STACK
        PUBLIC MT_SysZDiagsGetStatsAttr
        FUNCTION MT_SysZDiagsGetStatsAttr,0a1203H
        ARGFRAME XSTACK, 9, STACK
        ARGFRAME IOVERLAY, 0, STATIC
        ARGFRAME DOVERLAY, 0, STATIC
        LOCFRAME ISTACK, 1, STACK
        LOCFRAME XSTACK, 20, STACK
        PUBLIC MT_SysZDiagsInitStats
        FUNCTION MT_SysZDiagsInitStats,021203H
        ARGFRAME XSTACK, 9, STACK
        ARGFRAME IOVERLAY, 0, STATIC
        ARGFRAME DOVERLAY, 0, STATIC
        LOCFRAME ISTACK, 3, STACK
        LOCFRAME XSTACK, 1, STACK
        PUBLIC MT_SysZDiagsRestoreStatsFromNV
        FUNCTION MT_SysZDiagsRestoreStatsFromNV,021203H
        ARGFRAME XSTACK, 9, STACK
        ARGFRAME IOVERLAY, 0, STATIC
        ARGFRAME DOVERLAY, 0, STATIC
        LOCFRAME ISTACK, 3, STACK
        LOCFRAME XSTACK, 1, STACK
        PUBLIC MT_SysZDiagsSaveStatsToNV
        FUNCTION MT_SysZDiagsSaveStatsToNV,0a1203H
        ARGFRAME XSTACK, 9, STACK
        ARGFRAME IOVERLAY, 0, STATIC
        ARGFRAME DOVERLAY, 0, STATIC
        LOCFRAME ISTACK, 1, STACK
        LOCFRAME XSTACK, 20, STACK
        PUBWEAK P0DIR
        PUBWEAK P0INP
        PUBWEAK P0SEL
        PUBWEAK P1DIR
        PUBWEAK P1INP
        PUBWEAK P1SEL
        PUBWEAK P2INP
        PUBWEAK PICTL
        PUBWEAK SLEEPSTA
        PUBWEAK WDCTL
        PUBWEAK _A_IEN0
        PUBWEAK _A_P0
        PUBWEAK _A_P1
        PUBLIC powerOffSoc
        FUNCTION powerOffSoc,0203H
        ARGFRAME XSTACK, 0, STACK
        
          CFI Names cfiNames0
          CFI StackFrame CFA_SP SP IDATA
          CFI StackFrame CFA_PSP16 PSP16 XDATA
          CFI StackFrame CFA_XSP16 XSP16 XDATA
          CFI StaticOverlayFrame CFA_IOVERLAY IOVERLAY
          CFI StaticOverlayFrame CFA_DOVERLAY DOVERLAY
          CFI Resource `PSW.CY`:1, `B.BR0`:1, `B.BR1`:1, `B.BR2`:1, `B.BR3`:1
          CFI Resource `B.BR4`:1, `B.BR5`:1, `B.BR6`:1, `B.BR7`:1, `VB.BR8`:1
          CFI Resource `VB.BR9`:1, `VB.BR10`:1, `VB.BR11`:1, `VB.BR12`:1
          CFI Resource `VB.BR13`:1, `VB.BR14`:1, `VB.BR15`:1, VB:8, B:8, A:8
          CFI Resource PSW:8, DPL0:8, DPH0:8, R0:8, R1:8, R2:8, R3:8, R4:8, R5:8
          CFI Resource R6:8, R7:8, V0:8, V1:8, V2:8, V3:8, V4:8, V5:8, V6:8, V7:8
          CFI Resource V8:8, V9:8, V10:8, V11:8, V12:8, V13:8, V14:8, V15:8, SP:8
          CFI Resource PSPH:8, PSPL:8, PSP16:16, XSPH:8, XSPL:8, XSP16:16
          CFI VirtualResource ?RET:24
          CFI Resource ?BRET_EXT:8
          CFI VirtualResource ?RET_HIGH:8, ?RET_LOW:8
          CFI ResourceParts PSP16 PSPH, PSPL
          CFI ResourceParts XSP16 XSPH, XSPL
          CFI ResourceParts ?RET ?BRET_EXT, ?RET_HIGH, ?RET_LOW
          CFI EndNames cfiNames0
        
          CFI Common cfiCommon0 Using cfiNames0
          CFI CodeAlign 1
          CFI DataAlign -1
          CFI ReturnAddress ?RET CODE
          CFI CFA_DOVERLAY Used
          CFI CFA_IOVERLAY Used
          CFI CFA_SP SP+-3
          CFI CFA_PSP16 PSP16+0
          CFI CFA_XSP16 XSP16+0
          CFI `PSW.CY` SameValue
          CFI `B.BR0` SameValue
          CFI `B.BR1` SameValue
          CFI `B.BR2` SameValue
          CFI `B.BR3` SameValue
          CFI `B.BR4` SameValue
          CFI `B.BR5` SameValue
          CFI `B.BR6` SameValue
          CFI `B.BR7` SameValue
          CFI `VB.BR8` SameValue
          CFI `VB.BR9` SameValue
          CFI `VB.BR10` SameValue
          CFI `VB.BR11` SameValue
          CFI `VB.BR12` SameValue
          CFI `VB.BR13` SameValue
          CFI `VB.BR14` SameValue
          CFI `VB.BR15` SameValue
          CFI VB SameValue
          CFI B Undefined
          CFI A Undefined
          CFI PSW SameValue
          CFI DPL0 SameValue
          CFI DPH0 SameValue
          CFI R0 Undefined
          CFI R1 Undefined
          CFI R2 Undefined
          CFI R3 Undefined
          CFI R4 Undefined
          CFI R5 Undefined
          CFI R6 SameValue
          CFI R7 SameValue
          CFI V0 SameValue
          CFI V1 SameValue
          CFI V2 SameValue
          CFI V3 SameValue
          CFI V4 SameValue
          CFI V5 SameValue
          CFI V6 SameValue
          CFI V7 SameValue
          CFI V8 SameValue
          CFI V9 SameValue
          CFI V10 SameValue
          CFI V11 SameValue
          CFI V12 SameValue
          CFI V13 SameValue
          CFI V14 SameValue
          CFI V15 SameValue
          CFI PSPH Undefined
          CFI PSPL Undefined
          CFI XSPH Undefined
          CFI XSPL Undefined
          CFI ?RET Concat
          CFI ?BRET_EXT Frame(CFA_SP, 3)
          CFI ?RET_HIGH Frame(CFA_SP, 2)
          CFI ?RET_LOW Frame(CFA_SP, 1)
          CFI EndCommon cfiCommon0
        
        
          CFI Common cfiCommon1 Using cfiNames0
          CFI CodeAlign 1
          CFI DataAlign -1
          CFI ReturnAddress ?RET CODE
          CFI CFA_DOVERLAY Used
          CFI CFA_IOVERLAY Used
          CFI CFA_SP SP+-2
          CFI CFA_PSP16 PSP16+0
          CFI CFA_XSP16 XSP16+0
          CFI `PSW.CY` SameValue
          CFI `B.BR0` SameValue
          CFI `B.BR1` SameValue
          CFI `B.BR2` SameValue
          CFI `B.BR3` SameValue
          CFI `B.BR4` SameValue
          CFI `B.BR5` SameValue
          CFI `B.BR6` SameValue
          CFI `B.BR7` SameValue
          CFI `VB.BR8` SameValue
          CFI `VB.BR9` SameValue
          CFI `VB.BR10` SameValue
          CFI `VB.BR11` SameValue
          CFI `VB.BR12` SameValue
          CFI `VB.BR13` SameValue
          CFI `VB.BR14` SameValue
          CFI `VB.BR15` SameValue
          CFI VB SameValue
          CFI B SameValue
          CFI A SameValue
          CFI PSW SameValue
          CFI DPL0 SameValue
          CFI DPH0 SameValue
          CFI R0 SameValue
          CFI R1 SameValue
          CFI R2 SameValue
          CFI R3 SameValue
          CFI R4 SameValue
          CFI R5 SameValue
          CFI R6 SameValue
          CFI R7 SameValue
          CFI V0 SameValue
          CFI V1 SameValue
          CFI V2 SameValue
          CFI V3 SameValue
          CFI V4 SameValue
          CFI V5 SameValue
          CFI V6 SameValue
          CFI V7 SameValue
          CFI V8 SameValue
          CFI V9 SameValue
          CFI V10 SameValue
          CFI V11 SameValue
          CFI V12 SameValue
          CFI V13 SameValue
          CFI V14 SameValue
          CFI V15 SameValue
          CFI PSPH Undefined
          CFI PSPL Undefined
          CFI XSPH Undefined
          CFI XSPL Undefined
          CFI ?RET Concat
          CFI ?BRET_EXT SameValue
          CFI ?RET_HIGH Frame(CFA_SP, 2)
          CFI ?RET_LOW Frame(CFA_SP, 1)
          CFI EndCommon cfiCommon1
        
HalAdcRead          SYMBOL "HalAdcRead"
`??HalAdcRead::?relay` SYMBOL "?relay", HalAdcRead
MAC_MlmeSetReq      SYMBOL "MAC_MlmeSetReq"
`??MAC_MlmeSetReq::?relay` SYMBOL "?relay", MAC_MlmeSetReq
MT_BuildAndSendZToolResponse SYMBOL "MT_BuildAndSendZToolResponse"
`??MT_BuildAndSendZToolResponse::?relay` SYMBOL "?relay", MT_BuildAndSendZToolResponse
Onboard_rand        SYMBOL "Onboard_rand"
`??Onboard_rand::?relay` SYMBOL "?relay", Onboard_rand
ZDiagsClearStats    SYMBOL "ZDiagsClearStats"
`??ZDiagsClearStats::?relay` SYMBOL "?relay", ZDiagsClearStats
ZDiagsGetStatsAttr  SYMBOL "ZDiagsGetStatsAttr"
`??ZDiagsGetStatsAttr::?relay` SYMBOL "?relay", ZDiagsGetStatsAttr
ZDiagsInitStats     SYMBOL "ZDiagsInitStats"
`??ZDiagsInitStats::?relay` SYMBOL "?relay", ZDiagsInitStats
ZDiagsRestoreStatsFromNV SYMBOL "ZDiagsRestoreStatsFromNV"
`??ZDiagsRestoreStatsFromNV::?relay` SYMBOL "?relay", ZDiagsRestoreStatsFromNV
ZDiagsSaveStatsToNV SYMBOL "ZDiagsSaveStatsToNV"
`??ZDiagsSaveStatsToNV::?relay` SYMBOL "?relay", ZDiagsSaveStatsToNV
ZMacGetReq          SYMBOL "ZMacGetReq"
`??ZMacGetReq::?relay` SYMBOL "?relay", ZMacGetReq
ZMacSetReq          SYMBOL "ZMacSetReq"
`??ZMacSetReq::?relay` SYMBOL "?relay", ZMacSetReq
macRadioSetTxPower  SYMBOL "macRadioSetTxPower"
`??macRadioSetTxPower::?relay` SYMBOL "?relay", macRadioSetTxPower
osal_ConvertUTCSecs SYMBOL "osal_ConvertUTCSecs"
`??osal_ConvertUTCSecs::?relay` SYMBOL "?relay", osal_ConvertUTCSecs
osal_ConvertUTCTime SYMBOL "osal_ConvertUTCTime"
`??osal_ConvertUTCTime::?relay` SYMBOL "?relay", osal_ConvertUTCTime
osal_buffer_uint32  SYMBOL "osal_buffer_uint32"
`??osal_buffer_uint32::?relay` SYMBOL "?relay", osal_buffer_uint32
osal_build_uint16   SYMBOL "osal_build_uint16"
`??osal_build_uint16::?relay` SYMBOL "?relay", osal_build_uint16
osal_build_uint32   SYMBOL "osal_build_uint32"
`??osal_build_uint32::?relay` SYMBOL "?relay", osal_build_uint32
osal_getClock       SYMBOL "osal_getClock"
`??osal_getClock::?relay` SYMBOL "?relay", osal_getClock
osal_mem_alloc      SYMBOL "osal_mem_alloc"
`??osal_mem_alloc::?relay` SYMBOL "?relay", osal_mem_alloc
osal_mem_free       SYMBOL "osal_mem_free"
`??osal_mem_free::?relay` SYMBOL "?relay", osal_mem_free
osal_memcpy         SYMBOL "osal_memcpy"
`??osal_memcpy::?relay` SYMBOL "?relay", osal_memcpy
osal_memset         SYMBOL "osal_memset"
`??osal_memset::?relay` SYMBOL "?relay", osal_memset
osal_nv_delete      SYMBOL "osal_nv_delete"
`??osal_nv_delete::?relay` SYMBOL "?relay", osal_nv_delete
osal_nv_item_init   SYMBOL "osal_nv_item_init"
`??osal_nv_item_init::?relay` SYMBOL "?relay", osal_nv_item_init
osal_nv_item_len    SYMBOL "osal_nv_item_len"
`??osal_nv_item_len::?relay` SYMBOL "?relay", osal_nv_item_len
osal_nv_read        SYMBOL "osal_nv_read"
`??osal_nv_read::?relay` SYMBOL "?relay", osal_nv_read
osal_nv_write       SYMBOL "osal_nv_write"
`??osal_nv_write::?relay` SYMBOL "?relay", osal_nv_write
osal_setClock       SYMBOL "osal_setClock"
`??osal_setClock::?relay` SYMBOL "?relay", osal_setClock
osal_start_timerEx  SYMBOL "osal_start_timerEx"
`??osal_start_timerEx::?relay` SYMBOL "?relay", osal_start_timerEx
osal_stop_timerEx   SYMBOL "osal_stop_timerEx"
`??osal_stop_timerEx::?relay` SYMBOL "?relay", osal_stop_timerEx
zgSetItem           SYMBOL "zgSetItem"
`??zgSetItem::?relay` SYMBOL "?relay", zgSetItem
MT_SysAdcRead       SYMBOL "MT_SysAdcRead"
`??MT_SysAdcRead::?relay` SYMBOL "?relay", MT_SysAdcRead
MT_SysCommandProcessing SYMBOL "MT_SysCommandProcessing"
`??MT_SysCommandProcessing::?relay` SYMBOL "?relay", MT_SysCommandProcessing
MT_SysGetExtAddr    SYMBOL "MT_SysGetExtAddr"
`??MT_SysGetExtAddr::?relay` SYMBOL "?relay", MT_SysGetExtAddr
MT_SysGetUtcTime    SYMBOL "MT_SysGetUtcTime"
`??MT_SysGetUtcTime::?relay` SYMBOL "?relay", MT_SysGetUtcTime
MT_SysGpio          SYMBOL "MT_SysGpio"
`??MT_SysGpio::?relay` SYMBOL "?relay", MT_SysGpio
MT_SysOsalNVDelete  SYMBOL "MT_SysOsalNVDelete"
`??MT_SysOsalNVDelete::?relay` SYMBOL "?relay", MT_SysOsalNVDelete
MT_SysOsalNVItemInit SYMBOL "MT_SysOsalNVItemInit"
`??MT_SysOsalNVItemInit::?relay` SYMBOL "?relay", MT_SysOsalNVItemInit
MT_SysOsalNVLength  SYMBOL "MT_SysOsalNVLength"
`??MT_SysOsalNVLength::?relay` SYMBOL "?relay", MT_SysOsalNVLength
MT_SysOsalNVRead    SYMBOL "MT_SysOsalNVRead"
`??MT_SysOsalNVRead::?relay` SYMBOL "?relay", MT_SysOsalNVRead
MT_SysOsalNVWrite   SYMBOL "MT_SysOsalNVWrite"
`??MT_SysOsalNVWrite::?relay` SYMBOL "?relay", MT_SysOsalNVWrite
MT_SysOsalStartTimer SYMBOL "MT_SysOsalStartTimer"
`??MT_SysOsalStartTimer::?relay` SYMBOL "?relay", MT_SysOsalStartTimer
MT_SysOsalStopTimer SYMBOL "MT_SysOsalStopTimer"
`??MT_SysOsalStopTimer::?relay` SYMBOL "?relay", MT_SysOsalStopTimer
MT_SysOsalTimerExpired SYMBOL "MT_SysOsalTimerExpired"
`??MT_SysOsalTimerExpired::?relay` SYMBOL "?relay", MT_SysOsalTimerExpired
MT_SysPing          SYMBOL "MT_SysPing"
`??MT_SysPing::?relay` SYMBOL "?relay", MT_SysPing
MT_SysRandom        SYMBOL "MT_SysRandom"
`??MT_SysRandom::?relay` SYMBOL "?relay", MT_SysRandom
MT_SysReset         SYMBOL "MT_SysReset"
`??MT_SysReset::?relay` SYMBOL "?relay", MT_SysReset
MT_SysResetInd      SYMBOL "MT_SysResetInd"
`??MT_SysResetInd::?relay` SYMBOL "?relay", MT_SysResetInd
MT_SysSetExtAddr    SYMBOL "MT_SysSetExtAddr"
`??MT_SysSetExtAddr::?relay` SYMBOL "?relay", MT_SysSetExtAddr
MT_SysSetTxPower    SYMBOL "MT_SysSetTxPower"
`??MT_SysSetTxPower::?relay` SYMBOL "?relay", MT_SysSetTxPower
MT_SysSetUtcTime    SYMBOL "MT_SysSetUtcTime"
`??MT_SysSetUtcTime::?relay` SYMBOL "?relay", MT_SysSetUtcTime
MT_SysStackTune     SYMBOL "MT_SysStackTune"
`??MT_SysStackTune::?relay` SYMBOL "?relay", MT_SysStackTune
MT_SysVersion       SYMBOL "MT_SysVersion"
`??MT_SysVersion::?relay` SYMBOL "?relay", MT_SysVersion
MT_SysZDiagsClearStats SYMBOL "MT_SysZDiagsClearStats"
`??MT_SysZDiagsClearStats::?relay` SYMBOL "?relay", MT_SysZDiagsClearStats
MT_SysZDiagsGetStatsAttr SYMBOL "MT_SysZDiagsGetStatsAttr"
`??MT_SysZDiagsGetStatsAttr::?relay` SYMBOL "?relay", MT_SysZDiagsGetStatsAttr
MT_SysZDiagsInitStats SYMBOL "MT_SysZDiagsInitStats"
`??MT_SysZDiagsInitStats::?relay` SYMBOL "?relay", MT_SysZDiagsInitStats
MT_SysZDiagsRestoreStatsFromNV SYMBOL "MT_SysZDiagsRestoreStatsFromNV"
`??MT_SysZDiagsRestoreStatsFromNV::?relay` SYMBOL "?relay", MT_SysZDiagsRestoreStatsFromNV
MT_SysZDiagsSaveStatsToNV SYMBOL "MT_SysZDiagsSaveStatsToNV"
`??MT_SysZDiagsSaveStatsToNV::?relay` SYMBOL "?relay", MT_SysZDiagsSaveStatsToNV
powerOffSoc         SYMBOL "powerOffSoc"
`??powerOffSoc::?relay` SYMBOL "?relay", powerOffSoc

        EXTERN `??HalAdcRead::?relay`
        FUNCTION `??HalAdcRead::?relay`,00H
        EXTERN `??MAC_MlmeSetReq::?relay`
        FUNCTION `??MAC_MlmeSetReq::?relay`,00H
        EXTERN `??MT_BuildAndSendZToolResponse::?relay`
        FUNCTION `??MT_BuildAndSendZToolResponse::?relay`,00H
        EXTERN `??Onboard_rand::?relay`
        FUNCTION `??Onboard_rand::?relay`,00H
        EXTERN `??ZDiagsClearStats::?relay`
        FUNCTION `??ZDiagsClearStats::?relay`,00H
        EXTERN `??ZDiagsGetStatsAttr::?relay`
        FUNCTION `??ZDiagsGetStatsAttr::?relay`,00H
        EXTERN `??ZDiagsInitStats::?relay`
        FUNCTION `??ZDiagsInitStats::?relay`,00H
        EXTERN `??ZDiagsRestoreStatsFromNV::?relay`
        FUNCTION `??ZDiagsRestoreStatsFromNV::?relay`,00H
        EXTERN `??ZDiagsSaveStatsToNV::?relay`
        FUNCTION `??ZDiagsSaveStatsToNV::?relay`,00H
        EXTERN `??ZMacGetReq::?relay`
        FUNCTION `??ZMacGetReq::?relay`,00H
        EXTERN `??ZMacSetReq::?relay`
        FUNCTION `??ZMacSetReq::?relay`,00H
        EXTERN `??macRadioSetTxPower::?relay`
        FUNCTION `??macRadioSetTxPower::?relay`,00H
        EXTERN `??osal_ConvertUTCSecs::?relay`
        FUNCTION `??osal_ConvertUTCSecs::?relay`,00H
        EXTERN `??osal_ConvertUTCTime::?relay`
        FUNCTION `??osal_ConvertUTCTime::?relay`,00H
        EXTERN `??osal_buffer_uint32::?relay`
        FUNCTION `??osal_buffer_uint32::?relay`,00H
        EXTERN `??osal_build_uint16::?relay`
        FUNCTION `??osal_build_uint16::?relay`,00H
        EXTERN `??osal_build_uint32::?relay`
        FUNCTION `??osal_build_uint32::?relay`,00H
        EXTERN `??osal_getClock::?relay`
        FUNCTION `??osal_getClock::?relay`,00H
        EXTERN `??osal_mem_alloc::?relay`
        FUNCTION `??osal_mem_alloc::?relay`,00H
        EXTERN `??osal_mem_free::?relay`
        FUNCTION `??osal_mem_free::?relay`,00H
        EXTERN `??osal_memcpy::?relay`
        FUNCTION `??osal_memcpy::?relay`,00H
        EXTERN `??osal_memset::?relay`
        FUNCTION `??osal_memset::?relay`,00H
        EXTERN `??osal_nv_delete::?relay`
        FUNCTION `??osal_nv_delete::?relay`,00H
        EXTERN `??osal_nv_item_init::?relay`
        FUNCTION `??osal_nv_item_init::?relay`,00H
        EXTERN `??osal_nv_item_len::?relay`
        FUNCTION `??osal_nv_item_len::?relay`,00H
        EXTERN `??osal_nv_read::?relay`
        FUNCTION `??osal_nv_read::?relay`,00H
        EXTERN `??osal_nv_write::?relay`
        FUNCTION `??osal_nv_write::?relay`,00H
        EXTERN `??osal_setClock::?relay`
        FUNCTION `??osal_setClock::?relay`,00H
        EXTERN `??osal_start_timerEx::?relay`
        FUNCTION `??osal_start_timerEx::?relay`,00H
        EXTERN `??osal_stop_timerEx::?relay`
        FUNCTION `??osal_stop_timerEx::?relay`,00H
        EXTERN `??zgSetItem::?relay`
        FUNCTION `??zgSetItem::?relay`,00H
        EXTERN HalAdcRead
        FUNCTION HalAdcRead,0202H
        ARGFRAME ISTACK, 0, STACK
        ARGFRAME PSTACK, 0, STACK
        ARGFRAME XSTACK, 12, STACK
        ARGFRAME IOVERLAY, 0, STATIC
        ARGFRAME DOVERLAY, 0, STATIC
        EXTERN MAC_MlmeSetReq
        FUNCTION MAC_MlmeSetReq,0202H
        ARGFRAME ISTACK, 2, STACK
        ARGFRAME PSTACK, 0, STACK
        ARGFRAME XSTACK, 2, STACK
        ARGFRAME IOVERLAY, 0, STATIC
        ARGFRAME DOVERLAY, 0, STATIC
        EXTERN MTVersionString
        EXTERN MT_BuildAndSendZToolResponse
        FUNCTION MT_BuildAndSendZToolResponse,0202H
        ARGFRAME ISTACK, 2, STACK
        ARGFRAME PSTACK, 0, STACK
        ARGFRAME XSTACK, 24, STACK
        ARGFRAME IOVERLAY, 0, STATIC
        ARGFRAME DOVERLAY, 0, STATIC
        EXTERN MT_TaskID
        EXTERN Onboard_rand
        FUNCTION Onboard_rand,0202H
        ARGFRAME ISTACK, 0, STACK
        ARGFRAME PSTACK, 0, STACK
        ARGFRAME XSTACK, 12, STACK
        ARGFRAME IOVERLAY, 0, STATIC
        ARGFRAME DOVERLAY, 0, STATIC
        EXTERN Onboard_soft_reset
        FUNCTION Onboard_soft_reset,0202H
        ARGFRAME ISTACK, 2, STACK
        ARGFRAME PSTACK, 0, STACK
        ARGFRAME XSTACK, 0, STACK
        ARGFRAME IOVERLAY, 0, STATIC
        ARGFRAME DOVERLAY, 0, STATIC
        EXTERN ZDiagsClearStats
        FUNCTION ZDiagsClearStats,0202H
        ARGFRAME ISTACK, 0, STACK
        ARGFRAME PSTACK, 0, STACK
        ARGFRAME XSTACK, 20, STACK
        ARGFRAME IOVERLAY, 0, STATIC
        ARGFRAME DOVERLAY, 0, STATIC
        EXTERN ZDiagsGetStatsAttr
        FUNCTION ZDiagsGetStatsAttr,0202H
        ARGFRAME ISTACK, 0, STACK
        ARGFRAME PSTACK, 0, STACK
        ARGFRAME XSTACK, 20, STACK
        ARGFRAME IOVERLAY, 0, STATIC
        ARGFRAME DOVERLAY, 0, STATIC
        EXTERN ZDiagsInitStats
        FUNCTION ZDiagsInitStats,0202H
        ARGFRAME ISTACK, 2, STACK
        ARGFRAME PSTACK, 0, STACK
        ARGFRAME XSTACK, 1, STACK
        ARGFRAME IOVERLAY, 0, STATIC
        ARGFRAME DOVERLAY, 0, STATIC
        EXTERN ZDiagsRestoreStatsFromNV
        FUNCTION ZDiagsRestoreStatsFromNV,0202H
        ARGFRAME ISTACK, 2, STACK
        ARGFRAME PSTACK, 0, STACK
        ARGFRAME XSTACK, 1, STACK
        ARGFRAME IOVERLAY, 0, STATIC
        ARGFRAME DOVERLAY, 0, STATIC
        EXTERN ZDiagsSaveStatsToNV
        FUNCTION ZDiagsSaveStatsToNV,0202H
        ARGFRAME ISTACK, 0, STACK
        ARGFRAME PSTACK, 0, STACK
        ARGFRAME XSTACK, 20, STACK
        ARGFRAME IOVERLAY, 0, STATIC
        ARGFRAME DOVERLAY, 0, STATIC
        EXTERN ZMacGetReq
        FUNCTION ZMacGetReq,0202H
        ARGFRAME ISTACK, 2, STACK
        ARGFRAME PSTACK, 0, STACK
        ARGFRAME XSTACK, 10, STACK
        ARGFRAME IOVERLAY, 0, STATIC
        ARGFRAME DOVERLAY, 0, STATIC
        EXTERN ZMacSetReq
        FUNCTION ZMacSetReq,0202H
        ARGFRAME ISTACK, 0, STACK
        ARGFRAME PSTACK, 0, STACK
        ARGFRAME XSTACK, 19, STACK
        ARGFRAME IOVERLAY, 0, STATIC
        ARGFRAME DOVERLAY, 0, STATIC
        EXTERN macRadioSetTxPower
        FUNCTION macRadioSetTxPower,0202H
        ARGFRAME ISTACK, 2, STACK
        ARGFRAME PSTACK, 0, STACK
        ARGFRAME XSTACK, 2, STACK
        ARGFRAME IOVERLAY, 0, STATIC
        ARGFRAME DOVERLAY, 0, STATIC
        EXTERN osal_ConvertUTCSecs
        FUNCTION osal_ConvertUTCSecs,0202H
        ARGFRAME ISTACK, 0, STACK
        ARGFRAME PSTACK, 0, STACK
        ARGFRAME XSTACK, 24, STACK
        ARGFRAME IOVERLAY, 0, STATIC
        ARGFRAME DOVERLAY, 0, STATIC
        EXTERN osal_ConvertUTCTime
        FUNCTION osal_ConvertUTCTime,0202H
        ARGFRAME ISTACK, 0, STACK
        ARGFRAME PSTACK, 0, STACK
        ARGFRAME XSTACK, 23, STACK
        ARGFRAME IOVERLAY, 0, STATIC
        ARGFRAME DOVERLAY, 0, STATIC
        EXTERN osal_buffer_uint32
        FUNCTION osal_buffer_uint32,0202H
        ARGFRAME ISTACK, 0, STACK
        ARGFRAME PSTACK, 0, STACK
        ARGFRAME XSTACK, 23, STACK
        ARGFRAME IOVERLAY, 0, STATIC
        ARGFRAME DOVERLAY, 0, STATIC
        EXTERN osal_build_uint16
        FUNCTION osal_build_uint16,0202H
        ARGFRAME ISTACK, 0, STACK
        ARGFRAME PSTACK, 0, STACK
        ARGFRAME XSTACK, 24, STACK
        ARGFRAME IOVERLAY, 0, STATIC
        ARGFRAME DOVERLAY, 0, STATIC
        EXTERN osal_build_uint32
        FUNCTION osal_build_uint32,0202H
        ARGFRAME ISTACK, 0, STACK
        ARGFRAME PSTACK, 0, STACK
        ARGFRAME XSTACK, 24, STACK
        ARGFRAME IOVERLAY, 0, STATIC
        ARGFRAME DOVERLAY, 0, STATIC
        EXTERN osal_getClock
        FUNCTION osal_getClock,0202H
        ARGFRAME ISTACK, 0, STACK
        ARGFRAME PSTACK, 0, STACK
        ARGFRAME XSTACK, 19, STACK
        ARGFRAME IOVERLAY, 0, STATIC
        ARGFRAME DOVERLAY, 0, STATIC
        EXTERN osal_mem_alloc
        FUNCTION osal_mem_alloc,0202H
        ARGFRAME ISTACK, 0, STACK
        ARGFRAME PSTACK, 0, STACK
        ARGFRAME XSTACK, 22, STACK
        ARGFRAME IOVERLAY, 0, STATIC
        ARGFRAME DOVERLAY, 0, STATIC
        EXTERN osal_mem_free
        FUNCTION osal_mem_free,0202H
        ARGFRAME ISTACK, 0, STACK
        ARGFRAME PSTACK, 0, STACK
        ARGFRAME XSTACK, 22, STACK
        ARGFRAME IOVERLAY, 0, STATIC
        ARGFRAME DOVERLAY, 0, STATIC
        EXTERN osal_memcpy
        FUNCTION osal_memcpy,0202H
        ARGFRAME ISTACK, 0, STACK
        ARGFRAME PSTACK, 0, STACK
        ARGFRAME XSTACK, 20, STACK
        ARGFRAME IOVERLAY, 0, STATIC
        ARGFRAME DOVERLAY, 0, STATIC
        EXTERN osal_memset
        FUNCTION osal_memset,0202H
        ARGFRAME ISTACK, 0, STACK
        ARGFRAME PSTACK, 0, STACK
        ARGFRAME XSTACK, 22, STACK
        ARGFRAME IOVERLAY, 0, STATIC
        ARGFRAME DOVERLAY, 0, STATIC
        EXTERN osal_nv_delete
        FUNCTION osal_nv_delete,0202H
        ARGFRAME ISTACK, 0, STACK
        ARGFRAME PSTACK, 0, STACK
        ARGFRAME XSTACK, 10, STACK
        ARGFRAME IOVERLAY, 0, STATIC
        ARGFRAME DOVERLAY, 0, STATIC
        EXTERN osal_nv_item_init
        FUNCTION osal_nv_item_init,0202H
        ARGFRAME ISTACK, 0, STACK
        ARGFRAME PSTACK, 0, STACK
        ARGFRAME XSTACK, 17, STACK
        ARGFRAME IOVERLAY, 0, STATIC
        ARGFRAME DOVERLAY, 0, STATIC
        EXTERN osal_nv_item_len
        FUNCTION osal_nv_item_len,0202H
        ARGFRAME ISTACK, 0, STACK
        ARGFRAME PSTACK, 0, STACK
        ARGFRAME XSTACK, 22, STACK
        ARGFRAME IOVERLAY, 0, STATIC
        ARGFRAME DOVERLAY, 0, STATIC
        EXTERN osal_nv_read
        FUNCTION osal_nv_read,0202H
        ARGFRAME ISTACK, 0, STACK
        ARGFRAME PSTACK, 0, STACK
        ARGFRAME XSTACK, 26, STACK
        ARGFRAME IOVERLAY, 0, STATIC
        ARGFRAME DOVERLAY, 0, STATIC
        EXTERN osal_nv_write
        FUNCTION osal_nv_write,0202H
        ARGFRAME ISTACK, 0, STACK
        ARGFRAME PSTACK, 0, STACK
        ARGFRAME XSTACK, 23, STACK
        ARGFRAME IOVERLAY, 0, STATIC
        ARGFRAME DOVERLAY, 0, STATIC
        EXTERN osal_setClock
        FUNCTION osal_setClock,0202H
        ARGFRAME ISTACK, 0, STACK
        ARGFRAME PSTACK, 0, STACK
        ARGFRAME XSTACK, 24, STACK
        ARGFRAME IOVERLAY, 0, STATIC
        ARGFRAME DOVERLAY, 0, STATIC
        EXTERN osal_start_timerEx
        FUNCTION osal_start_timerEx,0202H
        ARGFRAME ISTACK, 0, STACK
        ARGFRAME PSTACK, 0, STACK
        ARGFRAME XSTACK, 17, STACK
        ARGFRAME IOVERLAY, 0, STATIC
        ARGFRAME DOVERLAY, 0, STATIC
        EXTERN osal_stop_timerEx
        FUNCTION osal_stop_timerEx,0202H
        ARGFRAME ISTACK, 0, STACK
        ARGFRAME PSTACK, 0, STACK
        ARGFRAME XSTACK, 10, STACK
        ARGFRAME IOVERLAY, 0, STATIC
        ARGFRAME DOVERLAY, 0, STATIC
        EXTERN zgSetItem
        FUNCTION zgSetItem,0202H
        ARGFRAME ISTACK, 0, STACK
        ARGFRAME PSTACK, 0, STACK
        ARGFRAME XSTACK, 21, STACK
        ARGFRAME IOVERLAY, 0, STATIC
        ARGFRAME DOVERLAY, 0, STATIC

// D:\1.embedded\kit\cc2530\Reference\Z-Stack Mesh 1.0.0\Components\mt\MT_SYS.c
//    1 /******************************************************************************
//    2   Filename:       MT_SYS.c
//    3   Revised:        $Date: 2014-08-04 15:38:03 -0700 (Mon, 04 Aug 2014) $
//    4   Revision:       $Revision: 39653 $
//    5 
//    6   Description:   MonitorTest functions for SYS commands.
//    7 
//    8   Copyright 2007-2014 Texas Instruments Incorporated. All rights reserved.
//    9 
//   10   IMPORTANT: Your use of this Software is limited to those specific rights
//   11   granted under the terms of a software license agreement between the user
//   12   who downloaded the software, his/her employer (which must be your employer)
//   13   and Texas Instruments Incorporated (the "License"). You may not use this
//   14   Software unless you agree to abide by the terms of the License. The License
//   15   limits your use, and you acknowledge, that the Software may not be modified,
//   16   copied or distributed unless embedded on a Texas Instruments microcontroller
//   17   or used solely and exclusively in conjunction with a Texas Instruments radio
//   18   frequency transceiver, which is integrated into your product. Other than for
//   19   the foregoing purpose, you may not use, reproduce, copy, prepare derivative
//   20   works of, modify, distribute, perform, display or sell this Software and/or
//   21   its documentation for any purpose.
//   22 
//   23   YOU FURTHER ACKNOWLEDGE AND AGREE THAT THE SOFTWARE AND DOCUMENTATION ARE
//   24   PROVIDED "AS IS" WITHOUT WARRANTY OF ANY KIND, EITHER EXPRESS OR IMPLIED,
//   25   INCLUDING WITHOUT LIMITATION, ANY WARRANTY OF MERCHANTABILITY, TITLE,
//   26   NON-INFRINGEMENT AND FITNESS FOR A PARTICULAR PURPOSE. IN NO EVENT SHALL
//   27   TEXAS INSTRUMENTS OR ITS LICENSORS BE LIABLE OR OBLIGATED UNDER CONTRACT,
//   28   NEGLIGENCE, STRICT LIABILITY, CONTRIBUTION, BREACH OF WARRANTY, OR OTHER
//   29   LEGAL EQUITABLE THEORY ANY DIRECT OR INDIRECT DAMAGES OR EXPENSES
//   30   INCLUDING BUT NOT LIMITED TO ANY INCIDENTAL, SPECIAL, INDIRECT, PUNITIVE
//   31   OR CONSEQUENTIAL DAMAGES, LOST PROFITS OR LOST DATA, COST OF PROCUREMENT
//   32   OF SUBSTITUTE GOODS, TECHNOLOGY, SERVICES, OR ANY CLAIMS BY THIRD PARTIES
//   33   (INCLUDING BUT NOT LIMITED TO ANY DEFENSE THEREOF), OR OTHER SIMILAR COSTS.
//   34 
//   35   Should you have any questions regarding your right to use this Software,
//   36   contact Texas Instruments Incorporated at www.TI.com.
//   37 
//   38  *****************************************************************************/
//   39 
//   40 /***************************************************************************************************
//   41  * INCLUDES
//   42  ***************************************************************************************************/
//   43 #include "ZComDef.h"
//   44 #include "MT.h"
//   45 #include "MT_SYS.h"
//   46 #include "MT_VERSION.h"
//   47 #include "OSAL.h"
//   48 #include "OSAL_NV.h"
//   49 #include "Onboard.h"  /* This is here because RAM read/write macros need it */

        ASEGN SFR_AN:DATA:NOROOT,080H
// union <unnamed> volatile __sfr _A_P0
_A_P0:
        DATA8
        DS 1

        ASEGN SFR_AN:DATA:NOROOT,08cH
// unsigned char volatile __sfr PICTL
PICTL:
        DATA8
        DS 1

        ASEGN SFR_AN:DATA:NOROOT,08fH
// unsigned char volatile __sfr P0INP
P0INP:
        DATA8
        DS 1

        ASEGN SFR_AN:DATA:NOROOT,090H
// union <unnamed> volatile __sfr _A_P1
_A_P1:
        DATA8
        DS 1

        ASEGN SFR_AN:DATA:NOROOT,09dH
// unsigned char volatile __sfr SLEEPSTA
SLEEPSTA:
        DATA8
        DS 1

        ASEGN SFR_AN:DATA:NOROOT,0a8H
// union <unnamed> volatile __sfr _A_IEN0
_A_IEN0:
        DATA8
        DS 1

        ASEGN SFR_AN:DATA:NOROOT,0c9H
// unsigned char volatile __sfr WDCTL
WDCTL:
        DATA8
        DS 1

        ASEGN SFR_AN:DATA:NOROOT,0f3H
// unsigned char volatile __sfr P0SEL
P0SEL:
        DATA8
        DS 1

        ASEGN SFR_AN:DATA:NOROOT,0f4H
// unsigned char volatile __sfr P1SEL
P1SEL:
        DATA8
        DS 1

        ASEGN SFR_AN:DATA:NOROOT,0f6H
// unsigned char volatile __sfr P1INP
P1INP:
        DATA8
        DS 1

        ASEGN SFR_AN:DATA:NOROOT,0f7H
// unsigned char volatile __sfr P2INP
P2INP:
        DATA8
        DS 1

        ASEGN SFR_AN:DATA:NOROOT,0fdH
// unsigned char volatile __sfr P0DIR
P0DIR:
        DATA8
        DS 1

        ASEGN SFR_AN:DATA:NOROOT,0feH
// unsigned char volatile __sfr P1DIR
P1DIR:
        DATA8
        DS 1
//   50 #include "hal_adc.h"
//   51 #include "OSAL_Clock.h"
//   52 #include "mac_low_level.h"
//   53 #include "ZMAC.h"
//   54 #include "mac_radio_defs.h"
//   55 #if defined ( MT_SYS_JAMMER_FEATURE )
//   56   #include "mac_rx.h"
//   57 #endif
//   58 #if !defined(CC253X_MACNP)
//   59   #include "ZGlobals.h"
//   60 #endif
//   61 #if (defined INCLUDE_REVISION_INFORMATION) && ((defined MAKE_CRC_SHDW) || (defined FAKE_CRC_SHDW)) //built for bootloader
//   62   #include "hal_flash.h"
//   63   #include "sb_shared.h"
//   64 #endif
//   65 #include "ZDiags.h"
//   66 #include "MT_UART.h"
//   67 
//   68 /***************************************************************************************************
//   69  * MACROS
//   70  ***************************************************************************************************/
//   71 
//   72 /* Max possible MT response length, limited by TX buffer size and sizeof uint8 */
//   73 #define MT_MAX_RSP_LEN  ( MIN( MT_UART_DEFAULT_MAX_TX_BUFF, 255 ) )
//   74 
//   75 /* Max possible MT response data length, MT protocol overhead */
//   76 #define MT_MAX_RSP_DATA_LEN  ( (MT_MAX_RSP_LEN - 1) - SPI_0DATA_MSG_LEN )
//   77   
//   78 #define MT_SYS_DEVICE_INFO_RESPONSE_LEN 14
//   79 
//   80 #if !defined HAL_GPIO || !HAL_GPIO
//   81 #define GPIO_DIR_IN(IDX)
//   82 #define GPIO_DIR_OUT(IDX)
//   83 #define GPIO_TRI(IDX)
//   84 #define GPIO_PULL_UP(IDX)
//   85 #define GPIO_PULL_DN(IDX)
//   86 #define GPIO_SET(IDX)
//   87 #define GPIO_CLR(IDX)
//   88 #define GPIO_TOG(IDX)
//   89 #define GPIO_GET(IDX) 0
//   90 #define GPIO_HiD_SET() (val = 0)
//   91 #define GPIO_HiD_CLR() (val = 0)
//   92 #endif
//   93 
//   94 #if defined ( MT_SYS_SNIFFER_FEATURE )
//   95 #if defined ( HAL_MCU_CC2530 ) && !defined ( HAL_BOARD_CC2530USB )
//   96   // This only work with the CC253x chips
//   97   #define HAL_BOARD_ENABLE_INTEGRATED_SNIFFER() st         \ 
//   98   (                                                                                                                                                                                                                                   \ 
//   99     OBSSEL3 = 0xFD;                                        \ 
//  100     OBSSEL4 = 0xFC;                                        \ 
//  101     RFC_OBS_CTRL1 = 0x09; /* 9 - sniff clk */              \ 
//  102     RFC_OBS_CTRL2 = 0x08; /* 8 - sniff data */             \ 
//  103     MDMTEST1 |= 0x04;                                      \ 
//  104   )
//  105 
//  106   // This only work with the CC253x chips
//  107   #define HAL_BOARD_DISABLE_INTEGRATED_SNIFFER() st        \ 
//  108   (                                                                                                                                                                                                                                   \ 
//  109     OBSSEL3 &= ~0x80;                                                                                                                                                                             \ 
//  110     OBSSEL4 &= ~0x80;                                                                                                                                                                             \ 
//  111     RFC_OBS_CTRL1 = 0x00; /* 0 - constant value 0 to rfc_obs_sigs[1] */                                                                                   \ 
//  112     RFC_OBS_CTRL2 = 0x00; /* 0 - constant value 0 to rfc_obs_sigs[2] */                                                                                   \ 
//  113     MDMTEST1 &= ~0x04;                                                                                                                                                         \ 
//  114   )
//  115 #else
//  116   #define HAL_BOARD_ENABLE_INTEGRATED_SNIFFER() { status = FAILURE; }
//  117   #define HAL_BOARD_DISABLE_INTEGRATED_SNIFFER() { status = FAILURE; }
//  118 #endif
//  119 #endif // MT_SYS_SNIFFER_FEATURE
//  120 
//  121 #define RESET_HARD     0
//  122 #define RESET_SOFT     1
//  123 #define RESET_SHUTDOWN 2
//  124 
//  125 /***************************************************************************************************
//  126  * CONSTANTS
//  127  ***************************************************************************************************/
//  128 
//  129 #if !defined MT_SYS_OSAL_NV_READ_CERTIFICATE_DATA
//  130 #define MT_SYS_OSAL_NV_READ_CERTIFICATE_DATA  FALSE
//  131 #endif
//  132 

        RSEG XDATA_ROM_C:CONST:REORDER:NOROOT(0)
        DATA8
//  133 const uint16 MT_SysOsalEventId [] = {
MT_SysOsalEventId:
        DATA16
        DW 2048
        DW 1024
        DW 512
        DW 256
//  134                                       MT_SYS_OSAL_EVENT_0,
//  135                                       MT_SYS_OSAL_EVENT_1,
//  136                                       MT_SYS_OSAL_EVENT_2,
//  137                                       MT_SYS_OSAL_EVENT_3
//  138                                     };
//  139 
//  140 typedef enum {
//  141   GPIO_DIR,
//  142   GPIO_TRI,
//  143   GPIO_SET,
//  144   GPIO_CLR,
//  145   GPIO_TOG,
//  146   GPIO_GET,
//  147   GPIO_HiD = 0x12
//  148 } GPIO_Op_t;
//  149 
//  150 #if defined ( MT_SYS_JAMMER_FEATURE )
//  151   #define JAMMER_CHECK_EVT                           0x0001
//  152 
//  153   #if !defined ( JAMMER_DETECT_CONTINUOUS_EVENTS )
//  154     #define JAMMER_DETECT_CONTINUOUS_EVENTS          150
//  155   #endif
//  156   #if !defined ( JAMMER_DETECT_PERIOD_TIME )
//  157     #define JAMMER_DETECT_PERIOD_TIME                100  // In milliseconds
//  158   #endif
//  159   #if !defined ( JAMMER_HIGH_NOISE_LEVEL )
//  160     #define JAMMER_HIGH_NOISE_LEVEL                  -65
//  161   #endif
//  162 #endif // MT_SYS_JAMMER_FEATURE
//  163 
//  164 /***************************************************************************************************
//  165  * LOCAL VARIABLES
//  166  ***************************************************************************************************/
//  167 #if defined ( MT_SYS_JAMMER_FEATURE )
//  168   static uint8 jammerTaskID;
//  169   static uint16 jammerContinuousEvents = JAMMER_DETECT_CONTINUOUS_EVENTS;
//  170   static uint16 jammerDetections = JAMMER_DETECT_CONTINUOUS_EVENTS;
//  171   static int8 jammerHighNoiseLevel = JAMMER_HIGH_NOISE_LEVEL;
//  172   static uint32 jammerDetectPeriodTime = JAMMER_DETECT_PERIOD_TIME;
//  173 #endif 
//  174   
//  175 #if defined ( MT_SYS_SNIFFER_FEATURE )
//  176 static uint8 sniffer = FALSE;
//  177 #endif
//  178 
//  179 /***************************************************************************************************
//  180  * LOCAL FUNCTIONS
//  181  ***************************************************************************************************/
//  182 #if defined (MT_SYS_FUNC)
//  183 void MT_SysReset(uint8 *pBuf);
//  184 void MT_SysPing(void);
//  185 void MT_SysVersion(void);
//  186 void MT_SysSetExtAddr(uint8 *pBuf);
//  187 void MT_SysGetExtAddr(void);
//  188 void MT_SysOsalNVItemInit(uint8 *pBuf);
//  189 void MT_SysOsalNVDelete(uint8 *pBuf);
//  190 void MT_SysOsalNVLength(uint8 *pBuf);
//  191 void MT_SysOsalNVRead(uint8 *pBuf);
//  192 void MT_SysOsalNVWrite(uint8 *pBuf);
//  193 void MT_SysOsalStartTimer(uint8 *pBuf);
//  194 void MT_SysOsalStopTimer(uint8 *pBuf);
//  195 void MT_SysRandom(void);
//  196 void MT_SysAdcRead(uint8 *pBuf);
//  197 void MT_SysGpio(uint8 *pBuf);
//  198 void MT_SysStackTune(uint8 *pBuf);
//  199 void MT_SysSetUtcTime(uint8 *pBuf);
//  200 void MT_SysGetUtcTime(void);
//  201 void MT_SysSetTxPower(uint8 *pBuf);
//  202 #if defined ( MT_SYS_JAMMER_FEATURE )
//  203   void MT_SysJammerParameters( uint8 *pBuf );
//  204 #endif /* MT_SYS_JAMMER_FEATURE */
//  205 #if defined ( MT_SYS_SNIFFER_FEATURE )
//  206 void MT_SysSnifferParameters( uint8 *pBuf );
//  207 #endif /* MT_SYS_SNIFFER_FEATURE */
//  208 #if defined ( FEATURE_SYSTEM_STATS )
//  209 void MT_SysZDiagsInitStats(void);
//  210 void MT_SysZDiagsClearStats(uint8 *pBuf);
//  211 void MT_SysZDiagsGetStatsAttr(uint8 *pBuf);
//  212 void MT_SysZDiagsRestoreStatsFromNV(void);
//  213 void MT_SysZDiagsSaveStatsToNV(void);
//  214 #endif /* FEATURE_SYSTEM_STATS */
//  215 #endif /* MT_SYS_FUNC */
//  216 void powerOffSoc(void);
//  217 
//  218 #if defined (MT_SYS_FUNC)
//  219 /***************************************************************************************************
//  220  * @fn      MT_SysProcessing
//  221  *
//  222  * @brief   Process all the SYS commands that are issued by test tool
//  223  *
//  224  * @param   pBuf - pointer to the msg buffer
//  225  *
//  226  *          | LEN  | CMD0  | CMD1  |  DATA  |
//  227  *          |  1   |   1   |   1   |  0-255 |
//  228  *
//  229  * @return  status
//  230  ***************************************************************************************************/

        RSEG BANKED_CODE:CODE:NOROOT(0)
//  231 uint8 MT_SysCommandProcessing(uint8 *pBuf)
MT_SysCommandProcessing:
          CFI Block cfiBlock0 Using cfiCommon0
          CFI Function MT_SysCommandProcessing
        CODE
//  232 {
        FUNCALL MT_SysCommandProcessing, MT_SysReset
        LOCFRAME ISTACK, 0, STACK
        LOCFRAME PSTACK, 0, STACK
        LOCFRAME XSTACK, 9, STACK
        LOCFRAME IOVERLAY, 0, STATIC
        LOCFRAME DOVERLAY, 0, STATIC
        ARGFRAME ISTACK, 0, STACK
        ARGFRAME PSTACK, 0, STACK
        ARGFRAME XSTACK, 9, STACK
        ARGFRAME IOVERLAY, 0, STATIC
        ARGFRAME DOVERLAY, 0, STATIC
        FUNCALL MT_SysCommandProcessing, MT_SysPing
        LOCFRAME ISTACK, 0, STACK
        LOCFRAME PSTACK, 0, STACK
        LOCFRAME XSTACK, 9, STACK
        LOCFRAME IOVERLAY, 0, STATIC
        LOCFRAME DOVERLAY, 0, STATIC
        ARGFRAME ISTACK, 0, STACK
        ARGFRAME PSTACK, 0, STACK
        ARGFRAME XSTACK, 9, STACK
        ARGFRAME IOVERLAY, 0, STATIC
        ARGFRAME DOVERLAY, 0, STATIC
        FUNCALL MT_SysCommandProcessing, MT_SysVersion
        LOCFRAME ISTACK, 0, STACK
        LOCFRAME PSTACK, 0, STACK
        LOCFRAME XSTACK, 9, STACK
        LOCFRAME IOVERLAY, 0, STATIC
        LOCFRAME DOVERLAY, 0, STATIC
        ARGFRAME ISTACK, 0, STACK
        ARGFRAME PSTACK, 0, STACK
        ARGFRAME XSTACK, 9, STACK
        ARGFRAME IOVERLAY, 0, STATIC
        ARGFRAME DOVERLAY, 0, STATIC
        FUNCALL MT_SysCommandProcessing, MT_SysSetExtAddr
        LOCFRAME ISTACK, 0, STACK
        LOCFRAME PSTACK, 0, STACK
        LOCFRAME XSTACK, 9, STACK
        LOCFRAME IOVERLAY, 0, STATIC
        LOCFRAME DOVERLAY, 0, STATIC
        ARGFRAME ISTACK, 0, STACK
        ARGFRAME PSTACK, 0, STACK
        ARGFRAME XSTACK, 9, STACK
        ARGFRAME IOVERLAY, 0, STATIC
        ARGFRAME DOVERLAY, 0, STATIC
        FUNCALL MT_SysCommandProcessing, MT_SysGetExtAddr
        LOCFRAME ISTACK, 0, STACK
        LOCFRAME PSTACK, 0, STACK
        LOCFRAME XSTACK, 9, STACK
        LOCFRAME IOVERLAY, 0, STATIC
        LOCFRAME DOVERLAY, 0, STATIC
        ARGFRAME ISTACK, 0, STACK
        ARGFRAME PSTACK, 0, STACK
        ARGFRAME XSTACK, 9, STACK
        ARGFRAME IOVERLAY, 0, STATIC
        ARGFRAME DOVERLAY, 0, STATIC
        FUNCALL MT_SysCommandProcessing, MT_SysOsalNVDelete
        LOCFRAME ISTACK, 0, STACK
        LOCFRAME PSTACK, 0, STACK
        LOCFRAME XSTACK, 9, STACK
        LOCFRAME IOVERLAY, 0, STATIC
        LOCFRAME DOVERLAY, 0, STATIC
        ARGFRAME ISTACK, 0, STACK
        ARGFRAME PSTACK, 0, STACK
        ARGFRAME XSTACK, 9, STACK
        ARGFRAME IOVERLAY, 0, STATIC
        ARGFRAME DOVERLAY, 0, STATIC
        FUNCALL MT_SysCommandProcessing, MT_SysOsalNVItemInit
        LOCFRAME ISTACK, 0, STACK
        LOCFRAME PSTACK, 0, STACK
        LOCFRAME XSTACK, 9, STACK
        LOCFRAME IOVERLAY, 0, STATIC
        LOCFRAME DOVERLAY, 0, STATIC
        ARGFRAME ISTACK, 0, STACK
        ARGFRAME PSTACK, 0, STACK
        ARGFRAME XSTACK, 9, STACK
        ARGFRAME IOVERLAY, 0, STATIC
        ARGFRAME DOVERLAY, 0, STATIC
        FUNCALL MT_SysCommandProcessing, MT_SysOsalNVLength
        LOCFRAME ISTACK, 0, STACK
        LOCFRAME PSTACK, 0, STACK
        LOCFRAME XSTACK, 9, STACK
        LOCFRAME IOVERLAY, 0, STATIC
        LOCFRAME DOVERLAY, 0, STATIC
        ARGFRAME ISTACK, 0, STACK
        ARGFRAME PSTACK, 0, STACK
        ARGFRAME XSTACK, 9, STACK
        ARGFRAME IOVERLAY, 0, STATIC
        ARGFRAME DOVERLAY, 0, STATIC
        FUNCALL MT_SysCommandProcessing, MT_SysOsalNVRead
        LOCFRAME ISTACK, 0, STACK
        LOCFRAME PSTACK, 0, STACK
        LOCFRAME XSTACK, 9, STACK
        LOCFRAME IOVERLAY, 0, STATIC
        LOCFRAME DOVERLAY, 0, STATIC
        ARGFRAME ISTACK, 0, STACK
        ARGFRAME PSTACK, 0, STACK
        ARGFRAME XSTACK, 9, STACK
        ARGFRAME IOVERLAY, 0, STATIC
        ARGFRAME DOVERLAY, 0, STATIC
        FUNCALL MT_SysCommandProcessing, MT_SysOsalNVWrite
        LOCFRAME ISTACK, 0, STACK
        LOCFRAME PSTACK, 0, STACK
        LOCFRAME XSTACK, 9, STACK
        LOCFRAME IOVERLAY, 0, STATIC
        LOCFRAME DOVERLAY, 0, STATIC
        ARGFRAME ISTACK, 0, STACK
        ARGFRAME PSTACK, 0, STACK
        ARGFRAME XSTACK, 9, STACK
        ARGFRAME IOVERLAY, 0, STATIC
        ARGFRAME DOVERLAY, 0, STATIC
        FUNCALL MT_SysCommandProcessing, MT_SysOsalStartTimer
        LOCFRAME ISTACK, 0, STACK
        LOCFRAME PSTACK, 0, STACK
        LOCFRAME XSTACK, 9, STACK
        LOCFRAME IOVERLAY, 0, STATIC
        LOCFRAME DOVERLAY, 0, STATIC
        ARGFRAME ISTACK, 0, STACK
        ARGFRAME PSTACK, 0, STACK
        ARGFRAME XSTACK, 9, STACK
        ARGFRAME IOVERLAY, 0, STATIC
        ARGFRAME DOVERLAY, 0, STATIC
        FUNCALL MT_SysCommandProcessing, MT_SysOsalStopTimer
        LOCFRAME ISTACK, 0, STACK
        LOCFRAME PSTACK, 0, STACK
        LOCFRAME XSTACK, 9, STACK
        LOCFRAME IOVERLAY, 0, STATIC
        LOCFRAME DOVERLAY, 0, STATIC
        ARGFRAME ISTACK, 0, STACK
        ARGFRAME PSTACK, 0, STACK
        ARGFRAME XSTACK, 9, STACK
        ARGFRAME IOVERLAY, 0, STATIC
        ARGFRAME DOVERLAY, 0, STATIC
        FUNCALL MT_SysCommandProcessing, MT_SysRandom
        LOCFRAME ISTACK, 0, STACK
        LOCFRAME PSTACK, 0, STACK
        LOCFRAME XSTACK, 9, STACK
        LOCFRAME IOVERLAY, 0, STATIC
        LOCFRAME DOVERLAY, 0, STATIC
        ARGFRAME ISTACK, 0, STACK
        ARGFRAME PSTACK, 0, STACK
        ARGFRAME XSTACK, 9, STACK
        ARGFRAME IOVERLAY, 0, STATIC
        ARGFRAME DOVERLAY, 0, STATIC
        FUNCALL MT_SysCommandProcessing, MT_SysAdcRead
        LOCFRAME ISTACK, 0, STACK
        LOCFRAME PSTACK, 0, STACK
        LOCFRAME XSTACK, 9, STACK
        LOCFRAME IOVERLAY, 0, STATIC
        LOCFRAME DOVERLAY, 0, STATIC
        ARGFRAME ISTACK, 0, STACK
        ARGFRAME PSTACK, 0, STACK
        ARGFRAME XSTACK, 9, STACK
        ARGFRAME IOVERLAY, 0, STATIC
        ARGFRAME DOVERLAY, 0, STATIC
        FUNCALL MT_SysCommandProcessing, MT_SysGpio
        LOCFRAME ISTACK, 0, STACK
        LOCFRAME PSTACK, 0, STACK
        LOCFRAME XSTACK, 9, STACK
        LOCFRAME IOVERLAY, 0, STATIC
        LOCFRAME DOVERLAY, 0, STATIC
        ARGFRAME ISTACK, 0, STACK
        ARGFRAME PSTACK, 0, STACK
        ARGFRAME XSTACK, 9, STACK
        ARGFRAME IOVERLAY, 0, STATIC
        ARGFRAME DOVERLAY, 0, STATIC
        FUNCALL MT_SysCommandProcessing, MT_SysStackTune
        LOCFRAME ISTACK, 0, STACK
        LOCFRAME PSTACK, 0, STACK
        LOCFRAME XSTACK, 9, STACK
        LOCFRAME IOVERLAY, 0, STATIC
        LOCFRAME DOVERLAY, 0, STATIC
        ARGFRAME ISTACK, 0, STACK
        ARGFRAME PSTACK, 0, STACK
        ARGFRAME XSTACK, 9, STACK
        ARGFRAME IOVERLAY, 0, STATIC
        ARGFRAME DOVERLAY, 0, STATIC
        FUNCALL MT_SysCommandProcessing, MT_SysSetUtcTime
        LOCFRAME ISTACK, 0, STACK
        LOCFRAME PSTACK, 0, STACK
        LOCFRAME XSTACK, 9, STACK
        LOCFRAME IOVERLAY, 0, STATIC
        LOCFRAME DOVERLAY, 0, STATIC
        ARGFRAME ISTACK, 0, STACK
        ARGFRAME PSTACK, 0, STACK
        ARGFRAME XSTACK, 9, STACK
        ARGFRAME IOVERLAY, 0, STATIC
        ARGFRAME DOVERLAY, 0, STATIC
        FUNCALL MT_SysCommandProcessing, MT_SysGetUtcTime
        LOCFRAME ISTACK, 0, STACK
        LOCFRAME PSTACK, 0, STACK
        LOCFRAME XSTACK, 9, STACK
        LOCFRAME IOVERLAY, 0, STATIC
        LOCFRAME DOVERLAY, 0, STATIC
        ARGFRAME ISTACK, 0, STACK
        ARGFRAME PSTACK, 0, STACK
        ARGFRAME XSTACK, 9, STACK
        ARGFRAME IOVERLAY, 0, STATIC
        ARGFRAME DOVERLAY, 0, STATIC
        FUNCALL MT_SysCommandProcessing, MT_SysSetTxPower
        LOCFRAME ISTACK, 0, STACK
        LOCFRAME PSTACK, 0, STACK
        LOCFRAME XSTACK, 9, STACK
        LOCFRAME IOVERLAY, 0, STATIC
        LOCFRAME DOVERLAY, 0, STATIC
        ARGFRAME ISTACK, 0, STACK
        ARGFRAME PSTACK, 0, STACK
        ARGFRAME XSTACK, 9, STACK
        ARGFRAME IOVERLAY, 0, STATIC
        ARGFRAME DOVERLAY, 0, STATIC
        FUNCALL MT_SysCommandProcessing, MT_SysZDiagsInitStats
        LOCFRAME ISTACK, 0, STACK
        LOCFRAME PSTACK, 0, STACK
        LOCFRAME XSTACK, 9, STACK
        LOCFRAME IOVERLAY, 0, STATIC
        LOCFRAME DOVERLAY, 0, STATIC
        ARGFRAME ISTACK, 0, STACK
        ARGFRAME PSTACK, 0, STACK
        ARGFRAME XSTACK, 9, STACK
        ARGFRAME IOVERLAY, 0, STATIC
        ARGFRAME DOVERLAY, 0, STATIC
        FUNCALL MT_SysCommandProcessing, MT_SysZDiagsClearStats
        LOCFRAME ISTACK, 0, STACK
        LOCFRAME PSTACK, 0, STACK
        LOCFRAME XSTACK, 9, STACK
        LOCFRAME IOVERLAY, 0, STATIC
        LOCFRAME DOVERLAY, 0, STATIC
        ARGFRAME ISTACK, 0, STACK
        ARGFRAME PSTACK, 0, STACK
        ARGFRAME XSTACK, 9, STACK
        ARGFRAME IOVERLAY, 0, STATIC
        ARGFRAME DOVERLAY, 0, STATIC
        FUNCALL MT_SysCommandProcessing, MT_SysZDiagsGetStatsAttr
        LOCFRAME ISTACK, 0, STACK
        LOCFRAME PSTACK, 0, STACK
        LOCFRAME XSTACK, 9, STACK
        LOCFRAME IOVERLAY, 0, STATIC
        LOCFRAME DOVERLAY, 0, STATIC
        ARGFRAME ISTACK, 0, STACK
        ARGFRAME PSTACK, 0, STACK
        ARGFRAME XSTACK, 9, STACK
        ARGFRAME IOVERLAY, 0, STATIC
        ARGFRAME DOVERLAY, 0, STATIC
        FUNCALL MT_SysCommandProcessing, MT_SysZDiagsRestoreStatsFromNV
        LOCFRAME ISTACK, 0, STACK
        LOCFRAME PSTACK, 0, STACK
        LOCFRAME XSTACK, 9, STACK
        LOCFRAME IOVERLAY, 0, STATIC
        LOCFRAME DOVERLAY, 0, STATIC
        ARGFRAME ISTACK, 0, STACK
        ARGFRAME PSTACK, 0, STACK
        ARGFRAME XSTACK, 9, STACK
        ARGFRAME IOVERLAY, 0, STATIC
        ARGFRAME DOVERLAY, 0, STATIC
        FUNCALL MT_SysCommandProcessing, MT_SysZDiagsSaveStatsToNV
        LOCFRAME ISTACK, 0, STACK
        LOCFRAME PSTACK, 0, STACK
        LOCFRAME XSTACK, 9, STACK
        LOCFRAME IOVERLAY, 0, STATIC
        LOCFRAME DOVERLAY, 0, STATIC
        ARGFRAME ISTACK, 0, STACK
        ARGFRAME PSTACK, 0, STACK
        ARGFRAME XSTACK, 9, STACK
        ARGFRAME IOVERLAY, 0, STATIC
        ARGFRAME DOVERLAY, 0, STATIC
        MOV     A,#-0x9
        LCALL   ?BANKED_ENTER_XDATA
          CFI DPH0 load(1, XDATA, add(CFA_XSP16, literal(-1)))
          CFI DPL0 load(1, XDATA, add(CFA_XSP16, literal(-2)))
          CFI ?BRET_EXT load(1, XDATA, add(CFA_XSP16, literal(-3)))
          CFI ?RET_HIGH load(1, XDATA, add(CFA_XSP16, literal(-4)))
          CFI ?RET_LOW load(1, XDATA, add(CFA_XSP16, literal(-5)))
          CFI R7 load(1, XDATA, add(CFA_XSP16, literal(-6)))
          CFI V0 load(1, XDATA, add(CFA_XSP16, literal(-7)))
          CFI VB load(1, XDATA, add(CFA_XSP16, literal(-8)))
          CFI R6 load(1, XDATA, add(CFA_XSP16, literal(-9)))
          CFI CFA_SP SP+0
          CFI CFA_XSP16 add(XSP16, 9)
        ; Saved register size: 9
        ; Auto size: 0
//  233   uint8 status = MT_RPC_SUCCESS;
        MOV     R6,#0x0
//  234 
//  235   switch (pBuf[MT_RPC_POS_CMD1])
        MOV     DPL,R2
        MOV     DPH,R3
        INC     DPTR
        INC     DPTR
        MOVX    A,@DPTR
        LCALL   ?UC_SWITCH_DENSE
`?<Jumptable for MT_SysCommandProcessing>_0`:
        DATA
        DATA8
        DATA
        DATA8
        DB        0
        DATA
        DATA8
        DATA
        DATA8
        DB        29
        DATA
        DATA16
        DATA
        DATA16
        DW        ??MT_SysCommandProcessing_0
        DATA
        DATA16
        DATA
        DATA16
        DW        ??MT_SysCommandProcessing_1
        DATA
        DATA16
        DATA
        DATA16
        DW        ??MT_SysCommandProcessing_2
        DATA
        DATA16
        DATA
        DATA16
        DW        ??MT_SysCommandProcessing_3
        DATA
        DATA16
        DATA
        DATA16
        DW        ??MT_SysCommandProcessing_4
        DATA
        DATA16
        DATA
        DATA16
        DW        ??MT_SysCommandProcessing_5
        DATA
        DATA16
        DATA
        DATA16
        DW        ??MT_SysCommandProcessing_0
        DATA
        DATA16
        DATA
        DATA16
        DW        ??MT_SysCommandProcessing_0
        DATA
        DATA16
        DATA
        DATA16
        DW        ??MT_SysCommandProcessing_6
        DATA
        DATA16
        DATA
        DATA16
        DW        ??MT_SysCommandProcessing_7
        DATA
        DATA16
        DATA
        DATA16
        DW        ??MT_SysCommandProcessing_8
        DATA
        DATA16
        DATA
        DATA16
        DW        ??MT_SysCommandProcessing_9
        DATA
        DATA16
        DATA
        DATA16
        DW        ??MT_SysCommandProcessing_10
        DATA
        DATA16
        DATA
        DATA16
        DW        ??MT_SysCommandProcessing_11
        DATA
        DATA16
        DATA
        DATA16
        DW        ??MT_SysCommandProcessing_12
        DATA
        DATA16
        DATA
        DATA16
        DW        ??MT_SysCommandProcessing_13
        DATA
        DATA16
        DATA
        DATA16
        DW        ??MT_SysCommandProcessing_14
        DATA
        DATA16
        DATA
        DATA16
        DW        ??MT_SysCommandProcessing_15
        DATA
        DATA16
        DATA
        DATA16
        DW        ??MT_SysCommandProcessing_16
        DATA
        DATA16
        DATA
        DATA16
        DW        ??MT_SysCommandProcessing_17
        DATA
        DATA16
        DATA
        DATA16
        DW        ??MT_SysCommandProcessing_18
        DATA
        DATA16
        DATA
        DATA16
        DW        ??MT_SysCommandProcessing_19
        DATA
        DATA16
        DATA
        DATA16
        DW        ??MT_SysCommandProcessing_0
        DATA
        DATA16
        DATA
        DATA16
        DW        ??MT_SysCommandProcessing_0
        DATA
        DATA16
        DATA
        DATA16
        DW        ??MT_SysCommandProcessing_20
        DATA
        DATA16
        DATA
        DATA16
        DW        ??MT_SysCommandProcessing_21
        DATA
        DATA16
        DATA
        DATA16
        DW        ??MT_SysCommandProcessing_22
        DATA
        DATA16
        DATA
        DATA16
        DW        ??MT_SysCommandProcessing_23
        DATA
        DATA16
        DATA
        DATA16
        DW        ??MT_SysCommandProcessing_24
        DATA
        DATA16
        DATA
        DATA16
        DW        ??MT_SysCommandProcessing_7
        DATA
        DATA16
        DATA
        DATA16
        DW        ??MT_SysCommandProcessing_8
        CODE
//  236   {
//  237     case MT_SYS_RESET_REQ:
//  238       MT_SysReset(pBuf);
??MT_SysCommandProcessing_1:
        ; Setup parameters for call to function MT_SysReset
        LCALL   `??MT_SysReset::?relay`; Banked call to: MT_SysReset
//  239       break;
        SJMP    ??MT_SysCommandProcessing_25
//  240 
//  241     case MT_SYS_PING:
//  242       MT_SysPing();
??MT_SysCommandProcessing_2:
        ; Setup parameters for call to function MT_SysPing
        LCALL   `??MT_SysPing::?relay`; Banked call to: MT_SysPing
//  243       break;
        SJMP    ??MT_SysCommandProcessing_25
//  244 
//  245     case MT_SYS_VERSION:
//  246       MT_SysVersion();
??MT_SysCommandProcessing_3:
        ; Setup parameters for call to function MT_SysVersion
        LCALL   `??MT_SysVersion::?relay`; Banked call to: MT_SysVersion
//  247       break;
        SJMP    ??MT_SysCommandProcessing_25
//  248 
//  249     case MT_SYS_SET_EXTADDR:
//  250       MT_SysSetExtAddr(pBuf);
??MT_SysCommandProcessing_4:
        ; Setup parameters for call to function MT_SysSetExtAddr
        LCALL   `??MT_SysSetExtAddr::?relay`; Banked call to: MT_SysSetExtAddr
//  251       break;
        SJMP    ??MT_SysCommandProcessing_25
//  252 
//  253     case MT_SYS_GET_EXTADDR:
//  254       MT_SysGetExtAddr();
??MT_SysCommandProcessing_5:
        ; Setup parameters for call to function MT_SysGetExtAddr
        LCALL   `??MT_SysGetExtAddr::?relay`; Banked call to: MT_SysGetExtAddr
//  255       break;
        SJMP    ??MT_SysCommandProcessing_25
//  256 
//  257 // CC253X MAC Network Processor does not have NV support
//  258 #if !defined(CC253X_MACNP)
//  259     case MT_SYS_OSAL_NV_DELETE:
//  260       MT_SysOsalNVDelete(pBuf);
??MT_SysCommandProcessing_17:
        ; Setup parameters for call to function MT_SysOsalNVDelete
        LCALL   `??MT_SysOsalNVDelete::?relay`; Banked call to: MT_SysOsalNVDelete
//  261       break;
        SJMP    ??MT_SysCommandProcessing_25
//  262 
//  263     case MT_SYS_OSAL_NV_ITEM_INIT:
//  264       MT_SysOsalNVItemInit(pBuf);
??MT_SysCommandProcessing_6:
        ; Setup parameters for call to function MT_SysOsalNVItemInit
        LCALL   `??MT_SysOsalNVItemInit::?relay`; Banked call to: MT_SysOsalNVItemInit
//  265       break;
        SJMP    ??MT_SysCommandProcessing_25
//  266 
//  267     case MT_SYS_OSAL_NV_LENGTH:
//  268       MT_SysOsalNVLength(pBuf);
??MT_SysCommandProcessing_18:
        ; Setup parameters for call to function MT_SysOsalNVLength
        LCALL   `??MT_SysOsalNVLength::?relay`; Banked call to: MT_SysOsalNVLength
//  269       break;
        SJMP    ??MT_SysCommandProcessing_25
//  270 
//  271     case MT_SYS_OSAL_NV_READ:
//  272       MT_SysOsalNVRead(pBuf);
//  273       break;
//  274 
//  275     case MT_SYS_OSAL_NV_WRITE:
//  276       MT_SysOsalNVWrite(pBuf);
//  277       break;
//  278 
//  279     case MT_SYS_OSAL_NV_READ_EXT:
//  280       MT_SysOsalNVRead(pBuf);
??MT_SysCommandProcessing_7:
        ; Setup parameters for call to function MT_SysOsalNVRead
        LCALL   `??MT_SysOsalNVRead::?relay`; Banked call to: MT_SysOsalNVRead
//  281       break;
        SJMP    ??MT_SysCommandProcessing_25
//  282       
//  283     case MT_SYS_OSAL_NV_WRITE_EXT:
//  284       MT_SysOsalNVWrite(pBuf);
??MT_SysCommandProcessing_8:
        ; Setup parameters for call to function MT_SysOsalNVWrite
        LCALL   `??MT_SysOsalNVWrite::?relay`; Banked call to: MT_SysOsalNVWrite
//  285       break;
        SJMP    ??MT_SysCommandProcessing_25
//  286 #endif
//  287 
//  288     case MT_SYS_OSAL_START_TIMER:
//  289       MT_SysOsalStartTimer(pBuf);
??MT_SysCommandProcessing_9:
        ; Setup parameters for call to function MT_SysOsalStartTimer
        LCALL   `??MT_SysOsalStartTimer::?relay`; Banked call to: MT_SysOsalStartTimer
//  290       break;
        SJMP    ??MT_SysCommandProcessing_25
//  291 
//  292     case MT_SYS_OSAL_STOP_TIMER:
//  293       MT_SysOsalStopTimer(pBuf);
??MT_SysCommandProcessing_10:
        ; Setup parameters for call to function MT_SysOsalStopTimer
        LCALL   `??MT_SysOsalStopTimer::?relay`; Banked call to: MT_SysOsalStopTimer
//  294       break;
        SJMP    ??MT_SysCommandProcessing_25
//  295 
//  296     case MT_SYS_RANDOM:
//  297       MT_SysRandom();
??MT_SysCommandProcessing_11:
        ; Setup parameters for call to function MT_SysRandom
        LCALL   `??MT_SysRandom::?relay`; Banked call to: MT_SysRandom
//  298       break;
        SJMP    ??MT_SysCommandProcessing_25
//  299 
//  300     case MT_SYS_ADC_READ:
//  301       MT_SysAdcRead(pBuf);
??MT_SysCommandProcessing_12:
        ; Setup parameters for call to function MT_SysAdcRead
        LCALL   `??MT_SysAdcRead::?relay`; Banked call to: MT_SysAdcRead
//  302       break;
        SJMP    ??MT_SysCommandProcessing_25
//  303 
//  304     case MT_SYS_GPIO:
//  305       MT_SysGpio(pBuf);
??MT_SysCommandProcessing_13:
        ; Setup parameters for call to function MT_SysGpio
        LCALL   `??MT_SysGpio::?relay`; Banked call to: MT_SysGpio
//  306       break;
        SJMP    ??MT_SysCommandProcessing_25
//  307 
//  308     case MT_SYS_STACK_TUNE:
//  309       MT_SysStackTune(pBuf);
??MT_SysCommandProcessing_14:
        ; Setup parameters for call to function MT_SysStackTune
        LCALL   `??MT_SysStackTune::?relay`; Banked call to: MT_SysStackTune
//  310       break;
        SJMP    ??MT_SysCommandProcessing_25
//  311 
//  312     case MT_SYS_SET_TIME:
//  313       MT_SysSetUtcTime(pBuf);
??MT_SysCommandProcessing_15:
        ; Setup parameters for call to function MT_SysSetUtcTime
        LCALL   `??MT_SysSetUtcTime::?relay`; Banked call to: MT_SysSetUtcTime
//  314       break;
        SJMP    ??MT_SysCommandProcessing_25
//  315 
//  316     case MT_SYS_GET_TIME:
//  317       MT_SysGetUtcTime();
??MT_SysCommandProcessing_16:
        ; Setup parameters for call to function MT_SysGetUtcTime
        LCALL   `??MT_SysGetUtcTime::?relay`; Banked call to: MT_SysGetUtcTime
//  318       break;
        SJMP    ??MT_SysCommandProcessing_25
//  319 
//  320     case MT_SYS_SET_TX_POWER:
//  321       MT_SysSetTxPower(pBuf);
??MT_SysCommandProcessing_19:
        ; Setup parameters for call to function MT_SysSetTxPower
        LCALL   `??MT_SysSetTxPower::?relay`; Banked call to: MT_SysSetTxPower
//  322       break;
        SJMP    ??MT_SysCommandProcessing_25
//  323       
//  324 #if defined ( MT_SYS_JAMMER_FEATURE )
//  325     case MT_SYS_JAMMER_PARAMETERS:
//  326       MT_SysJammerParameters( pBuf );
//  327       break;
//  328 #endif      
//  329 
//  330 #if defined ( MT_SYS_SNIFFER_FEATURE )
//  331     case MT_SYS_SNIFFER_PARAMETERS:
//  332       MT_SysSnifferParameters( pBuf );
//  333       break;
//  334 #endif      
//  335 
//  336 #if defined ( FEATURE_SYSTEM_STATS )
//  337     case MT_SYS_ZDIAGS_INIT_STATS:
//  338       MT_SysZDiagsInitStats();
??MT_SysCommandProcessing_20:
        ; Setup parameters for call to function MT_SysZDiagsInitStats
        LCALL   `??MT_SysZDiagsInitStats::?relay`; Banked call to: MT_SysZDiagsInitStats
//  339       break;
        SJMP    ??MT_SysCommandProcessing_25
//  340 
//  341     case MT_SYS_ZDIAGS_CLEAR_STATS:
//  342       MT_SysZDiagsClearStats(pBuf);
??MT_SysCommandProcessing_21:
        ; Setup parameters for call to function MT_SysZDiagsClearStats
        LCALL   `??MT_SysZDiagsClearStats::?relay`; Banked call to: MT_SysZDiagsClearStats
//  343       break;
        SJMP    ??MT_SysCommandProcessing_25
//  344 
//  345     case MT_SYS_ZDIAGS_GET_STATS:
//  346       MT_SysZDiagsGetStatsAttr(pBuf);
??MT_SysCommandProcessing_22:
        ; Setup parameters for call to function MT_SysZDiagsGetStatsAttr
        LCALL   `??MT_SysZDiagsGetStatsAttr::?relay`; Banked call to: MT_SysZDiagsGetStatsAttr
//  347        break;
        SJMP    ??MT_SysCommandProcessing_25
//  348 
//  349     case MT_SYS_ZDIAGS_RESTORE_STATS_NV:
//  350       MT_SysZDiagsRestoreStatsFromNV();
??MT_SysCommandProcessing_23:
        ; Setup parameters for call to function MT_SysZDiagsRestoreStatsFromNV
        LCALL   `??MT_SysZDiagsRestoreStatsFromNV::?relay`; Banked call to: MT_SysZDiagsRestoreStatsFromNV
//  351       break;
        SJMP    ??MT_SysCommandProcessing_25
//  352 
//  353     case MT_SYS_ZDIAGS_SAVE_STATS_TO_NV:
//  354       MT_SysZDiagsSaveStatsToNV();
??MT_SysCommandProcessing_24:
        ; Setup parameters for call to function MT_SysZDiagsSaveStatsToNV
        LCALL   `??MT_SysZDiagsSaveStatsToNV::?relay`; Banked call to: MT_SysZDiagsSaveStatsToNV
//  355       break;
        SJMP    ??MT_SysCommandProcessing_25
//  356 #endif /* FEATURE_SYSTEM_STATS */
//  357 
//  358     default:
//  359       status = MT_RPC_ERR_COMMAND_ID;
??MT_SysCommandProcessing_0:
        MOV     R6,#0x2
//  360       break;
//  361   }
//  362 
//  363   return status;
??MT_SysCommandProcessing_25:
        MOV     A,R6
        MOV     R1,A
        LJMP    ??Subroutine31_0 & 0xFFFF
//  364 }
          CFI EndBlock cfiBlock0
//  365 
//  366 /**************************************************************************************************
//  367  * @fn      MT_SysReset
//  368  *
//  369  * @brief   Reset the device.
//  370  * @param   typID: 0=reset, 1=serial bootloader, 
//  371  *
//  372  * @return  None
//  373  *************************************************************************************************/

        RSEG BANKED_CODE:CODE:NOROOT(0)
//  374 void MT_SysReset( uint8 *pBuf )
MT_SysReset:
          CFI Block cfiBlock1 Using cfiCommon0
          CFI Function MT_SysReset
        CODE
//  375 {
        FUNCALL MT_SysReset, Onboard_soft_reset
        LOCFRAME ISTACK, 2, STACK
        LOCFRAME PSTACK, 0, STACK
        LOCFRAME XSTACK, 0, STACK
        LOCFRAME IOVERLAY, 0, STATIC
        LOCFRAME DOVERLAY, 0, STATIC
        ARGFRAME ISTACK, 2, STACK
        ARGFRAME PSTACK, 0, STACK
        ARGFRAME XSTACK, 0, STACK
        ARGFRAME IOVERLAY, 0, STATIC
        ARGFRAME DOVERLAY, 0, STATIC
        PUSH    DPL
          CFI DPL0 Frame(CFA_SP, 4)
          CFI CFA_SP SP+-4
        PUSH    DPH
          CFI DPH0 Frame(CFA_SP, 5)
          CFI CFA_SP SP+-5
        ; Saved register size: 2
        ; Auto size: 0
//  376   switch( pBuf[MT_RPC_POS_DAT0] )
        MOV     DPL,R2
        MOV     DPH,R3
        INC     DPTR
        INC     DPTR
        INC     DPTR
        MOVX    A,@DPTR
        JZ      ??MT_SysReset_0
        DEC     A
        JZ      ??MT_SysReset_1
        SJMP    ??MT_SysReset_2
//  377   {
//  378     case MT_SYS_RESET_HARD:
//  379       SystemReset();
??MT_SysReset_0:
        CLR     0xa8.7
        CLR     0xa8.7
        MOV     0xc9,#-0x55
        MOV     0xc9,#0x5b
??MT_SysReset_3:
        SJMP    ??MT_SysReset_3
//  380       break;
//  381       
//  382     case MT_SYS_RESET_SOFT:
//  383 #if !(defined(HAL_BOARD_F2618) || defined(HAL_BOARD_F5438) || defined(HAL_BOARD_LM3S))
//  384       SystemResetSoft();  // Especially useful for CC2531 to not break comm with USB Host.
??MT_SysReset_1:
        ; Setup parameters for call to function Onboard_soft_reset
        LCALL   Onboard_soft_reset & 0xFFFF
//  385 #endif
//  386       break;
//  387       
//  388     case MT_SYS_RESET_SHUTDOWN:
//  389       {
//  390         // Disable interrupts and put into deep sleep, use hardware reset to wakeup
//  391         powerOffSoc();
//  392       }
//  393       break;
//  394   }
//  395 }
??MT_SysReset_2:
        LJMP    ??Subroutine35_0 & 0xFFFF
          CFI EndBlock cfiBlock1
        REQUIRE _A_IEN0
        REQUIRE WDCTL
//  396 
//  397 /***************************************************************************************************
//  398  * @fn      MT_SysPing
//  399  *
//  400  * @brief   Process the Ping command
//  401  *
//  402  * @param   None
//  403  *
//  404  * @return  None
//  405  ***************************************************************************************************/

        RSEG BANKED_CODE:CODE:NOROOT(0)
//  406 void MT_SysPing(void)
MT_SysPing:
          CFI Block cfiBlock2 Using cfiCommon0
          CFI Function MT_SysPing
        CODE
//  407 {
        FUNCALL MT_SysPing, MT_BuildAndSendZToolResponse
        LOCFRAME ISTACK, 2, STACK
        LOCFRAME PSTACK, 0, STACK
        LOCFRAME XSTACK, 2, STACK
        LOCFRAME IOVERLAY, 0, STATIC
        LOCFRAME DOVERLAY, 0, STATIC
        ARGFRAME ISTACK, 2, STACK
        ARGFRAME PSTACK, 0, STACK
        ARGFRAME XSTACK, 2, STACK
        ARGFRAME IOVERLAY, 0, STATIC
        ARGFRAME DOVERLAY, 0, STATIC
        PUSH    DPL
          CFI DPL0 Frame(CFA_SP, 4)
          CFI CFA_SP SP+-4
        PUSH    DPH
          CFI DPH0 Frame(CFA_SP, 5)
          CFI CFA_SP SP+-5
        ; Saved register size: 2
        ; Auto size: 2
        MOV     A,#-0x2
        LCALL   ?ALLOC_XSTACK8
          CFI CFA_XSP16 add(XSP16, 2)
//  408   uint16 tmp16;
//  409   uint8 retArray[2];
//  410 
//  411   /* Build Capabilities */
//  412   tmp16 = MT_CAP_SYS | MT_CAP_MAC | MT_CAP_NWK | MT_CAP_AF | MT_CAP_ZDO |
//  413           MT_CAP_SAPI | MT_CAP_UTIL | MT_CAP_DEBUG | MT_CAP_APP | MT_CAP_GP | MT_CAP_ZOAD;
//  414 
//  415   /* Convert to high byte first into temp buffer */
//  416   retArray[0] = LO_UINT16( tmp16 );
        MOV     DPL,?XSP + 0
        MOV     DPH,?XSP + 1
        MOV     A,#0x79
        MOVX    @DPTR,A
//  417   retArray[1] = HI_UINT16( tmp16 );
        MOV     A,#0x1
        LCALL   ?XSTACK_DISP0_8
        MOV     A,#0x1
        LCALL   ??Subroutine33_0 & 0xFFFF
//  418 
//  419   /* Build and send back the response */
//  420   MT_BuildAndSendZToolResponse(((uint8)MT_RPC_CMD_SRSP | (uint8)MT_RPC_SYS_SYS), MT_SYS_PING,
//  421                                 sizeof (tmp16), retArray );
??CrossCallReturnLabel_47:
        MOV     R2,A
        LJMP    ?Subroutine1 & 0xFFFF
//  422 }
          CFI EndBlock cfiBlock2
//  423 
//  424 /***************************************************************************************************
//  425  * @fn      MT_SysVersion
//  426  *
//  427  * @brief   Process the Version command
//  428  *
//  429  * @param   None
//  430  *
//  431  * @return  None
//  432  ***************************************************************************************************/

        RSEG BANKED_CODE:CODE:NOROOT(0)
//  433 void MT_SysVersion(void)
MT_SysVersion:
          CFI Block cfiBlock3 Using cfiCommon0
          CFI Function MT_SysVersion
        CODE
//  434 {
        FUNCALL MT_SysVersion, MT_BuildAndSendZToolResponse
        LOCFRAME ISTACK, 2, STACK
        LOCFRAME PSTACK, 0, STACK
        LOCFRAME XSTACK, 0, STACK
        LOCFRAME IOVERLAY, 0, STATIC
        LOCFRAME DOVERLAY, 0, STATIC
        ARGFRAME ISTACK, 2, STACK
        ARGFRAME PSTACK, 0, STACK
        ARGFRAME XSTACK, 0, STACK
        ARGFRAME IOVERLAY, 0, STATIC
        ARGFRAME DOVERLAY, 0, STATIC
        PUSH    DPL
          CFI DPL0 Frame(CFA_SP, 4)
          CFI CFA_SP SP+-4
        PUSH    DPH
          CFI DPH0 Frame(CFA_SP, 5)
          CFI CFA_SP SP+-5
        ; Saved register size: 2
        ; Auto size: 0
//  435 #if !defined INCLUDE_REVISION_INFORMATION
//  436   /* Build and send back the response */
//  437   MT_BuildAndSendZToolResponse(((uint8)MT_RPC_CMD_SRSP | (uint8)MT_RPC_SYS_SYS), MT_SYS_VERSION,
//  438                                sizeof(MTVersionString), (uint8 *)MTVersionString);
        ; Setup parameters for call to function MT_BuildAndSendZToolResponse
        MOV     R4,#MTVersionString & 0xff
        MOV     R5,#(MTVersionString >> 8) & 0xff
        MOV     R3,#0x5
        MOV     R2,#0x2
        MOV     R1,#0x61
        LCALL   `??MT_BuildAndSendZToolResponse::?relay`; Banked call to: MT_BuildAndSendZToolResponse
//  439 
//  440 #else
//  441   uint8 verStr[sizeof(MTVersionString) + 4];
//  442   uint8 *pBuf = &verStr[sizeof(MTVersionString)];
//  443   
//  444 #if (defined MAKE_CRC_SHDW) || (defined FAKE_CRC_SHDW)  //built for bootloader
//  445   uint32 sblSig;
//  446   uint32 sblRev;
//  447 #endif
//  448 
//  449   osal_memcpy(verStr, (uint8 *)MTVersionString, sizeof(MTVersionString));
//  450 
//  451 #if (defined MAKE_CRC_SHDW) || (defined FAKE_CRC_SHDW)  //built for bootloader
//  452   HalFlashRead(SBL_SIG_ADDR / HAL_FLASH_PAGE_SIZE,
//  453                SBL_SIG_ADDR % HAL_FLASH_PAGE_SIZE,
//  454                (uint8 *)&sblSig, sizeof(sblSig));
//  455 
//  456   if (sblSig == SBL_SIGNATURE)
//  457   {
//  458     // SBL is supported and its revision is provided (in a known flash location)
//  459     HalFlashRead(SBL_REV_ADDR / HAL_FLASH_PAGE_SIZE,
//  460                  SBL_REV_ADDR % HAL_FLASH_PAGE_SIZE,
//  461                  (uint8 *)&sblRev, sizeof(sblRev));
//  462   }
//  463   else
//  464   {
//  465     //  SBL is supported but its revision is not provided
//  466     sblRev = 0x00000000;
//  467   }
//  468 #else
//  469   // SBL is NOT supported
//  470   sblRev = 0xFFFFFFFF;
//  471 #endif
//  472 
//  473   // Plug the SBL revision indication
//  474   UINT32_TO_BUF_LITTLE_ENDIAN(pBuf,sblRev);
//  475 
//  476   /* Build and send back the response */
//  477   MT_BuildAndSendZToolResponse(((uint8)MT_RPC_CMD_SRSP | (uint8)MT_RPC_SYS_SYS), MT_SYS_VERSION,
//  478                                sizeof(verStr), verStr);
//  479 
//  480 #endif
//  481 }
        LJMP    ??Subroutine35_0 & 0xFFFF
          CFI EndBlock cfiBlock3
//  482 
//  483 /***************************************************************************************************
//  484  * @fn      MT_SysSetExtAddr
//  485  *
//  486  * @brief   Set the Extended Address
//  487  *
//  488  * @param   pBuf
//  489  *
//  490  * @return  None
//  491  ***************************************************************************************************/

        RSEG BANKED_CODE:CODE:NOROOT(0)
//  492 void MT_SysSetExtAddr(uint8 *pBuf)
MT_SysSetExtAddr:
          CFI Block cfiBlock4 Using cfiCommon0
          CFI Function MT_SysSetExtAddr
        CODE
//  493 {
        FUNCALL MT_SysSetExtAddr, ZMacSetReq
        LOCFRAME ISTACK, 0, STACK
        LOCFRAME PSTACK, 0, STACK
        LOCFRAME XSTACK, 11, STACK
        LOCFRAME IOVERLAY, 0, STATIC
        LOCFRAME DOVERLAY, 0, STATIC
        ARGFRAME ISTACK, 0, STACK
        ARGFRAME PSTACK, 0, STACK
        ARGFRAME XSTACK, 11, STACK
        ARGFRAME IOVERLAY, 0, STATIC
        ARGFRAME DOVERLAY, 0, STATIC
        FUNCALL MT_SysSetExtAddr, osal_nv_write
        LOCFRAME ISTACK, 0, STACK
        LOCFRAME PSTACK, 0, STACK
        LOCFRAME XSTACK, 15, STACK
        LOCFRAME IOVERLAY, 0, STATIC
        LOCFRAME DOVERLAY, 0, STATIC
        ARGFRAME ISTACK, 0, STACK
        ARGFRAME PSTACK, 0, STACK
        ARGFRAME XSTACK, 15, STACK
        ARGFRAME IOVERLAY, 0, STATIC
        ARGFRAME DOVERLAY, 0, STATIC
        FUNCALL MT_SysSetExtAddr, MT_BuildAndSendZToolResponse
        LOCFRAME ISTACK, 0, STACK
        LOCFRAME PSTACK, 0, STACK
        LOCFRAME XSTACK, 11, STACK
        LOCFRAME IOVERLAY, 0, STATIC
        LOCFRAME DOVERLAY, 0, STATIC
        ARGFRAME ISTACK, 0, STACK
        ARGFRAME PSTACK, 0, STACK
        ARGFRAME XSTACK, 11, STACK
        ARGFRAME IOVERLAY, 0, STATIC
        ARGFRAME DOVERLAY, 0, STATIC
        REQUIRE ?V0
        REQUIRE ?V1
        MOV     A,#-0xa
        LCALL   ?BANKED_ENTER_XDATA
          CFI DPH0 load(1, XDATA, add(CFA_XSP16, literal(-1)))
          CFI DPL0 load(1, XDATA, add(CFA_XSP16, literal(-2)))
          CFI ?BRET_EXT load(1, XDATA, add(CFA_XSP16, literal(-3)))
          CFI ?RET_HIGH load(1, XDATA, add(CFA_XSP16, literal(-4)))
          CFI ?RET_LOW load(1, XDATA, add(CFA_XSP16, literal(-5)))
          CFI R7 load(1, XDATA, add(CFA_XSP16, literal(-6)))
          CFI V1 load(1, XDATA, add(CFA_XSP16, literal(-7)))
          CFI V0 load(1, XDATA, add(CFA_XSP16, literal(-8)))
          CFI VB load(1, XDATA, add(CFA_XSP16, literal(-9)))
          CFI R6 load(1, XDATA, add(CFA_XSP16, literal(-10)))
          CFI CFA_SP SP+0
          CFI CFA_XSP16 add(XSP16, 10)
        ; Saved register size: 10
        ; Auto size: 1
        MOV     A,#-0x1
        LCALL   ?ALLOC_XSTACK8
          CFI CFA_XSP16 add(XSP16, 11)
        MOV     ?V1,R3
//  494   uint8 retValue = ZFailure;
        LCALL   ?Subroutine13 & 0xFFFF
//  495   uint8 cmdId;
//  496 
//  497   /* parse header */
//  498   cmdId = pBuf[MT_RPC_POS_CMD1];
//  499   pBuf += MT_RPC_FRAME_HDR_SZ;
??CrossCallReturnLabel_31:
        MOV     ?V0,A
        JNC     ??MT_SysSetExtAddr_0
        INC     ?V1
//  500 
//  501   if ( ZMacSetReq(ZMacExtAddr, pBuf) == ZMacSuccess )
??MT_SysSetExtAddr_0:
        ; Setup parameters for call to function ZMacSetReq
        INC     R2
        INC     R2
        INC     R2
        MOV     R3,?V1
        MOV     R1,#-0x1e
        LCALL   `??ZMacSetReq::?relay`; Banked call to: ZMacSetReq
        MOV     A,R1
        JNZ     ??MT_SysSetExtAddr_1
//  502   {
//  503 // CC253X MAC Network Processor does not have NV support
//  504 #if !defined(CC253X_MACNP)
//  505     retValue = osal_nv_write(ZCD_NV_EXTADDR, 0, Z_EXTADDR_LEN, pBuf);
        ; Setup parameters for call to function osal_nv_write
        MOV     R0,#?V0
        LCALL   ?PUSH_XSTACK_I_TWO
          CFI CFA_XSP16 add(XSP16, 13)
        MOV     ?V0,#0x8
        MOV     ?V1,#0x0
        MOV     R0,#?V0
        LCALL   ?PUSH_XSTACK_I_TWO
          CFI CFA_XSP16 add(XSP16, 15)
        MOV     R4,#0x0
        MOV     R5,#0x0
        MOV     R2,#0x1
        MOV     R3,#0x0
        LCALL   `??osal_nv_write::?relay`; Banked call to: osal_nv_write
        MOV     A,#0x4
        LCALL   ?DEALLOC_XSTACK8
          CFI CFA_XSP16 add(XSP16, 11)
        MOV     A,R1
        MOV     DPL,?XSP + 0
        MOV     DPH,?XSP + 1
        MOVX    @DPTR,A
//  506 #endif
//  507   }
//  508 
//  509   /* Build and send back the response */
//  510   MT_BuildAndSendZToolResponse(((uint8)MT_RPC_CMD_SRSP | (uint8)MT_RPC_SYS_SYS), cmdId, 1, &retValue);
??MT_SysSetExtAddr_1:
        ; Setup parameters for call to function MT_BuildAndSendZToolResponse
        MOV     R4,?XSP + 0
        MOV     R5,?XSP + 1
        MOV     R3,#0x1
        MOV     A,R6
        MOV     R2,A
        MOV     R1,#0x61
        LCALL   `??MT_BuildAndSendZToolResponse::?relay`; Banked call to: MT_BuildAndSendZToolResponse
//  511 
//  512 }
        MOV     A,#0x1
        LJMP    ??Subroutine32_0 & 0xFFFF
          CFI EndBlock cfiBlock4

        RSEG BANKED_CODE:CODE:NOROOT(0)
?Subroutine13:
          CFI Block cfiCond5 Using cfiCommon0
          CFI Function MT_SysSetExtAddr
          CFI Conditional ??CrossCallReturnLabel_31
          CFI R6 load(1, XDATA, add(CFA_XSP16, literal(-10)))
          CFI VB load(1, XDATA, add(CFA_XSP16, literal(-9)))
          CFI V0 load(1, XDATA, add(CFA_XSP16, literal(-8)))
          CFI V1 load(1, XDATA, add(CFA_XSP16, literal(-7)))
          CFI R7 load(1, XDATA, add(CFA_XSP16, literal(-6)))
          CFI ?RET_LOW load(1, XDATA, add(CFA_XSP16, literal(-5)))
          CFI ?RET_HIGH load(1, XDATA, add(CFA_XSP16, literal(-4)))
          CFI ?BRET_EXT load(1, XDATA, add(CFA_XSP16, literal(-3)))
          CFI DPL0 load(1, XDATA, add(CFA_XSP16, literal(-2)))
          CFI DPH0 load(1, XDATA, add(CFA_XSP16, literal(-1)))
          CFI CFA_SP SP+-2
          CFI CFA_XSP16 add(XSP16, 11)
          CFI Block cfiCond6 Using cfiCommon0
          CFI (cfiCond6) Function MT_SysOsalStartTimer
          CFI (cfiCond6) Conditional ??CrossCallReturnLabel_32
          CFI (cfiCond6) R6 load(1, XDATA, add(CFA_XSP16, literal(-12)))
          CFI (cfiCond6) VB load(1, XDATA, add(CFA_XSP16, literal(-11)))
          CFI (cfiCond6) V0 load(1, XDATA, add(CFA_XSP16, literal(-10)))
          CFI (cfiCond6) V1 load(1, XDATA, add(CFA_XSP16, literal(-9)))
          CFI (cfiCond6) V2 load(1, XDATA, add(CFA_XSP16, literal(-8)))
          CFI (cfiCond6) V3 load(1, XDATA, add(CFA_XSP16, literal(-7)))
          CFI (cfiCond6) R7 load(1, XDATA, add(CFA_XSP16, literal(-6)))
          CFI (cfiCond6) ?RET_LOW load(1, XDATA, add(CFA_XSP16, literal(-5)))
          CFI (cfiCond6) ?RET_HIGH load(1, XDATA, add(CFA_XSP16, literal(-4)))
          CFI (cfiCond6) ?BRET_EXT load(1, XDATA, add(CFA_XSP16, literal(-3)))
          CFI (cfiCond6) DPL0 load(1, XDATA, add(CFA_XSP16, literal(-2)))
          CFI (cfiCond6) DPH0 load(1, XDATA, add(CFA_XSP16, literal(-1)))
          CFI (cfiCond6) CFA_SP SP+-2
          CFI (cfiCond6) CFA_XSP16 add(XSP16, 13)
          CFI Block cfiPicker7 Using cfiCommon1
          CFI (cfiPicker7) NoFunction
          CFI (cfiPicker7) Picker
        MOV     DPL,?XSP + 0
        MOV     DPH,?XSP + 1
        MOV     A,#0x1
        MOVX    @DPTR,A
          CFI EndBlock cfiCond5
          CFI EndBlock cfiCond6
          CFI EndBlock cfiPicker7
        REQUIRE ??Subroutine26_0
        ; // Fall through to label ??Subroutine26_0

        RSEG BANKED_CODE:CODE:NOROOT(0)
??Subroutine26_0:
          CFI Block cfiCond8 Using cfiCommon0
          CFI Function MT_SysStackTune
          CFI Conditional ??CrossCallReturnLabel_33
          CFI R6 load(1, XDATA, add(CFA_XSP16, literal(-9)))
          CFI VB load(1, XDATA, add(CFA_XSP16, literal(-8)))
          CFI V0 load(1, XDATA, add(CFA_XSP16, literal(-7)))
          CFI R7 load(1, XDATA, add(CFA_XSP16, literal(-6)))
          CFI ?RET_LOW load(1, XDATA, add(CFA_XSP16, literal(-5)))
          CFI ?RET_HIGH load(1, XDATA, add(CFA_XSP16, literal(-4)))
          CFI ?BRET_EXT load(1, XDATA, add(CFA_XSP16, literal(-3)))
          CFI DPL0 load(1, XDATA, add(CFA_XSP16, literal(-2)))
          CFI DPH0 load(1, XDATA, add(CFA_XSP16, literal(-1)))
          CFI CFA_SP SP+-2
          CFI CFA_XSP16 add(XSP16, 10)
          CFI Block cfiCond9 Using cfiCommon0
          CFI (cfiCond9) Function MT_SysZDiagsGetStatsAttr
          CFI (cfiCond9) Conditional ??CrossCallReturnLabel_34
          CFI (cfiCond9) R6 load(1, XDATA, add(CFA_XSP16, literal(-16)))
          CFI (cfiCond9) VB load(1, XDATA, add(CFA_XSP16, literal(-15)))
          CFI (cfiCond9) V0 load(1, XDATA, add(CFA_XSP16, literal(-14)))
          CFI (cfiCond9) V1 load(1, XDATA, add(CFA_XSP16, literal(-13)))
          CFI (cfiCond9) V2 load(1, XDATA, add(CFA_XSP16, literal(-12)))
          CFI (cfiCond9) V3 load(1, XDATA, add(CFA_XSP16, literal(-11)))
          CFI (cfiCond9) V4 load(1, XDATA, add(CFA_XSP16, literal(-10)))
          CFI (cfiCond9) V5 load(1, XDATA, add(CFA_XSP16, literal(-9)))
          CFI (cfiCond9) V6 load(1, XDATA, add(CFA_XSP16, literal(-8)))
          CFI (cfiCond9) V7 load(1, XDATA, add(CFA_XSP16, literal(-7)))
          CFI (cfiCond9) R7 load(1, XDATA, add(CFA_XSP16, literal(-6)))
          CFI (cfiCond9) ?RET_LOW load(1, XDATA, add(CFA_XSP16, literal(-5)))
          CFI (cfiCond9) ?RET_HIGH load(1, XDATA, add(CFA_XSP16, literal(-4)))
          CFI (cfiCond9) ?BRET_EXT load(1, XDATA, add(CFA_XSP16, literal(-3)))
          CFI (cfiCond9) DPL0 load(1, XDATA, add(CFA_XSP16, literal(-2)))
          CFI (cfiCond9) DPH0 load(1, XDATA, add(CFA_XSP16, literal(-1)))
          CFI (cfiCond9) CFA_SP SP+-2
          CFI (cfiCond9) CFA_XSP16 add(XSP16, 20)
          CFI Block cfiCond10 Using cfiCommon0
          CFI (cfiCond10) Function MT_SysSetExtAddr
          CFI (cfiCond10) Conditional ??CrossCallReturnLabel_31
          CFI (cfiCond10) R6 load(1, XDATA, add(CFA_XSP16, literal(-10)))
          CFI (cfiCond10) VB load(1, XDATA, add(CFA_XSP16, literal(-9)))
          CFI (cfiCond10) V0 load(1, XDATA, add(CFA_XSP16, literal(-8)))
          CFI (cfiCond10) V1 load(1, XDATA, add(CFA_XSP16, literal(-7)))
          CFI (cfiCond10) R7 load(1, XDATA, add(CFA_XSP16, literal(-6)))
          CFI (cfiCond10) ?RET_LOW load(1, XDATA, add(CFA_XSP16, literal(-5)))
          CFI (cfiCond10) ?RET_HIGH load(1, XDATA, add(CFA_XSP16, literal(-4)))
          CFI (cfiCond10) ?BRET_EXT load(1, XDATA, add(CFA_XSP16, literal(-3)))
          CFI (cfiCond10) DPL0 load(1, XDATA, add(CFA_XSP16, literal(-2)))
          CFI (cfiCond10) DPH0 load(1, XDATA, add(CFA_XSP16, literal(-1)))
          CFI (cfiCond10) CFA_SP SP+-2
          CFI (cfiCond10) CFA_XSP16 add(XSP16, 11)
          CFI Block cfiCond11 Using cfiCommon0
          CFI (cfiCond11) Function MT_SysOsalStartTimer
          CFI (cfiCond11) Conditional ??CrossCallReturnLabel_32
          CFI (cfiCond11) R6 load(1, XDATA, add(CFA_XSP16, literal(-12)))
          CFI (cfiCond11) VB load(1, XDATA, add(CFA_XSP16, literal(-11)))
          CFI (cfiCond11) V0 load(1, XDATA, add(CFA_XSP16, literal(-10)))
          CFI (cfiCond11) V1 load(1, XDATA, add(CFA_XSP16, literal(-9)))
          CFI (cfiCond11) V2 load(1, XDATA, add(CFA_XSP16, literal(-8)))
          CFI (cfiCond11) V3 load(1, XDATA, add(CFA_XSP16, literal(-7)))
          CFI (cfiCond11) R7 load(1, XDATA, add(CFA_XSP16, literal(-6)))
          CFI (cfiCond11) ?RET_LOW load(1, XDATA, add(CFA_XSP16, literal(-5)))
          CFI (cfiCond11) ?RET_HIGH load(1, XDATA, add(CFA_XSP16, literal(-4)))
          CFI (cfiCond11) ?BRET_EXT load(1, XDATA, add(CFA_XSP16, literal(-3)))
          CFI (cfiCond11) DPL0 load(1, XDATA, add(CFA_XSP16, literal(-2)))
          CFI (cfiCond11) DPH0 load(1, XDATA, add(CFA_XSP16, literal(-1)))
          CFI (cfiCond11) CFA_SP SP+-2
          CFI (cfiCond11) CFA_XSP16 add(XSP16, 13)
          CFI Block cfiPicker12 Using cfiCommon1
          CFI (cfiPicker12) NoFunction
          CFI (cfiPicker12) Picker
        MOV     DPL,R2
        MOV     DPH,R3
        INC     DPTR
        INC     DPTR
        MOVX    A,@DPTR
        MOV     R6,A
        MOV     A,R2
        ADD     A,#0x3
        RET
          CFI EndBlock cfiCond8
          CFI EndBlock cfiCond9
          CFI EndBlock cfiCond10
          CFI EndBlock cfiCond11
          CFI EndBlock cfiPicker12
//  513 
//  514 /***************************************************************************************************
//  515  * @fn      MT_SysGetExtAddr
//  516  *
//  517  * @brief   Get the Extended Address
//  518  *
//  519  * @param   None
//  520  *
//  521  * @return  None
//  522  ***************************************************************************************************/

        RSEG BANKED_CODE:CODE:NOROOT(0)
//  523 void MT_SysGetExtAddr(void)
MT_SysGetExtAddr:
          CFI Block cfiBlock13 Using cfiCommon0
          CFI Function MT_SysGetExtAddr
        CODE
//  524 {
        FUNCALL MT_SysGetExtAddr, ZMacGetReq
        LOCFRAME ISTACK, 2, STACK
        LOCFRAME PSTACK, 0, STACK
        LOCFRAME XSTACK, 8, STACK
        LOCFRAME IOVERLAY, 0, STATIC
        LOCFRAME DOVERLAY, 0, STATIC
        ARGFRAME ISTACK, 2, STACK
        ARGFRAME PSTACK, 0, STACK
        ARGFRAME XSTACK, 8, STACK
        ARGFRAME IOVERLAY, 0, STATIC
        ARGFRAME DOVERLAY, 0, STATIC
        FUNCALL MT_SysGetExtAddr, MT_BuildAndSendZToolResponse
        LOCFRAME ISTACK, 2, STACK
        LOCFRAME PSTACK, 0, STACK
        LOCFRAME XSTACK, 8, STACK
        LOCFRAME IOVERLAY, 0, STATIC
        LOCFRAME DOVERLAY, 0, STATIC
        ARGFRAME ISTACK, 2, STACK
        ARGFRAME PSTACK, 0, STACK
        ARGFRAME XSTACK, 8, STACK
        ARGFRAME IOVERLAY, 0, STATIC
        ARGFRAME DOVERLAY, 0, STATIC
        PUSH    DPL
          CFI DPL0 Frame(CFA_SP, 4)
          CFI CFA_SP SP+-4
        PUSH    DPH
          CFI DPH0 Frame(CFA_SP, 5)
          CFI CFA_SP SP+-5
        ; Saved register size: 2
        ; Auto size: 8
        MOV     A,#-0x8
        LCALL   ?ALLOC_XSTACK8
          CFI CFA_XSP16 add(XSP16, 8)
//  525   uint8 extAddr[Z_EXTADDR_LEN];
//  526 
//  527   ZMacGetReq( ZMacExtAddr, extAddr );
        ; Setup parameters for call to function ZMacGetReq
        MOV     R2,?XSP + 0
        MOV     R3,?XSP + 1
        MOV     R1,#-0x1e
        LCALL   `??ZMacGetReq::?relay`; Banked call to: ZMacGetReq
//  528 
//  529   /* Build and send back the response */
//  530   MT_BuildAndSendZToolResponse(((uint8)MT_RPC_CMD_SRSP | (uint8)MT_RPC_SYS_SYS), MT_SYS_GET_EXTADDR,
//  531                                Z_EXTADDR_LEN, extAddr);
        ; Setup parameters for call to function MT_BuildAndSendZToolResponse
        MOV     R4,?XSP + 0
        MOV     R5,?XSP + 1
        MOV     R3,#0x8
        MOV     R2,#0x4
        MOV     R1,#0x61
        LCALL   `??MT_BuildAndSendZToolResponse::?relay`; Banked call to: MT_BuildAndSendZToolResponse
//  532 }
        MOV     A,#0x8
        LJMP    ??Subroutine34_0 & 0xFFFF
          CFI EndBlock cfiBlock13
//  533 
//  534 #if !defined(CC253X_MACNP)
//  535 /***************************************************************************************************
//  536  * @fn      MT_SysOsalNVRead
//  537  *
//  538  * @brief   Attempt to read an NV value
//  539  *
//  540  * @param   pBuf - pointer to the data
//  541  *
//  542  * @return  None
//  543  ***************************************************************************************************/

        RSEG BANKED_CODE:CODE:NOROOT(0)
//  544 void MT_SysOsalNVRead(uint8 *pBuf)
MT_SysOsalNVRead:
          CFI Block cfiBlock14 Using cfiCommon0
          CFI Function MT_SysOsalNVRead
        CODE
//  545 {
        FUNCALL MT_SysOsalNVRead, osal_nv_item_len
        LOCFRAME ISTACK, 0, STACK
        LOCFRAME PSTACK, 0, STACK
        LOCFRAME XSTACK, 22, STACK
        LOCFRAME IOVERLAY, 0, STATIC
        LOCFRAME DOVERLAY, 0, STATIC
        ARGFRAME ISTACK, 0, STACK
        ARGFRAME PSTACK, 0, STACK
        ARGFRAME XSTACK, 22, STACK
        ARGFRAME IOVERLAY, 0, STATIC
        ARGFRAME DOVERLAY, 0, STATIC
        FUNCALL MT_SysOsalNVRead, osal_mem_alloc
        LOCFRAME ISTACK, 0, STACK
        LOCFRAME PSTACK, 0, STACK
        LOCFRAME XSTACK, 22, STACK
        LOCFRAME IOVERLAY, 0, STATIC
        LOCFRAME DOVERLAY, 0, STATIC
        ARGFRAME ISTACK, 0, STACK
        ARGFRAME PSTACK, 0, STACK
        ARGFRAME XSTACK, 22, STACK
        ARGFRAME IOVERLAY, 0, STATIC
        ARGFRAME DOVERLAY, 0, STATIC
        FUNCALL MT_SysOsalNVRead, osal_memset
        LOCFRAME ISTACK, 0, STACK
        LOCFRAME PSTACK, 0, STACK
        LOCFRAME XSTACK, 22, STACK
        LOCFRAME IOVERLAY, 0, STATIC
        LOCFRAME DOVERLAY, 0, STATIC
        ARGFRAME ISTACK, 0, STACK
        ARGFRAME PSTACK, 0, STACK
        ARGFRAME XSTACK, 22, STACK
        ARGFRAME IOVERLAY, 0, STATIC
        ARGFRAME DOVERLAY, 0, STATIC
        FUNCALL MT_SysOsalNVRead, osal_nv_read
        LOCFRAME ISTACK, 0, STACK
        LOCFRAME PSTACK, 0, STACK
        LOCFRAME XSTACK, 26, STACK
        LOCFRAME IOVERLAY, 0, STATIC
        LOCFRAME DOVERLAY, 0, STATIC
        ARGFRAME ISTACK, 0, STACK
        ARGFRAME PSTACK, 0, STACK
        ARGFRAME XSTACK, 26, STACK
        ARGFRAME IOVERLAY, 0, STATIC
        ARGFRAME DOVERLAY, 0, STATIC
        FUNCALL MT_SysOsalNVRead, MT_BuildAndSendZToolResponse
        LOCFRAME ISTACK, 0, STACK
        LOCFRAME PSTACK, 0, STACK
        LOCFRAME XSTACK, 22, STACK
        LOCFRAME IOVERLAY, 0, STATIC
        LOCFRAME DOVERLAY, 0, STATIC
        ARGFRAME ISTACK, 0, STACK
        ARGFRAME PSTACK, 0, STACK
        ARGFRAME XSTACK, 22, STACK
        ARGFRAME IOVERLAY, 0, STATIC
        ARGFRAME DOVERLAY, 0, STATIC
        FUNCALL MT_SysOsalNVRead, osal_mem_free
        LOCFRAME ISTACK, 0, STACK
        LOCFRAME PSTACK, 0, STACK
        LOCFRAME XSTACK, 22, STACK
        LOCFRAME IOVERLAY, 0, STATIC
        LOCFRAME DOVERLAY, 0, STATIC
        ARGFRAME ISTACK, 0, STACK
        ARGFRAME PSTACK, 0, STACK
        ARGFRAME XSTACK, 22, STACK
        ARGFRAME IOVERLAY, 0, STATIC
        ARGFRAME DOVERLAY, 0, STATIC
        FUNCALL MT_SysOsalNVRead, MT_BuildAndSendZToolResponse
        LOCFRAME ISTACK, 0, STACK
        LOCFRAME PSTACK, 0, STACK
        LOCFRAME XSTACK, 22, STACK
        LOCFRAME IOVERLAY, 0, STATIC
        LOCFRAME DOVERLAY, 0, STATIC
        ARGFRAME ISTACK, 0, STACK
        ARGFRAME PSTACK, 0, STACK
        ARGFRAME XSTACK, 22, STACK
        ARGFRAME IOVERLAY, 0, STATIC
        ARGFRAME DOVERLAY, 0, STATIC
        REQUIRE ?V0
        REQUIRE ?V1
        REQUIRE ?V2
        REQUIRE ?V3
        REQUIRE ?V4
        REQUIRE ?V5
        REQUIRE ?V6
        REQUIRE ?V7
        REQUIRE ?V8
        REQUIRE ?V9
        REQUIRE ?V10
        REQUIRE ?V11
        MOV     A,#-0x14
        LCALL   ?BANKED_ENTER_XDATA
          CFI DPH0 load(1, XDATA, add(CFA_XSP16, literal(-1)))
          CFI DPL0 load(1, XDATA, add(CFA_XSP16, literal(-2)))
          CFI ?BRET_EXT load(1, XDATA, add(CFA_XSP16, literal(-3)))
          CFI ?RET_HIGH load(1, XDATA, add(CFA_XSP16, literal(-4)))
          CFI ?RET_LOW load(1, XDATA, add(CFA_XSP16, literal(-5)))
          CFI R7 load(1, XDATA, add(CFA_XSP16, literal(-6)))
          CFI V11 load(1, XDATA, add(CFA_XSP16, literal(-7)))
          CFI V10 load(1, XDATA, add(CFA_XSP16, literal(-8)))
          CFI V9 load(1, XDATA, add(CFA_XSP16, literal(-9)))
          CFI V8 load(1, XDATA, add(CFA_XSP16, literal(-10)))
          CFI V7 load(1, XDATA, add(CFA_XSP16, literal(-11)))
          CFI V6 load(1, XDATA, add(CFA_XSP16, literal(-12)))
          CFI V5 load(1, XDATA, add(CFA_XSP16, literal(-13)))
          CFI V4 load(1, XDATA, add(CFA_XSP16, literal(-14)))
          CFI V3 load(1, XDATA, add(CFA_XSP16, literal(-15)))
          CFI V2 load(1, XDATA, add(CFA_XSP16, literal(-16)))
          CFI V1 load(1, XDATA, add(CFA_XSP16, literal(-17)))
          CFI V0 load(1, XDATA, add(CFA_XSP16, literal(-18)))
          CFI VB load(1, XDATA, add(CFA_XSP16, literal(-19)))
          CFI R6 load(1, XDATA, add(CFA_XSP16, literal(-20)))
          CFI CFA_SP SP+0
          CFI CFA_XSP16 add(XSP16, 20)
        ; Saved register size: 20
        ; Auto size: 2
        MOV     A,#-0x2
        LCALL   ?ALLOC_XSTACK8
          CFI CFA_XSP16 add(XSP16, 22)
        MOV     A,R2
        MOV     R6,A
        MOV     A,R3
        MOV     R7,A
//  546   uint8 cmdId;
//  547   uint16 nvId;
//  548   uint16 dataLen;
//  549   uint16 dataOfs;
//  550   uint16 nvItemLen;
//  551   uint8 error = ZSuccess;
        MOV     ?V2,#0x0
//  552 
//  553   /* MT command ID */
//  554   cmdId = pBuf[MT_RPC_POS_CMD1];
        MOV     DPL,R6
        MOV     DPH,R7
        INC     DPTR
        INC     DPTR
        MOVX    A,@DPTR
        MOV     ?V3,A
//  555   /* Skip over RPC header */
//  556   pBuf += MT_RPC_FRAME_HDR_SZ;
        MOV     A,R6
        ADD     A,#0x3
        MOV     R6,A
        JNC     ??MT_SysOsalNVRead_0
        INC     R7
//  557 
//  558   /* NV item ID */
//  559   nvId = BUILD_UINT16(pBuf[0], pBuf[1]);
??MT_SysOsalNVRead_0:
        MOV     DPL,R6
        MOV     DPH,R7
        LCALL   ?Subroutine7 & 0xFFFF
//  560   /* Length of entire NV item data */
//  561   nvItemLen = osal_nv_item_len(nvId);
??CrossCallReturnLabel_2:
        ; Setup parameters for call to function osal_nv_item_len
        MOV     R3,A
        LCALL   `??osal_nv_item_len::?relay`; Banked call to: osal_nv_item_len
        MOV     ?V4,R2
        MOV     ?V5,R3
        MOV     R4,?V4
        MOV     R5,?V5
//  562 
//  563 #if !MT_SYS_OSAL_NV_READ_CERTIFICATE_DATA
//  564   if ((ZCD_NV_IMPLICIT_CERTIFICATE == nvId) ||
//  565       (ZCD_NV_CA_PUBLIC_KEY == nvId)        ||
//  566       (ZCD_NV_DEVICE_PRIVATE_KEY == nvId))
        MOV     A,#0x69
        XRL     A,?V0
        JNZ     ??MT_SysOsalNVRead_1
        MOV     A,?V1
??MT_SysOsalNVRead_1:
        JZ      ??MT_SysOsalNVRead_2
        MOV     A,#0x6b
        XRL     A,?V0
        JNZ     ??MT_SysOsalNVRead_3
        MOV     A,?V1
??MT_SysOsalNVRead_3:
        JZ      ??MT_SysOsalNVRead_2
        MOV     A,#0x6a
        XRL     A,?V0
        ORL     A,?V1
        JNZ     ??MT_SysOsalNVRead_4
//  567   {
//  568     /* Access to Security Certificate Data is denied */
//  569     error = ZInvalidParameter;
??MT_SysOsalNVRead_2:
        MOV     ?V2,#0x2
//  570   }
//  571 #endif
//  572 
//  573 #if !MT_SYS_KEY_MANAGEMENT
//  574   if ( (nvId == ZCD_NV_NWK_ACTIVE_KEY_INFO) ||
//  575        (nvId == ZCD_NV_NWK_ALTERN_KEY_INFO) ||
//  576       ((nvId >= ZCD_NV_TCLK_TABLE_START) && (nvId <= ZCD_NV_TCLK_TABLE_END)) ||
//  577       ((nvId >= ZCD_NV_APS_LINK_KEY_DATA_START) && (nvId <= ZCD_NV_APS_LINK_KEY_DATA_END)) ||
//  578        (nvId == ZCD_NV_PRECFGKEY) )
??MT_SysOsalNVRead_4:
        MOV     A,#0x3a
        XRL     A,?V0
        JNZ     ??MT_SysOsalNVRead_5
        MOV     A,?V1
??MT_SysOsalNVRead_5:
        JZ      ??MT_SysOsalNVRead_6
        MOV     A,#0x3b
        XRL     A,?V0
        JNZ     ??MT_SysOsalNVRead_7
        MOV     A,?V1
??MT_SysOsalNVRead_7:
        JZ      ??MT_SysOsalNVRead_6
        MOV     A,?V0
        ADD     A,#-0x1
        MOV     R0,A
        MOV     A,?V1
        ADDC    A,#-0x2
        MOV     R1,A
        CLR     C
        MOV     A,R0
        SUBB    A,#-0x1
        MOV     A,R1
        SUBB    A,#0x0
        JC      ??MT_SysOsalNVRead_6
        DEC     R1
        CLR     C
        MOV     A,R0
        SUBB    A,#-0x1
        MOV     A,R1
        SUBB    A,#0x0
        JC      ??MT_SysOsalNVRead_6
        MOV     A,#0x62
        XRL     A,?V0
        ORL     A,?V1
        JNZ     ??MT_SysOsalNVRead_8
//  579   {
//  580     /* Access to Security Key Data is denied */
//  581     error = ZInvalidParameter;
??MT_SysOsalNVRead_6:
        MOV     ?V2,#0x2
//  582   }
//  583 #endif //!MT_SYS_KEY_MANAGEMENT
//  584   
//  585   /* Get NV data offset */
//  586   if (cmdId == MT_SYS_OSAL_NV_READ)
??MT_SysOsalNVRead_8:
        MOV     A,#0x8
        XRL     A,?V3
        MOV     DPL,R6
        MOV     DPH,R7
        INC     DPTR
        INC     DPTR
        JNZ     ??MT_SysOsalNVRead_9
//  587   {
//  588     /* MT_SYS_OSAL_NV_READ has 1-byte offset */
//  589     dataOfs = (uint16)pBuf[2];
        MOVX    A,@DPTR
        MOV     R6,A
        MOV     R7,#0x0
        SJMP    ??CrossCallReturnLabel_10
//  590   }
//  591   else
//  592   {
//  593     /* MT_SYS_OSAL_NV_READ_EXT has 2-byte offset */
//  594     dataOfs = BUILD_UINT16(pBuf[2], pBuf[3]);
??MT_SysOsalNVRead_9:
        MOVX    A,@DPTR
        MOV     R2,A
        MOV     DPL,R6
        MOV     DPH,R7
        INC     DPTR
        INC     DPTR
        LCALL   ?Subroutine11 & 0xFFFF
//  595   }
//  596   if (nvItemLen <= dataOfs)
??CrossCallReturnLabel_10:
        CLR     C
        MOV     A,R6
        SUBB    A,R4
        MOV     A,R7
        SUBB    A,R5
        JC      ??MT_SysOsalNVRead_10
//  597   {
//  598     /* Offset is past end of data */
//  599     error = ZInvalidParameter;
        MOV     ?V2,#0x2
        LJMP    ??MT_SysOsalNVRead_11 & 0xFFFF
//  600   }
//  601 
//  602   if (error == ZSuccess)
??MT_SysOsalNVRead_10:
        MOV     A,?V2
        JZ      $+5
        LJMP    ??MT_SysOsalNVRead_12 & 0xFFFF
//  603   {
//  604     uint8 *pRetBuf;
//  605     uint8 respLen = 2;  /* Response header: [0]=status,[1]=length */
//  606 
//  607     dataLen = nvItemLen - dataOfs;
        MOV     A,R4
        CLR     C
        SUBB    A,R6
        MOV     ?V8,A
        MOV     A,R5
        SUBB    A,R7
        MOV     ?V9,A
//  608     if (dataLen > (uint16)(MT_MAX_RSP_DATA_LEN - respLen))
        CLR     C
        MOV     A,?V8
        SUBB    A,#-0x9
        MOV     A,?V9
        SUBB    A,#0x0
        JC      ??MT_SysOsalNVRead_13
//  609     {
//  610       /* Data length is limited by TX buffer size and MT protocol */
//  611       dataLen = (MT_MAX_RSP_DATA_LEN - respLen);
        MOV     ?V8,#-0xa
        MOV     ?V9,#0x0
//  612     }
//  613     respLen += dataLen;
??MT_SysOsalNVRead_13:
        MOV     A,?V8
        ADD     A,#0x2
        MOV     ?V4,A
//  614 
//  615     pRetBuf = osal_mem_alloc(respLen);
        ; Setup parameters for call to function osal_mem_alloc
        MOV     R2,A
        MOV     R3,#0x0
        LCALL   `??osal_mem_alloc::?relay`; Banked call to: osal_mem_alloc
        MOV     ?V6,R2
        MOV     ?V7,R3
//  616     if (pRetBuf != NULL)
        MOV     A,R2
        ORL     A,?V7
        JNZ     $+5
        LJMP    ??MT_SysOsalNVRead_14 & 0xFFFF
//  617     {
//  618       osal_memset(&pRetBuf[2], 0, dataLen);
        MOV     A,R2
        ADD     A,#0x2
        MOV     ?V10,A
        CLR     A
        ADDC    A,?V7
        MOV     ?V11,A
        ; Setup parameters for call to function osal_memset
        MOV     R4,?V8
        MOV     R5,?V9
        MOV     R1,#0x0
        INC     R2
        INC     R2
        MOV     R3,A
        LCALL   `??osal_memset::?relay`; Banked call to: osal_memset
//  619       if (((osal_nv_read( nvId, dataOfs, dataLen, &pRetBuf[2])) == ZSUCCESS))
        ; Setup parameters for call to function osal_nv_read
        MOV     R0,#?V10
        LCALL   ?PUSH_XSTACK_I_TWO
          CFI CFA_XSP16 add(XSP16, 24)
        MOV     R0,#?V8
        LCALL   ?PUSH_XSTACK_I_TWO
          CFI CFA_XSP16 add(XSP16, 26)
        MOV     A,R6
        MOV     R4,A
        MOV     A,R7
        MOV     R5,A
        MOV     R2,?V0
        MOV     R3,?V1
        LCALL   `??osal_nv_read::?relay`; Banked call to: osal_nv_read
        MOV     A,#0x4
        LCALL   ?DEALLOC_XSTACK8
          CFI CFA_XSP16 add(XSP16, 22)
        MOV     A,R1
        JNZ     ??MT_SysOsalNVRead_15
//  620       {
//  621         pRetBuf[0] = ZSuccess;
        MOV     DPL,?V6
        MOV     DPH,?V7
        CLR     A
        MOVX    @DPTR,A
//  622         pRetBuf[1] = dataLen;
        INC     DPTR
        MOV     A,?V8
        MOVX    @DPTR,A
//  623         MT_BuildAndSendZToolResponse(((uint8)MT_RPC_CMD_SRSP | (uint8)MT_RPC_SYS_SYS),
//  624                                        cmdId, respLen, pRetBuf );
        ; Setup parameters for call to function MT_BuildAndSendZToolResponse
        MOV     R4,?V6
        MOV     R5,?V7
        MOV     R3,?V4
        MOV     R2,?V3
        MOV     R1,#0x61
        LCALL   `??MT_BuildAndSendZToolResponse::?relay`; Banked call to: MT_BuildAndSendZToolResponse
        SJMP    ??MT_SysOsalNVRead_16
//  625       }
//  626       else
//  627       {
//  628         error = NV_OPER_FAILED;
??MT_SysOsalNVRead_15:
        MOV     ?V2,#0xa
//  629       }
//  630       osal_mem_free(pRetBuf);
??MT_SysOsalNVRead_16:
        ; Setup parameters for call to function osal_mem_free
        MOV     R2,?V6
        MOV     R3,?V7
        LCALL   `??osal_mem_free::?relay`; Banked call to: osal_mem_free
//  631     }
//  632     else
//  633     {
//  634       /* Could not get buffer for NV data */
//  635       error = ZMemError;
//  636     }
//  637   }
//  638   
//  639   if (error != ZSuccess)
??MT_SysOsalNVRead_12:
        MOV     A,?V2
        JZ      ??MT_SysOsalNVRead_17
//  640   {
//  641     uint8 tmp[2] = { error, 0 };
??MT_SysOsalNVRead_11:
        MOV     DPTR,#`?<Constant {0, 0}>`
        MOV     R4,?XSP + 0
        MOV     R5,?XSP + 1
        MOV     A,#0x2
        LCALL   ?MOVE_LONG8_XDATA_XDATA
        MOV     DPL,?XSP + 0
        MOV     DPH,?XSP + 1
        MOV     A,?V2
        LCALL   ??Subroutine33_0 & 0xFFFF
//  642     MT_BuildAndSendZToolResponse(((uint8)MT_RPC_CMD_SRSP | (uint8)MT_RPC_SYS_SYS),
//  643                                    cmdId, 2, tmp);
//  644   }
??CrossCallReturnLabel_48:
        MOV     R2,?V3
        MOV     R1,#0x61
        LCALL   `??MT_BuildAndSendZToolResponse::?relay`; Banked call to: MT_BuildAndSendZToolResponse
//  645 }
??MT_SysOsalNVRead_17:
        MOV     A,#0x2
        LCALL   ?DEALLOC_XSTACK8
          CFI CFA_XSP16 add(XSP16, 20)
        MOV     R7,#0xc
        LJMP    ?BANKED_LEAVE_XDATA
          CFI CFA_XSP16 add(XSP16, 22)
??MT_SysOsalNVRead_14:
        MOV     ?V2,#0x10
        SJMP    ??MT_SysOsalNVRead_11
          CFI EndBlock cfiBlock14

        RSEG XDATA_ROM_C:CONST:REORDER:NOROOT(0)
        DATA16
`?<Constant {0, 0}>`:
        DATA8
        DB 0
        DB 0
//  646 
//  647 /***************************************************************************************************
//  648  * @fn      MT_SysOsalNVWrite
//  649  *
//  650  * @brief   Attempt to write an NV item
//  651  *
//  652  * @param   pBuf - pointer to the data
//  653  *
//  654  * @return  None
//  655  ***************************************************************************************************/

        RSEG BANKED_CODE:CODE:NOROOT(0)
//  656 void MT_SysOsalNVWrite(uint8 *pBuf)
MT_SysOsalNVWrite:
          CFI Block cfiBlock15 Using cfiCommon0
          CFI Function MT_SysOsalNVWrite
        CODE
//  657 {
        FUNCALL MT_SysOsalNVWrite, osal_nv_item_len
        LOCFRAME ISTACK, 0, STACK
        LOCFRAME PSTACK, 0, STACK
        LOCFRAME XSTACK, 19, STACK
        LOCFRAME IOVERLAY, 0, STATIC
        LOCFRAME DOVERLAY, 0, STATIC
        ARGFRAME ISTACK, 0, STACK
        ARGFRAME PSTACK, 0, STACK
        ARGFRAME XSTACK, 19, STACK
        ARGFRAME IOVERLAY, 0, STATIC
        ARGFRAME DOVERLAY, 0, STATIC
        FUNCALL MT_SysOsalNVWrite, zgSetItem
        LOCFRAME ISTACK, 0, STACK
        LOCFRAME PSTACK, 0, STACK
        LOCFRAME XSTACK, 21, STACK
        LOCFRAME IOVERLAY, 0, STATIC
        LOCFRAME DOVERLAY, 0, STATIC
        ARGFRAME ISTACK, 0, STACK
        ARGFRAME PSTACK, 0, STACK
        ARGFRAME XSTACK, 21, STACK
        ARGFRAME IOVERLAY, 0, STATIC
        ARGFRAME DOVERLAY, 0, STATIC
        FUNCALL MT_SysOsalNVWrite, osal_nv_write
        LOCFRAME ISTACK, 0, STACK
        LOCFRAME PSTACK, 0, STACK
        LOCFRAME XSTACK, 23, STACK
        LOCFRAME IOVERLAY, 0, STATIC
        LOCFRAME DOVERLAY, 0, STATIC
        ARGFRAME ISTACK, 0, STACK
        ARGFRAME PSTACK, 0, STACK
        ARGFRAME XSTACK, 23, STACK
        ARGFRAME IOVERLAY, 0, STATIC
        ARGFRAME DOVERLAY, 0, STATIC
        FUNCALL MT_SysOsalNVWrite, ZMacSetReq
        LOCFRAME ISTACK, 0, STACK
        LOCFRAME PSTACK, 0, STACK
        LOCFRAME XSTACK, 19, STACK
        LOCFRAME IOVERLAY, 0, STATIC
        LOCFRAME DOVERLAY, 0, STATIC
        ARGFRAME ISTACK, 0, STACK
        ARGFRAME PSTACK, 0, STACK
        ARGFRAME XSTACK, 19, STACK
        ARGFRAME IOVERLAY, 0, STATIC
        ARGFRAME DOVERLAY, 0, STATIC
        FUNCALL MT_SysOsalNVWrite, MT_BuildAndSendZToolResponse
        LOCFRAME ISTACK, 0, STACK
        LOCFRAME PSTACK, 0, STACK
        LOCFRAME XSTACK, 19, STACK
        LOCFRAME IOVERLAY, 0, STATIC
        LOCFRAME DOVERLAY, 0, STATIC
        ARGFRAME ISTACK, 0, STACK
        ARGFRAME PSTACK, 0, STACK
        ARGFRAME XSTACK, 19, STACK
        ARGFRAME IOVERLAY, 0, STATIC
        ARGFRAME DOVERLAY, 0, STATIC
        REQUIRE ?V0
        REQUIRE ?V1
        REQUIRE ?V2
        REQUIRE ?V4
        REQUIRE ?V5
        REQUIRE ?V6
        REQUIRE ?V7
        REQUIRE ?V8
        REQUIRE ?V9
        MOV     A,#-0x12
        LCALL   ?BANKED_ENTER_XDATA
          CFI DPH0 load(1, XDATA, add(CFA_XSP16, literal(-1)))
          CFI DPL0 load(1, XDATA, add(CFA_XSP16, literal(-2)))
          CFI ?BRET_EXT load(1, XDATA, add(CFA_XSP16, literal(-3)))
          CFI ?RET_HIGH load(1, XDATA, add(CFA_XSP16, literal(-4)))
          CFI ?RET_LOW load(1, XDATA, add(CFA_XSP16, literal(-5)))
          CFI R7 load(1, XDATA, add(CFA_XSP16, literal(-6)))
          CFI V9 load(1, XDATA, add(CFA_XSP16, literal(-7)))
          CFI V8 load(1, XDATA, add(CFA_XSP16, literal(-8)))
          CFI V7 load(1, XDATA, add(CFA_XSP16, literal(-9)))
          CFI V6 load(1, XDATA, add(CFA_XSP16, literal(-10)))
          CFI V5 load(1, XDATA, add(CFA_XSP16, literal(-11)))
          CFI V4 load(1, XDATA, add(CFA_XSP16, literal(-12)))
          CFI V3 load(1, XDATA, add(CFA_XSP16, literal(-13)))
          CFI V2 load(1, XDATA, add(CFA_XSP16, literal(-14)))
          CFI V1 load(1, XDATA, add(CFA_XSP16, literal(-15)))
          CFI V0 load(1, XDATA, add(CFA_XSP16, literal(-16)))
          CFI VB load(1, XDATA, add(CFA_XSP16, literal(-17)))
          CFI R6 load(1, XDATA, add(CFA_XSP16, literal(-18)))
          CFI CFA_SP SP+0
          CFI CFA_XSP16 add(XSP16, 18)
        ; Saved register size: 18
        ; Auto size: 1
        MOV     A,#-0x1
        LCALL   ?ALLOC_XSTACK8
          CFI CFA_XSP16 add(XSP16, 19)
        MOV     ?V5,R3
//  658   uint8 cmdId;
//  659   uint16 nvId;
//  660   uint16 dataLen;
//  661   uint16 dataOfs;
//  662   uint16 nvItemLen;
//  663   uint8 rtrn = ZSuccess;
        MOV     DPL,?XSP + 0
        MOV     DPH,?XSP + 1
        CLR     A
        LCALL   ?Subroutine21 & 0xFFFF
//  664 
//  665   /* MT command ID */
//  666   cmdId = pBuf[MT_RPC_POS_CMD1];
??CrossCallReturnLabel_24:
        MOV     ?V2,A
//  667   /* Skip over RPC header */
//  668   pBuf += MT_RPC_FRAME_HDR_SZ;
        MOV     A,R2
        ADD     A,#0x3
        MOV     ?V4,A
        JNC     ??MT_SysOsalNVWrite_0
        INC     ?V5
//  669 
//  670   /* NV item ID */
//  671   nvId = BUILD_UINT16(pBuf[0], pBuf[1]);
??MT_SysOsalNVWrite_0:
        MOV     DPL,A
        MOV     DPH,?V5
        LCALL   ?Subroutine7 & 0xFFFF
//  672   
//  673   /* Get NV data offset & length */
//  674   if ( cmdId == MT_SYS_OSAL_NV_WRITE )
??CrossCallReturnLabel_3:
        MOV     A,#0x9
        XRL     A,?V2
        MOV     DPL,?V4
        MOV     DPH,?V5
        INC     DPTR
        INC     DPTR
        JNZ     ??MT_SysOsalNVWrite_1
//  675   {
//  676     /* MT_SYS_OSAL_NV_WRITE has 1-byte offset & length */
//  677     dataOfs = (uint16)pBuf[2];
        MOVX    A,@DPTR
        MOV     R6,A
        MOV     R7,#0x0
//  678     dataLen = (uint16)pBuf[3];
        MOV     DPL,?V4
        MOV     DPH,?V5
        INC     DPTR
        INC     DPTR
        INC     DPTR
        MOVX    A,@DPTR
        MOV     ?V6,A
        MOV     ?V7,R0
//  679     pBuf += 4;
        MOV     A,?V4
        ADD     A,#0x4
        SJMP    ??MT_SysOsalNVWrite_2
//  680   }
//  681   else
//  682   {
//  683     /* MT_SYS_OSAL_NV_WRITE_EXT has 2-byte offset & length */
//  684     dataOfs = BUILD_UINT16(pBuf[2], pBuf[3]);
??MT_SysOsalNVWrite_1:
        LCALL   ?Subroutine10 & 0xFFFF
??CrossCallReturnLabel_8:
        MOVX    A,@DPTR
        MOV     R1,A
        MOV     A,R2
        MOV     R6,A
        CLR     A
        ADDC    A,R1
        MOV     R7,A
//  685     dataLen = BUILD_UINT16(pBuf[4], pBuf[5]);
        MOV     DPL,?V4
        MOV     DPH,?V5
        INC     DPTR
        INC     DPTR
        INC     DPTR
        INC     DPTR
        LCALL   ?Subroutine10 & 0xFFFF
??CrossCallReturnLabel_9:
        INC     DPTR
        INC     DPTR
        MOVX    A,@DPTR
        MOV     R1,A
        MOV     A,R2
        MOV     ?V6,A
        CLR     A
        ADDC    A,R1
        MOV     ?V7,A
//  686     pBuf += 6;
        MOV     A,?V4
        ADD     A,#0x6
??MT_SysOsalNVWrite_2:
        MOV     ?V4,A
        JNC     ??MT_SysOsalNVWrite_3
        INC     ?V5
//  687   }
//  688 
//  689   /* Length of entire NV item data */
//  690   nvItemLen = osal_nv_item_len(nvId);
//  691   if ((dataOfs + dataLen) <= nvItemLen)
??MT_SysOsalNVWrite_3:
        ; Setup parameters for call to function osal_nv_item_len
        MOV     R2,?V0
        MOV     R3,?V1
        LCALL   `??osal_nv_item_len::?relay`; Banked call to: osal_nv_item_len
        MOV     A,R6
        ADD     A,?V6
        MOV     R0,A
        MOV     A,R7
        ADDC    A,?V7
        MOV     R1,A
        CLR     C
        MOV     A,R2
        SUBB    A,R0
        MOV     A,R3
        SUBB    A,R1
        JC      ??MT_SysOsalNVWrite_4
//  692   {
//  693     if (dataOfs == 0)
        MOV     A,R6
        ORL     A,R7
        JNZ     ??MT_SysOsalNVWrite_5
//  694     {
//  695       /* Set the Z-Globals value of this NV item */
//  696       zgSetItem( nvId, dataLen, pBuf );
        ; Setup parameters for call to function zgSetItem
        MOV     R0,#?V4
        LCALL   ?PUSH_XSTACK_I_TWO
          CFI CFA_XSP16 add(XSP16, 21)
        MOV     R4,?V6
        MOV     R5,?V7
        MOV     R2,?V0
        MOV     R3,?V1
        LCALL   `??zgSetItem::?relay`; Banked call to: zgSetItem
        MOV     A,#0x2
        LCALL   ?DEALLOC_XSTACK8
          CFI CFA_XSP16 add(XSP16, 19)
//  697     }
//  698     
//  699     if ((osal_nv_write(nvId, dataOfs, dataLen, pBuf)) == ZSUCCESS)
??MT_SysOsalNVWrite_5:
        ; Setup parameters for call to function osal_nv_write
        MOV     R0,#?V4
        LCALL   ?PUSH_XSTACK_I_TWO
          CFI CFA_XSP16 add(XSP16, 21)
        MOV     R0,#?V6
        LCALL   ?PUSH_XSTACK_I_TWO
          CFI CFA_XSP16 add(XSP16, 23)
        MOV     A,R6
        MOV     R4,A
        MOV     A,R7
        MOV     R5,A
        MOV     R2,?V0
        MOV     R3,?V1
        LCALL   `??osal_nv_write::?relay`; Banked call to: osal_nv_write
        MOV     A,#0x4
        LCALL   ?DEALLOC_XSTACK8
          CFI CFA_XSP16 add(XSP16, 19)
        MOV     A,R1
        JNZ     ??MT_SysOsalNVWrite_6
//  700     {
//  701       if (nvId == ZCD_NV_EXTADDR)
        MOV     A,#0x1
        XRL     A,?V0
        ORL     A,?V1
        JNZ     ??MT_SysOsalNVWrite_7
//  702       {
//  703         rtrn = ZMacSetReq(ZMacExtAddr, pBuf);
        ; Setup parameters for call to function ZMacSetReq
        MOV     R2,?V4
        MOV     R3,?V5
        MOV     R1,#-0x1e
        LCALL   `??ZMacSetReq::?relay`; Banked call to: ZMacSetReq
        MOV     A,R1
        MOV     DPL,?XSP + 0
        MOV     DPH,?XSP + 1
        SJMP    ??MT_SysOsalNVWrite_8
//  704       }
//  705     }
//  706     else
//  707     {
//  708       rtrn = NV_OPER_FAILED;
??MT_SysOsalNVWrite_6:
        MOV     DPL,?XSP + 0
        MOV     DPH,?XSP + 1
        MOV     A,#0xa
        SJMP    ??MT_SysOsalNVWrite_8
//  709     }
//  710   }
//  711   else
//  712   {
//  713     /* Bad length or/and offset */
//  714     rtrn = ZInvalidParameter;
??MT_SysOsalNVWrite_4:
        MOV     DPL,?XSP + 0
        MOV     DPH,?XSP + 1
        MOV     A,#0x2
??MT_SysOsalNVWrite_8:
        MOVX    @DPTR,A
//  715   }
//  716 
//  717   /* Build and send back the response */
//  718   MT_BuildAndSendZToolResponse(((uint8)MT_RPC_CMD_SRSP | (uint8)MT_RPC_SYS_SYS),
//  719                                  cmdId, 1, &rtrn);
??MT_SysOsalNVWrite_7:
        ; Setup parameters for call to function MT_BuildAndSendZToolResponse
        MOV     R4,?XSP + 0
        MOV     R5,?XSP + 1
        MOV     R3,#0x1
        MOV     R2,?V2
        MOV     R1,#0x61
        LCALL   `??MT_BuildAndSendZToolResponse::?relay`; Banked call to: MT_BuildAndSendZToolResponse
//  720 }
        MOV     A,#0x1
        LCALL   ?DEALLOC_XSTACK8
          CFI CFA_XSP16 add(XSP16, 18)
        MOV     R7,#0xa
        LJMP    ?BANKED_LEAVE_XDATA
          CFI EndBlock cfiBlock15

        RSEG BANKED_CODE:CODE:NOROOT(0)
?Subroutine10:
          CFI Block cfiCond16 Using cfiCommon0
          CFI Function MT_SysOsalNVWrite
          CFI Conditional ??CrossCallReturnLabel_8
          CFI R6 load(1, XDATA, add(CFA_XSP16, literal(-18)))
          CFI VB load(1, XDATA, add(CFA_XSP16, literal(-17)))
          CFI V0 load(1, XDATA, add(CFA_XSP16, literal(-16)))
          CFI V1 load(1, XDATA, add(CFA_XSP16, literal(-15)))
          CFI V2 load(1, XDATA, add(CFA_XSP16, literal(-14)))
          CFI V3 load(1, XDATA, add(CFA_XSP16, literal(-13)))
          CFI V4 load(1, XDATA, add(CFA_XSP16, literal(-12)))
          CFI V5 load(1, XDATA, add(CFA_XSP16, literal(-11)))
          CFI V6 load(1, XDATA, add(CFA_XSP16, literal(-10)))
          CFI V7 load(1, XDATA, add(CFA_XSP16, literal(-9)))
          CFI V8 load(1, XDATA, add(CFA_XSP16, literal(-8)))
          CFI V9 load(1, XDATA, add(CFA_XSP16, literal(-7)))
          CFI R7 load(1, XDATA, add(CFA_XSP16, literal(-6)))
          CFI ?RET_LOW load(1, XDATA, add(CFA_XSP16, literal(-5)))
          CFI ?RET_HIGH load(1, XDATA, add(CFA_XSP16, literal(-4)))
          CFI ?BRET_EXT load(1, XDATA, add(CFA_XSP16, literal(-3)))
          CFI DPL0 load(1, XDATA, add(CFA_XSP16, literal(-2)))
          CFI DPH0 load(1, XDATA, add(CFA_XSP16, literal(-1)))
          CFI CFA_SP SP+-2
          CFI CFA_XSP16 add(XSP16, 19)
          CFI Block cfiCond17 Using cfiCommon0
          CFI (cfiCond17) Function MT_SysOsalNVWrite
          CFI (cfiCond17) Conditional ??CrossCallReturnLabel_9
          CFI (cfiCond17) R6 load(1, XDATA, add(CFA_XSP16, literal(-18)))
          CFI (cfiCond17) VB load(1, XDATA, add(CFA_XSP16, literal(-17)))
          CFI (cfiCond17) V0 load(1, XDATA, add(CFA_XSP16, literal(-16)))
          CFI (cfiCond17) V1 load(1, XDATA, add(CFA_XSP16, literal(-15)))
          CFI (cfiCond17) V2 load(1, XDATA, add(CFA_XSP16, literal(-14)))
          CFI (cfiCond17) V3 load(1, XDATA, add(CFA_XSP16, literal(-13)))
          CFI (cfiCond17) V4 load(1, XDATA, add(CFA_XSP16, literal(-12)))
          CFI (cfiCond17) V5 load(1, XDATA, add(CFA_XSP16, literal(-11)))
          CFI (cfiCond17) V6 load(1, XDATA, add(CFA_XSP16, literal(-10)))
          CFI (cfiCond17) V7 load(1, XDATA, add(CFA_XSP16, literal(-9)))
          CFI (cfiCond17) V8 load(1, XDATA, add(CFA_XSP16, literal(-8)))
          CFI (cfiCond17) V9 load(1, XDATA, add(CFA_XSP16, literal(-7)))
          CFI (cfiCond17) R7 load(1, XDATA, add(CFA_XSP16, literal(-6)))
          CFI (cfiCond17) ?RET_LOW load(1, XDATA, add(CFA_XSP16, literal(-5)))
          CFI (cfiCond17) ?RET_HIGH load(1, XDATA, add(CFA_XSP16, literal(-4)))
          CFI (cfiCond17) ?BRET_EXT load(1, XDATA, add(CFA_XSP16, literal(-3)))
          CFI (cfiCond17) DPL0 load(1, XDATA, add(CFA_XSP16, literal(-2)))
          CFI (cfiCond17) DPH0 load(1, XDATA, add(CFA_XSP16, literal(-1)))
          CFI (cfiCond17) CFA_SP SP+-2
          CFI (cfiCond17) CFA_XSP16 add(XSP16, 19)
          CFI Block cfiPicker18 Using cfiCommon1
          CFI (cfiPicker18) NoFunction
          CFI (cfiPicker18) Picker
        MOVX    A,@DPTR
        MOV     R2,A
        MOV     DPL,?V4
        MOV     DPH,?V5
        INC     DPTR
        INC     DPTR
        INC     DPTR
        RET
          CFI EndBlock cfiCond16
          CFI EndBlock cfiCond17
          CFI EndBlock cfiPicker18

        RSEG BANKED_CODE:CODE:NOROOT(0)
?Subroutine7:
          CFI Block cfiCond19 Using cfiCommon0
          CFI Function MT_SysOsalNVRead
          CFI Conditional ??CrossCallReturnLabel_2
          CFI R6 load(1, XDATA, add(CFA_XSP16, literal(-20)))
          CFI VB load(1, XDATA, add(CFA_XSP16, literal(-19)))
          CFI V0 load(1, XDATA, add(CFA_XSP16, literal(-18)))
          CFI V1 load(1, XDATA, add(CFA_XSP16, literal(-17)))
          CFI V2 load(1, XDATA, add(CFA_XSP16, literal(-16)))
          CFI V3 load(1, XDATA, add(CFA_XSP16, literal(-15)))
          CFI V4 load(1, XDATA, add(CFA_XSP16, literal(-14)))
          CFI V5 load(1, XDATA, add(CFA_XSP16, literal(-13)))
          CFI V6 load(1, XDATA, add(CFA_XSP16, literal(-12)))
          CFI V7 load(1, XDATA, add(CFA_XSP16, literal(-11)))
          CFI V8 load(1, XDATA, add(CFA_XSP16, literal(-10)))
          CFI V9 load(1, XDATA, add(CFA_XSP16, literal(-9)))
          CFI V10 load(1, XDATA, add(CFA_XSP16, literal(-8)))
          CFI V11 load(1, XDATA, add(CFA_XSP16, literal(-7)))
          CFI R7 load(1, XDATA, add(CFA_XSP16, literal(-6)))
          CFI ?RET_LOW load(1, XDATA, add(CFA_XSP16, literal(-5)))
          CFI ?RET_HIGH load(1, XDATA, add(CFA_XSP16, literal(-4)))
          CFI ?BRET_EXT load(1, XDATA, add(CFA_XSP16, literal(-3)))
          CFI DPL0 load(1, XDATA, add(CFA_XSP16, literal(-2)))
          CFI DPH0 load(1, XDATA, add(CFA_XSP16, literal(-1)))
          CFI CFA_SP SP+-2
          CFI CFA_XSP16 add(XSP16, 22)
          CFI Block cfiCond20 Using cfiCommon0
          CFI (cfiCond20) Function MT_SysOsalNVWrite
          CFI (cfiCond20) Conditional ??CrossCallReturnLabel_3
          CFI (cfiCond20) R6 load(1, XDATA, add(CFA_XSP16, literal(-18)))
          CFI (cfiCond20) VB load(1, XDATA, add(CFA_XSP16, literal(-17)))
          CFI (cfiCond20) V0 load(1, XDATA, add(CFA_XSP16, literal(-16)))
          CFI (cfiCond20) V1 load(1, XDATA, add(CFA_XSP16, literal(-15)))
          CFI (cfiCond20) V2 load(1, XDATA, add(CFA_XSP16, literal(-14)))
          CFI (cfiCond20) V3 load(1, XDATA, add(CFA_XSP16, literal(-13)))
          CFI (cfiCond20) V4 load(1, XDATA, add(CFA_XSP16, literal(-12)))
          CFI (cfiCond20) V5 load(1, XDATA, add(CFA_XSP16, literal(-11)))
          CFI (cfiCond20) V6 load(1, XDATA, add(CFA_XSP16, literal(-10)))
          CFI (cfiCond20) V7 load(1, XDATA, add(CFA_XSP16, literal(-9)))
          CFI (cfiCond20) V8 load(1, XDATA, add(CFA_XSP16, literal(-8)))
          CFI (cfiCond20) V9 load(1, XDATA, add(CFA_XSP16, literal(-7)))
          CFI (cfiCond20) R7 load(1, XDATA, add(CFA_XSP16, literal(-6)))
          CFI (cfiCond20) ?RET_LOW load(1, XDATA, add(CFA_XSP16, literal(-5)))
          CFI (cfiCond20) ?RET_HIGH load(1, XDATA, add(CFA_XSP16, literal(-4)))
          CFI (cfiCond20) ?BRET_EXT load(1, XDATA, add(CFA_XSP16, literal(-3)))
          CFI (cfiCond20) DPL0 load(1, XDATA, add(CFA_XSP16, literal(-2)))
          CFI (cfiCond20) DPH0 load(1, XDATA, add(CFA_XSP16, literal(-1)))
          CFI (cfiCond20) CFA_SP SP+-2
          CFI (cfiCond20) CFA_XSP16 add(XSP16, 19)
          CFI Block cfiPicker21 Using cfiCommon1
          CFI (cfiPicker21) NoFunction
          CFI (cfiPicker21) Picker
        MOVX    A,@DPTR
        MOV     R2,A
        INC     DPTR
        MOVX    A,@DPTR
        MOV     R0,A
        CLR     A
        XCH     A,R0
        MOV     R1,A
        MOV     A,R2
        ADD     A,R0
        MOV     ?V0,A
        CLR     A
        ADDC    A,R1
        MOV     ?V1,A
        RET
          CFI EndBlock cfiCond19
          CFI EndBlock cfiCond20
          CFI EndBlock cfiPicker21
//  721 
//  722 /***************************************************************************************************
//  723  * @fn      MT_SysOsalNVItemInit
//  724  *
//  725  * @brief   Attempt to create an NV item
//  726  *
//  727  * @param   pBuf - pointer to the data
//  728  *
//  729  * @return  None
//  730  ***************************************************************************************************/

        RSEG BANKED_CODE:CODE:NOROOT(0)
//  731 void MT_SysOsalNVItemInit(uint8 *pBuf)
MT_SysOsalNVItemInit:
          CFI Block cfiBlock22 Using cfiCommon0
          CFI Function MT_SysOsalNVItemInit
        CODE
//  732 {
        FUNCALL MT_SysOsalNVItemInit, osal_nv_item_init
        LOCFRAME ISTACK, 0, STACK
        LOCFRAME PSTACK, 0, STACK
        LOCFRAME XSTACK, 17, STACK
        LOCFRAME IOVERLAY, 0, STATIC
        LOCFRAME DOVERLAY, 0, STATIC
        ARGFRAME ISTACK, 0, STACK
        ARGFRAME PSTACK, 0, STACK
        ARGFRAME XSTACK, 17, STACK
        ARGFRAME IOVERLAY, 0, STATIC
        ARGFRAME DOVERLAY, 0, STATIC
        FUNCALL MT_SysOsalNVItemInit, osal_nv_write
        LOCFRAME ISTACK, 0, STACK
        LOCFRAME PSTACK, 0, STACK
        LOCFRAME XSTACK, 19, STACK
        LOCFRAME IOVERLAY, 0, STATIC
        LOCFRAME DOVERLAY, 0, STATIC
        ARGFRAME ISTACK, 0, STACK
        ARGFRAME PSTACK, 0, STACK
        ARGFRAME XSTACK, 19, STACK
        ARGFRAME IOVERLAY, 0, STATIC
        ARGFRAME DOVERLAY, 0, STATIC
        FUNCALL MT_SysOsalNVItemInit, osal_nv_item_init
        LOCFRAME ISTACK, 0, STACK
        LOCFRAME PSTACK, 0, STACK
        LOCFRAME XSTACK, 17, STACK
        LOCFRAME IOVERLAY, 0, STATIC
        LOCFRAME DOVERLAY, 0, STATIC
        ARGFRAME ISTACK, 0, STACK
        ARGFRAME PSTACK, 0, STACK
        ARGFRAME XSTACK, 17, STACK
        ARGFRAME IOVERLAY, 0, STATIC
        ARGFRAME DOVERLAY, 0, STATIC
        FUNCALL MT_SysOsalNVItemInit, MT_BuildAndSendZToolResponse
        LOCFRAME ISTACK, 0, STACK
        LOCFRAME PSTACK, 0, STACK
        LOCFRAME XSTACK, 15, STACK
        LOCFRAME IOVERLAY, 0, STATIC
        LOCFRAME DOVERLAY, 0, STATIC
        ARGFRAME ISTACK, 0, STACK
        ARGFRAME PSTACK, 0, STACK
        ARGFRAME XSTACK, 15, STACK
        ARGFRAME IOVERLAY, 0, STATIC
        ARGFRAME DOVERLAY, 0, STATIC
        REQUIRE ?V0
        REQUIRE ?V1
        REQUIRE ?V2
        REQUIRE ?V3
        REQUIRE ?V4
        REQUIRE ?V5
        MOV     A,#-0xe
        LCALL   ?BANKED_ENTER_XDATA
          CFI DPH0 load(1, XDATA, add(CFA_XSP16, literal(-1)))
          CFI DPL0 load(1, XDATA, add(CFA_XSP16, literal(-2)))
          CFI ?BRET_EXT load(1, XDATA, add(CFA_XSP16, literal(-3)))
          CFI ?RET_HIGH load(1, XDATA, add(CFA_XSP16, literal(-4)))
          CFI ?RET_LOW load(1, XDATA, add(CFA_XSP16, literal(-5)))
          CFI R7 load(1, XDATA, add(CFA_XSP16, literal(-6)))
          CFI V5 load(1, XDATA, add(CFA_XSP16, literal(-7)))
          CFI V4 load(1, XDATA, add(CFA_XSP16, literal(-8)))
          CFI V3 load(1, XDATA, add(CFA_XSP16, literal(-9)))
          CFI V2 load(1, XDATA, add(CFA_XSP16, literal(-10)))
          CFI V1 load(1, XDATA, add(CFA_XSP16, literal(-11)))
          CFI V0 load(1, XDATA, add(CFA_XSP16, literal(-12)))
          CFI VB load(1, XDATA, add(CFA_XSP16, literal(-13)))
          CFI R6 load(1, XDATA, add(CFA_XSP16, literal(-14)))
          CFI CFA_SP SP+0
          CFI CFA_XSP16 add(XSP16, 14)
        ; Saved register size: 14
        ; Auto size: 1
        MOV     A,#-0x1
        LCALL   ?ALLOC_XSTACK8
          CFI CFA_XSP16 add(XSP16, 15)
        MOV     ?V1,R3
//  733   uint8 ret;
//  734   uint8 idLen;
//  735   uint16 nvId;
//  736   uint16 nvLen;
//  737 
//  738   /* Skip over RPC header */
//  739   pBuf += MT_RPC_FRAME_HDR_SZ;
        MOV     A,R2
        ADD     A,#0x3
        MOV     ?V0,A
        JNC     ??MT_SysOsalNVItemInit_0
        INC     ?V1
//  740 
//  741   /* NV item ID */
//  742   nvId = BUILD_UINT16(pBuf[0], pBuf[1]);
??MT_SysOsalNVItemInit_0:
        MOV     DPL,A
        MOV     DPH,?V1
        MOVX    A,@DPTR
        MOV     R2,A
        LCALL   ?Subroutine11 & 0xFFFF
//  743   /* NV item length */
//  744   nvLen = BUILD_UINT16(pBuf[2], pBuf[3]);
??CrossCallReturnLabel_11:
        MOV     DPL,?V0
        MOV     DPH,?V1
        INC     DPTR
        INC     DPTR
        MOVX    A,@DPTR
        MOV     R2,A
        MOV     DPL,?V0
        MOV     DPH,?V1
        INC     DPTR
        INC     DPTR
        INC     DPTR
        MOVX    A,@DPTR
        MOV     R1,A
        MOV     A,R2
        MOV     R4,A
        CLR     A
        ADDC    A,R1
        MOV     R5,A
//  745   /* Initialization data length */
//  746   idLen = pBuf[4];
        MOV     DPL,?V0
        MOV     DPH,?V1
        INC     DPTR
        INC     DPTR
        INC     DPTR
        INC     DPTR
        MOVX    A,@DPTR
        MOV     ?V2,A
//  747   pBuf += 5;
        MOV     A,?V0
        ADD     A,#0x5
        MOV     ?V0,A
        JNC     ??MT_SysOsalNVItemInit_1
        INC     ?V1
//  748 
//  749   if ( idLen < nvLen )
??MT_SysOsalNVItemInit_1:
        CLR     C
        MOV     A,?V2
        SUBB    A,R4
        CLR     A
        SUBB    A,R5
        JNC     ??MT_SysOsalNVItemInit_2
//  750   {
//  751     /* Attempt to create a new NV item */
//  752     ret = osal_nv_item_init( nvId, nvLen, NULL );
        ; Setup parameters for call to function osal_nv_item_init
        CLR     A
        MOV     ?V4,A
        MOV     ?V5,A
        MOV     R0,#?V4
        LCALL   ?PUSH_XSTACK_I_TWO
          CFI CFA_XSP16 add(XSP16, 17)
        MOV     A,R6
        MOV     R2,A
        MOV     A,R7
        MOV     R3,A
        LCALL   `??osal_nv_item_init::?relay`; Banked call to: osal_nv_item_init
        MOV     A,#0x2
        LCALL   ?DEALLOC_XSTACK8
          CFI CFA_XSP16 add(XSP16, 15)
        MOV     A,R1
        MOV     DPL,?XSP + 0
        MOV     DPH,?XSP + 1
        MOVX    @DPTR,A
//  753     if ( (ret == NV_ITEM_UNINIT) && (idLen > 0) )
        XRL     A,#0x9
        JNZ     ??MT_SysOsalNVItemInit_3
        MOV     A,?V2
        JZ      ??MT_SysOsalNVItemInit_3
//  754     {
//  755       /* Write initialization data to first part of new item */
//  756       (void) osal_nv_write( nvId, 0, (uint16)idLen, pBuf );
        ; Setup parameters for call to function osal_nv_write
        MOV     R0,#?V0
        LCALL   ?PUSH_XSTACK_I_TWO
          CFI CFA_XSP16 add(XSP16, 17)
        MOV     ?V3,#0x0
        MOV     R0,#?V2
        LCALL   ?PUSH_XSTACK_I_TWO
          CFI CFA_XSP16 add(XSP16, 19)
        MOV     R4,#0x0
        MOV     R5,#0x0
        MOV     A,R6
        MOV     R2,A
        MOV     A,R7
        MOV     R3,A
        LCALL   `??osal_nv_write::?relay`; Banked call to: osal_nv_write
        MOV     A,#0x4
        LCALL   ?DEALLOC_XSTACK8
          CFI CFA_XSP16 add(XSP16, 15)
        SJMP    ??MT_SysOsalNVItemInit_3
//  757     }
//  758   }
//  759   else
//  760   {
//  761     /* Attempt to create/initialize a new NV item */
//  762     ret = osal_nv_item_init( nvId, nvLen, pBuf );
??MT_SysOsalNVItemInit_2:
        ; Setup parameters for call to function osal_nv_item_init
        MOV     R0,#?V0
        LCALL   ?PUSH_XSTACK_I_TWO
          CFI CFA_XSP16 add(XSP16, 17)
        MOV     A,R6
        MOV     R2,A
        MOV     A,R7
        MOV     R3,A
        LCALL   `??osal_nv_item_init::?relay`; Banked call to: osal_nv_item_init
        MOV     A,#0x2
        LCALL   ?DEALLOC_XSTACK8
          CFI CFA_XSP16 add(XSP16, 15)
        MOV     A,R1
        MOV     DPL,?XSP + 0
        MOV     DPH,?XSP + 1
        MOVX    @DPTR,A
//  763   }
//  764 
//  765   /* Build and send back the response */
//  766   MT_BuildAndSendZToolResponse(((uint8)MT_RPC_CMD_SRSP | (uint8)MT_RPC_SYS_SYS),
//  767                                  MT_SYS_OSAL_NV_ITEM_INIT, 1, &ret);
??MT_SysOsalNVItemInit_3:
        ; Setup parameters for call to function MT_BuildAndSendZToolResponse
        MOV     R4,?XSP + 0
        MOV     R5,?XSP + 1
        MOV     R3,#0x1
        MOV     R2,#0x7
        MOV     R1,#0x61
        LCALL   `??MT_BuildAndSendZToolResponse::?relay`; Banked call to: MT_BuildAndSendZToolResponse
//  768 }
        MOV     A,#0x1
        LCALL   ?DEALLOC_XSTACK8
          CFI CFA_XSP16 add(XSP16, 14)
        MOV     R7,#0x6
        LJMP    ?BANKED_LEAVE_XDATA
          CFI EndBlock cfiBlock22

        RSEG BANKED_CODE:CODE:NOROOT(0)
?Subroutine11:
          CFI Block cfiCond23 Using cfiCommon0
          CFI Function MT_SysOsalNVRead
          CFI Conditional ??CrossCallReturnLabel_10
          CFI R6 load(1, XDATA, add(CFA_XSP16, literal(-20)))
          CFI VB load(1, XDATA, add(CFA_XSP16, literal(-19)))
          CFI V0 load(1, XDATA, add(CFA_XSP16, literal(-18)))
          CFI V1 load(1, XDATA, add(CFA_XSP16, literal(-17)))
          CFI V2 load(1, XDATA, add(CFA_XSP16, literal(-16)))
          CFI V3 load(1, XDATA, add(CFA_XSP16, literal(-15)))
          CFI V4 load(1, XDATA, add(CFA_XSP16, literal(-14)))
          CFI V5 load(1, XDATA, add(CFA_XSP16, literal(-13)))
          CFI V6 load(1, XDATA, add(CFA_XSP16, literal(-12)))
          CFI V7 load(1, XDATA, add(CFA_XSP16, literal(-11)))
          CFI V8 load(1, XDATA, add(CFA_XSP16, literal(-10)))
          CFI V9 load(1, XDATA, add(CFA_XSP16, literal(-9)))
          CFI V10 load(1, XDATA, add(CFA_XSP16, literal(-8)))
          CFI V11 load(1, XDATA, add(CFA_XSP16, literal(-7)))
          CFI R7 load(1, XDATA, add(CFA_XSP16, literal(-6)))
          CFI ?RET_LOW load(1, XDATA, add(CFA_XSP16, literal(-5)))
          CFI ?RET_HIGH load(1, XDATA, add(CFA_XSP16, literal(-4)))
          CFI ?BRET_EXT load(1, XDATA, add(CFA_XSP16, literal(-3)))
          CFI DPL0 load(1, XDATA, add(CFA_XSP16, literal(-2)))
          CFI DPH0 load(1, XDATA, add(CFA_XSP16, literal(-1)))
          CFI CFA_SP SP+-2
          CFI CFA_XSP16 add(XSP16, 22)
          CFI Block cfiCond24 Using cfiCommon0
          CFI (cfiCond24) Function MT_SysOsalNVItemInit
          CFI (cfiCond24) Conditional ??CrossCallReturnLabel_11
          CFI (cfiCond24) R6 load(1, XDATA, add(CFA_XSP16, literal(-14)))
          CFI (cfiCond24) VB load(1, XDATA, add(CFA_XSP16, literal(-13)))
          CFI (cfiCond24) V0 load(1, XDATA, add(CFA_XSP16, literal(-12)))
          CFI (cfiCond24) V1 load(1, XDATA, add(CFA_XSP16, literal(-11)))
          CFI (cfiCond24) V2 load(1, XDATA, add(CFA_XSP16, literal(-10)))
          CFI (cfiCond24) V3 load(1, XDATA, add(CFA_XSP16, literal(-9)))
          CFI (cfiCond24) V4 load(1, XDATA, add(CFA_XSP16, literal(-8)))
          CFI (cfiCond24) V5 load(1, XDATA, add(CFA_XSP16, literal(-7)))
          CFI (cfiCond24) R7 load(1, XDATA, add(CFA_XSP16, literal(-6)))
          CFI (cfiCond24) ?RET_LOW load(1, XDATA, add(CFA_XSP16, literal(-5)))
          CFI (cfiCond24) ?RET_HIGH load(1, XDATA, add(CFA_XSP16, literal(-4)))
          CFI (cfiCond24) ?BRET_EXT load(1, XDATA, add(CFA_XSP16, literal(-3)))
          CFI (cfiCond24) DPL0 load(1, XDATA, add(CFA_XSP16, literal(-2)))
          CFI (cfiCond24) DPH0 load(1, XDATA, add(CFA_XSP16, literal(-1)))
          CFI (cfiCond24) CFA_SP SP+-2
          CFI (cfiCond24) CFA_XSP16 add(XSP16, 15)
          CFI Block cfiPicker25 Using cfiCommon1
          CFI (cfiPicker25) NoFunction
          CFI (cfiPicker25) Picker
        INC     DPTR
        MOVX    A,@DPTR
        MOV     R0,A
        CLR     A
        XCH     A,R0
        MOV     R1,A
        MOV     A,R2
        ADD     A,R0
        MOV     R6,A
        CLR     A
        ADDC    A,R1
        MOV     R7,A
        RET
          CFI EndBlock cfiCond23
          CFI EndBlock cfiCond24
          CFI EndBlock cfiPicker25
//  769 
//  770 /***************************************************************************************************
//  771  * @fn      MT_SysOsalNVDelete
//  772  *
//  773  * @brief   Attempt to delete an NV item
//  774  *
//  775  * @param   pBuf - pointer to the data
//  776  *
//  777  * @return  None
//  778  ***************************************************************************************************/

        RSEG BANKED_CODE:CODE:NOROOT(0)
//  779 void MT_SysOsalNVDelete(uint8 *pBuf)
MT_SysOsalNVDelete:
          CFI Block cfiBlock26 Using cfiCommon0
          CFI Function MT_SysOsalNVDelete
        CODE
//  780 {
        FUNCALL MT_SysOsalNVDelete, osal_nv_delete
        LOCFRAME ISTACK, 0, STACK
        LOCFRAME PSTACK, 0, STACK
        LOCFRAME XSTACK, 10, STACK
        LOCFRAME IOVERLAY, 0, STATIC
        LOCFRAME DOVERLAY, 0, STATIC
        ARGFRAME ISTACK, 0, STACK
        ARGFRAME PSTACK, 0, STACK
        ARGFRAME XSTACK, 10, STACK
        ARGFRAME IOVERLAY, 0, STATIC
        ARGFRAME DOVERLAY, 0, STATIC
        FUNCALL MT_SysOsalNVDelete, MT_BuildAndSendZToolResponse
        LOCFRAME ISTACK, 0, STACK
        LOCFRAME PSTACK, 0, STACK
        LOCFRAME XSTACK, 10, STACK
        LOCFRAME IOVERLAY, 0, STATIC
        LOCFRAME DOVERLAY, 0, STATIC
        ARGFRAME ISTACK, 0, STACK
        ARGFRAME PSTACK, 0, STACK
        ARGFRAME XSTACK, 10, STACK
        ARGFRAME IOVERLAY, 0, STATIC
        ARGFRAME DOVERLAY, 0, STATIC
        MOV     A,#-0x9
        LCALL   ?BANKED_ENTER_XDATA
          CFI DPH0 load(1, XDATA, add(CFA_XSP16, literal(-1)))
          CFI DPL0 load(1, XDATA, add(CFA_XSP16, literal(-2)))
          CFI ?BRET_EXT load(1, XDATA, add(CFA_XSP16, literal(-3)))
          CFI ?RET_HIGH load(1, XDATA, add(CFA_XSP16, literal(-4)))
          CFI ?RET_LOW load(1, XDATA, add(CFA_XSP16, literal(-5)))
          CFI R7 load(1, XDATA, add(CFA_XSP16, literal(-6)))
          CFI V0 load(1, XDATA, add(CFA_XSP16, literal(-7)))
          CFI VB load(1, XDATA, add(CFA_XSP16, literal(-8)))
          CFI R6 load(1, XDATA, add(CFA_XSP16, literal(-9)))
          CFI CFA_SP SP+0
          CFI CFA_XSP16 add(XSP16, 9)
        ; Saved register size: 9
        ; Auto size: 1
        MOV     A,#-0x1
        LCALL   ?ALLOC_XSTACK8
          CFI CFA_XSP16 add(XSP16, 10)
//  781   uint16 nvId;
//  782   uint16 nvLen;
//  783   uint8 ret;
//  784 
//  785   /* Skip over RPC header */
//  786   pBuf += MT_RPC_FRAME_HDR_SZ;
        MOV     A,R2
        ADD     A,#0x3
        MOV     R2,A
        JNC     ??MT_SysOsalNVDelete_0
        INC     R3
//  787 
//  788   /* Get the ID */
//  789   nvId = BUILD_UINT16(pBuf[0], pBuf[1]);
//  790   /* Get the length */
//  791   nvLen = BUILD_UINT16(pBuf[2], pBuf[3]);
//  792 
//  793   /* Attempt to delete the NV item */
//  794   ret = osal_nv_delete( nvId, nvLen );
??MT_SysOsalNVDelete_0:
        ; Setup parameters for call to function osal_nv_delete
        MOV     DPL,R2
        MOV     DPH,R3
        INC     DPTR
        LCALL   ?Subroutine15 & 0xFFFF
??CrossCallReturnLabel_16:
        LCALL   ?Subroutine22 & 0xFFFF
??CrossCallReturnLabel_36:
        CLR     A
        ADDC    A,R1
        MOV     R5,A
        MOV     DPL,R2
        MOV     DPH,R3
        MOVX    A,@DPTR
        MOV     R6,A
        INC     DPTR
        MOVX    A,@DPTR
        MOV     R1,A
        MOV     A,R6
        MOV     R2,A
        CLR     A
        ADDC    A,R1
        MOV     R3,A
        LCALL   `??osal_nv_delete::?relay`; Banked call to: osal_nv_delete
        LCALL   ?Subroutine17 & 0xFFFF
//  795 
//  796   /* Build and send back the response */
//  797   MT_BuildAndSendZToolResponse(((uint8)MT_RPC_CMD_SRSP | (uint8)MT_RPC_SYS_SYS),
//  798                                  MT_SYS_OSAL_NV_DELETE, 1, &ret);
??CrossCallReturnLabel_38:
        MOV     R2,#0x12
        SJMP    ??Subroutine29_0
//  799 }
          CFI EndBlock cfiBlock26

        RSEG BANKED_CODE:CODE:NOROOT(0)
?Subroutine22:
          CFI Block cfiCond27 Using cfiCommon0
          CFI Function MT_SysOsalNVDelete
          CFI Conditional ??CrossCallReturnLabel_36
          CFI R6 load(1, XDATA, add(CFA_XSP16, literal(-9)))
          CFI VB load(1, XDATA, add(CFA_XSP16, literal(-8)))
          CFI V0 load(1, XDATA, add(CFA_XSP16, literal(-7)))
          CFI R7 load(1, XDATA, add(CFA_XSP16, literal(-6)))
          CFI ?RET_LOW load(1, XDATA, add(CFA_XSP16, literal(-5)))
          CFI ?RET_HIGH load(1, XDATA, add(CFA_XSP16, literal(-4)))
          CFI ?BRET_EXT load(1, XDATA, add(CFA_XSP16, literal(-3)))
          CFI DPL0 load(1, XDATA, add(CFA_XSP16, literal(-2)))
          CFI DPH0 load(1, XDATA, add(CFA_XSP16, literal(-1)))
          CFI CFA_SP SP+-2
          CFI CFA_XSP16 add(XSP16, 10)
          CFI Block cfiCond28 Using cfiCommon0
          CFI (cfiCond28) Function MT_SysOsalNVLength
          CFI (cfiCond28) Conditional ??CrossCallReturnLabel_37, ??CrossCallReturnLabel_4
          CFI (cfiCond28) R6 load(1, XDATA, add(CFA_XSP16, literal(-10)))
          CFI (cfiCond28) VB load(1, XDATA, add(CFA_XSP16, literal(-9)))
          CFI (cfiCond28) V0 load(1, XDATA, add(CFA_XSP16, literal(-8)))
          CFI (cfiCond28) V1 load(1, XDATA, add(CFA_XSP16, literal(-7)))
          CFI (cfiCond28) R7 load(1, XDATA, add(CFA_XSP16, literal(-6)))
          CFI (cfiCond28) ?RET_LOW load(1, XDATA, add(CFA_XSP16, literal(-5)))
          CFI (cfiCond28) ?RET_HIGH load(1, XDATA, add(CFA_XSP16, literal(-4)))
          CFI (cfiCond28) ?BRET_EXT load(1, XDATA, add(CFA_XSP16, literal(-3)))
          CFI (cfiCond28) DPL0 load(1, XDATA, add(CFA_XSP16, literal(-2)))
          CFI (cfiCond28) DPH0 load(1, XDATA, add(CFA_XSP16, literal(-1)))
          CFI (cfiCond28) CFA_SP SP+-4
          CFI (cfiCond28) CFA_XSP16 add(XSP16, 12)
          CFI Block cfiCond29 Using cfiCommon0
          CFI (cfiCond29) Function MT_SysZDiagsGetStatsAttr
          CFI (cfiCond29) Conditional ??CrossCallReturnLabel_37, ??CrossCallReturnLabel_5
          CFI (cfiCond29) R6 load(1, XDATA, add(CFA_XSP16, literal(-16)))
          CFI (cfiCond29) VB load(1, XDATA, add(CFA_XSP16, literal(-15)))
          CFI (cfiCond29) V0 load(1, XDATA, add(CFA_XSP16, literal(-14)))
          CFI (cfiCond29) V1 load(1, XDATA, add(CFA_XSP16, literal(-13)))
          CFI (cfiCond29) V2 load(1, XDATA, add(CFA_XSP16, literal(-12)))
          CFI (cfiCond29) V3 load(1, XDATA, add(CFA_XSP16, literal(-11)))
          CFI (cfiCond29) V4 load(1, XDATA, add(CFA_XSP16, literal(-10)))
          CFI (cfiCond29) V5 load(1, XDATA, add(CFA_XSP16, literal(-9)))
          CFI (cfiCond29) V6 load(1, XDATA, add(CFA_XSP16, literal(-8)))
          CFI (cfiCond29) V7 load(1, XDATA, add(CFA_XSP16, literal(-7)))
          CFI (cfiCond29) R7 load(1, XDATA, add(CFA_XSP16, literal(-6)))
          CFI (cfiCond29) ?RET_LOW load(1, XDATA, add(CFA_XSP16, literal(-5)))
          CFI (cfiCond29) ?RET_HIGH load(1, XDATA, add(CFA_XSP16, literal(-4)))
          CFI (cfiCond29) ?BRET_EXT load(1, XDATA, add(CFA_XSP16, literal(-3)))
          CFI (cfiCond29) DPL0 load(1, XDATA, add(CFA_XSP16, literal(-2)))
          CFI (cfiCond29) DPH0 load(1, XDATA, add(CFA_XSP16, literal(-1)))
          CFI (cfiCond29) CFA_SP SP+-4
          CFI (cfiCond29) CFA_XSP16 add(XSP16, 20)
          CFI Block cfiPicker30 Using cfiCommon1
          CFI (cfiPicker30) NoFunction
          CFI (cfiPicker30) Picker
        INC     DPTR
          CFI EndBlock cfiCond27
          CFI EndBlock cfiCond28
          CFI EndBlock cfiCond29
          CFI EndBlock cfiPicker30
        REQUIRE ??Subroutine27_0
        ; // Fall through to label ??Subroutine27_0

        RSEG BANKED_CODE:CODE:NOROOT(0)
??Subroutine27_0:
          CFI Block cfiCond31 Using cfiCommon0
          CFI Function MT_SysOsalStartTimer
          CFI Conditional ??CrossCallReturnLabel_35
          CFI R6 load(1, XDATA, add(CFA_XSP16, literal(-12)))
          CFI VB load(1, XDATA, add(CFA_XSP16, literal(-11)))
          CFI V0 load(1, XDATA, add(CFA_XSP16, literal(-10)))
          CFI V1 load(1, XDATA, add(CFA_XSP16, literal(-9)))
          CFI V2 load(1, XDATA, add(CFA_XSP16, literal(-8)))
          CFI V3 load(1, XDATA, add(CFA_XSP16, literal(-7)))
          CFI R7 load(1, XDATA, add(CFA_XSP16, literal(-6)))
          CFI ?RET_LOW load(1, XDATA, add(CFA_XSP16, literal(-5)))
          CFI ?RET_HIGH load(1, XDATA, add(CFA_XSP16, literal(-4)))
          CFI ?BRET_EXT load(1, XDATA, add(CFA_XSP16, literal(-3)))
          CFI DPL0 load(1, XDATA, add(CFA_XSP16, literal(-2)))
          CFI DPH0 load(1, XDATA, add(CFA_XSP16, literal(-1)))
          CFI CFA_SP SP+-2
          CFI CFA_XSP16 add(XSP16, 13)
          CFI Block cfiCond32 Using cfiCommon0
          CFI (cfiCond32) Function MT_SysOsalNVDelete
          CFI (cfiCond32) Conditional ??CrossCallReturnLabel_36
          CFI (cfiCond32) R6 load(1, XDATA, add(CFA_XSP16, literal(-9)))
          CFI (cfiCond32) VB load(1, XDATA, add(CFA_XSP16, literal(-8)))
          CFI (cfiCond32) V0 load(1, XDATA, add(CFA_XSP16, literal(-7)))
          CFI (cfiCond32) R7 load(1, XDATA, add(CFA_XSP16, literal(-6)))
          CFI (cfiCond32) ?RET_LOW load(1, XDATA, add(CFA_XSP16, literal(-5)))
          CFI (cfiCond32) ?RET_HIGH load(1, XDATA, add(CFA_XSP16, literal(-4)))
          CFI (cfiCond32) ?BRET_EXT load(1, XDATA, add(CFA_XSP16, literal(-3)))
          CFI (cfiCond32) DPL0 load(1, XDATA, add(CFA_XSP16, literal(-2)))
          CFI (cfiCond32) DPH0 load(1, XDATA, add(CFA_XSP16, literal(-1)))
          CFI (cfiCond32) CFA_SP SP+-2
          CFI (cfiCond32) CFA_XSP16 add(XSP16, 10)
          CFI Block cfiCond33 Using cfiCommon0
          CFI (cfiCond33) Function MT_SysOsalNVLength
          CFI (cfiCond33) Conditional ??CrossCallReturnLabel_37, ??CrossCallReturnLabel_4
          CFI (cfiCond33) R6 load(1, XDATA, add(CFA_XSP16, literal(-10)))
          CFI (cfiCond33) VB load(1, XDATA, add(CFA_XSP16, literal(-9)))
          CFI (cfiCond33) V0 load(1, XDATA, add(CFA_XSP16, literal(-8)))
          CFI (cfiCond33) V1 load(1, XDATA, add(CFA_XSP16, literal(-7)))
          CFI (cfiCond33) R7 load(1, XDATA, add(CFA_XSP16, literal(-6)))
          CFI (cfiCond33) ?RET_LOW load(1, XDATA, add(CFA_XSP16, literal(-5)))
          CFI (cfiCond33) ?RET_HIGH load(1, XDATA, add(CFA_XSP16, literal(-4)))
          CFI (cfiCond33) ?BRET_EXT load(1, XDATA, add(CFA_XSP16, literal(-3)))
          CFI (cfiCond33) DPL0 load(1, XDATA, add(CFA_XSP16, literal(-2)))
          CFI (cfiCond33) DPH0 load(1, XDATA, add(CFA_XSP16, literal(-1)))
          CFI (cfiCond33) CFA_SP SP+-4
          CFI (cfiCond33) CFA_XSP16 add(XSP16, 12)
          CFI Block cfiCond34 Using cfiCommon0
          CFI (cfiCond34) Function MT_SysZDiagsGetStatsAttr
          CFI (cfiCond34) Conditional ??CrossCallReturnLabel_37, ??CrossCallReturnLabel_5
          CFI (cfiCond34) R6 load(1, XDATA, add(CFA_XSP16, literal(-16)))
          CFI (cfiCond34) VB load(1, XDATA, add(CFA_XSP16, literal(-15)))
          CFI (cfiCond34) V0 load(1, XDATA, add(CFA_XSP16, literal(-14)))
          CFI (cfiCond34) V1 load(1, XDATA, add(CFA_XSP16, literal(-13)))
          CFI (cfiCond34) V2 load(1, XDATA, add(CFA_XSP16, literal(-12)))
          CFI (cfiCond34) V3 load(1, XDATA, add(CFA_XSP16, literal(-11)))
          CFI (cfiCond34) V4 load(1, XDATA, add(CFA_XSP16, literal(-10)))
          CFI (cfiCond34) V5 load(1, XDATA, add(CFA_XSP16, literal(-9)))
          CFI (cfiCond34) V6 load(1, XDATA, add(CFA_XSP16, literal(-8)))
          CFI (cfiCond34) V7 load(1, XDATA, add(CFA_XSP16, literal(-7)))
          CFI (cfiCond34) R7 load(1, XDATA, add(CFA_XSP16, literal(-6)))
          CFI (cfiCond34) ?RET_LOW load(1, XDATA, add(CFA_XSP16, literal(-5)))
          CFI (cfiCond34) ?RET_HIGH load(1, XDATA, add(CFA_XSP16, literal(-4)))
          CFI (cfiCond34) ?BRET_EXT load(1, XDATA, add(CFA_XSP16, literal(-3)))
          CFI (cfiCond34) DPL0 load(1, XDATA, add(CFA_XSP16, literal(-2)))
          CFI (cfiCond34) DPH0 load(1, XDATA, add(CFA_XSP16, literal(-1)))
          CFI (cfiCond34) CFA_SP SP+-4
          CFI (cfiCond34) CFA_XSP16 add(XSP16, 20)
          CFI Block cfiPicker35 Using cfiCommon1
          CFI (cfiPicker35) NoFunction
          CFI (cfiPicker35) Picker
        MOVX    A,@DPTR
        MOV     R0,A
        CLR     A
        XCH     A,R0
        MOV     R1,A
        MOV     A,R4
        ADD     A,R0
        RET
          CFI EndBlock cfiCond31
          CFI EndBlock cfiCond32
          CFI EndBlock cfiCond33
          CFI EndBlock cfiCond34
          CFI EndBlock cfiPicker35

        RSEG BANKED_CODE:CODE:NOROOT(0)
?Subroutine17:
          CFI Block cfiCond36 Using cfiCommon0
          CFI Function MT_SysOsalNVDelete
          CFI Conditional ??CrossCallReturnLabel_38
          CFI R6 load(1, XDATA, add(CFA_XSP16, literal(-9)))
          CFI VB load(1, XDATA, add(CFA_XSP16, literal(-8)))
          CFI V0 load(1, XDATA, add(CFA_XSP16, literal(-7)))
          CFI R7 load(1, XDATA, add(CFA_XSP16, literal(-6)))
          CFI ?RET_LOW load(1, XDATA, add(CFA_XSP16, literal(-5)))
          CFI ?RET_HIGH load(1, XDATA, add(CFA_XSP16, literal(-4)))
          CFI ?BRET_EXT load(1, XDATA, add(CFA_XSP16, literal(-3)))
          CFI DPL0 load(1, XDATA, add(CFA_XSP16, literal(-2)))
          CFI DPH0 load(1, XDATA, add(CFA_XSP16, literal(-1)))
          CFI CFA_SP SP+-2
          CFI CFA_XSP16 add(XSP16, 10)
          CFI Block cfiCond37 Using cfiCommon0
          CFI (cfiCond37) Function MT_SysZDiagsInitStats
          CFI (cfiCond37) Conditional ??CrossCallReturnLabel_39
          CFI (cfiCond37) DPL0 Frame(CFA_SP, 4)
          CFI (cfiCond37) DPH0 Frame(CFA_SP, 5)
          CFI (cfiCond37) CFA_SP SP+-7
          CFI (cfiCond37) CFA_XSP16 add(XSP16, 1)
          CFI Block cfiCond38 Using cfiCommon0
          CFI (cfiCond38) Function MT_SysZDiagsRestoreStatsFromNV
          CFI (cfiCond38) Conditional ??CrossCallReturnLabel_40
          CFI (cfiCond38) DPL0 Frame(CFA_SP, 4)
          CFI (cfiCond38) DPH0 Frame(CFA_SP, 5)
          CFI (cfiCond38) CFA_SP SP+-7
          CFI (cfiCond38) CFA_XSP16 add(XSP16, 1)
          CFI Block cfiCond39 Using cfiCommon0
          CFI (cfiCond39) Function MT_SysOsalTimerExpired
          CFI (cfiCond39) Conditional ??CrossCallReturnLabel_41
          CFI (cfiCond39) R6 load(1, XDATA, add(CFA_XSP16, literal(-9)))
          CFI (cfiCond39) VB load(1, XDATA, add(CFA_XSP16, literal(-8)))
          CFI (cfiCond39) V0 load(1, XDATA, add(CFA_XSP16, literal(-7)))
          CFI (cfiCond39) R7 load(1, XDATA, add(CFA_XSP16, literal(-6)))
          CFI (cfiCond39) ?RET_LOW load(1, XDATA, add(CFA_XSP16, literal(-5)))
          CFI (cfiCond39) ?RET_HIGH load(1, XDATA, add(CFA_XSP16, literal(-4)))
          CFI (cfiCond39) ?BRET_EXT load(1, XDATA, add(CFA_XSP16, literal(-3)))
          CFI (cfiCond39) DPL0 load(1, XDATA, add(CFA_XSP16, literal(-2)))
          CFI (cfiCond39) DPH0 load(1, XDATA, add(CFA_XSP16, literal(-1)))
          CFI (cfiCond39) CFA_SP SP+-2
          CFI (cfiCond39) CFA_XSP16 add(XSP16, 10)
          CFI Block cfiPicker40 Using cfiCommon1
          CFI (cfiPicker40) NoFunction
          CFI (cfiPicker40) Picker
        MOV     A,R1
        MOV     DPL,?XSP + 0
        MOV     DPH,?XSP + 1
          CFI EndBlock cfiCond36
          CFI EndBlock cfiCond37
          CFI EndBlock cfiCond38
          CFI EndBlock cfiCond39
          CFI EndBlock cfiPicker40
        REQUIRE ??Subroutine28_0
        ; // Fall through to label ??Subroutine28_0

        RSEG BANKED_CODE:CODE:NOROOT(0)
??Subroutine28_0:
          CFI Block cfiCond41 Using cfiCommon0
          CFI Function MT_SysOsalStartTimer
          CFI Conditional ??CrossCallReturnLabel_42
          CFI R6 load(1, XDATA, add(CFA_XSP16, literal(-12)))
          CFI VB load(1, XDATA, add(CFA_XSP16, literal(-11)))
          CFI V0 load(1, XDATA, add(CFA_XSP16, literal(-10)))
          CFI V1 load(1, XDATA, add(CFA_XSP16, literal(-9)))
          CFI V2 load(1, XDATA, add(CFA_XSP16, literal(-8)))
          CFI V3 load(1, XDATA, add(CFA_XSP16, literal(-7)))
          CFI R7 load(1, XDATA, add(CFA_XSP16, literal(-6)))
          CFI ?RET_LOW load(1, XDATA, add(CFA_XSP16, literal(-5)))
          CFI ?RET_HIGH load(1, XDATA, add(CFA_XSP16, literal(-4)))
          CFI ?BRET_EXT load(1, XDATA, add(CFA_XSP16, literal(-3)))
          CFI DPL0 load(1, XDATA, add(CFA_XSP16, literal(-2)))
          CFI DPH0 load(1, XDATA, add(CFA_XSP16, literal(-1)))
          CFI CFA_SP SP+-2
          CFI CFA_XSP16 add(XSP16, 13)
          CFI Block cfiCond42 Using cfiCommon0
          CFI (cfiCond42) Function MT_SysGpio
          CFI (cfiCond42) Conditional ??CrossCallReturnLabel_43
          CFI (cfiCond42) DPL0 Frame(CFA_SP, 4)
          CFI (cfiCond42) DPH0 Frame(CFA_SP, 5)
          CFI (cfiCond42) CFA_SP SP+-7
          CFI (cfiCond42) CFA_XSP16 add(XSP16, 1)
          CFI Block cfiCond43 Using cfiCommon0
          CFI (cfiCond43) Function MT_SysSetUtcTime
          CFI (cfiCond43) Conditional ??CrossCallReturnLabel_44
          CFI (cfiCond43) R6 load(1, XDATA, add(CFA_XSP16, literal(-16)))
          CFI (cfiCond43) VB load(1, XDATA, add(CFA_XSP16, literal(-15)))
          CFI (cfiCond43) V0 load(1, XDATA, add(CFA_XSP16, literal(-14)))
          CFI (cfiCond43) V1 load(1, XDATA, add(CFA_XSP16, literal(-13)))
          CFI (cfiCond43) V2 load(1, XDATA, add(CFA_XSP16, literal(-12)))
          CFI (cfiCond43) V3 load(1, XDATA, add(CFA_XSP16, literal(-11)))
          CFI (cfiCond43) V4 load(1, XDATA, add(CFA_XSP16, literal(-10)))
          CFI (cfiCond43) V5 load(1, XDATA, add(CFA_XSP16, literal(-9)))
          CFI (cfiCond43) V6 load(1, XDATA, add(CFA_XSP16, literal(-8)))
          CFI (cfiCond43) V7 load(1, XDATA, add(CFA_XSP16, literal(-7)))
          CFI (cfiCond43) R7 load(1, XDATA, add(CFA_XSP16, literal(-6)))
          CFI (cfiCond43) ?RET_LOW load(1, XDATA, add(CFA_XSP16, literal(-5)))
          CFI (cfiCond43) ?RET_HIGH load(1, XDATA, add(CFA_XSP16, literal(-4)))
          CFI (cfiCond43) ?BRET_EXT load(1, XDATA, add(CFA_XSP16, literal(-3)))
          CFI (cfiCond43) DPL0 load(1, XDATA, add(CFA_XSP16, literal(-2)))
          CFI (cfiCond43) DPH0 load(1, XDATA, add(CFA_XSP16, literal(-1)))
          CFI (cfiCond43) CFA_SP SP+-2
          CFI (cfiCond43) CFA_XSP16 add(XSP16, 24)
          CFI Block cfiCond44 Using cfiCommon0
          CFI (cfiCond44) Function MT_SysOsalNVDelete
          CFI (cfiCond44) Conditional ??CrossCallReturnLabel_38
          CFI (cfiCond44) R6 load(1, XDATA, add(CFA_XSP16, literal(-9)))
          CFI (cfiCond44) VB load(1, XDATA, add(CFA_XSP16, literal(-8)))
          CFI (cfiCond44) V0 load(1, XDATA, add(CFA_XSP16, literal(-7)))
          CFI (cfiCond44) R7 load(1, XDATA, add(CFA_XSP16, literal(-6)))
          CFI (cfiCond44) ?RET_LOW load(1, XDATA, add(CFA_XSP16, literal(-5)))
          CFI (cfiCond44) ?RET_HIGH load(1, XDATA, add(CFA_XSP16, literal(-4)))
          CFI (cfiCond44) ?BRET_EXT load(1, XDATA, add(CFA_XSP16, literal(-3)))
          CFI (cfiCond44) DPL0 load(1, XDATA, add(CFA_XSP16, literal(-2)))
          CFI (cfiCond44) DPH0 load(1, XDATA, add(CFA_XSP16, literal(-1)))
          CFI (cfiCond44) CFA_SP SP+-2
          CFI (cfiCond44) CFA_XSP16 add(XSP16, 10)
          CFI Block cfiCond45 Using cfiCommon0
          CFI (cfiCond45) Function MT_SysZDiagsInitStats
          CFI (cfiCond45) Conditional ??CrossCallReturnLabel_39
          CFI (cfiCond45) DPL0 Frame(CFA_SP, 4)
          CFI (cfiCond45) DPH0 Frame(CFA_SP, 5)
          CFI (cfiCond45) CFA_SP SP+-7
          CFI (cfiCond45) CFA_XSP16 add(XSP16, 1)
          CFI Block cfiCond46 Using cfiCommon0
          CFI (cfiCond46) Function MT_SysZDiagsRestoreStatsFromNV
          CFI (cfiCond46) Conditional ??CrossCallReturnLabel_40
          CFI (cfiCond46) DPL0 Frame(CFA_SP, 4)
          CFI (cfiCond46) DPH0 Frame(CFA_SP, 5)
          CFI (cfiCond46) CFA_SP SP+-7
          CFI (cfiCond46) CFA_XSP16 add(XSP16, 1)
          CFI Block cfiCond47 Using cfiCommon0
          CFI (cfiCond47) Function MT_SysOsalTimerExpired
          CFI (cfiCond47) Conditional ??CrossCallReturnLabel_41
          CFI (cfiCond47) R6 load(1, XDATA, add(CFA_XSP16, literal(-9)))
          CFI (cfiCond47) VB load(1, XDATA, add(CFA_XSP16, literal(-8)))
          CFI (cfiCond47) V0 load(1, XDATA, add(CFA_XSP16, literal(-7)))
          CFI (cfiCond47) R7 load(1, XDATA, add(CFA_XSP16, literal(-6)))
          CFI (cfiCond47) ?RET_LOW load(1, XDATA, add(CFA_XSP16, literal(-5)))
          CFI (cfiCond47) ?RET_HIGH load(1, XDATA, add(CFA_XSP16, literal(-4)))
          CFI (cfiCond47) ?BRET_EXT load(1, XDATA, add(CFA_XSP16, literal(-3)))
          CFI (cfiCond47) DPL0 load(1, XDATA, add(CFA_XSP16, literal(-2)))
          CFI (cfiCond47) DPH0 load(1, XDATA, add(CFA_XSP16, literal(-1)))
          CFI (cfiCond47) CFA_SP SP+-2
          CFI (cfiCond47) CFA_XSP16 add(XSP16, 10)
          CFI Block cfiPicker48 Using cfiCommon1
          CFI (cfiPicker48) NoFunction
          CFI (cfiPicker48) Picker
        LCALL   ??Subroutine36_0 & 0xFFFF
??CrossCallReturnLabel_52:
        MOV     R3,#0x1
        RET
          CFI EndBlock cfiCond41
          CFI EndBlock cfiCond42
          CFI EndBlock cfiCond43
          CFI EndBlock cfiCond44
          CFI EndBlock cfiCond45
          CFI EndBlock cfiCond46
          CFI EndBlock cfiCond47
          CFI EndBlock cfiPicker48

        RSEG BANKED_CODE:CODE:NOROOT(0)
?Subroutine0:
          CFI Block cfiBlock49 Using cfiCommon0
          CFI NoFunction
          CFI CFA_SP SP+0
          CFI CFA_XSP16 add(XSP16, 10)
          CFI VB load(1, XDATA, add(CFA_XSP16, literal(-8)))
          CFI DPL0 load(1, XDATA, add(CFA_XSP16, literal(-2)))
          CFI DPH0 load(1, XDATA, add(CFA_XSP16, literal(-1)))
          CFI R6 load(1, XDATA, add(CFA_XSP16, literal(-9)))
          CFI R7 load(1, XDATA, add(CFA_XSP16, literal(-6)))
          CFI V0 load(1, XDATA, add(CFA_XSP16, literal(-7)))
          CFI ?BRET_EXT load(1, XDATA, add(CFA_XSP16, literal(-3)))
          CFI ?RET_HIGH load(1, XDATA, add(CFA_XSP16, literal(-4)))
          CFI ?RET_LOW load(1, XDATA, add(CFA_XSP16, literal(-5)))
        MOV     R4,?XSP + 0
        MOV     R5,?XSP + 1
        MOV     R3,#0x1
        MOV     A,R6
        MOV     R2,A
          CFI EndBlock cfiBlock49
        REQUIRE ??Subroutine29_0
        ; // Fall through to label ??Subroutine29_0

        RSEG BANKED_CODE:CODE:NOROOT(0)
??Subroutine29_0:
          CFI Block cfiBlock50 Using cfiCommon0
          CFI NoFunction
          CFI CFA_SP SP+0
          CFI CFA_XSP16 add(XSP16, 10)
          CFI VB load(1, XDATA, add(CFA_XSP16, literal(-8)))
          CFI DPL0 load(1, XDATA, add(CFA_XSP16, literal(-2)))
          CFI DPH0 load(1, XDATA, add(CFA_XSP16, literal(-1)))
          CFI R6 load(1, XDATA, add(CFA_XSP16, literal(-9)))
          CFI R7 load(1, XDATA, add(CFA_XSP16, literal(-6)))
          CFI V0 load(1, XDATA, add(CFA_XSP16, literal(-7)))
          CFI ?BRET_EXT load(1, XDATA, add(CFA_XSP16, literal(-3)))
          CFI ?RET_HIGH load(1, XDATA, add(CFA_XSP16, literal(-4)))
          CFI ?RET_LOW load(1, XDATA, add(CFA_XSP16, literal(-5)))
        MOV     R1,#0x61
          CFI EndBlock cfiBlock50
        REQUIRE ??Subroutine30_0
        ; // Fall through to label ??Subroutine30_0

        RSEG BANKED_CODE:CODE:NOROOT(0)
??Subroutine30_0:
          CFI Block cfiBlock51 Using cfiCommon0
          CFI NoFunction
          CFI CFA_SP SP+0
          CFI CFA_XSP16 add(XSP16, 10)
          CFI VB load(1, XDATA, add(CFA_XSP16, literal(-8)))
          CFI DPL0 load(1, XDATA, add(CFA_XSP16, literal(-2)))
          CFI DPH0 load(1, XDATA, add(CFA_XSP16, literal(-1)))
          CFI R6 load(1, XDATA, add(CFA_XSP16, literal(-9)))
          CFI R7 load(1, XDATA, add(CFA_XSP16, literal(-6)))
          CFI V0 load(1, XDATA, add(CFA_XSP16, literal(-7)))
          CFI ?BRET_EXT load(1, XDATA, add(CFA_XSP16, literal(-3)))
          CFI ?RET_HIGH load(1, XDATA, add(CFA_XSP16, literal(-4)))
          CFI ?RET_LOW load(1, XDATA, add(CFA_XSP16, literal(-5)))
        LCALL   `??MT_BuildAndSendZToolResponse::?relay`; Banked call to: MT_BuildAndSendZToolResponse
        MOV     A,#0x1
        LCALL   ?DEALLOC_XSTACK8
          CFI EndBlock cfiBlock51
        REQUIRE ??Subroutine31_0
        ; // Fall through to label ??Subroutine31_0

        RSEG BANKED_CODE:CODE:NOROOT(0)
??Subroutine31_0:
          CFI Block cfiBlock52 Using cfiCommon0
          CFI NoFunction
          CFI CFA_SP SP+0
          CFI CFA_XSP16 add(XSP16, 9)
          CFI VB load(1, XDATA, add(CFA_XSP16, literal(-8)))
          CFI DPL0 load(1, XDATA, add(CFA_XSP16, literal(-2)))
          CFI DPH0 load(1, XDATA, add(CFA_XSP16, literal(-1)))
          CFI R6 load(1, XDATA, add(CFA_XSP16, literal(-9)))
          CFI R7 load(1, XDATA, add(CFA_XSP16, literal(-6)))
          CFI V0 load(1, XDATA, add(CFA_XSP16, literal(-7)))
          CFI ?BRET_EXT load(1, XDATA, add(CFA_XSP16, literal(-3)))
          CFI ?RET_HIGH load(1, XDATA, add(CFA_XSP16, literal(-4)))
          CFI ?RET_LOW load(1, XDATA, add(CFA_XSP16, literal(-5)))
        MOV     R7,#0x1
        LJMP    ?BANKED_LEAVE_XDATA
          CFI EndBlock cfiBlock52
//  800 
//  801 /***************************************************************************************************
//  802  * @fn      MT_SysOsalNVLength
//  803  *
//  804  * @brief   Attempt to get the length to an NV item
//  805  *
//  806  * @param   pBuf - pointer to the data
//  807  *
//  808  * @return  None
//  809  ***************************************************************************************************/

        RSEG BANKED_CODE:CODE:NOROOT(0)
//  810 void MT_SysOsalNVLength(uint8 *pBuf)
MT_SysOsalNVLength:
          CFI Block cfiBlock53 Using cfiCommon0
          CFI Function MT_SysOsalNVLength
        CODE
//  811 {
        FUNCALL MT_SysOsalNVLength, osal_nv_item_len
        LOCFRAME ISTACK, 0, STACK
        LOCFRAME PSTACK, 0, STACK
        LOCFRAME XSTACK, 12, STACK
        LOCFRAME IOVERLAY, 0, STATIC
        LOCFRAME DOVERLAY, 0, STATIC
        ARGFRAME ISTACK, 0, STACK
        ARGFRAME PSTACK, 0, STACK
        ARGFRAME XSTACK, 12, STACK
        ARGFRAME IOVERLAY, 0, STATIC
        ARGFRAME DOVERLAY, 0, STATIC
        FUNCALL MT_SysOsalNVLength, MT_BuildAndSendZToolResponse
        LOCFRAME ISTACK, 0, STACK
        LOCFRAME PSTACK, 0, STACK
        LOCFRAME XSTACK, 12, STACK
        LOCFRAME IOVERLAY, 0, STATIC
        LOCFRAME DOVERLAY, 0, STATIC
        ARGFRAME ISTACK, 0, STACK
        ARGFRAME PSTACK, 0, STACK
        ARGFRAME XSTACK, 12, STACK
        ARGFRAME IOVERLAY, 0, STATIC
        ARGFRAME DOVERLAY, 0, STATIC
        REQUIRE ?V0
        REQUIRE ?V1
        MOV     A,#-0xa
        LCALL   ?BANKED_ENTER_XDATA
          CFI DPH0 load(1, XDATA, add(CFA_XSP16, literal(-1)))
          CFI DPL0 load(1, XDATA, add(CFA_XSP16, literal(-2)))
          CFI ?BRET_EXT load(1, XDATA, add(CFA_XSP16, literal(-3)))
          CFI ?RET_HIGH load(1, XDATA, add(CFA_XSP16, literal(-4)))
          CFI ?RET_LOW load(1, XDATA, add(CFA_XSP16, literal(-5)))
          CFI R7 load(1, XDATA, add(CFA_XSP16, literal(-6)))
          CFI V1 load(1, XDATA, add(CFA_XSP16, literal(-7)))
          CFI V0 load(1, XDATA, add(CFA_XSP16, literal(-8)))
          CFI VB load(1, XDATA, add(CFA_XSP16, literal(-9)))
          CFI R6 load(1, XDATA, add(CFA_XSP16, literal(-10)))
          CFI CFA_SP SP+0
          CFI CFA_XSP16 add(XSP16, 10)
        ; Saved register size: 10
        ; Auto size: 2
        MOV     A,#-0x2
        LCALL   ?ALLOC_XSTACK8
          CFI CFA_XSP16 add(XSP16, 12)
//  812   uint16 nvId;
//  813   uint16 nvLen;
//  814   uint8 rsp[2];
//  815 
//  816   /* Skip over RPC header */
//  817   pBuf += MT_RPC_FRAME_HDR_SZ;
        MOV     A,R2
        ADD     A,#0x3
        MOV     R2,A
        JNC     ??MT_SysOsalNVLength_0
        INC     R3
//  818 
//  819   /* Get the ID */
//  820   nvId = BUILD_UINT16(pBuf[0], pBuf[1]);
//  821 
//  822   /* Attempt to get NV item length */
//  823   nvLen = osal_nv_item_len( nvId );
??MT_SysOsalNVLength_0:
        ; Setup parameters for call to function osal_nv_item_len
        LCALL   ?Subroutine8 & 0xFFFF
??CrossCallReturnLabel_4:
        LCALL   `??osal_nv_item_len::?relay`; Banked call to: osal_nv_item_len
//  824   rsp[0] = LO_UINT16( nvLen );
        MOV     DPL,?XSP + 0
        MOV     DPH,?XSP + 1
        MOV     A,R2
        MOVX    @DPTR,A
//  825   rsp[1] = HI_UINT16( nvLen );
        MOV     A,#0x1
        LCALL   ?XSTACK_DISP0_8
        LCALL   ?Subroutine18 & 0xFFFF
//  826 
//  827   /* Build and send back the response */
//  828   MT_BuildAndSendZToolResponse(((uint8)MT_RPC_CMD_SRSP | (uint8)MT_RPC_SYS_SYS),
//  829                                  MT_SYS_OSAL_NV_LENGTH, 2, rsp);
??CrossCallReturnLabel_45:
        MOV     R2,#0x13
        LJMP    ?Subroutine2 & 0xFFFF
//  830 }
          CFI EndBlock cfiBlock53
//  831 #endif // !defined(CC253X_MACNP)
//  832 
//  833 /***************************************************************************************************
//  834  * @fn      MT_SysOsalStartTimer
//  835  *
//  836  * @brief
//  837  *
//  838  * @param   uint8 pBuf - pointer to the data
//  839  *
//  840  * @return  None
//  841  ***************************************************************************************************/

        RSEG BANKED_CODE:CODE:NOROOT(0)
//  842 void MT_SysOsalStartTimer(uint8 *pBuf)
MT_SysOsalStartTimer:
          CFI Block cfiBlock54 Using cfiCommon0
          CFI Function MT_SysOsalStartTimer
        CODE
//  843 {
        FUNCALL MT_SysOsalStartTimer, osal_start_timerEx
        LOCFRAME ISTACK, 0, STACK
        LOCFRAME PSTACK, 0, STACK
        LOCFRAME XSTACK, 17, STACK
        LOCFRAME IOVERLAY, 0, STATIC
        LOCFRAME DOVERLAY, 0, STATIC
        ARGFRAME ISTACK, 0, STACK
        ARGFRAME PSTACK, 0, STACK
        ARGFRAME XSTACK, 17, STACK
        ARGFRAME IOVERLAY, 0, STATIC
        ARGFRAME DOVERLAY, 0, STATIC
        FUNCALL MT_SysOsalStartTimer, MT_BuildAndSendZToolResponse
        LOCFRAME ISTACK, 0, STACK
        LOCFRAME PSTACK, 0, STACK
        LOCFRAME XSTACK, 13, STACK
        LOCFRAME IOVERLAY, 0, STATIC
        LOCFRAME DOVERLAY, 0, STATIC
        ARGFRAME ISTACK, 0, STACK
        ARGFRAME PSTACK, 0, STACK
        ARGFRAME XSTACK, 13, STACK
        ARGFRAME IOVERLAY, 0, STATIC
        ARGFRAME DOVERLAY, 0, STATIC
        REQUIRE ?V0
        REQUIRE ?V1
        REQUIRE ?V2
        REQUIRE ?V3
        MOV     A,#-0xc
        LCALL   ?BANKED_ENTER_XDATA
          CFI DPH0 load(1, XDATA, add(CFA_XSP16, literal(-1)))
          CFI DPL0 load(1, XDATA, add(CFA_XSP16, literal(-2)))
          CFI ?BRET_EXT load(1, XDATA, add(CFA_XSP16, literal(-3)))
          CFI ?RET_HIGH load(1, XDATA, add(CFA_XSP16, literal(-4)))
          CFI ?RET_LOW load(1, XDATA, add(CFA_XSP16, literal(-5)))
          CFI R7 load(1, XDATA, add(CFA_XSP16, literal(-6)))
          CFI V3 load(1, XDATA, add(CFA_XSP16, literal(-7)))
          CFI V2 load(1, XDATA, add(CFA_XSP16, literal(-8)))
          CFI V1 load(1, XDATA, add(CFA_XSP16, literal(-9)))
          CFI V0 load(1, XDATA, add(CFA_XSP16, literal(-10)))
          CFI VB load(1, XDATA, add(CFA_XSP16, literal(-11)))
          CFI R6 load(1, XDATA, add(CFA_XSP16, literal(-12)))
          CFI CFA_SP SP+0
          CFI CFA_XSP16 add(XSP16, 12)
        ; Saved register size: 12
        ; Auto size: 1
        MOV     A,#-0x1
        LCALL   ?ALLOC_XSTACK8
          CFI CFA_XSP16 add(XSP16, 13)
//  844   uint16 eventId;
//  845   uint8 retValue = ZFailure;
        LCALL   ?Subroutine13 & 0xFFFF
//  846   uint8 cmdId;
//  847 
//  848   /* parse header */
//  849   cmdId = pBuf[MT_RPC_POS_CMD1];
//  850   pBuf += MT_RPC_FRAME_HDR_SZ;
??CrossCallReturnLabel_32:
        MOV     R2,A
        JNC     ??MT_SysOsalStartTimer_0
        INC     R3
//  851 
//  852   if (*pBuf <= 3)
??MT_SysOsalStartTimer_0:
        MOV     DPL,R2
        MOV     DPH,R3
        MOVX    A,@DPTR
        CLR     C
        SUBB    A,#0x4
        JNC     ??MT_SysOsalStartTimer_1
//  853   {
//  854     eventId = (uint16) MT_SysOsalEventId[*pBuf];
//  855     retValue = osal_start_timerEx(MT_TaskID, eventId, BUILD_UINT16(pBuf[1], pBuf[2]));
        ; Setup parameters for call to function osal_start_timerEx
        LCALL   ?Subroutine15 & 0xFFFF
//  856   }
??CrossCallReturnLabel_17:
        LCALL   ??Subroutine27_0 & 0xFFFF
??CrossCallReturnLabel_35:
        MOV     ?V0,A
        CLR     A
        ADDC    A,R1
        MOV     ?V1,A
        CLR     A
        MOV     ?V2,A
        MOV     ?V3,A
        MOV     R0,#?V0
        LCALL   ?PUSH_XSTACK_I_FOUR
          CFI CFA_XSP16 add(XSP16, 17)
        MOV     DPL,R2
        MOV     DPH,R3
        LCALL   ?Subroutine6 & 0xFFFF
??CrossCallReturnLabel_0:
        LCALL   `??osal_start_timerEx::?relay`; Banked call to: osal_start_timerEx
        MOV     A,#0x4
        LCALL   ?DEALLOC_XSTACK8
          CFI CFA_XSP16 add(XSP16, 13)
        MOV     A,R1
        MOV     DPL,?XSP + 0
        MOV     DPH,?XSP + 1
        SJMP    ??MT_SysOsalStartTimer_2
//  857   else
//  858   {
//  859     retValue = ZInvalidParameter;
??MT_SysOsalStartTimer_1:
        MOV     DPL,?XSP + 0
        MOV     DPH,?XSP + 1
        MOV     A,#0x2
//  860   }
??MT_SysOsalStartTimer_2:
        LCALL   ??Subroutine28_0 & 0xFFFF
//  861 
//  862   /* Build and send back the response */
//  863   MT_BuildAndSendZToolResponse(((uint8)MT_RPC_CMD_SRSP | (uint8)MT_RPC_SYS_SYS), cmdId, 1, &retValue);
??CrossCallReturnLabel_42:
        MOV     A,R6
        MOV     R2,A
        MOV     R1,#0x61
        LCALL   `??MT_BuildAndSendZToolResponse::?relay`; Banked call to: MT_BuildAndSendZToolResponse
//  864 }
        MOV     A,#0x1
          CFI EndBlock cfiBlock54
        REQUIRE ?Subroutine3
        ; // Fall through to label ?Subroutine3

        RSEG BANKED_CODE:CODE:NOROOT(0)
?Subroutine3:
          CFI Block cfiBlock55 Using cfiCommon0
          CFI NoFunction
          CFI CFA_SP SP+0
          CFI CFA_XSP16 add(XSP16, 13)
          CFI VB load(1, XDATA, add(CFA_XSP16, literal(-11)))
          CFI DPL0 load(1, XDATA, add(CFA_XSP16, literal(-2)))
          CFI DPH0 load(1, XDATA, add(CFA_XSP16, literal(-1)))
          CFI R6 load(1, XDATA, add(CFA_XSP16, literal(-12)))
          CFI R7 load(1, XDATA, add(CFA_XSP16, literal(-6)))
          CFI V0 load(1, XDATA, add(CFA_XSP16, literal(-10)))
          CFI V1 load(1, XDATA, add(CFA_XSP16, literal(-9)))
          CFI V2 load(1, XDATA, add(CFA_XSP16, literal(-8)))
          CFI V3 load(1, XDATA, add(CFA_XSP16, literal(-7)))
          CFI ?BRET_EXT load(1, XDATA, add(CFA_XSP16, literal(-3)))
          CFI ?RET_HIGH load(1, XDATA, add(CFA_XSP16, literal(-4)))
          CFI ?RET_LOW load(1, XDATA, add(CFA_XSP16, literal(-5)))
          CFI Invalid
        LCALL   ?DEALLOC_XSTACK8
          CFI CFA_XSP16 add(XSP16, 12)
          CFI Valid
        MOV     R7,#0x4
        LJMP    ?BANKED_LEAVE_XDATA
          CFI EndBlock cfiBlock55

        RSEG BANKED_CODE:CODE:NOROOT(0)
?Subroutine15:
          CFI Block cfiCond56 Using cfiCommon0
          CFI Function MT_SysOsalNVDelete
          CFI Conditional ??CrossCallReturnLabel_16
          CFI R6 load(1, XDATA, add(CFA_XSP16, literal(-9)))
          CFI VB load(1, XDATA, add(CFA_XSP16, literal(-8)))
          CFI V0 load(1, XDATA, add(CFA_XSP16, literal(-7)))
          CFI R7 load(1, XDATA, add(CFA_XSP16, literal(-6)))
          CFI ?RET_LOW load(1, XDATA, add(CFA_XSP16, literal(-5)))
          CFI ?RET_HIGH load(1, XDATA, add(CFA_XSP16, literal(-4)))
          CFI ?BRET_EXT load(1, XDATA, add(CFA_XSP16, literal(-3)))
          CFI DPL0 load(1, XDATA, add(CFA_XSP16, literal(-2)))
          CFI DPH0 load(1, XDATA, add(CFA_XSP16, literal(-1)))
          CFI CFA_SP SP+-2
          CFI CFA_XSP16 add(XSP16, 10)
          CFI Block cfiCond57 Using cfiCommon0
          CFI (cfiCond57) Function MT_SysOsalStartTimer
          CFI (cfiCond57) Conditional ??CrossCallReturnLabel_17
          CFI (cfiCond57) R6 load(1, XDATA, add(CFA_XSP16, literal(-12)))
          CFI (cfiCond57) VB load(1, XDATA, add(CFA_XSP16, literal(-11)))
          CFI (cfiCond57) V0 load(1, XDATA, add(CFA_XSP16, literal(-10)))
          CFI (cfiCond57) V1 load(1, XDATA, add(CFA_XSP16, literal(-9)))
          CFI (cfiCond57) V2 load(1, XDATA, add(CFA_XSP16, literal(-8)))
          CFI (cfiCond57) V3 load(1, XDATA, add(CFA_XSP16, literal(-7)))
          CFI (cfiCond57) R7 load(1, XDATA, add(CFA_XSP16, literal(-6)))
          CFI (cfiCond57) ?RET_LOW load(1, XDATA, add(CFA_XSP16, literal(-5)))
          CFI (cfiCond57) ?RET_HIGH load(1, XDATA, add(CFA_XSP16, literal(-4)))
          CFI (cfiCond57) ?BRET_EXT load(1, XDATA, add(CFA_XSP16, literal(-3)))
          CFI (cfiCond57) DPL0 load(1, XDATA, add(CFA_XSP16, literal(-2)))
          CFI (cfiCond57) DPH0 load(1, XDATA, add(CFA_XSP16, literal(-1)))
          CFI (cfiCond57) CFA_SP SP+-2
          CFI (cfiCond57) CFA_XSP16 add(XSP16, 13)
          CFI Block cfiPicker58 Using cfiCommon1
          CFI (cfiPicker58) NoFunction
          CFI (cfiPicker58) Picker
        INC     DPTR
        MOVX    A,@DPTR
        MOV     R4,A
        MOV     DPL,R2
        MOV     DPH,R3
        INC     DPTR
        INC     DPTR
        RET
          CFI EndBlock cfiCond56
          CFI EndBlock cfiCond57
          CFI EndBlock cfiPicker58
//  865 
//  866 /***************************************************************************************************
//  867  * @fn      MT_SysOsalStopTimer
//  868  *
//  869  * @brief
//  870  *
//  871  * @param   uint8 pBuf - pointer to the data
//  872  *
//  873  * @return  None
//  874  ***************************************************************************************************/

        RSEG BANKED_CODE:CODE:NOROOT(0)
//  875 void MT_SysOsalStopTimer(uint8 *pBuf)
MT_SysOsalStopTimer:
          CFI Block cfiBlock59 Using cfiCommon0
          CFI Function MT_SysOsalStopTimer
        CODE
//  876 {
        FUNCALL MT_SysOsalStopTimer, osal_stop_timerEx
        LOCFRAME ISTACK, 0, STACK
        LOCFRAME PSTACK, 0, STACK
        LOCFRAME XSTACK, 10, STACK
        LOCFRAME IOVERLAY, 0, STATIC
        LOCFRAME DOVERLAY, 0, STATIC
        ARGFRAME ISTACK, 0, STACK
        ARGFRAME PSTACK, 0, STACK
        ARGFRAME XSTACK, 10, STACK
        ARGFRAME IOVERLAY, 0, STATIC
        ARGFRAME DOVERLAY, 0, STATIC
        FUNCALL MT_SysOsalStopTimer, MT_BuildAndSendZToolResponse
        LOCFRAME ISTACK, 0, STACK
        LOCFRAME PSTACK, 0, STACK
        LOCFRAME XSTACK, 10, STACK
        LOCFRAME IOVERLAY, 0, STATIC
        LOCFRAME DOVERLAY, 0, STATIC
        ARGFRAME ISTACK, 0, STACK
        ARGFRAME PSTACK, 0, STACK
        ARGFRAME XSTACK, 10, STACK
        ARGFRAME IOVERLAY, 0, STATIC
        ARGFRAME DOVERLAY, 0, STATIC
        MOV     A,#-0x9
        LCALL   ?BANKED_ENTER_XDATA
          CFI DPH0 load(1, XDATA, add(CFA_XSP16, literal(-1)))
          CFI DPL0 load(1, XDATA, add(CFA_XSP16, literal(-2)))
          CFI ?BRET_EXT load(1, XDATA, add(CFA_XSP16, literal(-3)))
          CFI ?RET_HIGH load(1, XDATA, add(CFA_XSP16, literal(-4)))
          CFI ?RET_LOW load(1, XDATA, add(CFA_XSP16, literal(-5)))
          CFI R7 load(1, XDATA, add(CFA_XSP16, literal(-6)))
          CFI V0 load(1, XDATA, add(CFA_XSP16, literal(-7)))
          CFI VB load(1, XDATA, add(CFA_XSP16, literal(-8)))
          CFI R6 load(1, XDATA, add(CFA_XSP16, literal(-9)))
          CFI CFA_SP SP+0
          CFI CFA_XSP16 add(XSP16, 9)
        ; Saved register size: 9
        ; Auto size: 1
        MOV     A,#-0x1
        LCALL   ?ALLOC_XSTACK8
          CFI CFA_XSP16 add(XSP16, 10)
//  877   uint16 eventId;
//  878   uint8 retValue = ZFailure;
        MOV     DPL,?XSP + 0
        MOV     DPH,?XSP + 1
        MOV     A,#0x1
        LCALL   ?Subroutine21 & 0xFFFF
//  879   uint8 cmdId;
//  880 
//  881   /* parse header */
//  882   cmdId = pBuf[MT_RPC_POS_CMD1];
??CrossCallReturnLabel_25:
        MOV     R6,A
//  883   pBuf += MT_RPC_FRAME_HDR_SZ;
//  884 
//  885   if (*pBuf <= 3)
        MOV     DPL,R2
        MOV     DPH,R3
        INC     DPTR
        INC     DPTR
        INC     DPTR
        MOVX    A,@DPTR
        CLR     C
        SUBB    A,#0x4
        JNC     ??MT_SysOsalStopTimer_0
//  886   {
//  887     eventId = (uint16) MT_SysOsalEventId[*pBuf];
//  888     retValue = osal_stop_timerEx(MT_TaskID, eventId);
        ; Setup parameters for call to function osal_stop_timerEx
        MOV     DPL,R2
        MOV     DPH,R3
        INC     DPTR
        INC     DPTR
        INC     DPTR
        LCALL   ?Subroutine6 & 0xFFFF
//  889   }
??CrossCallReturnLabel_1:
        LCALL   `??osal_stop_timerEx::?relay`; Banked call to: osal_stop_timerEx
        MOV     A,R1
        MOV     DPL,?XSP + 0
        MOV     DPH,?XSP + 1
        SJMP    ??MT_SysOsalStopTimer_1
//  890   else
//  891   {
//  892     retValue = ZInvalidParameter;
??MT_SysOsalStopTimer_0:
        MOV     DPL,?XSP + 0
        MOV     DPH,?XSP + 1
        MOV     A,#0x2
??MT_SysOsalStopTimer_1:
        MOVX    @DPTR,A
//  893   }
//  894 
//  895   /* Build and send back the response */
//  896   MT_BuildAndSendZToolResponse(((uint8)MT_RPC_CMD_SRSP | (uint8)MT_RPC_SYS_SYS), cmdId, 1, &retValue );
        ; Setup parameters for call to function MT_BuildAndSendZToolResponse
        LJMP    ?Subroutine0 & 0xFFFF
//  897 }
          CFI EndBlock cfiBlock59

        RSEG BANKED_CODE:CODE:NOROOT(0)
?Subroutine21:
          CFI Block cfiCond60 Using cfiCommon0
          CFI Function MT_SysOsalNVWrite
          CFI Conditional ??CrossCallReturnLabel_24
          CFI R6 load(1, XDATA, add(CFA_XSP16, literal(-18)))
          CFI VB load(1, XDATA, add(CFA_XSP16, literal(-17)))
          CFI V0 load(1, XDATA, add(CFA_XSP16, literal(-16)))
          CFI V1 load(1, XDATA, add(CFA_XSP16, literal(-15)))
          CFI V2 load(1, XDATA, add(CFA_XSP16, literal(-14)))
          CFI V3 load(1, XDATA, add(CFA_XSP16, literal(-13)))
          CFI V4 load(1, XDATA, add(CFA_XSP16, literal(-12)))
          CFI V5 load(1, XDATA, add(CFA_XSP16, literal(-11)))
          CFI V6 load(1, XDATA, add(CFA_XSP16, literal(-10)))
          CFI V7 load(1, XDATA, add(CFA_XSP16, literal(-9)))
          CFI V8 load(1, XDATA, add(CFA_XSP16, literal(-8)))
          CFI V9 load(1, XDATA, add(CFA_XSP16, literal(-7)))
          CFI R7 load(1, XDATA, add(CFA_XSP16, literal(-6)))
          CFI ?RET_LOW load(1, XDATA, add(CFA_XSP16, literal(-5)))
          CFI ?RET_HIGH load(1, XDATA, add(CFA_XSP16, literal(-4)))
          CFI ?BRET_EXT load(1, XDATA, add(CFA_XSP16, literal(-3)))
          CFI DPL0 load(1, XDATA, add(CFA_XSP16, literal(-2)))
          CFI DPH0 load(1, XDATA, add(CFA_XSP16, literal(-1)))
          CFI CFA_SP SP+-2
          CFI CFA_XSP16 add(XSP16, 19)
          CFI Block cfiCond61 Using cfiCommon0
          CFI (cfiCond61) Function MT_SysOsalStopTimer
          CFI (cfiCond61) Conditional ??CrossCallReturnLabel_25
          CFI (cfiCond61) R6 load(1, XDATA, add(CFA_XSP16, literal(-9)))
          CFI (cfiCond61) VB load(1, XDATA, add(CFA_XSP16, literal(-8)))
          CFI (cfiCond61) V0 load(1, XDATA, add(CFA_XSP16, literal(-7)))
          CFI (cfiCond61) R7 load(1, XDATA, add(CFA_XSP16, literal(-6)))
          CFI (cfiCond61) ?RET_LOW load(1, XDATA, add(CFA_XSP16, literal(-5)))
          CFI (cfiCond61) ?RET_HIGH load(1, XDATA, add(CFA_XSP16, literal(-4)))
          CFI (cfiCond61) ?BRET_EXT load(1, XDATA, add(CFA_XSP16, literal(-3)))
          CFI (cfiCond61) DPL0 load(1, XDATA, add(CFA_XSP16, literal(-2)))
          CFI (cfiCond61) DPH0 load(1, XDATA, add(CFA_XSP16, literal(-1)))
          CFI (cfiCond61) CFA_SP SP+-2
          CFI (cfiCond61) CFA_XSP16 add(XSP16, 10)
          CFI Block cfiPicker62 Using cfiCommon1
          CFI (cfiPicker62) NoFunction
          CFI (cfiPicker62) Picker
        MOVX    @DPTR,A
        MOV     DPL,R2
        MOV     DPH,R3
        INC     DPTR
        INC     DPTR
        MOVX    A,@DPTR
        RET
          CFI EndBlock cfiCond60
          CFI EndBlock cfiCond61
          CFI EndBlock cfiPicker62

        RSEG BANKED_CODE:CODE:NOROOT(0)
?Subroutine6:
          CFI Block cfiCond63 Using cfiCommon0
          CFI Function MT_SysOsalStartTimer
          CFI Conditional ??CrossCallReturnLabel_0
          CFI R6 load(1, XDATA, add(CFA_XSP16, literal(-12)))
          CFI VB load(1, XDATA, add(CFA_XSP16, literal(-11)))
          CFI V0 load(1, XDATA, add(CFA_XSP16, literal(-10)))
          CFI V1 load(1, XDATA, add(CFA_XSP16, literal(-9)))
          CFI V2 load(1, XDATA, add(CFA_XSP16, literal(-8)))
          CFI V3 load(1, XDATA, add(CFA_XSP16, literal(-7)))
          CFI R7 load(1, XDATA, add(CFA_XSP16, literal(-6)))
          CFI ?RET_LOW load(1, XDATA, add(CFA_XSP16, literal(-5)))
          CFI ?RET_HIGH load(1, XDATA, add(CFA_XSP16, literal(-4)))
          CFI ?BRET_EXT load(1, XDATA, add(CFA_XSP16, literal(-3)))
          CFI DPL0 load(1, XDATA, add(CFA_XSP16, literal(-2)))
          CFI DPH0 load(1, XDATA, add(CFA_XSP16, literal(-1)))
          CFI CFA_SP SP+-2
          CFI CFA_XSP16 add(XSP16, 17)
          CFI Block cfiCond64 Using cfiCommon0
          CFI (cfiCond64) Function MT_SysOsalStopTimer
          CFI (cfiCond64) Conditional ??CrossCallReturnLabel_1
          CFI (cfiCond64) R6 load(1, XDATA, add(CFA_XSP16, literal(-9)))
          CFI (cfiCond64) VB load(1, XDATA, add(CFA_XSP16, literal(-8)))
          CFI (cfiCond64) V0 load(1, XDATA, add(CFA_XSP16, literal(-7)))
          CFI (cfiCond64) R7 load(1, XDATA, add(CFA_XSP16, literal(-6)))
          CFI (cfiCond64) ?RET_LOW load(1, XDATA, add(CFA_XSP16, literal(-5)))
          CFI (cfiCond64) ?RET_HIGH load(1, XDATA, add(CFA_XSP16, literal(-4)))
          CFI (cfiCond64) ?BRET_EXT load(1, XDATA, add(CFA_XSP16, literal(-3)))
          CFI (cfiCond64) DPL0 load(1, XDATA, add(CFA_XSP16, literal(-2)))
          CFI (cfiCond64) DPH0 load(1, XDATA, add(CFA_XSP16, literal(-1)))
          CFI (cfiCond64) CFA_SP SP+-2
          CFI (cfiCond64) CFA_XSP16 add(XSP16, 10)
          CFI Block cfiPicker65 Using cfiCommon1
          CFI (cfiPicker65) NoFunction
          CFI (cfiPicker65) Picker
        MOVX    A,@DPTR
        ADD     A,0xE0 /* A   */
        MOV     R0,A
        CLR     A
        RLC     A
        MOV     R1,A
        MOV     A,#MT_SysOsalEventId & 0xff
        ADD     A,R0
        MOV     DPL,A
        MOV     A,#(MT_SysOsalEventId >> 8) & 0xff
        ADDC    A,R1
        MOV     DPH,A
        MOVX    A,@DPTR
        MOV     R2,A
        INC     DPTR
        MOVX    A,@DPTR
        MOV     R3,A
        MOV     DPTR,#MT_TaskID
        MOVX    A,@DPTR
        MOV     R1,A
        RET
          CFI EndBlock cfiCond63
          CFI EndBlock cfiCond64
          CFI EndBlock cfiPicker65
//  898 
//  899 /***************************************************************************************************
//  900  * @fn      MT_SysRandom
//  901  *
//  902  * @brief
//  903  *
//  904  * @param   uint8 pData - pointer to the data
//  905  *
//  906  * @return  None
//  907  ***************************************************************************************************/

        RSEG BANKED_CODE:CODE:NOROOT(0)
//  908 void MT_SysRandom()
MT_SysRandom:
          CFI Block cfiBlock66 Using cfiCommon0
          CFI Function MT_SysRandom
        CODE
//  909 {
        FUNCALL MT_SysRandom, Onboard_rand
        LOCFRAME ISTACK, 0, STACK
        LOCFRAME PSTACK, 0, STACK
        LOCFRAME XSTACK, 12, STACK
        LOCFRAME IOVERLAY, 0, STATIC
        LOCFRAME DOVERLAY, 0, STATIC
        ARGFRAME ISTACK, 0, STACK
        ARGFRAME PSTACK, 0, STACK
        ARGFRAME XSTACK, 12, STACK
        ARGFRAME IOVERLAY, 0, STATIC
        ARGFRAME DOVERLAY, 0, STATIC
        FUNCALL MT_SysRandom, MT_BuildAndSendZToolResponse
        LOCFRAME ISTACK, 0, STACK
        LOCFRAME PSTACK, 0, STACK
        LOCFRAME XSTACK, 12, STACK
        LOCFRAME IOVERLAY, 0, STATIC
        LOCFRAME DOVERLAY, 0, STATIC
        ARGFRAME ISTACK, 0, STACK
        ARGFRAME PSTACK, 0, STACK
        ARGFRAME XSTACK, 12, STACK
        ARGFRAME IOVERLAY, 0, STATIC
        ARGFRAME DOVERLAY, 0, STATIC
        REQUIRE ?V0
        REQUIRE ?V1
        MOV     A,#-0xa
        LCALL   ?BANKED_ENTER_XDATA
          CFI DPH0 load(1, XDATA, add(CFA_XSP16, literal(-1)))
          CFI DPL0 load(1, XDATA, add(CFA_XSP16, literal(-2)))
          CFI ?BRET_EXT load(1, XDATA, add(CFA_XSP16, literal(-3)))
          CFI ?RET_HIGH load(1, XDATA, add(CFA_XSP16, literal(-4)))
          CFI ?RET_LOW load(1, XDATA, add(CFA_XSP16, literal(-5)))
          CFI R7 load(1, XDATA, add(CFA_XSP16, literal(-6)))
          CFI V1 load(1, XDATA, add(CFA_XSP16, literal(-7)))
          CFI V0 load(1, XDATA, add(CFA_XSP16, literal(-8)))
          CFI VB load(1, XDATA, add(CFA_XSP16, literal(-9)))
          CFI R6 load(1, XDATA, add(CFA_XSP16, literal(-10)))
          CFI CFA_SP SP+0
          CFI CFA_XSP16 add(XSP16, 10)
        ; Saved register size: 10
        ; Auto size: 2
        MOV     A,#-0x2
        LCALL   ?ALLOC_XSTACK8
          CFI CFA_XSP16 add(XSP16, 12)
//  910   uint16 randValue = Onboard_rand();
        ; Setup parameters for call to function Onboard_rand
        LCALL   `??Onboard_rand::?relay`; Banked call to: Onboard_rand
//  911   uint8 retArray[2];
//  912 
//  913   retArray[0] = LO_UINT16(randValue);
        MOV     DPL,?XSP + 0
        MOV     DPH,?XSP + 1
        MOV     A,R2
        MOVX    @DPTR,A
//  914   retArray[1] = HI_UINT16(randValue);
        MOV     A,#0x1
        LCALL   ?XSTACK_DISP0_8
        LCALL   ?Subroutine18 & 0xFFFF
//  915 
//  916   /* Build and send back the response */
//  917   MT_BuildAndSendZToolResponse(((uint8)MT_RPC_CMD_SRSP | (uint8)MT_RPC_SYS_SYS), MT_SYS_RANDOM, 2, retArray );
??CrossCallReturnLabel_46:
        MOV     R2,#0xc
        SJMP    ?Subroutine2
//  918 }
          CFI EndBlock cfiBlock66
//  919 
//  920 /***************************************************************************************************
//  921  * @fn      MT_SysAdcRead
//  922  *
//  923  * @brief   Reading ADC value, temperature sensor and voltage
//  924  *
//  925  * @param   uint8 pBuf - pointer to the data
//  926  *
//  927  * @return  None
//  928  ***************************************************************************************************/

        RSEG BANKED_CODE:CODE:NOROOT(0)
//  929 void MT_SysAdcRead(uint8 *pBuf)
MT_SysAdcRead:
          CFI Block cfiBlock67 Using cfiCommon0
          CFI Function MT_SysAdcRead
        CODE
//  930 {
        FUNCALL MT_SysAdcRead, HalAdcRead
        LOCFRAME ISTACK, 0, STACK
        LOCFRAME PSTACK, 0, STACK
        LOCFRAME XSTACK, 12, STACK
        LOCFRAME IOVERLAY, 0, STATIC
        LOCFRAME DOVERLAY, 0, STATIC
        ARGFRAME ISTACK, 0, STACK
        ARGFRAME PSTACK, 0, STACK
        ARGFRAME XSTACK, 12, STACK
        ARGFRAME IOVERLAY, 0, STATIC
        ARGFRAME DOVERLAY, 0, STATIC
        FUNCALL MT_SysAdcRead, HalAdcRead
        LOCFRAME ISTACK, 0, STACK
        LOCFRAME PSTACK, 0, STACK
        LOCFRAME XSTACK, 12, STACK
        LOCFRAME IOVERLAY, 0, STATIC
        LOCFRAME DOVERLAY, 0, STATIC
        ARGFRAME ISTACK, 0, STACK
        ARGFRAME PSTACK, 0, STACK
        ARGFRAME XSTACK, 12, STACK
        ARGFRAME IOVERLAY, 0, STATIC
        ARGFRAME DOVERLAY, 0, STATIC
        FUNCALL MT_SysAdcRead, HalAdcRead
        LOCFRAME ISTACK, 0, STACK
        LOCFRAME PSTACK, 0, STACK
        LOCFRAME XSTACK, 12, STACK
        LOCFRAME IOVERLAY, 0, STATIC
        LOCFRAME DOVERLAY, 0, STATIC
        ARGFRAME ISTACK, 0, STACK
        ARGFRAME PSTACK, 0, STACK
        ARGFRAME XSTACK, 12, STACK
        ARGFRAME IOVERLAY, 0, STATIC
        ARGFRAME DOVERLAY, 0, STATIC
        FUNCALL MT_SysAdcRead, MT_BuildAndSendZToolResponse
        LOCFRAME ISTACK, 0, STACK
        LOCFRAME PSTACK, 0, STACK
        LOCFRAME XSTACK, 12, STACK
        LOCFRAME IOVERLAY, 0, STATIC
        LOCFRAME DOVERLAY, 0, STATIC
        ARGFRAME ISTACK, 0, STACK
        ARGFRAME PSTACK, 0, STACK
        ARGFRAME XSTACK, 12, STACK
        ARGFRAME IOVERLAY, 0, STATIC
        ARGFRAME DOVERLAY, 0, STATIC
        REQUIRE ?V0
        REQUIRE ?V1
        MOV     A,#-0xa
        LCALL   ?BANKED_ENTER_XDATA
          CFI DPH0 load(1, XDATA, add(CFA_XSP16, literal(-1)))
          CFI DPL0 load(1, XDATA, add(CFA_XSP16, literal(-2)))
          CFI ?BRET_EXT load(1, XDATA, add(CFA_XSP16, literal(-3)))
          CFI ?RET_HIGH load(1, XDATA, add(CFA_XSP16, literal(-4)))
          CFI ?RET_LOW load(1, XDATA, add(CFA_XSP16, literal(-5)))
          CFI R7 load(1, XDATA, add(CFA_XSP16, literal(-6)))
          CFI V1 load(1, XDATA, add(CFA_XSP16, literal(-7)))
          CFI V0 load(1, XDATA, add(CFA_XSP16, literal(-8)))
          CFI VB load(1, XDATA, add(CFA_XSP16, literal(-9)))
          CFI R6 load(1, XDATA, add(CFA_XSP16, literal(-10)))
          CFI CFA_SP SP+0
          CFI CFA_XSP16 add(XSP16, 10)
        ; Saved register size: 10
        ; Auto size: 2
        MOV     A,#-0x2
        LCALL   ?ALLOC_XSTACK8
          CFI CFA_XSP16 add(XSP16, 12)
//  931 #ifndef HAL_BOARD_LM3S
//  932   uint8 channel, resolution;
//  933   uint16 tempValue;
//  934   uint8 retArray[2];
//  935   uint8 cmdId;
//  936 
//  937   /* parse header */
//  938   cmdId = pBuf[MT_RPC_POS_CMD1];
        LCALL   ?Subroutine9 & 0xFFFF
//  939   pBuf += MT_RPC_FRAME_HDR_SZ;
//  940 
//  941   /* Channel */
//  942   channel = *pBuf++;
//  943 
//  944   /* Resolution */
//  945   resolution = *pBuf++;
//  946 
//  947   /* Voltage reading */
//  948   switch (channel)
??CrossCallReturnLabel_6:
        LCALL   ?UC_SWITCH_SPARSE
`?<Jumptable for MT_SysAdcRead>_0`:
        DATA
        DATA8
        DATA
        DATA8
        DATA
        DATA8
        DB        1
        DATA
        DATA8
        DATA
        DATA8
        DATA
        DATA8
        DB        0
        DATA
        DATA8
        DATA
        DATA8
        DB        7
        DATA
        DATA16
        DATA
        DATA16
        DATA
        DATA16
        DW        ??MT_SysAdcRead_0
        DATA
        DATA8
        DATA
        DATA8
        DATA
        DATA8
        DB        2
        DATA
        DATA8
        DATA
        DATA8
        DATA
        DATA8
        DB        14
        DATA
        DATA16
        DATA
        DATA16
        DATA
        DATA16
        DW        ??MT_SysAdcRead_1
        DATA
        DATA8
        DATA
        DATA8
        DATA
        DATA8
        DB        15
        DATA
        DATA16
        DATA
        DATA16
        DATA
        DATA16
        DW        ??MT_SysAdcRead_2
        DATA
        DATA16
        DATA
        DATA16
        DW        ??MT_SysAdcRead_3
        CODE
//  949   {
//  950     /* Analog input channel */
//  951     case HAL_ADC_CHANNEL_0:
//  952     case HAL_ADC_CHANNEL_1:
//  953     case HAL_ADC_CHANNEL_2:
//  954     case HAL_ADC_CHANNEL_3:
//  955     case HAL_ADC_CHANNEL_4:
//  956     case HAL_ADC_CHANNEL_5:
//  957     case HAL_ADC_CHANNEL_6:
//  958     case HAL_ADC_CHANNEL_7:
//  959       tempValue = HalAdcRead(channel, resolution);
??MT_SysAdcRead_0:
        ; Setup parameters for call to function HalAdcRead
        MOV     DPL,R2
        MOV     DPH,R3
        INC     DPTR
        INC     DPTR
        INC     DPTR
        INC     DPTR
        MOVX    A,@DPTR
        MOV     R2,A
        SJMP    ??MT_SysAdcRead_4
//  960       break;
//  961 
//  962     /* Temperature sensor */
//  963     case(HAL_ADC_CHANNEL_TEMP):
//  964       tempValue = HalAdcRead(HAL_ADC_CHANNEL_TEMP, HAL_ADC_RESOLUTION_14);
??MT_SysAdcRead_1:
        ; Setup parameters for call to function HalAdcRead
        MOV     R2,#0x4
        MOV     R1,#0xe
        SJMP    ??MT_SysAdcRead_4
//  965       break;
//  966 
//  967     /* Voltage reading */
//  968     case(HAL_ADC_CHANNEL_VDD):
//  969       tempValue = HalAdcRead(HAL_ADC_CHANNEL_VDD, HAL_ADC_RESOLUTION_14);
??MT_SysAdcRead_2:
        ; Setup parameters for call to function HalAdcRead
        MOV     R2,#0x4
        MOV     R1,#0xf
??MT_SysAdcRead_4:
        LCALL   `??HalAdcRead::?relay`; Banked call to: HalAdcRead
        MOV     ?V0,R2
        MOV     ?V1,R3
        MOV     R0,?V0
        MOV     R1,?V1
//  970       break;
        SJMP    ??MT_SysAdcRead_5
//  971 
//  972     /* Undefined channels */
//  973     default:
//  974       tempValue = 0x00;
??MT_SysAdcRead_3:
        MOV     R0,#0x0
        MOV     R1,#0x0
//  975       break;
//  976   }
//  977 
//  978   retArray[0] = LO_UINT16(tempValue);
??MT_SysAdcRead_5:
        MOV     A,R0
        MOV     DPL,?XSP + 0
        MOV     DPH,?XSP + 1
        MOVX    @DPTR,A
//  979   retArray[1] = HI_UINT16(tempValue);
        MOV     A,#0x1
        LCALL   ?XSTACK_DISP0_8
        MOV     A,R1
        LCALL   ??Subroutine33_0 & 0xFFFF
//  980 
//  981   /* Build and send back the response */
//  982   MT_BuildAndSendZToolResponse(((uint8)MT_RPC_CMD_SRSP | (uint8)MT_RPC_SYS_SYS), cmdId, 2, retArray);
??CrossCallReturnLabel_49:
        MOV     A,R6
        MOV     R2,A
          CFI EndBlock cfiBlock67
        REQUIRE ?Subroutine2
        ; // Fall through to label ?Subroutine2
//  983 #endif /* #ifndef HAL_BOARD_LM3S */
//  984 }

        RSEG BANKED_CODE:CODE:NOROOT(0)
?Subroutine2:
          CFI Block cfiBlock68 Using cfiCommon0
          CFI NoFunction
          CFI CFA_SP SP+0
          CFI CFA_XSP16 add(XSP16, 12)
          CFI VB load(1, XDATA, add(CFA_XSP16, literal(-9)))
          CFI DPL0 load(1, XDATA, add(CFA_XSP16, literal(-2)))
          CFI DPH0 load(1, XDATA, add(CFA_XSP16, literal(-1)))
          CFI R6 load(1, XDATA, add(CFA_XSP16, literal(-10)))
          CFI R7 load(1, XDATA, add(CFA_XSP16, literal(-6)))
          CFI V0 load(1, XDATA, add(CFA_XSP16, literal(-8)))
          CFI V1 load(1, XDATA, add(CFA_XSP16, literal(-7)))
          CFI ?BRET_EXT load(1, XDATA, add(CFA_XSP16, literal(-3)))
          CFI ?RET_HIGH load(1, XDATA, add(CFA_XSP16, literal(-4)))
          CFI ?RET_LOW load(1, XDATA, add(CFA_XSP16, literal(-5)))
        MOV     R1,#0x61
        LCALL   `??MT_BuildAndSendZToolResponse::?relay`; Banked call to: MT_BuildAndSendZToolResponse
        MOV     A,#0x2
          CFI EndBlock cfiBlock68
        REQUIRE ??Subroutine32_0
        ; // Fall through to label ??Subroutine32_0

        RSEG BANKED_CODE:CODE:NOROOT(0)
??Subroutine32_0:
          CFI Block cfiBlock69 Using cfiCommon0
          CFI NoFunction
          CFI CFA_SP SP+0
          CFI CFA_XSP16 add(XSP16, 11)
          CFI VB load(1, XDATA, add(CFA_XSP16, literal(-9)))
          CFI DPL0 load(1, XDATA, add(CFA_XSP16, literal(-2)))
          CFI DPH0 load(1, XDATA, add(CFA_XSP16, literal(-1)))
          CFI R6 load(1, XDATA, add(CFA_XSP16, literal(-10)))
          CFI R7 load(1, XDATA, add(CFA_XSP16, literal(-6)))
          CFI V0 load(1, XDATA, add(CFA_XSP16, literal(-8)))
          CFI V1 load(1, XDATA, add(CFA_XSP16, literal(-7)))
          CFI ?BRET_EXT load(1, XDATA, add(CFA_XSP16, literal(-3)))
          CFI ?RET_HIGH load(1, XDATA, add(CFA_XSP16, literal(-4)))
          CFI ?RET_LOW load(1, XDATA, add(CFA_XSP16, literal(-5)))
          CFI Invalid
        LCALL   ?DEALLOC_XSTACK8
          CFI CFA_XSP16 add(XSP16, 10)
          CFI Valid
        MOV     R7,#0x2
        LJMP    ?BANKED_LEAVE_XDATA
          CFI EndBlock cfiBlock69

        RSEG BANKED_CODE:CODE:NOROOT(0)
?Subroutine18:
          CFI Block cfiCond70 Using cfiCommon0
          CFI Function MT_SysOsalNVLength
          CFI Conditional ??CrossCallReturnLabel_45
          CFI R6 load(1, XDATA, add(CFA_XSP16, literal(-10)))
          CFI VB load(1, XDATA, add(CFA_XSP16, literal(-9)))
          CFI V0 load(1, XDATA, add(CFA_XSP16, literal(-8)))
          CFI V1 load(1, XDATA, add(CFA_XSP16, literal(-7)))
          CFI R7 load(1, XDATA, add(CFA_XSP16, literal(-6)))
          CFI ?RET_LOW load(1, XDATA, add(CFA_XSP16, literal(-5)))
          CFI ?RET_HIGH load(1, XDATA, add(CFA_XSP16, literal(-4)))
          CFI ?BRET_EXT load(1, XDATA, add(CFA_XSP16, literal(-3)))
          CFI DPL0 load(1, XDATA, add(CFA_XSP16, literal(-2)))
          CFI DPH0 load(1, XDATA, add(CFA_XSP16, literal(-1)))
          CFI CFA_SP SP+-2
          CFI CFA_XSP16 add(XSP16, 12)
          CFI Block cfiCond71 Using cfiCommon0
          CFI (cfiCond71) Function MT_SysRandom
          CFI (cfiCond71) Conditional ??CrossCallReturnLabel_46
          CFI (cfiCond71) R6 load(1, XDATA, add(CFA_XSP16, literal(-10)))
          CFI (cfiCond71) VB load(1, XDATA, add(CFA_XSP16, literal(-9)))
          CFI (cfiCond71) V0 load(1, XDATA, add(CFA_XSP16, literal(-8)))
          CFI (cfiCond71) V1 load(1, XDATA, add(CFA_XSP16, literal(-7)))
          CFI (cfiCond71) R7 load(1, XDATA, add(CFA_XSP16, literal(-6)))
          CFI (cfiCond71) ?RET_LOW load(1, XDATA, add(CFA_XSP16, literal(-5)))
          CFI (cfiCond71) ?RET_HIGH load(1, XDATA, add(CFA_XSP16, literal(-4)))
          CFI (cfiCond71) ?BRET_EXT load(1, XDATA, add(CFA_XSP16, literal(-3)))
          CFI (cfiCond71) DPL0 load(1, XDATA, add(CFA_XSP16, literal(-2)))
          CFI (cfiCond71) DPH0 load(1, XDATA, add(CFA_XSP16, literal(-1)))
          CFI (cfiCond71) CFA_SP SP+-2
          CFI (cfiCond71) CFA_XSP16 add(XSP16, 12)
          CFI Block cfiPicker72 Using cfiCommon1
          CFI (cfiPicker72) NoFunction
          CFI (cfiPicker72) Picker
        MOV     A,R3
          CFI EndBlock cfiCond70
          CFI EndBlock cfiCond71
          CFI EndBlock cfiPicker72
        REQUIRE ??Subroutine33_0
        ; // Fall through to label ??Subroutine33_0

        RSEG BANKED_CODE:CODE:NOROOT(0)
??Subroutine33_0:
          CFI Block cfiCond73 Using cfiCommon0
          CFI Function MT_SysPing
          CFI Conditional ??CrossCallReturnLabel_47
          CFI DPL0 Frame(CFA_SP, 4)
          CFI DPH0 Frame(CFA_SP, 5)
          CFI CFA_SP SP+-7
          CFI CFA_XSP16 add(XSP16, 2)
          CFI Block cfiCond74 Using cfiCommon0
          CFI (cfiCond74) Function MT_SysOsalNVRead
          CFI (cfiCond74) Conditional ??CrossCallReturnLabel_48
          CFI (cfiCond74) R6 load(1, XDATA, add(CFA_XSP16, literal(-20)))
          CFI (cfiCond74) VB load(1, XDATA, add(CFA_XSP16, literal(-19)))
          CFI (cfiCond74) V0 load(1, XDATA, add(CFA_XSP16, literal(-18)))
          CFI (cfiCond74) V1 load(1, XDATA, add(CFA_XSP16, literal(-17)))
          CFI (cfiCond74) V2 load(1, XDATA, add(CFA_XSP16, literal(-16)))
          CFI (cfiCond74) V3 load(1, XDATA, add(CFA_XSP16, literal(-15)))
          CFI (cfiCond74) V4 load(1, XDATA, add(CFA_XSP16, literal(-14)))
          CFI (cfiCond74) V5 load(1, XDATA, add(CFA_XSP16, literal(-13)))
          CFI (cfiCond74) V6 load(1, XDATA, add(CFA_XSP16, literal(-12)))
          CFI (cfiCond74) V7 load(1, XDATA, add(CFA_XSP16, literal(-11)))
          CFI (cfiCond74) V8 load(1, XDATA, add(CFA_XSP16, literal(-10)))
          CFI (cfiCond74) V9 load(1, XDATA, add(CFA_XSP16, literal(-9)))
          CFI (cfiCond74) V10 load(1, XDATA, add(CFA_XSP16, literal(-8)))
          CFI (cfiCond74) V11 load(1, XDATA, add(CFA_XSP16, literal(-7)))
          CFI (cfiCond74) R7 load(1, XDATA, add(CFA_XSP16, literal(-6)))
          CFI (cfiCond74) ?RET_LOW load(1, XDATA, add(CFA_XSP16, literal(-5)))
          CFI (cfiCond74) ?RET_HIGH load(1, XDATA, add(CFA_XSP16, literal(-4)))
          CFI (cfiCond74) ?BRET_EXT load(1, XDATA, add(CFA_XSP16, literal(-3)))
          CFI (cfiCond74) DPL0 load(1, XDATA, add(CFA_XSP16, literal(-2)))
          CFI (cfiCond74) DPH0 load(1, XDATA, add(CFA_XSP16, literal(-1)))
          CFI (cfiCond74) CFA_SP SP+-2
          CFI (cfiCond74) CFA_XSP16 add(XSP16, 22)
          CFI Block cfiCond75 Using cfiCommon0
          CFI (cfiCond75) Function MT_SysAdcRead
          CFI (cfiCond75) Conditional ??CrossCallReturnLabel_49
          CFI (cfiCond75) R6 load(1, XDATA, add(CFA_XSP16, literal(-10)))
          CFI (cfiCond75) VB load(1, XDATA, add(CFA_XSP16, literal(-9)))
          CFI (cfiCond75) V0 load(1, XDATA, add(CFA_XSP16, literal(-8)))
          CFI (cfiCond75) V1 load(1, XDATA, add(CFA_XSP16, literal(-7)))
          CFI (cfiCond75) R7 load(1, XDATA, add(CFA_XSP16, literal(-6)))
          CFI (cfiCond75) ?RET_LOW load(1, XDATA, add(CFA_XSP16, literal(-5)))
          CFI (cfiCond75) ?RET_HIGH load(1, XDATA, add(CFA_XSP16, literal(-4)))
          CFI (cfiCond75) ?BRET_EXT load(1, XDATA, add(CFA_XSP16, literal(-3)))
          CFI (cfiCond75) DPL0 load(1, XDATA, add(CFA_XSP16, literal(-2)))
          CFI (cfiCond75) DPH0 load(1, XDATA, add(CFA_XSP16, literal(-1)))
          CFI (cfiCond75) CFA_SP SP+-2
          CFI (cfiCond75) CFA_XSP16 add(XSP16, 12)
          CFI Block cfiCond76 Using cfiCommon0
          CFI (cfiCond76) Function MT_SysOsalNVLength
          CFI (cfiCond76) Conditional ??CrossCallReturnLabel_45
          CFI (cfiCond76) R6 load(1, XDATA, add(CFA_XSP16, literal(-10)))
          CFI (cfiCond76) VB load(1, XDATA, add(CFA_XSP16, literal(-9)))
          CFI (cfiCond76) V0 load(1, XDATA, add(CFA_XSP16, literal(-8)))
          CFI (cfiCond76) V1 load(1, XDATA, add(CFA_XSP16, literal(-7)))
          CFI (cfiCond76) R7 load(1, XDATA, add(CFA_XSP16, literal(-6)))
          CFI (cfiCond76) ?RET_LOW load(1, XDATA, add(CFA_XSP16, literal(-5)))
          CFI (cfiCond76) ?RET_HIGH load(1, XDATA, add(CFA_XSP16, literal(-4)))
          CFI (cfiCond76) ?BRET_EXT load(1, XDATA, add(CFA_XSP16, literal(-3)))
          CFI (cfiCond76) DPL0 load(1, XDATA, add(CFA_XSP16, literal(-2)))
          CFI (cfiCond76) DPH0 load(1, XDATA, add(CFA_XSP16, literal(-1)))
          CFI (cfiCond76) CFA_SP SP+-2
          CFI (cfiCond76) CFA_XSP16 add(XSP16, 12)
          CFI Block cfiCond77 Using cfiCommon0
          CFI (cfiCond77) Function MT_SysRandom
          CFI (cfiCond77) Conditional ??CrossCallReturnLabel_46
          CFI (cfiCond77) R6 load(1, XDATA, add(CFA_XSP16, literal(-10)))
          CFI (cfiCond77) VB load(1, XDATA, add(CFA_XSP16, literal(-9)))
          CFI (cfiCond77) V0 load(1, XDATA, add(CFA_XSP16, literal(-8)))
          CFI (cfiCond77) V1 load(1, XDATA, add(CFA_XSP16, literal(-7)))
          CFI (cfiCond77) R7 load(1, XDATA, add(CFA_XSP16, literal(-6)))
          CFI (cfiCond77) ?RET_LOW load(1, XDATA, add(CFA_XSP16, literal(-5)))
          CFI (cfiCond77) ?RET_HIGH load(1, XDATA, add(CFA_XSP16, literal(-4)))
          CFI (cfiCond77) ?BRET_EXT load(1, XDATA, add(CFA_XSP16, literal(-3)))
          CFI (cfiCond77) DPL0 load(1, XDATA, add(CFA_XSP16, literal(-2)))
          CFI (cfiCond77) DPH0 load(1, XDATA, add(CFA_XSP16, literal(-1)))
          CFI (cfiCond77) CFA_SP SP+-2
          CFI (cfiCond77) CFA_XSP16 add(XSP16, 12)
          CFI Block cfiPicker78 Using cfiCommon1
          CFI (cfiPicker78) NoFunction
          CFI (cfiPicker78) Picker
        LCALL   ??Subroutine36_0 & 0xFFFF
??CrossCallReturnLabel_53:
        MOV     R3,#0x2
        RET
          CFI EndBlock cfiCond73
          CFI EndBlock cfiCond74
          CFI EndBlock cfiCond75
          CFI EndBlock cfiCond76
          CFI EndBlock cfiCond77
          CFI EndBlock cfiPicker78
//  985 
//  986 /**************************************************************************************************
//  987  * @fn      MT_SysGpio
//  988  *
//  989  * @brief   ZAccel RPC interface for controlling the available GPIO pins.
//  990  *
//  991  * @param   uint8 pBuf - pointer to the data
//  992  *
//  993  * @return  None
//  994  *************************************************************************************************/

        RSEG BANKED_CODE:CODE:NOROOT(0)
//  995 void MT_SysGpio(uint8 *pBuf)
MT_SysGpio:
          CFI Block cfiBlock79 Using cfiCommon0
          CFI Function MT_SysGpio
        CODE
//  996 {
        FUNCALL MT_SysGpio, MT_BuildAndSendZToolResponse
        LOCFRAME ISTACK, 2, STACK
        LOCFRAME PSTACK, 0, STACK
        LOCFRAME XSTACK, 1, STACK
        LOCFRAME IOVERLAY, 0, STATIC
        LOCFRAME DOVERLAY, 0, STATIC
        ARGFRAME ISTACK, 2, STACK
        ARGFRAME PSTACK, 0, STACK
        ARGFRAME XSTACK, 1, STACK
        ARGFRAME IOVERLAY, 0, STATIC
        ARGFRAME DOVERLAY, 0, STATIC
        PUSH    DPL
          CFI DPL0 Frame(CFA_SP, 4)
          CFI CFA_SP SP+-4
        PUSH    DPH
          CFI DPH0 Frame(CFA_SP, 5)
          CFI CFA_SP SP+-5
        ; Saved register size: 2
        ; Auto size: 1
        MOV     A,#-0x1
        LCALL   ?ALLOC_XSTACK8
          CFI CFA_XSP16 add(XSP16, 1)
        MOV     A,R2
        MOV     R0,A
        MOV     A,R3
        MOV     R1,A
//  997   uint8 cmd, val;
//  998   GPIO_Op_t op;
//  999 
// 1000   cmd = pBuf[MT_RPC_POS_CMD1];
        MOV     DPL,R0
        MOV     DPH,R1
        INC     DPTR
        INC     DPTR
        MOVX    A,@DPTR
        MOV     R2,A
// 1001   pBuf += MT_RPC_FRAME_HDR_SZ;
// 1002 
// 1003   op = (GPIO_Op_t)(*pBuf++);
        MOV     DPL,R0
        MOV     DPH,R1
        INC     DPTR
        INC     DPTR
        INC     DPTR
        MOVX    A,@DPTR
        MOV     R3,A
// 1004   val = *pBuf;
        MOV     DPL,R0
        MOV     DPH,R1
        INC     DPTR
        LCALL   ?Subroutine16 & 0xFFFF
// 1005 
// 1006   switch (op)
??CrossCallReturnLabel_18:
        MOV     A,R3
        JZ      ??MT_SysGpio_0
        DEC     A
        JZ      ??MT_SysGpio_1
        DEC     A
        JNZ     $+5
        LJMP    ??MT_SysGpio_2 & 0xFFFF
        DEC     A
        JNZ     $+5
        LJMP    ??MT_SysGpio_3 & 0xFFFF
        DEC     A
        JNZ     $+5
        LJMP    ??MT_SysGpio_4 & 0xFFFF
        ADD     A,#-0xe
        JNZ     $+5
        LJMP    ??MT_SysGpio_5 & 0xFFFF
        LJMP    ??MT_SysGpio_6 & 0xFFFF
// 1007   {
// 1008     case GPIO_DIR:
// 1009       if (val & BV(0)) {GPIO_DIR_OUT(0);} else {GPIO_DIR_IN(0);}
??MT_SysGpio_0:
        MOVX    A,@DPTR
        MOV     C,0xE0 /* A   */.0
        JNC     ??MT_SysGpio_7
        ORL     0xfd,#0x1
        SJMP    ??MT_SysGpio_8
??MT_SysGpio_7:
        ANL     0xfd,#0xfe
// 1010       if (val & BV(1)) {GPIO_DIR_OUT(1);} else {GPIO_DIR_IN(1);}
??MT_SysGpio_8:
        MOV     C,0xE0 /* A   */.1
        JNC     ??MT_SysGpio_9
        ORL     0xfd,#0x2
        SJMP    ??MT_SysGpio_10
??MT_SysGpio_9:
        ANL     0xfd,#0xfd
// 1011       if (val & BV(2)) {GPIO_DIR_OUT(2);} else {GPIO_DIR_IN(2);}
??MT_SysGpio_10:
        MOV     C,0xE0 /* A   */.2
        JNC     ??MT_SysGpio_11
        ORL     0xfd,#0x40
        SJMP    ??MT_SysGpio_12
??MT_SysGpio_11:
        ANL     0xfd,#0xbf
// 1012       if (val & BV(3)) {GPIO_DIR_OUT(3);} else {GPIO_DIR_IN(3);}
??MT_SysGpio_12:
        MOV     C,0xE0 /* A   */.3
        JNC     ??MT_SysGpio_13
        ORL     0xfe,#0x1
        LJMP    ??MT_SysGpio_6 & 0xFFFF
??MT_SysGpio_13:
        ANL     0xfe,#0xfe
        LJMP    ??MT_SysGpio_6 & 0xFFFF
// 1013       break;
// 1014 
// 1015     case GPIO_TRI:
// 1016       if(val & BV(0)) {GPIO_TRI(0);} else if(val & BV(4)) {GPIO_PULL_DN(0);} else {GPIO_PULL_UP(0);}
??MT_SysGpio_1:
        MOVX    A,@DPTR
        MOV     C,0xE0 /* A   */.0
        JNC     ??MT_SysGpio_14
        ANL     0xf3,#0xfe
        ANL     0xfd,#0xfe
        ORL     0x8f,#0x1
        SJMP    ??MT_SysGpio_15
??MT_SysGpio_14:
        MOV     C,0xE0 /* A   */.4
        ANL     0xf3,#0xfe
        ANL     0xfd,#0xfe
        ANL     0x8f,#0xfe
        JNC     ??MT_SysGpio_16
        ORL     0xf7,#0x20
        SJMP    ??MT_SysGpio_15
??MT_SysGpio_16:
        ANL     0xf7,#0xdf
// 1017       if(val & BV(1)) {GPIO_TRI(1);} else if(val & BV(5)) {GPIO_PULL_DN(1);} else {GPIO_PULL_UP(1);}
??MT_SysGpio_15:
        MOV     C,0xE0 /* A   */.1
        JNC     ??MT_SysGpio_17
        ANL     0xf3,#0xfd
        ANL     0xfd,#0xfd
        ORL     0x8f,#0x2
        SJMP    ??MT_SysGpio_18
??MT_SysGpio_17:
        MOV     C,0xE0 /* A   */.5
        ANL     0xf3,#0xfd
        ANL     0xfd,#0xfd
        ANL     0x8f,#0xfd
        JNC     ??MT_SysGpio_19
        ORL     0xf7,#0x20
        SJMP    ??MT_SysGpio_18
??MT_SysGpio_19:
        ANL     0xf7,#0xdf
// 1018       if(val & BV(2)) {GPIO_TRI(2);} else if(val & BV(6)) {GPIO_PULL_DN(2);} else {GPIO_PULL_UP(2);}
??MT_SysGpio_18:
        MOV     C,0xE0 /* A   */.2
        JNC     ??MT_SysGpio_20
        ANL     0xf3,#0xbf
        ANL     0xfd,#0xbf
        ORL     0x8f,#0x40
        SJMP    ??MT_SysGpio_21
??MT_SysGpio_20:
        MOV     C,0xE0 /* A   */.6
        ANL     0xf3,#0xbf
        ANL     0xfd,#0xbf
        ANL     0x8f,#0xbf
        JNC     ??MT_SysGpio_22
        ORL     0xf7,#0x20
        SJMP    ??MT_SysGpio_21
??MT_SysGpio_22:
        ANL     0xf7,#0xdf
// 1019       if(val & BV(3)) {GPIO_TRI(3);} else if(val & BV(7)) {GPIO_PULL_DN(3);} else {GPIO_PULL_UP(3);}
??MT_SysGpio_21:
        MOV     C,0xE0 /* A   */.3
        JNC     ??MT_SysGpio_23
        ANL     0xf4,#0xfe
        ANL     0xfe,#0xfe
        ORL     0xf6,#0x1
        SJMP    ??MT_SysGpio_6
??MT_SysGpio_23:
        MOV     C,0xE0 /* A   */.7
        ANL     0xf4,#0xfe
        ANL     0xfe,#0xfe
        ANL     0xf6,#0xfe
        JNC     ??MT_SysGpio_24
        ORL     0xf7,#0x40
        SJMP    ??MT_SysGpio_6
??MT_SysGpio_24:
        ANL     0xf7,#0xbf
        SJMP    ??MT_SysGpio_6
// 1020       break;
// 1021 
// 1022     case GPIO_SET:
// 1023       if (val & BV(0)) {GPIO_SET(0);}
??MT_SysGpio_2:
        MOVX    A,@DPTR
        MOV     C,0xE0 /* A   */.0
        JNC     ??MT_SysGpio_25
        SETB    0x80.0
// 1024       if (val & BV(1)) {GPIO_SET(1);}
??MT_SysGpio_25:
        MOV     C,0xE0 /* A   */.1
        JNC     ??MT_SysGpio_26
        SETB    0x80.1
// 1025       if (val & BV(2)) {GPIO_SET(2);}
??MT_SysGpio_26:
        MOV     C,0xE0 /* A   */.2
        JNC     ??MT_SysGpio_27
        SETB    0x80.6
// 1026       if (val & BV(3)) {GPIO_SET(3);}
??MT_SysGpio_27:
        MOV     C,0xE0 /* A   */.3
        JNC     ??MT_SysGpio_6
        SETB    0x90.0
        SJMP    ??MT_SysGpio_6
// 1027       break;
// 1028 
// 1029     case GPIO_CLR:
// 1030       if (val & BV(0)) {GPIO_CLR(0);}
??MT_SysGpio_3:
        MOVX    A,@DPTR
        MOV     C,0xE0 /* A   */.0
        JNC     ??MT_SysGpio_28
        CLR     0x80.0
// 1031       if (val & BV(1)) {GPIO_CLR(1);}
??MT_SysGpio_28:
        MOV     C,0xE0 /* A   */.1
        JNC     ??MT_SysGpio_29
        CLR     0x80.1
// 1032       if (val & BV(2)) {GPIO_CLR(2);}
??MT_SysGpio_29:
        MOV     C,0xE0 /* A   */.2
        JNC     ??MT_SysGpio_30
        CLR     0x80.6
// 1033       if (val & BV(3)) {GPIO_CLR(3);}
??MT_SysGpio_30:
        MOV     C,0xE0 /* A   */.3
        JNC     ??MT_SysGpio_6
        CLR     0x90.0
        SJMP    ??MT_SysGpio_6
// 1034       break;
// 1035 
// 1036     case GPIO_TOG:
// 1037       if (val & BV(0)) {GPIO_TOG(0);}
??MT_SysGpio_4:
        MOVX    A,@DPTR
        MOV     C,0xE0 /* A   */.0
        JNC     ??MT_SysGpio_31
        XRL     0x80,#0x1
// 1038       if (val & BV(1)) {GPIO_TOG(1);}
??MT_SysGpio_31:
        MOV     C,0xE0 /* A   */.1
        JNC     ??MT_SysGpio_32
        XRL     0x80,#0x2
// 1039       if (val & BV(2)) {GPIO_TOG(2);}
??MT_SysGpio_32:
        MOV     C,0xE0 /* A   */.2
        JNC     ??MT_SysGpio_33
        XRL     0x80,#0x40
// 1040       if (val & BV(3)) {GPIO_TOG(3);}
??MT_SysGpio_33:
        MOV     C,0xE0 /* A   */.3
        JNC     ??MT_SysGpio_6
        XRL     0x90,#0x1
        SJMP    ??MT_SysGpio_6
// 1041       break;
// 1042 
// 1043     case GPIO_GET:
// 1044       break;
// 1045 
// 1046     case GPIO_HiD:
// 1047       (val) ? GPIO_HiD_SET() :  GPIO_HiD_CLR();
??MT_SysGpio_5:
        MOVX    A,@DPTR
        JZ      ??MT_SysGpio_34
        ORL     0x8c,#0x80
        SJMP    ??MT_SysGpio_6
??MT_SysGpio_34:
        ANL     0x8c,#0x7f
// 1048       break;
// 1049 
// 1050     default:
// 1051       break;
// 1052   }
// 1053 
// 1054   val  = (GPIO_GET(0)) ? BV(0) : 0;
??MT_SysGpio_6:
        MOV     C,0x80.0
        CLR     A
        RLC     A
        MOVX    @DPTR,A
// 1055   val |= (GPIO_GET(1)) ? BV(1) : 0;
        MOV     C,0x80.1
        JNC     ??MT_SysGpio_35
        MOV     R0,#0x2
        SJMP    ??MT_SysGpio_36
??MT_SysGpio_35:
        MOV     R0,#0x0
??MT_SysGpio_36:
        ORL     A,R0
        MOVX    @DPTR,A
// 1056   val |= (GPIO_GET(2)) ? BV(2) : 0;
        MOV     C,0x80.6
        JNC     ??MT_SysGpio_37
        MOV     R0,#0x4
        SJMP    ??MT_SysGpio_38
??MT_SysGpio_37:
        MOV     R0,#0x0
??MT_SysGpio_38:
        ORL     A,R0
        MOVX    @DPTR,A
// 1057   val |= (GPIO_GET(3)) ? BV(3) : 0;
        MOV     C,0x90.0
        JNC     ??MT_SysGpio_39
        MOV     R0,#0x8
        SJMP    ??MT_SysGpio_40
??MT_SysGpio_39:
        MOV     R0,#0x0
??MT_SysGpio_40:
        ORL     A,R0
        LCALL   ??Subroutine28_0 & 0xFFFF
// 1058 
// 1059   /* Build and send back the response */
// 1060   MT_BuildAndSendZToolResponse(((uint8)MT_RPC_CMD_SRSP | (uint8)MT_RPC_SYS_SYS), cmd, 1, &val);
??CrossCallReturnLabel_43:
          CFI EndBlock cfiBlock79
        REQUIRE ?Subroutine5
        REQUIRE P0DIR
        REQUIRE P1DIR
        REQUIRE P0SEL
        REQUIRE P0INP
        REQUIRE P2INP
        REQUIRE P1SEL
        REQUIRE P1INP
        REQUIRE _A_P0
        REQUIRE _A_P1
        REQUIRE PICTL
        ; // Fall through to label ?Subroutine5
// 1061 }

        RSEG BANKED_CODE:CODE:NOROOT(0)
?Subroutine5:
          CFI Block cfiBlock80 Using cfiCommon0
          CFI NoFunction
          CFI CFA_SP SP+-5
          CFI CFA_XSP16 add(XSP16, 1)
          CFI DPL0 Frame(CFA_SP, 4)
          CFI DPH0 Frame(CFA_SP, 5)
        MOV     R1,#0x61
        LCALL   `??MT_BuildAndSendZToolResponse::?relay`; Banked call to: MT_BuildAndSendZToolResponse
        MOV     A,#0x1
        LJMP    ??Subroutine34_0 & 0xFFFF
          CFI EndBlock cfiBlock80
// 1062 
// 1063 /**************************************************************************************************
// 1064  * @fn      MT_SysStackTune
// 1065  *
// 1066  * @brief   ZAccel RPC interface for tuning the stack parameters to adjust performance
// 1067  *
// 1068  * @param   uint8 pBuf - pointer to the data
// 1069  *
// 1070  * @return  None
// 1071  *************************************************************************************************/

        RSEG BANKED_CODE:CODE:NOROOT(0)
// 1072 void MT_SysStackTune(uint8 *pBuf)
MT_SysStackTune:
          CFI Block cfiBlock81 Using cfiCommon0
          CFI Function MT_SysStackTune
        CODE
// 1073 {
        FUNCALL MT_SysStackTune, ZMacSetReq
        LOCFRAME ISTACK, 0, STACK
        LOCFRAME PSTACK, 0, STACK
        LOCFRAME XSTACK, 10, STACK
        LOCFRAME IOVERLAY, 0, STATIC
        LOCFRAME DOVERLAY, 0, STATIC
        ARGFRAME ISTACK, 0, STACK
        ARGFRAME PSTACK, 0, STACK
        ARGFRAME XSTACK, 10, STACK
        ARGFRAME IOVERLAY, 0, STATIC
        ARGFRAME DOVERLAY, 0, STATIC
        FUNCALL MT_SysStackTune, ZMacGetReq
        LOCFRAME ISTACK, 0, STACK
        LOCFRAME PSTACK, 0, STACK
        LOCFRAME XSTACK, 10, STACK
        LOCFRAME IOVERLAY, 0, STATIC
        LOCFRAME DOVERLAY, 0, STATIC
        ARGFRAME ISTACK, 0, STACK
        ARGFRAME PSTACK, 0, STACK
        ARGFRAME XSTACK, 10, STACK
        ARGFRAME IOVERLAY, 0, STATIC
        ARGFRAME DOVERLAY, 0, STATIC
        FUNCALL MT_SysStackTune, ZMacSetReq
        LOCFRAME ISTACK, 0, STACK
        LOCFRAME PSTACK, 0, STACK
        LOCFRAME XSTACK, 10, STACK
        LOCFRAME IOVERLAY, 0, STATIC
        LOCFRAME DOVERLAY, 0, STATIC
        ARGFRAME ISTACK, 0, STACK
        ARGFRAME PSTACK, 0, STACK
        ARGFRAME XSTACK, 10, STACK
        ARGFRAME IOVERLAY, 0, STATIC
        ARGFRAME DOVERLAY, 0, STATIC
        FUNCALL MT_SysStackTune, MT_BuildAndSendZToolResponse
        LOCFRAME ISTACK, 0, STACK
        LOCFRAME PSTACK, 0, STACK
        LOCFRAME XSTACK, 10, STACK
        LOCFRAME IOVERLAY, 0, STATIC
        LOCFRAME DOVERLAY, 0, STATIC
        ARGFRAME ISTACK, 0, STACK
        ARGFRAME PSTACK, 0, STACK
        ARGFRAME XSTACK, 10, STACK
        ARGFRAME IOVERLAY, 0, STATIC
        ARGFRAME DOVERLAY, 0, STATIC
        MOV     A,#-0x9
        LCALL   ?BANKED_ENTER_XDATA
          CFI DPH0 load(1, XDATA, add(CFA_XSP16, literal(-1)))
          CFI DPL0 load(1, XDATA, add(CFA_XSP16, literal(-2)))
          CFI ?BRET_EXT load(1, XDATA, add(CFA_XSP16, literal(-3)))
          CFI ?RET_HIGH load(1, XDATA, add(CFA_XSP16, literal(-4)))
          CFI ?RET_LOW load(1, XDATA, add(CFA_XSP16, literal(-5)))
          CFI R7 load(1, XDATA, add(CFA_XSP16, literal(-6)))
          CFI V0 load(1, XDATA, add(CFA_XSP16, literal(-7)))
          CFI VB load(1, XDATA, add(CFA_XSP16, literal(-8)))
          CFI R6 load(1, XDATA, add(CFA_XSP16, literal(-9)))
          CFI CFA_SP SP+0
          CFI CFA_XSP16 add(XSP16, 9)
        ; Saved register size: 9
        ; Auto size: 1
        MOV     A,#-0x1
        LCALL   ?ALLOC_XSTACK8
          CFI CFA_XSP16 add(XSP16, 10)
// 1074   uint8 cmd, rtrn;
// 1075 
// 1076   cmd = pBuf[MT_RPC_POS_CMD1];
        LCALL   ??Subroutine26_0 & 0xFFFF
// 1077   pBuf += MT_RPC_FRAME_HDR_SZ;
// 1078 
// 1079   switch (*pBuf++)
??CrossCallReturnLabel_33:
        MOV     R0,A
        CLR     A
        ADDC    A,R3
        MOV     R1,A
        MOV     DPL,R0
        MOV     DPH,R1
        INC     DPTR
        MOV     R2,DPL
        MOV     R3,DPH
        MOV     DPL,R0
        MOV     DPH,R1
        MOVX    A,@DPTR
        JZ      ??MT_SysStackTune_0
        DEC     A
        JZ      ??MT_SysStackTune_1
        SJMP    ??MT_SysStackTune_2
// 1080   {
// 1081   case STK_TX_PWR:
// 1082     rtrn = ZMacSetReq(ZMacPhyTransmitPowerSigned, pBuf);
??MT_SysStackTune_0:
        ; Setup parameters for call to function ZMacSetReq
        MOV     R1,#-0x20
        SJMP    ??MT_SysStackTune_3
// 1083     break;
// 1084 
// 1085   case STK_RX_ON_IDLE:
// 1086     if ((*pBuf != TRUE) && (*pBuf != FALSE))
??MT_SysStackTune_1:
        MOV     DPL,R2
        MOV     DPH,R3
        MOVX    A,@DPTR
        XRL     A,#0x1
        JZ      ??MT_SysStackTune_4
        MOVX    A,@DPTR
        JZ      ??MT_SysStackTune_4
// 1087     {
// 1088       (void)ZMacGetReq(ZMacRxOnIdle, &rtrn);
        ; Setup parameters for call to function ZMacGetReq
        MOV     R2,?XSP + 0
        MOV     R3,?XSP + 1
        MOV     R1,#0x52
        LCALL   `??ZMacGetReq::?relay`; Banked call to: ZMacGetReq
        SJMP    ??MT_SysStackTune_5
// 1089     }
// 1090     else
// 1091     {
// 1092       rtrn = ZMacSetReq(ZMacRxOnIdle, pBuf);
??MT_SysStackTune_4:
        ; Setup parameters for call to function ZMacSetReq
        MOV     R1,#0x52
??MT_SysStackTune_3:
        LCALL   `??ZMacSetReq::?relay`; Banked call to: ZMacSetReq
        MOV     A,R1
        MOV     DPL,?XSP + 0
        MOV     DPH,?XSP + 1
        SJMP    ??MT_SysStackTune_6
// 1093     }
// 1094     break;
// 1095 
// 1096   default:
// 1097     rtrn = ZInvalidParameter;
??MT_SysStackTune_2:
        MOV     DPL,?XSP + 0
        MOV     DPH,?XSP + 1
        MOV     A,#0x2
??MT_SysStackTune_6:
        MOVX    @DPTR,A
// 1098     break;
// 1099   }
// 1100 
// 1101   MT_BuildAndSendZToolResponse(((uint8)MT_RPC_CMD_SRSP | (uint8)MT_RPC_SYS_SYS), cmd, 1, &rtrn);
??MT_SysStackTune_5:
        ; Setup parameters for call to function MT_BuildAndSendZToolResponse
        LJMP    ?Subroutine0 & 0xFFFF
// 1102 }
          CFI EndBlock cfiBlock81
// 1103 
// 1104 /***************************************************************************************************
// 1105  * @fn      MT_SysSetUtcTime
// 1106  *
// 1107  * @brief   Set the OSAL UTC Time. UTC rollover is: 06:28:16 02/07/2136
// 1108  *
// 1109  * @param   pBuf - pointer to time parameters
// 1110  *
// 1111  * @return  None
// 1112  ***************************************************************************************************/

        RSEG BANKED_CODE:CODE:NOROOT(0)
// 1113 void MT_SysSetUtcTime(uint8 *pBuf)
MT_SysSetUtcTime:
          CFI Block cfiBlock82 Using cfiCommon0
          CFI Function MT_SysSetUtcTime
        CODE
// 1114 {
        FUNCALL MT_SysSetUtcTime, osal_build_uint32
        LOCFRAME ISTACK, 0, STACK
        LOCFRAME PSTACK, 0, STACK
        LOCFRAME XSTACK, 24, STACK
        LOCFRAME IOVERLAY, 0, STATIC
        LOCFRAME DOVERLAY, 0, STATIC
        ARGFRAME ISTACK, 0, STACK
        ARGFRAME PSTACK, 0, STACK
        ARGFRAME XSTACK, 24, STACK
        ARGFRAME IOVERLAY, 0, STATIC
        ARGFRAME DOVERLAY, 0, STATIC
        FUNCALL MT_SysSetUtcTime, osal_build_uint16
        LOCFRAME ISTACK, 0, STACK
        LOCFRAME PSTACK, 0, STACK
        LOCFRAME XSTACK, 24, STACK
        LOCFRAME IOVERLAY, 0, STATIC
        LOCFRAME DOVERLAY, 0, STATIC
        ARGFRAME ISTACK, 0, STACK
        ARGFRAME PSTACK, 0, STACK
        ARGFRAME XSTACK, 24, STACK
        ARGFRAME IOVERLAY, 0, STATIC
        ARGFRAME DOVERLAY, 0, STATIC
        FUNCALL MT_SysSetUtcTime, osal_ConvertUTCSecs
        LOCFRAME ISTACK, 0, STACK
        LOCFRAME PSTACK, 0, STACK
        LOCFRAME XSTACK, 24, STACK
        LOCFRAME IOVERLAY, 0, STATIC
        LOCFRAME DOVERLAY, 0, STATIC
        ARGFRAME ISTACK, 0, STACK
        ARGFRAME PSTACK, 0, STACK
        ARGFRAME XSTACK, 24, STACK
        ARGFRAME IOVERLAY, 0, STATIC
        ARGFRAME DOVERLAY, 0, STATIC
        FUNCALL MT_SysSetUtcTime, osal_setClock
        LOCFRAME ISTACK, 0, STACK
        LOCFRAME PSTACK, 0, STACK
        LOCFRAME XSTACK, 24, STACK
        LOCFRAME IOVERLAY, 0, STATIC
        LOCFRAME DOVERLAY, 0, STATIC
        ARGFRAME ISTACK, 0, STACK
        ARGFRAME PSTACK, 0, STACK
        ARGFRAME XSTACK, 24, STACK
        ARGFRAME IOVERLAY, 0, STATIC
        ARGFRAME DOVERLAY, 0, STATIC
        FUNCALL MT_SysSetUtcTime, MT_BuildAndSendZToolResponse
        LOCFRAME ISTACK, 0, STACK
        LOCFRAME PSTACK, 0, STACK
        LOCFRAME XSTACK, 24, STACK
        LOCFRAME IOVERLAY, 0, STATIC
        LOCFRAME DOVERLAY, 0, STATIC
        ARGFRAME ISTACK, 0, STACK
        ARGFRAME PSTACK, 0, STACK
        ARGFRAME XSTACK, 24, STACK
        ARGFRAME IOVERLAY, 0, STATIC
        ARGFRAME DOVERLAY, 0, STATIC
        REQUIRE ?V0
        REQUIRE ?V2
        REQUIRE ?V3
        REQUIRE ?V4
        REQUIRE ?V5
        REQUIRE ?V6
        REQUIRE ?V7
        MOV     A,#-0x10
        LCALL   ?BANKED_ENTER_XDATA
          CFI DPH0 load(1, XDATA, add(CFA_XSP16, literal(-1)))
          CFI DPL0 load(1, XDATA, add(CFA_XSP16, literal(-2)))
          CFI ?BRET_EXT load(1, XDATA, add(CFA_XSP16, literal(-3)))
          CFI ?RET_HIGH load(1, XDATA, add(CFA_XSP16, literal(-4)))
          CFI ?RET_LOW load(1, XDATA, add(CFA_XSP16, literal(-5)))
          CFI R7 load(1, XDATA, add(CFA_XSP16, literal(-6)))
          CFI V7 load(1, XDATA, add(CFA_XSP16, literal(-7)))
          CFI V6 load(1, XDATA, add(CFA_XSP16, literal(-8)))
          CFI V5 load(1, XDATA, add(CFA_XSP16, literal(-9)))
          CFI V4 load(1, XDATA, add(CFA_XSP16, literal(-10)))
          CFI V3 load(1, XDATA, add(CFA_XSP16, literal(-11)))
          CFI V2 load(1, XDATA, add(CFA_XSP16, literal(-12)))
          CFI V1 load(1, XDATA, add(CFA_XSP16, literal(-13)))
          CFI V0 load(1, XDATA, add(CFA_XSP16, literal(-14)))
          CFI VB load(1, XDATA, add(CFA_XSP16, literal(-15)))
          CFI R6 load(1, XDATA, add(CFA_XSP16, literal(-16)))
          CFI CFA_SP SP+0
          CFI CFA_XSP16 add(XSP16, 16)
        ; Saved register size: 16
        ; Auto size: 8
        MOV     A,#-0x8
        LCALL   ?ALLOC_XSTACK8
          CFI CFA_XSP16 add(XSP16, 24)
        MOV     A,R2
        MOV     R6,A
        MOV     A,R3
        MOV     R7,A
// 1115   uint8 cmdId;
// 1116   uint8 retStat;
// 1117   UTCTime utcSecs;
// 1118 
// 1119   /* Parse header */
// 1120   cmdId = pBuf[MT_RPC_POS_CMD1];
        MOV     DPL,R6
        MOV     DPH,R7
        INC     DPTR
        INC     DPTR
        MOVX    A,@DPTR
        MOV     ?V0,A
// 1121   pBuf += MT_RPC_FRAME_HDR_SZ;
        MOV     A,R6
        ADD     A,#0x3
        MOV     R6,A
        JNC     ??MT_SysSetUtcTime_0
        INC     R7
// 1122 
// 1123   utcSecs = osal_build_uint32( pBuf, 4 );
??MT_SysSetUtcTime_0:
        ; Setup parameters for call to function osal_build_uint32
        MOV     R1,#0x4
        MOV     R2,A
        MOV     A,R7
        MOV     R3,A
        LCALL   `??osal_build_uint32::?relay`; Banked call to: osal_build_uint32
        MOV     ?V4,R2
        MOV     ?V5,R3
        MOV     ?V6,R4
        MOV     ?V7,R5
// 1124   if ( utcSecs == 0 )
        MOV     A,R2
        ORL     A,?V5
        ORL     A,?V6
        ORL     A,?V7
        JZ      $+5
        LJMP    ??MT_SysSetUtcTime_1 & 0xFFFF
// 1125   {
// 1126     UTCTimeStruct utc;
// 1127 
// 1128     /* Skip past UTC time */
// 1129     pBuf += 4;
// 1130 
// 1131     /* Get time and date parameters */
// 1132     utc.hour = *pBuf++;
        MOV     DPL,R6
        MOV     DPH,R7
        INC     DPTR
        INC     DPTR
        INC     DPTR
        INC     DPTR
        MOVX    A,@DPTR
        PUSH    A
          CFI CFA_SP SP+-1
        MOV     A,#0x3
        LCALL   ?XSTACK_DISP0_8
        POP     A
          CFI CFA_SP SP+0
        LCALL   ?Subroutine20 & 0xFFFF
// 1133     utc.minutes = *pBuf++;
??CrossCallReturnLabel_22:
        MOVX    A,@DPTR
        PUSH    A
          CFI CFA_SP SP+-1
        MOV     A,#0x2
        LCALL   ?XSTACK_DISP0_8
        POP     A
          CFI CFA_SP SP+0
        LCALL   ?Subroutine20 & 0xFFFF
// 1134     utc.seconds = *pBuf++;
??CrossCallReturnLabel_23:
        INC     DPTR
        MOVX    A,@DPTR
        PUSH    A
          CFI CFA_SP SP+-1
        MOV     A,#0x1
        LCALL   ?XSTACK_DISP0_8
        POP     A
          CFI CFA_SP SP+0
        LCALL   ?Subroutine19 & 0xFFFF
// 1135     utc.month = (*pBuf++) - 1;
??CrossCallReturnLabel_20:
        MOVX    A,@DPTR
        DEC     A
        PUSH    A
          CFI CFA_SP SP+-1
        MOV     A,#0x5
        LCALL   ?XSTACK_DISP0_8
        POP     A
          CFI CFA_SP SP+0
        LCALL   ?Subroutine19 & 0xFFFF
// 1136     utc.day = (*pBuf++) - 1;
??CrossCallReturnLabel_21:
        INC     DPTR
        MOVX    A,@DPTR
        DEC     A
        PUSH    A
          CFI CFA_SP SP+-1
        MOV     A,#0x4
        LCALL   ?XSTACK_DISP0_8
        POP     A
          CFI CFA_SP SP+0
        MOVX    @DPTR,A
// 1137     utc.year = osal_build_uint16 ( pBuf );
        ; Setup parameters for call to function osal_build_uint16
        MOV     A,R6
        ADD     A,#0x9
        MOV     R2,A
        CLR     A
        ADDC    A,R7
        MOV     R3,A
        LCALL   `??osal_build_uint16::?relay`; Banked call to: osal_build_uint16
        MOV     A,#0x6
        LCALL   ?XSTACK_DISP0_8
        MOV     A,R2
        MOVX    @DPTR,A
        INC     DPTR
        MOV     A,R3
        MOVX    @DPTR,A
// 1138 
// 1139     if ((utc.hour < 24) && (utc.minutes < 60) && (utc.seconds < 60) &&
// 1140         (utc.month < 12) && (utc.day < 31) && (utc.year > 1999) && (utc.year < 2136))
        MOV     A,#0x3
        LCALL   ?XSTACK_DISP0_8
        MOVX    A,@DPTR
        CLR     C
        SUBB    A,#0x18
        JC      $+5
        LJMP    ??MT_SysSetUtcTime_2 & 0xFFFF
        MOV     A,#0x2
        LCALL   ?XSTACK_DISP0_8
        MOVX    A,@DPTR
        CLR     C
        SUBB    A,#0x3c
        JC      $+5
        LJMP    ??MT_SysSetUtcTime_2 & 0xFFFF
        MOV     A,#0x1
        LCALL   ?XSTACK_DISP0_8
        MOVX    A,@DPTR
        CLR     C
        SUBB    A,#0x3c
        JC      $+5
        LJMP    ??MT_SysSetUtcTime_2 & 0xFFFF
        MOV     A,#0x5
        LCALL   ?XSTACK_DISP0_8
        MOVX    A,@DPTR
        CLR     C
        SUBB    A,#0xc
        JC      $+5
        LJMP    ??MT_SysSetUtcTime_2 & 0xFFFF
        MOV     A,#0x4
        LCALL   ?XSTACK_DISP0_8
        MOVX    A,@DPTR
        CLR     C
        SUBB    A,#0x1f
        JC      $+5
        LJMP    ??MT_SysSetUtcTime_2 & 0xFFFF
        MOV     A,#0x6
        LCALL   ?XSTACK_DISP0_8
        MOVX    A,@DPTR
        ADD     A,#0x30
        MOV     R0,A
        INC     DPTR
        MOVX    A,@DPTR
        ADDC    A,#-0x8
        MOV     R1,A
        CLR     C
        MOV     A,R0
        SUBB    A,#-0x78
        MOV     A,R1
        SUBB    A,#0x0
        JNC     ??MT_SysSetUtcTime_2
// 1141     {
// 1142       /* Got past the course filter, now check for leap year */
// 1143       if ((utc.month != 1) || (utc.day < (IsLeapYear( utc.year ) ? 29 : 28)))
        MOV     A,#0x5
        LCALL   ?XSTACK_DISP0_8
        MOVX    A,@DPTR
        XRL     A,#0x1
        JNZ     ??MT_SysSetUtcTime_3
        MOV     A,#0x6
        LCALL   ?XSTACK_DISP0_8
        MOVX    A,@DPTR
        MOV     R0,A
        INC     DPTR
        MOVX    A,@DPTR
        MOV     R1,A
        MOV     R2,#-0x70
        MOV     R3,#0x1
        LCALL   ?US_DIV_MOD
        MOV     ?V3,R3
        MOV     A,R2
        ORL     A,?V3
        JZ      ??MT_SysSetUtcTime_4
        MOV     A,#0x6
        LCALL   ?XSTACK_DISP0_8
        MOVX    A,@DPTR
        MOV     R0,A
        INC     DPTR
        MOVX    A,@DPTR
        MOV     R1,A
        MOV     R2,#0x64
        MOV     R3,#0x0
        LCALL   ?US_DIV_MOD
        MOV     ?V3,R3
        MOV     A,R2
        ORL     A,?V3
        JZ      ??MT_SysSetUtcTime_5
        MOV     A,#0x6
        LCALL   ?XSTACK_DISP0_8
        MOVX    A,@DPTR
        ANL     A,#0x3
        JNZ     ??MT_SysSetUtcTime_5
??MT_SysSetUtcTime_4:
        MOV     R2,#0x1d
        SJMP    ??MT_SysSetUtcTime_6
??MT_SysSetUtcTime_5:
        MOV     R2,#0x1c
??MT_SysSetUtcTime_6:
        MOV     A,#0x4
        LCALL   ?XSTACK_DISP0_8
        MOVX    A,@DPTR
        CLR     C
        SUBB    A,R2
        SUBB    A,0xE0 /* A   */
        CLR     C
        XRL     A,PSW
        RLC     A
        JNC     ??MT_SysSetUtcTime_2
// 1144       {
// 1145         /* Numbers look reasonable, convert to UTC */
// 1146         utcSecs = osal_ConvertUTCSecs( &utc );
??MT_SysSetUtcTime_3:
        ; Setup parameters for call to function osal_ConvertUTCSecs
        MOV     A,#0x1
        LCALL   ?XSTACK_DISP101_8
        LCALL   `??osal_ConvertUTCSecs::?relay`; Banked call to: osal_ConvertUTCSecs
        MOV     ?V4,R2
        MOV     ?V5,R3
        MOV     ?V6,R4
        MOV     ?V7,R5
// 1147       }
// 1148     }
// 1149   }
// 1150 
// 1151   if ( utcSecs == 0 )
??MT_SysSetUtcTime_1:
        MOV     A,?V4
        ORL     A,?V5
        ORL     A,?V6
        ORL     A,?V7
        JNZ     ??MT_SysSetUtcTime_7
// 1152   {
// 1153     /* Bad parameter(s) */
// 1154     retStat = ZInvalidParameter;
??MT_SysSetUtcTime_2:
        MOV     DPL,?XSP + 0
        MOV     DPH,?XSP + 1
        MOV     A,#0x2
        SJMP    ??MT_SysSetUtcTime_8
// 1155   }
// 1156   else
// 1157   {
// 1158     /* Parameters accepted, set the time */
// 1159     osal_setClock( utcSecs );
??MT_SysSetUtcTime_7:
        ; Setup parameters for call to function osal_setClock
        MOV     R2,?V4
        MOV     R3,?V5
        MOV     R4,?V6
        MOV     R5,?V7
        LCALL   `??osal_setClock::?relay`; Banked call to: osal_setClock
// 1160     retStat = ZSuccess;
        MOV     DPL,?XSP + 0
        MOV     DPH,?XSP + 1
        CLR     A
// 1161   }
??MT_SysSetUtcTime_8:
        LCALL   ??Subroutine28_0 & 0xFFFF
// 1162 
// 1163   /* Build and send back the response */
// 1164   MT_BuildAndSendZToolResponse(((uint8)MT_RPC_CMD_SRSP | (uint8)MT_RPC_SYS_SYS),
// 1165                                  cmdId, 1, &retStat);
??CrossCallReturnLabel_44:
        MOV     R2,?V0
        MOV     R1,#0x61
        LCALL   `??MT_BuildAndSendZToolResponse::?relay`; Banked call to: MT_BuildAndSendZToolResponse
// 1166 }
        MOV     A,#0x8
        LJMP    ??Subroutine38_0 & 0xFFFF
          CFI EndBlock cfiBlock82

        RSEG BANKED_CODE:CODE:NOROOT(0)
?Subroutine20:
          CFI Block cfiCond83 Using cfiCommon0
          CFI Function MT_SysSetUtcTime
          CFI Conditional ??CrossCallReturnLabel_22
          CFI R6 load(1, XDATA, add(CFA_XSP16, literal(-16)))
          CFI VB load(1, XDATA, add(CFA_XSP16, literal(-15)))
          CFI V0 load(1, XDATA, add(CFA_XSP16, literal(-14)))
          CFI V1 load(1, XDATA, add(CFA_XSP16, literal(-13)))
          CFI V2 load(1, XDATA, add(CFA_XSP16, literal(-12)))
          CFI V3 load(1, XDATA, add(CFA_XSP16, literal(-11)))
          CFI V4 load(1, XDATA, add(CFA_XSP16, literal(-10)))
          CFI V5 load(1, XDATA, add(CFA_XSP16, literal(-9)))
          CFI V6 load(1, XDATA, add(CFA_XSP16, literal(-8)))
          CFI V7 load(1, XDATA, add(CFA_XSP16, literal(-7)))
          CFI R7 load(1, XDATA, add(CFA_XSP16, literal(-6)))
          CFI ?RET_LOW load(1, XDATA, add(CFA_XSP16, literal(-5)))
          CFI ?RET_HIGH load(1, XDATA, add(CFA_XSP16, literal(-4)))
          CFI ?BRET_EXT load(1, XDATA, add(CFA_XSP16, literal(-3)))
          CFI DPL0 load(1, XDATA, add(CFA_XSP16, literal(-2)))
          CFI DPH0 load(1, XDATA, add(CFA_XSP16, literal(-1)))
          CFI CFA_SP SP+-2
          CFI CFA_XSP16 add(XSP16, 24)
          CFI Block cfiCond84 Using cfiCommon0
          CFI (cfiCond84) Function MT_SysSetUtcTime
          CFI (cfiCond84) Conditional ??CrossCallReturnLabel_23
          CFI (cfiCond84) R6 load(1, XDATA, add(CFA_XSP16, literal(-16)))
          CFI (cfiCond84) VB load(1, XDATA, add(CFA_XSP16, literal(-15)))
          CFI (cfiCond84) V0 load(1, XDATA, add(CFA_XSP16, literal(-14)))
          CFI (cfiCond84) V1 load(1, XDATA, add(CFA_XSP16, literal(-13)))
          CFI (cfiCond84) V2 load(1, XDATA, add(CFA_XSP16, literal(-12)))
          CFI (cfiCond84) V3 load(1, XDATA, add(CFA_XSP16, literal(-11)))
          CFI (cfiCond84) V4 load(1, XDATA, add(CFA_XSP16, literal(-10)))
          CFI (cfiCond84) V5 load(1, XDATA, add(CFA_XSP16, literal(-9)))
          CFI (cfiCond84) V6 load(1, XDATA, add(CFA_XSP16, literal(-8)))
          CFI (cfiCond84) V7 load(1, XDATA, add(CFA_XSP16, literal(-7)))
          CFI (cfiCond84) R7 load(1, XDATA, add(CFA_XSP16, literal(-6)))
          CFI (cfiCond84) ?RET_LOW load(1, XDATA, add(CFA_XSP16, literal(-5)))
          CFI (cfiCond84) ?RET_HIGH load(1, XDATA, add(CFA_XSP16, literal(-4)))
          CFI (cfiCond84) ?BRET_EXT load(1, XDATA, add(CFA_XSP16, literal(-3)))
          CFI (cfiCond84) DPL0 load(1, XDATA, add(CFA_XSP16, literal(-2)))
          CFI (cfiCond84) DPH0 load(1, XDATA, add(CFA_XSP16, literal(-1)))
          CFI (cfiCond84) CFA_SP SP+-2
          CFI (cfiCond84) CFA_XSP16 add(XSP16, 24)
          CFI Block cfiPicker85 Using cfiCommon1
          CFI (cfiPicker85) NoFunction
          CFI (cfiPicker85) Picker
        LCALL   ?Subroutine24 & 0xFFFF
??CrossCallReturnLabel_29:
        RET
          CFI EndBlock cfiCond83
          CFI EndBlock cfiCond84
          CFI EndBlock cfiPicker85

        RSEG BANKED_CODE:CODE:NOROOT(0)
?Subroutine24:
          CFI Block cfiCond86 Using cfiCommon0
          CFI Function MT_SysSetUtcTime
          CFI Conditional ??CrossCallReturnLabel_29, ??CrossCallReturnLabel_22
          CFI R6 load(1, XDATA, add(CFA_XSP16, literal(-16)))
          CFI VB load(1, XDATA, add(CFA_XSP16, literal(-15)))
          CFI V0 load(1, XDATA, add(CFA_XSP16, literal(-14)))
          CFI V1 load(1, XDATA, add(CFA_XSP16, literal(-13)))
          CFI V2 load(1, XDATA, add(CFA_XSP16, literal(-12)))
          CFI V3 load(1, XDATA, add(CFA_XSP16, literal(-11)))
          CFI V4 load(1, XDATA, add(CFA_XSP16, literal(-10)))
          CFI V5 load(1, XDATA, add(CFA_XSP16, literal(-9)))
          CFI V6 load(1, XDATA, add(CFA_XSP16, literal(-8)))
          CFI V7 load(1, XDATA, add(CFA_XSP16, literal(-7)))
          CFI R7 load(1, XDATA, add(CFA_XSP16, literal(-6)))
          CFI ?RET_LOW load(1, XDATA, add(CFA_XSP16, literal(-5)))
          CFI ?RET_HIGH load(1, XDATA, add(CFA_XSP16, literal(-4)))
          CFI ?BRET_EXT load(1, XDATA, add(CFA_XSP16, literal(-3)))
          CFI DPL0 load(1, XDATA, add(CFA_XSP16, literal(-2)))
          CFI DPH0 load(1, XDATA, add(CFA_XSP16, literal(-1)))
          CFI CFA_SP SP+-4
          CFI CFA_XSP16 add(XSP16, 24)
          CFI Block cfiCond87 Using cfiCommon0
          CFI (cfiCond87) Function MT_SysSetUtcTime
          CFI (cfiCond87) Conditional ??CrossCallReturnLabel_29, ??CrossCallReturnLabel_23
          CFI (cfiCond87) R6 load(1, XDATA, add(CFA_XSP16, literal(-16)))
          CFI (cfiCond87) VB load(1, XDATA, add(CFA_XSP16, literal(-15)))
          CFI (cfiCond87) V0 load(1, XDATA, add(CFA_XSP16, literal(-14)))
          CFI (cfiCond87) V1 load(1, XDATA, add(CFA_XSP16, literal(-13)))
          CFI (cfiCond87) V2 load(1, XDATA, add(CFA_XSP16, literal(-12)))
          CFI (cfiCond87) V3 load(1, XDATA, add(CFA_XSP16, literal(-11)))
          CFI (cfiCond87) V4 load(1, XDATA, add(CFA_XSP16, literal(-10)))
          CFI (cfiCond87) V5 load(1, XDATA, add(CFA_XSP16, literal(-9)))
          CFI (cfiCond87) V6 load(1, XDATA, add(CFA_XSP16, literal(-8)))
          CFI (cfiCond87) V7 load(1, XDATA, add(CFA_XSP16, literal(-7)))
          CFI (cfiCond87) R7 load(1, XDATA, add(CFA_XSP16, literal(-6)))
          CFI (cfiCond87) ?RET_LOW load(1, XDATA, add(CFA_XSP16, literal(-5)))
          CFI (cfiCond87) ?RET_HIGH load(1, XDATA, add(CFA_XSP16, literal(-4)))
          CFI (cfiCond87) ?BRET_EXT load(1, XDATA, add(CFA_XSP16, literal(-3)))
          CFI (cfiCond87) DPL0 load(1, XDATA, add(CFA_XSP16, literal(-2)))
          CFI (cfiCond87) DPH0 load(1, XDATA, add(CFA_XSP16, literal(-1)))
          CFI (cfiCond87) CFA_SP SP+-4
          CFI (cfiCond87) CFA_XSP16 add(XSP16, 24)
          CFI Block cfiCond88 Using cfiCommon0
          CFI (cfiCond88) Function MT_SysSetUtcTime
          CFI (cfiCond88) Conditional ??CrossCallReturnLabel_30, ??CrossCallReturnLabel_20
          CFI (cfiCond88) R6 load(1, XDATA, add(CFA_XSP16, literal(-16)))
          CFI (cfiCond88) VB load(1, XDATA, add(CFA_XSP16, literal(-15)))
          CFI (cfiCond88) V0 load(1, XDATA, add(CFA_XSP16, literal(-14)))
          CFI (cfiCond88) V1 load(1, XDATA, add(CFA_XSP16, literal(-13)))
          CFI (cfiCond88) V2 load(1, XDATA, add(CFA_XSP16, literal(-12)))
          CFI (cfiCond88) V3 load(1, XDATA, add(CFA_XSP16, literal(-11)))
          CFI (cfiCond88) V4 load(1, XDATA, add(CFA_XSP16, literal(-10)))
          CFI (cfiCond88) V5 load(1, XDATA, add(CFA_XSP16, literal(-9)))
          CFI (cfiCond88) V6 load(1, XDATA, add(CFA_XSP16, literal(-8)))
          CFI (cfiCond88) V7 load(1, XDATA, add(CFA_XSP16, literal(-7)))
          CFI (cfiCond88) R7 load(1, XDATA, add(CFA_XSP16, literal(-6)))
          CFI (cfiCond88) ?RET_LOW load(1, XDATA, add(CFA_XSP16, literal(-5)))
          CFI (cfiCond88) ?RET_HIGH load(1, XDATA, add(CFA_XSP16, literal(-4)))
          CFI (cfiCond88) ?BRET_EXT load(1, XDATA, add(CFA_XSP16, literal(-3)))
          CFI (cfiCond88) DPL0 load(1, XDATA, add(CFA_XSP16, literal(-2)))
          CFI (cfiCond88) DPH0 load(1, XDATA, add(CFA_XSP16, literal(-1)))
          CFI (cfiCond88) CFA_SP SP+-4
          CFI (cfiCond88) CFA_XSP16 add(XSP16, 24)
          CFI Block cfiCond89 Using cfiCommon0
          CFI (cfiCond89) Function MT_SysSetUtcTime
          CFI (cfiCond89) Conditional ??CrossCallReturnLabel_30, ??CrossCallReturnLabel_21
          CFI (cfiCond89) R6 load(1, XDATA, add(CFA_XSP16, literal(-16)))
