///////////////////////////////////////////////////////////////////////////////
//
// IAR C/C++ Compiler V9.30.1.3056 for 8051               21/Nov/2018  13:52:14
// Copyright 2004-2015 IAR Systems AB.
// Standalone license - IAR Embedded Workbench for 8051
//
//    Core               =  plain
//    Code model         =  banked
//    Data model         =  large
//    Calling convention =  xdata reentrant
//    Constant location  =  data_rom
//    Dptr setup         =  1,16
//                          
//    Source file        =  
//        D:\1.embedded\kit\cc2530\Reference\Z-Stack Mesh
//        1.0.0\Components\stack\sapi\sapi.c
//    Command line       =  
//        -f "D:\1.embedded\kit\cc2530\Reference\Z-Stack Mesh
//        1.0.0\Projects\zstack\ZNP\CC253x\..\Source\znp.cfg"
//        (-DMAC_CFG_APP_PENDING_QUEUE=TRUE
//        "-DZSTACK_DEVICE_BUILD=(DEVICE_BUILD_COORDINATOR |
//        DEVICE_BUILD_ROUTER | DEVICE_BUILD_ENDDEVICE)" -DNWK_AUTO_POLL
//        -DZNP_RUN_WDOG=FALSE -DZNP_UART_BAUD=HAL_UART_BR_115200 -DZIGBEEPRO
//        -DZIGBEE_FRAGMENTATION -DINTER_PAN -DOSAL_CLOCK -DOSAL_SAPI=FALSE
//        -DSAPI_CB_FUNC=FALSE -DHOLD_AUTO_START -DNV_RESTORE -DNV_INIT
//        -DNUM_DISC_ATTEMPTS=0 -DMT_UTIL_FUNC -DMT_SYS_FUNC -DMT_AF_FUNC
//        -DMT_SAPI_FUNC -DMT_SAPI_CB_FUNC -DMT_ZDO_CB_FUNC -DMT_ZDO_FUNC
//        -DMT_ZDO_MGMT -DMT_ZDO_EXTENSIONS -DMT_APP_FUNC) -f
//        "D:\1.embedded\kit\cc2530\Reference\Z-Stack Mesh
//        1.0.0\Projects\zstack\ZNP\CC253x\..\..\Tools\CC2530DB\f8wConfig.cfg"
//        (-DZIGBEEPRO -DSECURE=1 -DZG_SECURE_DYNAMIC=0 -DREFLECTOR
//        -DDEFAULT_CHANLIST=0x00000800 -DZDAPP_CONFIG_PAN_ID=0xFFFF
//        -DNWK_START_DELAY=100 -DEXTENDED_JOINING_RANDOM_MASK=0x007F
//        -DBEACON_REQUEST_DELAY=100 -DBEACON_REQ_DELAY_MASK=0x00FF
//        -DLINK_STATUS_JITTER_MASK=0x007F -DROUTE_EXPIRY_TIME=30
//        -DAPSC_ACK_WAIT_DURATION_POLLED=3000 -DNWK_INDIRECT_MSG_TIMEOUT=7
//        -DMAX_RREQ_ENTRIES=8 -DAPSC_MAX_FRAME_RETRIES=3
//        -DNWK_MAX_DATA_RETRIES=2 -DMAX_POLL_FAILURE_RETRIES=2 -DMAX_BCAST=9
//        -DAPS_MAX_GROUPS=16 -DMAX_RTG_ENTRIES=40 -DNWK_MAX_BINDING_ENTRIES=4
//        -DMAX_BINDING_CLUSTER_IDS=4 "-DDEFAULT_KEY={0x01, 0x03, 0x05, 0x07,
//        0x09, 0x0B, 0x0D, 0x0F, 0x00, 0x02, 0x04, 0x06, 0x08, 0x0A, 0x0C,
//        0x0D}" -DMAC_MAX_FRAME_SIZE=116 -DZDNWKMGR_MIN_TRANSMISSIONS=20
//        "-DCONST=const __code" -DGENERIC=__generic -DRFD_RCVC_ALWAYS_ON=FALSE
//        -DPOLL_RATE=1000 -DQUEUED_POLL_RATE=100 -DRESPONSE_POLL_RATE=100
//        -DREJOIN_POLL_RATE=440) -f
//        "D:\1.embedded\kit\cc2530\Reference\Z-Stack Mesh
//        1.0.0\Projects\zstack\ZNP\CC253x\..\..\Tools\CC2530DB\f8wZCL.cfg"
//        "D:\1.embedded\kit\cc2530\Reference\Z-Stack Mesh
//        1.0.0\Components\stack\sapi\sapi.c" -D FEATURE_SYSTEM_STATS -D
//        POWER_SAVING -lC "D:\1.embedded\kit\cc2530\Reference\Z-Stack Mesh
//        1.0.0\Projects\zstack\ZNP\CC253x\CC2530-Debug\List" -lA
//        "D:\1.embedded\kit\cc2530\Reference\Z-Stack Mesh
//        1.0.0\Projects\zstack\ZNP\CC253x\CC2530-Debug\List" --diag_suppress
//        Pe001,Pa010 -o "D:\1.embedded\kit\cc2530\Reference\Z-Stack Mesh
//        1.0.0\Projects\zstack\ZNP\CC253x\CC2530-Debug\Obj" -e
//        --no_code_motion --debug --core=plain --dptr=16,1 --data_model=large
//        --code_model=banked --calling_convention=xdata_reentrant
//        --place_constants=data_rom --nr_virtual_regs 16 -I
//        "D:\1.embedded\kit\cc2530\Reference\Z-Stack Mesh
//        1.0.0\Projects\zstack\ZNP\CC253x\" -I
//        "D:\1.embedded\kit\cc2530\Reference\Z-Stack Mesh
//        1.0.0\Projects\zstack\ZNP\CC253x\Source\" -I
//        "D:\1.embedded\kit\cc2530\Reference\Z-Stack Mesh
//        1.0.0\Projects\zstack\ZNP\CC253x\..\Source\" -I
//        "D:\1.embedded\kit\cc2530\Reference\Z-Stack Mesh
//        1.0.0\Projects\zstack\ZNP\CC253x\..\..\SE\Source\" -I
//        "D:\1.embedded\kit\cc2530\Reference\Z-Stack Mesh
//        1.0.0\Projects\zstack\ZNP\CC253x\..\..\ZMain\TI2530ZNP\" -I
//        "D:\1.embedded\kit\cc2530\Reference\Z-Stack Mesh
//        1.0.0\Projects\zstack\ZNP\CC253x\..\..\..\..\Components\hal\include\"
//        -I "D:\1.embedded\kit\cc2530\Reference\Z-Stack Mesh
//        1.0.0\Projects\zstack\ZNP\CC253x\..\..\..\..\Components\hal\target\CC2530ZNP\"
//        -I "D:\1.embedded\kit\cc2530\Reference\Z-Stack Mesh
//        1.0.0\Projects\zstack\ZNP\CC253x\..\..\..\..\Components\mac\include\"
//        -I "D:\1.embedded\kit\cc2530\Reference\Z-Stack Mesh
//        1.0.0\Projects\zstack\ZNP\CC253x\..\..\..\..\Components\mac\high_level\"
//        -I "D:\1.embedded\kit\cc2530\Reference\Z-Stack Mesh
//        1.0.0\Projects\zstack\ZNP\CC253x\..\..\..\..\Components\mac\low_level\srf04\"
//        -I "D:\1.embedded\kit\cc2530\Reference\Z-Stack Mesh
//        1.0.0\Projects\zstack\ZNP\CC253x\..\..\..\..\Components\mac\low_level\srf04\single_chip\"
//        -I "D:\1.embedded\kit\cc2530\Reference\Z-Stack Mesh
//        1.0.0\Projects\zstack\ZNP\CC253x\..\..\..\..\Components\mt\" -I
//        "D:\1.embedded\kit\cc2530\Reference\Z-Stack Mesh
//        1.0.0\Projects\zstack\ZNP\CC253x\..\..\..\..\Components\osal\include\"
//        -I "D:\1.embedded\kit\cc2530\Reference\Z-Stack Mesh
//        1.0.0\Projects\zstack\ZNP\CC253x\..\..\..\..\Components\services\saddr\"
//        -I "D:\1.embedded\kit\cc2530\Reference\Z-Stack Mesh
//        1.0.0\Projects\zstack\ZNP\CC253x\..\..\..\..\Components\services\sdata\"
//        -I "D:\1.embedded\kit\cc2530\Reference\Z-Stack Mesh
//        1.0.0\Projects\zstack\ZNP\CC253x\..\..\..\..\Components\stack\af\" -I
//        "D:\1.embedded\kit\cc2530\Reference\Z-Stack Mesh
//        1.0.0\Projects\zstack\ZNP\CC253x\..\..\..\..\Components\stack\nwk\"
//        -I "D:\1.embedded\kit\cc2530\Reference\Z-Stack Mesh
//        1.0.0\Projects\zstack\ZNP\CC253x\..\..\..\..\Components\stack\sapi\"
//        -I "D:\1.embedded\kit\cc2530\Reference\Z-Stack Mesh
//        1.0.0\Projects\zstack\ZNP\CC253x\..\..\..\..\Components\stack\sec\"
//        -I "D:\1.embedded\kit\cc2530\Reference\Z-Stack Mesh
//        1.0.0\Projects\zstack\ZNP\CC253x\..\..\..\..\Components\stack\sys\"
//        -I "D:\1.embedded\kit\cc2530\Reference\Z-Stack Mesh
//        1.0.0\Projects\zstack\ZNP\CC253x\..\..\..\..\Components\stack\zcl\"
//        -I "D:\1.embedded\kit\cc2530\Reference\Z-Stack Mesh
//        1.0.0\Projects\zstack\ZNP\CC253x\..\..\..\..\Components\stack\zdo\"
//        -I "D:\1.embedded\kit\cc2530\Reference\Z-Stack Mesh
//        1.0.0\Projects\zstack\ZNP\CC253x\..\..\..\..\Components\zmac\" -I
//        "D:\1.embedded\kit\cc2530\Reference\Z-Stack Mesh
//        1.0.0\Projects\zstack\ZNP\CC253x\..\..\..\..\Components\zmac\f8w\"
//        -Ohz --require_prototypes
//    List file          =  
//        D:\1.embedded\kit\cc2530\Reference\Z-Stack Mesh
//        1.0.0\Projects\zstack\ZNP\CC253x\CC2530-Debug\List\sapi.s51
//
///////////////////////////////////////////////////////////////////////////////

        NAME sapi

        RTMODEL "__SystemLibrary", "CLib"
        RTMODEL "__calling_convention", "xdata_reentrant"
        RTMODEL "__code_model", "banked"
        RTMODEL "__core", "plain"
        RTMODEL "__data_model", "large"
        RTMODEL "__dptr_size", "16"
        RTMODEL "__extended_stack", "disabled"
        RTMODEL "__location_for_constants", "data"
        RTMODEL "__number_of_dptrs", "1"
        RTMODEL "__rt_version", "1"

        RSEG DOVERLAY:DATA:NOROOT(0)
        RSEG IOVERLAY:IDATA:NOROOT(0)
        RSEG ISTACK:IDATA:NOROOT(0)
        RSEG PSTACK:XDATA:NOROOT(0)
        RSEG XSTACK:XDATA:NOROOT(0)

        EXTERN ?V0
        EXTERN ?V1
        EXTERN ?V2
        EXTERN ?V3
        EXTERN ?V4
        EXTERN ?V5
        EXTERN ?V6
        EXTERN ?V7
        EXTERN ?ALLOC_XSTACK8
        EXTERN ?BANKED_ENTER_XDATA
        EXTERN ?BANKED_LEAVE_XDATA
        EXTERN ?BDISPATCH
        EXTERN ?BRET
        EXTERN ?DEALLOC_XSTACK8
        EXTERN ?PUSH_XSTACK8_X_FOUR
        EXTERN ?PUSH_XSTACK8_X_TWO
        EXTERN ?PUSH_XSTACK_I_FOUR
        EXTERN ?PUSH_XSTACK_I_ONE
        EXTERN ?PUSH_XSTACK_I_THREE
        EXTERN ?PUSH_XSTACK_I_TWO
        EXTERN ?US_SWITCH_SPARSE
        EXTERN ?XSP
        EXTERN ?XSTACK_DISP0_8
        EXTERN ?XSTACK_DISP100_8
        EXTERN ?XSTACK_DISP101_8
        EXTERN ?XSTACK_DISP102_8
        EXTERN __INIT_XDATA_Z

        FUNCTION `??SAPI_BindConfirm::?relay`,0203H
        PUBLIC `??SAPI_Init::?relay`
        FUNCTION `??SAPI_Init::?relay`,0203H
        PUBLIC `??SAPI_ProcessEvent::?relay`
        FUNCTION `??SAPI_ProcessEvent::?relay`,0203H
        PUBLIC `??SAPI_ProcessZDOMsgs::?relay`
        FUNCTION `??SAPI_ProcessZDOMsgs::?relay`,0203H
        FUNCTION `??SAPI_SendCback::?relay`,0203H
        FUNCTION `??SAPI_SendDataConfirm::?relay`,0203H
        PUBLIC `??zb_AllowBind::?relay`
        FUNCTION `??zb_AllowBind::?relay`,0203H
        PUBLIC `??zb_BindDevice::?relay`
        FUNCTION `??zb_BindDevice::?relay`,0203H
        PUBLIC `??zb_FindDeviceRequest::?relay`
        FUNCTION `??zb_FindDeviceRequest::?relay`,0203H
        PUBLIC `??zb_GetDeviceInfo::?relay`
        FUNCTION `??zb_GetDeviceInfo::?relay`,0203H
        PUBLIC `??zb_PermitJoiningRequest::?relay`
        FUNCTION `??zb_PermitJoiningRequest::?relay`,0203H
        PUBLIC `??zb_ReadConfiguration::?relay`
        FUNCTION `??zb_ReadConfiguration::?relay`,0203H
        PUBLIC `??zb_SendDataRequest::?relay`
        FUNCTION `??zb_SendDataRequest::?relay`,0203H
        PUBLIC `??zb_StartRequest::?relay`
        FUNCTION `??zb_StartRequest::?relay`,0203H
        PUBLIC `??zb_SystemReset::?relay`
        FUNCTION `??zb_SystemReset::?relay`,0203H
        PUBLIC `??zb_WriteConfiguration::?relay`
        FUNCTION `??zb_WriteConfiguration::?relay`,0203H
        FUNCTION SAPI_BindConfirm,021203H
        ARGFRAME XSTACK, 15, STACK
        ARGFRAME IOVERLAY, 0, STATIC
        ARGFRAME DOVERLAY, 0, STATIC
        LOCFRAME XSTACK, 9, STACK
        PUBLIC SAPI_Init
        FUNCTION SAPI_Init,021203H
        ARGFRAME XSTACK, 0, STACK
        LOCFRAME XSTACK, 9, STACK
        PUBLIC SAPI_ProcessEvent
        FUNCTION SAPI_ProcessEvent,0a1203H
        ARGFRAME XSTACK, 0, STACK
        LOCFRAME XSTACK, 19, STACK
        PUBLIC SAPI_ProcessZDOMsgs
        FUNCTION SAPI_ProcessZDOMsgs,0a1203H
        ARGFRAME XSTACK, 15, STACK
        ARGFRAME IOVERLAY, 0, STATIC
        ARGFRAME DOVERLAY, 0, STATIC
        LOCFRAME XSTACK, 23, STACK
        FUNCTION SAPI_SendCback,0a1203H
        ARGFRAME XSTACK, 27, STACK
        ARGFRAME IOVERLAY, 0, STATIC
        ARGFRAME DOVERLAY, 0, STATIC
        LOCFRAME ISTACK, 1, STACK
        LOCFRAME XSTACK, 12, STACK
        FUNCTION SAPI_SendDataConfirm,021203H
        ARGFRAME XSTACK, 15, STACK
        ARGFRAME IOVERLAY, 0, STATIC
        ARGFRAME DOVERLAY, 0, STATIC
        LOCFRAME XSTACK, 9, STACK
        PUBWEAK __Constant_fa
        PUBLIC sapi_TaskID
        PUBLIC sapi_epDesc
        PUBLIC zb_AllowBind
        FUNCTION zb_AllowBind,0a1203H
        ARGFRAME XSTACK, 0, STACK
        LOCFRAME XSTACK, 16, STACK
        PUBLIC zb_BindDevice
        FUNCTION zb_BindDevice,0a1203H
        ARGFRAME XSTACK, 0, STACK
        LOCFRAME XSTACK, 35, STACK
        PUBLIC zb_FindDeviceRequest
        FUNCTION zb_FindDeviceRequest,021203H
        ARGFRAME XSTACK, 0, STACK
        LOCFRAME XSTACK, 9, STACK
        PUBLIC zb_GetDeviceInfo
        FUNCTION zb_GetDeviceInfo,0a1203H
        ARGFRAME XSTACK, 0, STACK
        LOCFRAME XSTACK, 14, STACK
        PUBLIC zb_PermitJoiningRequest
        FUNCTION zb_PermitJoiningRequest,021203H
        ARGFRAME XSTACK, 0, STACK
        LOCFRAME XSTACK, 18, STACK
        PUBLIC zb_ReadConfiguration
        FUNCTION zb_ReadConfiguration,0a1203H
        ARGFRAME XSTACK, 15, STACK
        ARGFRAME IOVERLAY, 0, STATIC
        ARGFRAME DOVERLAY, 0, STATIC
        LOCFRAME XSTACK, 16, STACK
        PUBLIC zb_SendDataRequest
        FUNCTION zb_SendDataRequest,0a1203H
        ARGFRAME XSTACK, 5, STACK
        LOCFRAME ISTACK, 1, STACK
        LOCFRAME XSTACK, 33, STACK
        PUBLIC zb_StartRequest
        FUNCTION zb_StartRequest,021203H
        ARGFRAME XSTACK, 15, STACK
        ARGFRAME IOVERLAY, 0, STATIC
        ARGFRAME DOVERLAY, 0, STATIC
        LOCFRAME ISTACK, 2, STACK
        LOCFRAME XSTACK, 1, STACK
        PUBLIC zb_SystemReset
        FUNCTION zb_SystemReset,021203H
        ARGFRAME XSTACK, 0, STACK
        PUBLIC zb_WriteConfiguration
        FUNCTION zb_WriteConfiguration,0a1203H
        ARGFRAME XSTACK, 0, STACK
        LOCFRAME XSTACK, 14, STACK
        
          CFI Names cfiNames0
          CFI StackFrame CFA_SP SP IDATA
          CFI StackFrame CFA_PSP16 PSP16 XDATA
          CFI StackFrame CFA_XSP16 XSP16 XDATA
          CFI StaticOverlayFrame CFA_IOVERLAY IOVERLAY
          CFI StaticOverlayFrame CFA_DOVERLAY DOVERLAY
          CFI Resource `PSW.CY`:1, `B.BR0`:1, `B.BR1`:1, `B.BR2`:1, `B.BR3`:1
          CFI Resource `B.BR4`:1, `B.BR5`:1, `B.BR6`:1, `B.BR7`:1, `VB.BR8`:1
          CFI Resource `VB.BR9`:1, `VB.BR10`:1, `VB.BR11`:1, `VB.BR12`:1
          CFI Resource `VB.BR13`:1, `VB.BR14`:1, `VB.BR15`:1, VB:8, B:8, A:8
          CFI Resource PSW:8, DPL0:8, DPH0:8, R0:8, R1:8, R2:8, R3:8, R4:8, R5:8
          CFI Resource R6:8, R7:8, V0:8, V1:8, V2:8, V3:8, V4:8, V5:8, V6:8, V7:8
          CFI Resource V8:8, V9:8, V10:8, V11:8, V12:8, V13:8, V14:8, V15:8, SP:8
          CFI Resource PSPH:8, PSPL:8, PSP16:16, XSPH:8, XSPL:8, XSP16:16
          CFI VirtualResource ?RET:24
          CFI Resource ?BRET_EXT:8
          CFI VirtualResource ?RET_HIGH:8, ?RET_LOW:8
          CFI ResourceParts PSP16 PSPH, PSPL
          CFI ResourceParts XSP16 XSPH, XSPL
          CFI ResourceParts ?RET ?BRET_EXT, ?RET_HIGH, ?RET_LOW
          CFI EndNames cfiNames0
        
          CFI Common cfiCommon0 Using cfiNames0
          CFI CodeAlign 1
          CFI DataAlign -1
          CFI ReturnAddress ?RET CODE
          CFI CFA_DOVERLAY Used
          CFI CFA_IOVERLAY Used
          CFI CFA_SP SP+-3
          CFI CFA_PSP16 PSP16+0
          CFI CFA_XSP16 XSP16+0
          CFI `PSW.CY` SameValue
          CFI `B.BR0` SameValue
          CFI `B.BR1` SameValue
          CFI `B.BR2` SameValue
          CFI `B.BR3` SameValue
          CFI `B.BR4` SameValue
          CFI `B.BR5` SameValue
          CFI `B.BR6` SameValue
          CFI `B.BR7` SameValue
          CFI `VB.BR8` SameValue
          CFI `VB.BR9` SameValue
          CFI `VB.BR10` SameValue
          CFI `VB.BR11` SameValue
          CFI `VB.BR12` SameValue
          CFI `VB.BR13` SameValue
          CFI `VB.BR14` SameValue
          CFI `VB.BR15` SameValue
          CFI VB SameValue
          CFI B Undefined
          CFI A Undefined
          CFI PSW SameValue
          CFI DPL0 SameValue
          CFI DPH0 SameValue
          CFI R0 Undefined
          CFI R1 Undefined
          CFI R2 Undefined
          CFI R3 Undefined
          CFI R4 Undefined
          CFI R5 Undefined
          CFI R6 SameValue
          CFI R7 SameValue
          CFI V0 SameValue
          CFI V1 SameValue
          CFI V2 SameValue
          CFI V3 SameValue
          CFI V4 SameValue
          CFI V5 SameValue
          CFI V6 SameValue
          CFI V7 SameValue
          CFI V8 SameValue
          CFI V9 SameValue
          CFI V10 SameValue
          CFI V11 SameValue
          CFI V12 SameValue
          CFI V13 SameValue
          CFI V14 SameValue
          CFI V15 SameValue
          CFI PSPH Undefined
          CFI PSPL Undefined
          CFI XSPH Undefined
          CFI XSPL Undefined
          CFI ?RET Concat
          CFI ?BRET_EXT Frame(CFA_SP, 3)
          CFI ?RET_HIGH Frame(CFA_SP, 2)
          CFI ?RET_LOW Frame(CFA_SP, 1)
          CFI EndCommon cfiCommon0
        
        
          CFI Common cfiCommon1 Using cfiNames0
          CFI CodeAlign 1
          CFI DataAlign -1
          CFI ReturnAddress ?RET CODE
          CFI CFA_DOVERLAY Used
          CFI CFA_IOVERLAY Used
          CFI CFA_SP SP+-2
          CFI CFA_PSP16 PSP16+0
          CFI CFA_XSP16 XSP16+0
          CFI `PSW.CY` SameValue
          CFI `B.BR0` SameValue
          CFI `B.BR1` SameValue
          CFI `B.BR2` SameValue
          CFI `B.BR3` SameValue
          CFI `B.BR4` SameValue
          CFI `B.BR5` SameValue
          CFI `B.BR6` SameValue
          CFI `B.BR7` SameValue
          CFI `VB.BR8` SameValue
          CFI `VB.BR9` SameValue
          CFI `VB.BR10` SameValue
          CFI `VB.BR11` SameValue
          CFI `VB.BR12` SameValue
          CFI `VB.BR13` SameValue
          CFI `VB.BR14` SameValue
          CFI `VB.BR15` SameValue
          CFI VB SameValue
          CFI B SameValue
          CFI A SameValue
          CFI PSW SameValue
          CFI DPL0 SameValue
          CFI DPH0 SameValue
          CFI R0 SameValue
          CFI R1 SameValue
          CFI R2 SameValue
          CFI R3 SameValue
          CFI R4 SameValue
          CFI R5 SameValue
          CFI R6 SameValue
          CFI R7 SameValue
          CFI V0 SameValue
          CFI V1 SameValue
          CFI V2 SameValue
          CFI V3 SameValue
          CFI V4 SameValue
          CFI V5 SameValue
          CFI V6 SameValue
          CFI V7 SameValue
          CFI V8 SameValue
          CFI V9 SameValue
          CFI V10 SameValue
          CFI V11 SameValue
          CFI V12 SameValue
          CFI V13 SameValue
          CFI V14 SameValue
          CFI V15 SameValue
          CFI PSPH Undefined
          CFI PSPL Undefined
          CFI XSPH Undefined
          CFI XSPL Undefined
          CFI ?RET Concat
          CFI ?BRET_EXT SameValue
          CFI ?RET_HIGH Frame(CFA_SP, 2)
          CFI ?RET_LOW Frame(CFA_SP, 1)
          CFI EndCommon cfiCommon1
        
AF_DataRequest      SYMBOL "AF_DataRequest"
`??AF_DataRequest::?relay` SYMBOL "?relay", AF_DataRequest
APSME_BindRequest   SYMBOL "APSME_BindRequest"
`??APSME_BindRequest::?relay` SYMBOL "?relay", APSME_BindRequest
HalLedBlink         SYMBOL "HalLedBlink"
`??HalLedBlink::?relay` SYMBOL "?relay", HalLedBlink
HalLedSet           SYMBOL "HalLedSet"
`??HalLedSet::?relay` SYMBOL "?relay", HalLedSet
NLME_IsAddressBroadcast SYMBOL "NLME_IsAddressBroadcast"
`??NLME_IsAddressBroadcast::?relay` SYMBOL "?relay", NLME_IsAddressBroadcast
ZDOInitDevice       SYMBOL "ZDOInitDevice"
`??ZDOInitDevice::?relay` SYMBOL "?relay", ZDOInitDevice
ZDO_AnyClusterMatches SYMBOL "ZDO_AnyClusterMatches"
`??ZDO_AnyClusterMatches::?relay` SYMBOL "?relay", ZDO_AnyClusterMatches
ZDO_ParseAddrRsp    SYMBOL "ZDO_ParseAddrRsp"
`??ZDO_ParseAddrRsp::?relay` SYMBOL "?relay", ZDO_ParseAddrRsp
ZDO_ParseEPListRsp  SYMBOL "ZDO_ParseEPListRsp"
`??ZDO_ParseEPListRsp::?relay` SYMBOL "?relay", ZDO_ParseEPListRsp
ZDO_RegisterForZDOMsg SYMBOL "ZDO_RegisterForZDOMsg"
`??ZDO_RegisterForZDOMsg::?relay` SYMBOL "?relay", ZDO_RegisterForZDOMsg
ZDP_IEEEAddrReq     SYMBOL "ZDP_IEEEAddrReq"
`??ZDP_IEEEAddrReq::?relay` SYMBOL "?relay", ZDP_IEEEAddrReq
ZDP_MatchDescReq    SYMBOL "ZDP_MatchDescReq"
`??ZDP_MatchDescReq::?relay` SYMBOL "?relay", ZDP_MatchDescReq
ZDP_MgmtPermitJoinReq SYMBOL "ZDP_MgmtPermitJoinReq"
`??ZDP_MgmtPermitJoinReq::?relay` SYMBOL "?relay", ZDP_MgmtPermitJoinReq
ZDP_NwkAddrReq      SYMBOL "ZDP_NwkAddrReq"
`??ZDP_NwkAddrReq::?relay` SYMBOL "?relay", ZDP_NwkAddrReq
afSetMatch          SYMBOL "afSetMatch"
`??afSetMatch::?relay` SYMBOL "?relay", afSetMatch
bindFind            SYMBOL "bindFind"
`??bindFind::?relay` SYMBOL "?relay", bindFind
bindRemoveEntry     SYMBOL "bindRemoveEntry"
`??bindRemoveEntry::?relay` SYMBOL "?relay", bindRemoveEntry
osal_memcpy         SYMBOL "osal_memcpy"
`??osal_memcpy::?relay` SYMBOL "?relay", osal_memcpy
osal_msg_allocate   SYMBOL "osal_msg_allocate"
`??osal_msg_allocate::?relay` SYMBOL "?relay", osal_msg_allocate
osal_msg_deallocate SYMBOL "osal_msg_deallocate"
`??osal_msg_deallocate::?relay` SYMBOL "?relay", osal_msg_deallocate
osal_msg_receive    SYMBOL "osal_msg_receive"
`??osal_msg_receive::?relay` SYMBOL "?relay", osal_msg_receive
osal_msg_send       SYMBOL "osal_msg_send"
`??osal_msg_send::?relay` SYMBOL "?relay", osal_msg_send
osal_nv_item_len    SYMBOL "osal_nv_item_len"
`??osal_nv_item_len::?relay` SYMBOL "?relay", osal_nv_item_len
osal_nv_read        SYMBOL "osal_nv_read"
`??osal_nv_read::?relay` SYMBOL "?relay", osal_nv_read
osal_nv_write       SYMBOL "osal_nv_write"
`??osal_nv_write::?relay` SYMBOL "?relay", osal_nv_write
osal_start_timerEx  SYMBOL "osal_start_timerEx"
`??osal_start_timerEx::?relay` SYMBOL "?relay", osal_start_timerEx
osal_stop_timerEx   SYMBOL "osal_stop_timerEx"
`??osal_stop_timerEx::?relay` SYMBOL "?relay", osal_stop_timerEx
sAddrExtCpy         SYMBOL "sAddrExtCpy"
`??sAddrExtCpy::?relay` SYMBOL "?relay", sAddrExtCpy
zb_MTCallbackAllowBindConfirm SYMBOL "zb_MTCallbackAllowBindConfirm"
`??zb_MTCallbackAllowBindConfirm::?relay` SYMBOL "?relay", zb_MTCallbackAllowBindConfirm
zb_MTCallbackBindConfirm SYMBOL "zb_MTCallbackBindConfirm"
`??zb_MTCallbackBindConfirm::?relay` SYMBOL "?relay", zb_MTCallbackBindConfirm
zb_MTCallbackFindDeviceConfirm SYMBOL "zb_MTCallbackFindDeviceConfirm"
`??zb_MTCallbackFindDeviceConfirm::?relay` SYMBOL "?relay", zb_MTCallbackFindDeviceConfirm
zb_MTCallbackReceiveDataIndication SYMBOL "zb_MTCallbackReceiveDataIndication"
`??zb_MTCallbackReceiveDataIndication::?relay` SYMBOL "?relay", zb_MTCallbackReceiveDataIndication
zb_MTCallbackSendDataConfirm SYMBOL "zb_MTCallbackSendDataConfirm"
`??zb_MTCallbackSendDataConfirm::?relay` SYMBOL "?relay", zb_MTCallbackSendDataConfirm
zb_MTCallbackStartConfirm SYMBOL "zb_MTCallbackStartConfirm"
`??zb_MTCallbackStartConfirm::?relay` SYMBOL "?relay", zb_MTCallbackStartConfirm
SAPI_Init           SYMBOL "SAPI_Init"
`??SAPI_Init::?relay` SYMBOL "?relay", SAPI_Init
SAPI_ProcessEvent   SYMBOL "SAPI_ProcessEvent"
`??SAPI_ProcessEvent::?relay` SYMBOL "?relay", SAPI_ProcessEvent
SAPI_ProcessZDOMsgs SYMBOL "SAPI_ProcessZDOMsgs"
`??SAPI_ProcessZDOMsgs::?relay` SYMBOL "?relay", SAPI_ProcessZDOMsgs
zb_AllowBind        SYMBOL "zb_AllowBind"
`??zb_AllowBind::?relay` SYMBOL "?relay", zb_AllowBind
zb_BindDevice       SYMBOL "zb_BindDevice"
`??zb_BindDevice::?relay` SYMBOL "?relay", zb_BindDevice
zb_FindDeviceRequest SYMBOL "zb_FindDeviceRequest"
`??zb_FindDeviceRequest::?relay` SYMBOL "?relay", zb_FindDeviceRequest
zb_GetDeviceInfo    SYMBOL "zb_GetDeviceInfo"
`??zb_GetDeviceInfo::?relay` SYMBOL "?relay", zb_GetDeviceInfo
zb_PermitJoiningRequest SYMBOL "zb_PermitJoiningRequest"
`??zb_PermitJoiningRequest::?relay` SYMBOL "?relay", zb_PermitJoiningRequest
zb_ReadConfiguration SYMBOL "zb_ReadConfiguration"
`??zb_ReadConfiguration::?relay` SYMBOL "?relay", zb_ReadConfiguration
zb_SendDataRequest  SYMBOL "zb_SendDataRequest"
`??zb_SendDataRequest::?relay` SYMBOL "?relay", zb_SendDataRequest
zb_StartRequest     SYMBOL "zb_StartRequest"
`??zb_StartRequest::?relay` SYMBOL "?relay", zb_StartRequest
zb_SystemReset      SYMBOL "zb_SystemReset"
`??zb_SystemReset::?relay` SYMBOL "?relay", zb_SystemReset
zb_WriteConfiguration SYMBOL "zb_WriteConfiguration"
`??zb_WriteConfiguration::?relay` SYMBOL "?relay", zb_WriteConfiguration

        EXTERN `??AF_DataRequest::?relay`
        FUNCTION `??AF_DataRequest::?relay`,00H
        EXTERN `??APSME_BindRequest::?relay`
        FUNCTION `??APSME_BindRequest::?relay`,00H
        EXTERN `??HalLedBlink::?relay`
        FUNCTION `??HalLedBlink::?relay`,00H
        EXTERN `??HalLedSet::?relay`
        FUNCTION `??HalLedSet::?relay`,00H
        EXTERN `??NLME_IsAddressBroadcast::?relay`
        FUNCTION `??NLME_IsAddressBroadcast::?relay`,00H
        EXTERN `??ZDOInitDevice::?relay`
        FUNCTION `??ZDOInitDevice::?relay`,00H
        EXTERN `??ZDO_AnyClusterMatches::?relay`
        FUNCTION `??ZDO_AnyClusterMatches::?relay`,00H
        EXTERN `??ZDO_ParseAddrRsp::?relay`
        FUNCTION `??ZDO_ParseAddrRsp::?relay`,00H
        EXTERN `??ZDO_ParseEPListRsp::?relay`
        FUNCTION `??ZDO_ParseEPListRsp::?relay`,00H
        EXTERN `??ZDO_RegisterForZDOMsg::?relay`
        FUNCTION `??ZDO_RegisterForZDOMsg::?relay`,00H
        EXTERN `??ZDP_IEEEAddrReq::?relay`
        FUNCTION `??ZDP_IEEEAddrReq::?relay`,00H
        EXTERN `??ZDP_MatchDescReq::?relay`
        FUNCTION `??ZDP_MatchDescReq::?relay`,00H
        EXTERN `??ZDP_MgmtPermitJoinReq::?relay`
        FUNCTION `??ZDP_MgmtPermitJoinReq::?relay`,00H
        EXTERN `??ZDP_NwkAddrReq::?relay`
        FUNCTION `??ZDP_NwkAddrReq::?relay`,00H
        EXTERN `??afSetMatch::?relay`
        FUNCTION `??afSetMatch::?relay`,00H
        EXTERN `??bindFind::?relay`
        FUNCTION `??bindFind::?relay`,00H
        EXTERN `??bindRemoveEntry::?relay`
        FUNCTION `??bindRemoveEntry::?relay`,00H
        EXTERN `??osal_memcpy::?relay`
        FUNCTION `??osal_memcpy::?relay`,00H
        EXTERN `??osal_msg_allocate::?relay`
        FUNCTION `??osal_msg_allocate::?relay`,00H
        EXTERN `??osal_msg_deallocate::?relay`
        FUNCTION `??osal_msg_deallocate::?relay`,00H
        EXTERN `??osal_msg_receive::?relay`
        FUNCTION `??osal_msg_receive::?relay`,00H
        EXTERN `??osal_msg_send::?relay`
        FUNCTION `??osal_msg_send::?relay`,00H
        EXTERN `??osal_nv_item_len::?relay`
        FUNCTION `??osal_nv_item_len::?relay`,00H
        EXTERN `??osal_nv_read::?relay`
        FUNCTION `??osal_nv_read::?relay`,00H
        EXTERN `??osal_nv_write::?relay`
        FUNCTION `??osal_nv_write::?relay`,00H
        EXTERN `??osal_start_timerEx::?relay`
        FUNCTION `??osal_start_timerEx::?relay`,00H
        EXTERN `??osal_stop_timerEx::?relay`
        FUNCTION `??osal_stop_timerEx::?relay`,00H
        EXTERN `??sAddrExtCpy::?relay`
        FUNCTION `??sAddrExtCpy::?relay`,00H
        EXTERN `??zb_MTCallbackAllowBindConfirm::?relay`
        FUNCTION `??zb_MTCallbackAllowBindConfirm::?relay`,00H
        EXTERN `??zb_MTCallbackBindConfirm::?relay`
        FUNCTION `??zb_MTCallbackBindConfirm::?relay`,00H
        EXTERN `??zb_MTCallbackFindDeviceConfirm::?relay`
        FUNCTION `??zb_MTCallbackFindDeviceConfirm::?relay`,00H
        EXTERN `??zb_MTCallbackReceiveDataIndication::?relay`
        FUNCTION `??zb_MTCallbackReceiveDataIndication::?relay`,00H
        EXTERN `??zb_MTCallbackSendDataConfirm::?relay`
        FUNCTION `??zb_MTCallbackSendDataConfirm::?relay`,00H
        EXTERN `??zb_MTCallbackStartConfirm::?relay`
        FUNCTION `??zb_MTCallbackStartConfirm::?relay`,00H
        EXTERN AF_DataRequest
        FUNCTION AF_DataRequest,0202H
        ARGFRAME ISTACK, 0, STACK
        ARGFRAME PSTACK, 0, STACK
        ARGFRAME XSTACK, 33, STACK
        ARGFRAME IOVERLAY, 0, STATIC
        ARGFRAME DOVERLAY, 0, STATIC
        EXTERN AIB_MaxBindingTime
        EXTERN APSME_BindRequest
        FUNCTION APSME_BindRequest,0202H
        ARGFRAME ISTACK, 0, STACK
        ARGFRAME PSTACK, 0, STACK
        ARGFRAME XSTACK, 28, STACK
        ARGFRAME IOVERLAY, 0, STATIC
        ARGFRAME DOVERLAY, 0, STATIC
        EXTERN HalLedBlink
        FUNCTION HalLedBlink,0202H
        ARGFRAME ISTACK, 0, STACK
        ARGFRAME PSTACK, 0, STACK
        ARGFRAME XSTACK, 15, STACK
        ARGFRAME IOVERLAY, 0, STATIC
        ARGFRAME DOVERLAY, 0, STATIC
        EXTERN HalLedSet
        FUNCTION HalLedSet,0202H
        ARGFRAME ISTACK, 0, STACK
        ARGFRAME PSTACK, 0, STACK
        ARGFRAME XSTACK, 15, STACK
        ARGFRAME IOVERLAY, 0, STATIC
        ARGFRAME DOVERLAY, 0, STATIC
        EXTERN NLME_IsAddressBroadcast
        FUNCTION NLME_IsAddressBroadcast,0202H
        ARGFRAME ISTACK, 0, STACK
        ARGFRAME PSTACK, 0, STACK
        ARGFRAME XSTACK, 24, STACK
        ARGFRAME IOVERLAY, 0, STATIC
        ARGFRAME DOVERLAY, 0, STATIC
        EXTERN Onboard_soft_reset
        FUNCTION Onboard_soft_reset,0202H
        ARGFRAME ISTACK, 0, STACK
        ARGFRAME PSTACK, 0, STACK
        ARGFRAME XSTACK, 0, STACK
        ARGFRAME IOVERLAY, 0, STATIC
        ARGFRAME DOVERLAY, 0, STATIC
        EXTERN ZDAppTaskID
        EXTERN ZDOInitDevice
        FUNCTION ZDOInitDevice,0202H
        ARGFRAME ISTACK, 2, STACK
        ARGFRAME PSTACK, 0, STACK
        ARGFRAME XSTACK, 1, STACK
        ARGFRAME IOVERLAY, 0, STATIC
        ARGFRAME DOVERLAY, 0, STATIC
        EXTERN ZDO_AnyClusterMatches
        FUNCTION ZDO_AnyClusterMatches,0202H
        ARGFRAME ISTACK, 0, STACK
        ARGFRAME PSTACK, 0, STACK
        ARGFRAME XSTACK, 29, STACK
        ARGFRAME IOVERLAY, 0, STATIC
        ARGFRAME DOVERLAY, 0, STATIC
        EXTERN ZDO_ParseAddrRsp
        FUNCTION ZDO_ParseAddrRsp,0202H
        ARGFRAME ISTACK, 0, STACK
        ARGFRAME PSTACK, 0, STACK
        ARGFRAME XSTACK, 19, STACK
        ARGFRAME IOVERLAY, 0, STATIC
        ARGFRAME DOVERLAY, 0, STATIC
        EXTERN ZDO_ParseEPListRsp
        FUNCTION ZDO_ParseEPListRsp,0202H
        ARGFRAME ISTACK, 0, STACK
        ARGFRAME PSTACK, 0, STACK
        ARGFRAME XSTACK, 19, STACK
        ARGFRAME IOVERLAY, 0, STATIC
        ARGFRAME DOVERLAY, 0, STATIC
        EXTERN ZDO_RegisterForZDOMsg
        FUNCTION ZDO_RegisterForZDOMsg,0202H
        ARGFRAME ISTACK, 0, STACK
        ARGFRAME PSTACK, 0, STACK
        ARGFRAME XSTACK, 9, STACK
        ARGFRAME IOVERLAY, 0, STATIC
        ARGFRAME DOVERLAY, 0, STATIC
        EXTERN ZDP_IEEEAddrReq
        FUNCTION ZDP_IEEEAddrReq,0202H
        ARGFRAME ISTACK, 0, STACK
        ARGFRAME PSTACK, 0, STACK
        ARGFRAME XSTACK, 19, STACK
        ARGFRAME IOVERLAY, 0, STATIC
        ARGFRAME DOVERLAY, 0, STATIC
        EXTERN ZDP_MatchDescReq
        FUNCTION ZDP_MatchDescReq,0202H
        ARGFRAME ISTACK, 0, STACK
        ARGFRAME PSTACK, 0, STACK
        ARGFRAME XSTACK, 35, STACK
        ARGFRAME IOVERLAY, 0, STATIC
        ARGFRAME DOVERLAY, 0, STATIC
        EXTERN ZDP_MgmtPermitJoinReq
        FUNCTION ZDP_MgmtPermitJoinReq,0202H
        ARGFRAME ISTACK, 0, STACK
        ARGFRAME PSTACK, 0, STACK
        ARGFRAME XSTACK, 18, STACK
        ARGFRAME IOVERLAY, 0, STATIC
        ARGFRAME DOVERLAY, 0, STATIC
        EXTERN ZDP_NwkAddrReq
        FUNCTION ZDP_NwkAddrReq,0202H
        ARGFRAME ISTACK, 0, STACK
        ARGFRAME PSTACK, 0, STACK
        ARGFRAME XSTACK, 27, STACK
        ARGFRAME IOVERLAY, 0, STATIC
        ARGFRAME DOVERLAY, 0, STATIC
        EXTERN _NIB
        EXTERN aExtendedAddress
        EXTERN afSetMatch
        FUNCTION afSetMatch,0202H
        ARGFRAME ISTACK, 0, STACK
        ARGFRAME PSTACK, 0, STACK
        ARGFRAME XSTACK, 15, STACK
        ARGFRAME IOVERLAY, 0, STATIC
        ARGFRAME DOVERLAY, 0, STATIC
        EXTERN bindFind
        FUNCTION bindFind,0202H
        ARGFRAME ISTACK, 0, STACK
        ARGFRAME PSTACK, 0, STACK
        ARGFRAME XSTACK, 27, STACK
        ARGFRAME IOVERLAY, 0, STATIC
        ARGFRAME DOVERLAY, 0, STATIC
        EXTERN bindRemoveEntry
        FUNCTION bindRemoveEntry,0202H
        ARGFRAME ISTACK, 0, STACK
        ARGFRAME PSTACK, 0, STACK
        ARGFRAME XSTACK, 27, STACK
        ARGFRAME IOVERLAY, 0, STATIC
        ARGFRAME DOVERLAY, 0, STATIC
        EXTERN devState
        EXTERN osal_memcpy
        FUNCTION osal_memcpy,0202H
        ARGFRAME ISTACK, 0, STACK
        ARGFRAME PSTACK, 0, STACK
        ARGFRAME XSTACK, 14, STACK
        ARGFRAME IOVERLAY, 0, STATIC
        ARGFRAME DOVERLAY, 0, STATIC
        EXTERN osal_msg_allocate
        FUNCTION osal_msg_allocate,0202H
        ARGFRAME ISTACK, 0, STACK
        ARGFRAME PSTACK, 0, STACK
        ARGFRAME XSTACK, 12, STACK
        ARGFRAME IOVERLAY, 0, STATIC
        ARGFRAME DOVERLAY, 0, STATIC
        EXTERN osal_msg_deallocate
        FUNCTION osal_msg_deallocate,0202H
        ARGFRAME ISTACK, 0, STACK
        ARGFRAME PSTACK, 0, STACK
        ARGFRAME XSTACK, 15, STACK
        ARGFRAME IOVERLAY, 0, STATIC
        ARGFRAME DOVERLAY, 0, STATIC
        EXTERN osal_msg_receive
        FUNCTION osal_msg_receive,0202H
        ARGFRAME ISTACK, 0, STACK
        ARGFRAME PSTACK, 0, STACK
        ARGFRAME XSTACK, 15, STACK
        ARGFRAME IOVERLAY, 0, STATIC
        ARGFRAME DOVERLAY, 0, STATIC
        EXTERN osal_msg_send
        FUNCTION osal_msg_send,0202H
        ARGFRAME ISTACK, 0, STACK
        ARGFRAME PSTACK, 0, STACK
        ARGFRAME XSTACK, 12, STACK
        ARGFRAME IOVERLAY, 0, STATIC
        ARGFRAME DOVERLAY, 0, STATIC
        EXTERN osal_nv_item_len
        FUNCTION osal_nv_item_len,0202H
        ARGFRAME ISTACK, 0, STACK
        ARGFRAME PSTACK, 0, STACK
        ARGFRAME XSTACK, 12, STACK
        ARGFRAME IOVERLAY, 0, STATIC
        ARGFRAME DOVERLAY, 0, STATIC
        EXTERN osal_nv_read
        FUNCTION osal_nv_read,0202H
        ARGFRAME ISTACK, 0, STACK
        ARGFRAME PSTACK, 0, STACK
        ARGFRAME XSTACK, 16, STACK
        ARGFRAME IOVERLAY, 0, STATIC
        ARGFRAME DOVERLAY, 0, STATIC
        EXTERN osal_nv_write
        FUNCTION osal_nv_write,0202H
        ARGFRAME ISTACK, 0, STACK
        ARGFRAME PSTACK, 0, STACK
        ARGFRAME XSTACK, 14, STACK
        ARGFRAME IOVERLAY, 0, STATIC
        ARGFRAME DOVERLAY, 0, STATIC
        EXTERN osal_start_timerEx
        FUNCTION osal_start_timerEx,0202H
        ARGFRAME ISTACK, 0, STACK
        ARGFRAME PSTACK, 0, STACK
        ARGFRAME XSTACK, 31, STACK
        ARGFRAME IOVERLAY, 0, STATIC
        ARGFRAME DOVERLAY, 0, STATIC
        EXTERN osal_stop_timerEx
        FUNCTION osal_stop_timerEx,0202H
        ARGFRAME ISTACK, 0, STACK
        ARGFRAME PSTACK, 0, STACK
        ARGFRAME XSTACK, 19, STACK
        ARGFRAME IOVERLAY, 0, STATIC
        ARGFRAME DOVERLAY, 0, STATIC
        EXTERN sAddrExtCpy
        FUNCTION sAddrExtCpy,0202H
        ARGFRAME ISTACK, 0, STACK
        ARGFRAME PSTACK, 0, STACK
        ARGFRAME XSTACK, 27, STACK
        ARGFRAME IOVERLAY, 0, STATIC
        ARGFRAME DOVERLAY, 0, STATIC
        EXTERN zb_MTCallbackAllowBindConfirm
        FUNCTION zb_MTCallbackAllowBindConfirm,0202H
        ARGFRAME ISTACK, 0, STACK
        ARGFRAME PSTACK, 0, STACK
        ARGFRAME XSTACK, 15, STACK
        ARGFRAME IOVERLAY, 0, STATIC
        ARGFRAME DOVERLAY, 0, STATIC
        EXTERN zb_MTCallbackBindConfirm
        FUNCTION zb_MTCallbackBindConfirm,0202H
        ARGFRAME ISTACK, 0, STACK
        ARGFRAME PSTACK, 0, STACK
        ARGFRAME XSTACK, 19, STACK
        ARGFRAME IOVERLAY, 0, STATIC
        ARGFRAME DOVERLAY, 0, STATIC
        EXTERN zb_MTCallbackFindDeviceConfirm
        FUNCTION zb_MTCallbackFindDeviceConfirm,0202H
        ARGFRAME ISTACK, 0, STACK
        ARGFRAME PSTACK, 0, STACK
        ARGFRAME XSTACK, 19, STACK
        ARGFRAME IOVERLAY, 0, STATIC
        ARGFRAME DOVERLAY, 0, STATIC
        EXTERN zb_MTCallbackReceiveDataIndication
        FUNCTION zb_MTCallbackReceiveDataIndication,0202H
        ARGFRAME ISTACK, 0, STACK
        ARGFRAME PSTACK, 0, STACK
        ARGFRAME XSTACK, 19, STACK
        ARGFRAME IOVERLAY, 0, STATIC
        ARGFRAME DOVERLAY, 0, STATIC
        EXTERN zb_MTCallbackSendDataConfirm
        FUNCTION zb_MTCallbackSendDataConfirm,0202H
        ARGFRAME ISTACK, 0, STACK
        ARGFRAME PSTACK, 0, STACK
        ARGFRAME XSTACK, 9, STACK
        ARGFRAME IOVERLAY, 0, STATIC
        ARGFRAME DOVERLAY, 0, STATIC
        EXTERN zb_MTCallbackStartConfirm
        FUNCTION zb_MTCallbackStartConfirm,0202H
        ARGFRAME ISTACK, 0, STACK
        ARGFRAME PSTACK, 0, STACK
        ARGFRAME XSTACK, 15, STACK
        ARGFRAME IOVERLAY, 0, STATIC
        ARGFRAME DOVERLAY, 0, STATIC
        EXTERN zgStartDelay

// D:\1.embedded\kit\cc2530\Reference\Z-Stack Mesh 1.0.0\Components\stack\sapi\sapi.c
//    1 /**************************************************************************************************
//    2   Filename:       sapi.c
//    3   Revised:        $Date: 2010-05-03 17:46:57 -0700 (Mon, 03 May 2010) $
//    4   Revision:       $Revision: 22364 $
//    5 
//    6   Description:    Z-Stack Simple Application Interface.
//    7 
//    8 
//    9   Copyright 2007-2010 Texas Instruments Incorporated. All rights reserved.
//   10 
//   11   IMPORTANT: Your use of this Software is limited to those specific rights
//   12   granted under the terms of a software license agreement between the user
//   13   who downloaded the software, his/her employer (which must be your employer)
//   14   and Texas Instruments Incorporated (the "License").  You may not use this
//   15   Software unless you agree to abide by the terms of the License. The License
//   16   limits your use, and you acknowledge, that the Software may not be modified,
//   17   copied or distributed unless embedded on a Texas Instruments microcontroller
//   18   or used solely and exclusively in conjunction with a Texas Instruments radio
//   19   frequency transceiver, which is integrated into your product.  Other than for
//   20   the foregoing purpose, you may not use, reproduce, copy, prepare derivative
//   21   works of, modify, distribute, perform, display or sell this Software and/or
//   22   its documentation for any purpose.
//   23 
//   24   YOU FURTHER ACKNOWLEDGE AND AGREE THAT THE SOFTWARE AND DOCUMENTATION ARE
//   25   PROVIDED “AS IS” WITHOUT WARRANTY OF ANY KIND, EITHER EXPRESS OR IMPLIED,
//   26   INCLUDING WITHOUT LIMITATION, ANY WARRANTY OF MERCHANTABILITY, TITLE,
//   27   NON-INFRINGEMENT AND FITNESS FOR A PARTICULAR PURPOSE. IN NO EVENT SHALL
//   28   TEXAS INSTRUMENTS OR ITS LICENSORS BE LIABLE OR OBLIGATED UNDER CONTRACT,
//   29   NEGLIGENCE, STRICT LIABILITY, CONTRIBUTION, BREACH OF WARRANTY, OR OTHER
//   30   LEGAL EQUITABLE THEORY ANY DIRECT OR INDIRECT DAMAGES OR EXPENSES
//   31   INCLUDING BUT NOT LIMITED TO ANY INCIDENTAL, SPECIAL, INDIRECT, PUNITIVE
//   32   OR CONSEQUENTIAL DAMAGES, LOST PROFITS OR LOST DATA, COST OF PROCUREMENT
//   33   OF SUBSTITUTE GOODS, TECHNOLOGY, SERVICES, OR ANY CLAIMS BY THIRD PARTIES
//   34   (INCLUDING BUT NOT LIMITED TO ANY DEFENSE THEREOF), OR OTHER SIMILAR COSTS.
//   35 
//   36   Should you have any questions regarding your right to use this Software,
//   37   contact Texas Instruments Incorporated at www.TI.com.
//   38 **************************************************************************************************/
//   39 
//   40 /******************************************************************************
//   41  * INCLUDES
//   42  */
//   43 
//   44 #include "ZComDef.h"
//   45 #include "hal_drivers.h"
//   46 #include "OSAL.h"
//   47 #include "OSAL_Tasks.h"
//   48 //#include "OSAL_Custom.h"
//   49 
//   50 #if defined ( MT_TASK )
//   51   #include "MT.h"
//   52   #include "MT_TASK.h"
//   53 #endif
//   54 
//   55 #include "nwk.h"
//   56 #include "APS.h"
//   57 #include "ZDApp.h"
//   58 
//   59 #include "osal_nv.h"
//   60 #include "NLMEDE.h"
//   61 #include "AF.h"
//   62 #include "OnBoard.h"
//   63 #include "nwk_util.h"
//   64 #include "ZDProfile.h"
//   65 #include "ZDObject.h"
//   66 #include "hal_led.h"
//   67 #include "hal_key.h"
//   68 #include "sapi.h"
//   69 #include "MT_SAPI.h"
//   70 
//   71 extern uint8 zgStartDelay;
//   72 extern uint8 zgSapiEndpoint;
//   73 /*********************************************************************
//   74  * CONSTANTS
//   75  */
//   76 
//   77 #if !defined OSAL_SAPI
//   78 #define OSAL_SAPI  TRUE
//   79 #endif
//   80 
//   81 #if !defined SAPI_CB_FUNC
//   82 #define SAPI_CB_FUNC  TRUE
//   83 #endif
//   84 
//   85 // Message ID's for application user messages must be in 0xE0-0xEF range
//   86 #define ZB_USER_MSG                       0xE0
//   87 #define SAPICB_DATA_CNF   0xE0
//   88 #define SAPICB_BIND_CNF   0xE1
//   89 #define SAPICB_START_CNF  0xE2
//   90 
//   91 /*********************************************************************
//   92  * TYPEDEFS
//   93  */
//   94 
//   95 /*********************************************************************
//   96  * GLOBAL VARIABLES
//   97  */
//   98 
//   99 #if OSAL_SAPI
//  100 // The order in this table must be identical to the task initialization calls below in osalInitTask.
//  101 const pTaskEventHandlerFn tasksArr[] = {
//  102   macEventLoop,
//  103   nwk_event_loop,
//  104   Hal_ProcessEvent,
//  105 #if defined( MT_TASK )
//  106   MT_ProcessEvent,
//  107 #endif
//  108   APS_event_loop,
//  109   ZDApp_event_loop,
//  110 
//  111   SAPI_ProcessEvent
//  112 };
//  113 
//  114 const uint8 tasksCnt = sizeof( tasksArr ) / sizeof( tasksArr[0] );
//  115 uint16 *tasksEvents;
//  116 #endif
//  117 

        RSEG XDATA_Z:XDATA:NOROOT(0)
        DATA8
//  118 endPointDesc_t sapi_epDesc;
sapi_epDesc:
        DS 6
        REQUIRE __INIT_XDATA_Z

        RSEG XDATA_Z:XDATA:NOROOT(0)
        DATA8
//  119 uint8 sapi_TaskID;
sapi_TaskID:
        DS 1
        REQUIRE __INIT_XDATA_Z

        RSEG XDATA_Z:XDATA:NOROOT(0)
        DATA16
//  120 static uint16 sapi_bindInProgress;
sapi_bindInProgress:
        DS 2
        REQUIRE __INIT_XDATA_Z
//  121 
//  122 /*********************************************************************
//  123  * LOCAL FUNCTIONS
//  124  */
//  125 
//  126 void SAPI_ProcessZDOMsgs( zdoIncomingMsg_t *inMsg );
//  127 static void SAPI_SendCback( uint8 event, uint8 status, uint16 data );
//  128 
//  129 static void SAPI_StartConfirm( uint8 status );
//  130 static void SAPI_SendDataConfirm( uint8 handle, uint8 status );
//  131 static void SAPI_BindConfirm( uint16 commandId, uint8 status );
//  132 static void SAPI_FindDeviceConfirm( uint8 searchType,
//  133                                         uint8 *searchKey, uint8 *result );
//  134 static void SAPI_ReceiveDataIndication( uint16 source,
//  135                               uint16 command, uint16 len, uint8 *pData  );
//  136 static void SAPI_AllowBindConfirm( uint16 source );
//  137 
//  138 /******************************************************************************
//  139  * @fn          zb_SystemReset
//  140  *
//  141  * @brief       The zb_SystemReset function reboots the ZigBee device.  The
//  142  *              zb_SystemReset function can be called after a call to
//  143  *              zb_WriteConfiguration to restart Z-Stack with the updated
//  144  *              configuration.
//  145  *
//  146  * @param       none
//  147  *
//  148  * @return      none
//  149  */

        RSEG BANKED_CODE:CODE:NOROOT(0)
//  150 void zb_SystemReset ( void )
zb_SystemReset:
          CFI Block cfiBlock0 Using cfiCommon0
          CFI Function zb_SystemReset
        CODE
//  151 {
        FUNCALL zb_SystemReset, Onboard_soft_reset
        LOCFRAME ISTACK, 0, STACK
        LOCFRAME PSTACK, 0, STACK
        LOCFRAME XSTACK, 0, STACK
        LOCFRAME IOVERLAY, 0, STATIC
        LOCFRAME DOVERLAY, 0, STATIC
        ARGFRAME ISTACK, 0, STACK
        ARGFRAME PSTACK, 0, STACK
        ARGFRAME XSTACK, 0, STACK
        ARGFRAME IOVERLAY, 0, STATIC
        ARGFRAME DOVERLAY, 0, STATIC
        ; Saved register size: 0
        ; Auto size: 0
//  152   SystemResetSoft();  // Especially useful for CC2531 to not break comm with USB Host.
        ; Setup parameters for call to function Onboard_soft_reset
        LCALL   Onboard_soft_reset & 0xFFFF
//  153 }
        LJMP    ?BRET
          CFI EndBlock cfiBlock0
//  154 
//  155 /******************************************************************************
//  156  * @fn          zb_StartRequest
//  157  *
//  158  * @brief       The zb_StartRequest function starts the ZigBee stack.  When the
//  159  *              ZigBee stack starts, the device reads configuration parameters
//  160  *              from Nonvolatile memory and the device joins its network.  The
//  161  *              ZigBee stack calls the zb_StartConrifm callback function when
//  162  *              the startup process completes.
//  163  *
//  164  * @param       none
//  165  *
//  166  * @return      none
//  167  */

        RSEG BANKED_CODE:CODE:NOROOT(0)
//  168 void zb_StartRequest()
zb_StartRequest:
          CFI Block cfiBlock1 Using cfiCommon0
          CFI Function zb_StartRequest
        CODE
//  169 {
        FUNCALL zb_StartRequest, zb_ReadConfiguration
        LOCFRAME ISTACK, 2, STACK
        LOCFRAME PSTACK, 0, STACK
        LOCFRAME XSTACK, 1, STACK
        LOCFRAME IOVERLAY, 0, STATIC
        LOCFRAME DOVERLAY, 0, STATIC
        ARGFRAME ISTACK, 2, STACK
        ARGFRAME PSTACK, 0, STACK
        ARGFRAME XSTACK, 1, STACK
        ARGFRAME IOVERLAY, 0, STATIC
        ARGFRAME DOVERLAY, 0, STATIC
        FUNCALL zb_StartRequest, SAPI_SendCback
        LOCFRAME ISTACK, 2, STACK
        LOCFRAME PSTACK, 0, STACK
        LOCFRAME XSTACK, 1, STACK
        LOCFRAME IOVERLAY, 0, STATIC
        LOCFRAME DOVERLAY, 0, STATIC
        ARGFRAME ISTACK, 2, STACK
        ARGFRAME PSTACK, 0, STACK
        ARGFRAME XSTACK, 1, STACK
        ARGFRAME IOVERLAY, 0, STATIC
        ARGFRAME DOVERLAY, 0, STATIC
        FUNCALL zb_StartRequest, ZDOInitDevice
        LOCFRAME ISTACK, 2, STACK
        LOCFRAME PSTACK, 0, STACK
        LOCFRAME XSTACK, 1, STACK
        LOCFRAME IOVERLAY, 0, STATIC
        LOCFRAME DOVERLAY, 0, STATIC
        ARGFRAME ISTACK, 2, STACK
        ARGFRAME PSTACK, 0, STACK
        ARGFRAME XSTACK, 1, STACK
        ARGFRAME IOVERLAY, 0, STATIC
        ARGFRAME DOVERLAY, 0, STATIC
        PUSH    DPL
          CFI DPL0 Frame(CFA_SP, 4)
          CFI CFA_SP SP+-4
        PUSH    DPH
          CFI DPH0 Frame(CFA_SP, 5)
          CFI CFA_SP SP+-5
        ; Saved register size: 2
        ; Auto size: 1
        MOV     A,#-0x1
        LCALL   ?ALLOC_XSTACK8
          CFI CFA_XSP16 add(XSP16, 1)
//  170   uint8 logicalType;
//  171 
//  172   zb_ReadConfiguration( ZCD_NV_LOGICAL_TYPE, sizeof(uint8), &logicalType );
        ; Setup parameters for call to function zb_ReadConfiguration
        MOV     R4,?XSP + 0
        MOV     R5,?XSP + 1
        MOV     R2,#0x1
        MOV     R1,#-0x79
        LCALL   `??zb_ReadConfiguration::?relay`; Banked call to: zb_ReadConfiguration
//  173 
//  174   // Check for bad combinations of compile flag definitions and device type setting.
//  175   if ((logicalType > ZG_DEVICETYPE_ENDDEVICE)      ||
//  176 #if !ZG_BUILD_ENDDEVICE_TYPE   // Only RTR or Coord possible.
//  177       (logicalType == ZG_DEVICETYPE_ENDDEVICE)     ||
//  178 #endif
//  179 #if !ZG_BUILD_RTR_TYPE         // Only End Device possible.
//  180       (logicalType == ZG_DEVICETYPE_ROUTER)        ||
//  181       (logicalType == ZG_DEVICETYPE_COORDINATOR)   ||
//  182 #elif ZG_BUILD_RTRONLY_TYPE    // Only RTR possible.
//  183       (logicalType == ZG_DEVICETYPE_COORDINATOR)   ||
//  184 #elif !ZG_BUILD_JOINING_TYPE   // Only Coord possible.
//  185       (logicalType == ZG_DEVICETYPE_ROUTER)        ||
//  186 #endif
//  187       (0))
        MOV     DPL,?XSP + 0
        MOV     DPH,?XSP + 1
        MOVX    A,@DPTR
        CLR     C
        SUBB    A,#0x3
        JC      ??zb_StartRequest_0
//  188   {
//  189     logicalType = ZB_INVALID_PARAMETER;
        MOV     A,#0x2
        MOVX    @DPTR,A
//  190     SAPI_SendCback(SAPICB_START_CNF, logicalType, 0);
        ; Setup parameters for call to function SAPI_SendCback
        MOV     R4,#0x0
        MOV     R5,#0x0
        MOV     R2,A
        MOV     R1,#-0x1e
        LCALL   `??SAPI_SendCback::?relay`; Banked call to: SAPI_SendCback
        SJMP    ??zb_StartRequest_1
//  191   }
//  192   else
//  193   {
//  194     logicalType = ZB_SUCCESS;
??zb_StartRequest_0:
        CLR     A
        MOVX    @DPTR,A
//  195     ZDOInitDevice(zgStartDelay);
        ; Setup parameters for call to function ZDOInitDevice
        MOV     DPTR,#zgStartDelay
        MOVX    A,@DPTR
        MOV     R2,A
        MOV     R3,#0x0
        LCALL   `??ZDOInitDevice::?relay`; Banked call to: ZDOInitDevice
//  196   }
//  197 
//  198   
//  199   return;
??zb_StartRequest_1:
        MOV     A,#0x1
        LCALL   ?DEALLOC_XSTACK8
          CFI CFA_XSP16 XSP16+0
        POP     DPH
          CFI DPH0 SameValue
          CFI CFA_SP SP+-4
        POP     DPL
          CFI DPL0 SameValue
          CFI CFA_SP SP+-3
        LJMP    ?BRET
//  200 }
          CFI EndBlock cfiBlock1
//  201 
//  202 /******************************************************************************
//  203  * @fn          zb_BindDevice
//  204  *
//  205  * @brief       The zb_BindDevice function establishes or removes a ‘binding’
//  206  *              between two devices.  Once bound, an application can send
//  207  *              messages to a device by referencing the commandId for the
//  208  *              binding.
//  209  *
//  210  * @param       create - TRUE to create a binding, FALSE to remove a binding
//  211  *              commandId - The identifier of the binding
//  212  *              pDestination - The 64-bit IEEE address of the device to bind to
//  213  *
//  214  * @return      The status of the bind operation is returned in the
//  215  *              zb_BindConfirm callback.
//  216  */

        RSEG BANKED_CODE:CODE:NOROOT(0)
//  217 void zb_BindDevice ( uint8 create, uint16 commandId, uint8 *pDestination )
zb_BindDevice:
          CFI Block cfiBlock2 Using cfiCommon0
          CFI Function zb_BindDevice
        CODE
//  218 {
        FUNCALL zb_BindDevice, sAddrExtCpy
        LOCFRAME ISTACK, 0, STACK
        LOCFRAME PSTACK, 0, STACK
        LOCFRAME XSTACK, 27, STACK
        LOCFRAME IOVERLAY, 0, STATIC
        LOCFRAME DOVERLAY, 0, STATIC
        ARGFRAME ISTACK, 0, STACK
        ARGFRAME PSTACK, 0, STACK
        ARGFRAME XSTACK, 27, STACK
        ARGFRAME IOVERLAY, 0, STATIC
        ARGFRAME DOVERLAY, 0, STATIC
        FUNCALL zb_BindDevice, APSME_BindRequest
        LOCFRAME ISTACK, 0, STACK
        LOCFRAME PSTACK, 0, STACK
        LOCFRAME XSTACK, 28, STACK
        LOCFRAME IOVERLAY, 0, STATIC
        LOCFRAME DOVERLAY, 0, STATIC
        ARGFRAME ISTACK, 0, STACK
        ARGFRAME PSTACK, 0, STACK
        ARGFRAME XSTACK, 28, STACK
        ARGFRAME IOVERLAY, 0, STATIC
        ARGFRAME DOVERLAY, 0, STATIC
        FUNCALL zb_BindDevice, ZDP_NwkAddrReq
        LOCFRAME ISTACK, 0, STACK
        LOCFRAME PSTACK, 0, STACK
        LOCFRAME XSTACK, 27, STACK
        LOCFRAME IOVERLAY, 0, STATIC
        LOCFRAME DOVERLAY, 0, STATIC
        ARGFRAME ISTACK, 0, STACK
        ARGFRAME PSTACK, 0, STACK
        ARGFRAME XSTACK, 27, STACK
        ARGFRAME IOVERLAY, 0, STATIC
        ARGFRAME DOVERLAY, 0, STATIC
        FUNCALL zb_BindDevice, osal_start_timerEx
        LOCFRAME ISTACK, 0, STACK
        LOCFRAME PSTACK, 0, STACK
        LOCFRAME XSTACK, 31, STACK
        LOCFRAME IOVERLAY, 0, STATIC
        LOCFRAME DOVERLAY, 0, STATIC
        ARGFRAME ISTACK, 0, STACK
        ARGFRAME PSTACK, 0, STACK
        ARGFRAME XSTACK, 31, STACK
        ARGFRAME IOVERLAY, 0, STATIC
        ARGFRAME DOVERLAY, 0, STATIC
        FUNCALL zb_BindDevice, SAPI_SendCback
        LOCFRAME ISTACK, 0, STACK
        LOCFRAME PSTACK, 0, STACK
        LOCFRAME XSTACK, 27, STACK
        LOCFRAME IOVERLAY, 0, STATIC
        LOCFRAME DOVERLAY, 0, STATIC
        ARGFRAME ISTACK, 0, STACK
        ARGFRAME PSTACK, 0, STACK
        ARGFRAME XSTACK, 27, STACK
        ARGFRAME IOVERLAY, 0, STATIC
        ARGFRAME DOVERLAY, 0, STATIC
        FUNCALL zb_BindDevice, ZDO_AnyClusterMatches
        LOCFRAME ISTACK, 0, STACK
        LOCFRAME PSTACK, 0, STACK
        LOCFRAME XSTACK, 29, STACK
        LOCFRAME IOVERLAY, 0, STATIC
        LOCFRAME DOVERLAY, 0, STATIC
        ARGFRAME ISTACK, 0, STACK
        ARGFRAME PSTACK, 0, STACK
        ARGFRAME XSTACK, 29, STACK
        ARGFRAME IOVERLAY, 0, STATIC
        ARGFRAME DOVERLAY, 0, STATIC
        FUNCALL zb_BindDevice, ZDP_MatchDescReq
        LOCFRAME ISTACK, 0, STACK
        LOCFRAME PSTACK, 0, STACK
        LOCFRAME XSTACK, 35, STACK
        LOCFRAME IOVERLAY, 0, STATIC
        LOCFRAME DOVERLAY, 0, STATIC
        ARGFRAME ISTACK, 0, STACK
        ARGFRAME PSTACK, 0, STACK
        ARGFRAME XSTACK, 35, STACK
        ARGFRAME IOVERLAY, 0, STATIC
        ARGFRAME DOVERLAY, 0, STATIC
        FUNCALL zb_BindDevice, ZDO_AnyClusterMatches
        LOCFRAME ISTACK, 0, STACK
        LOCFRAME PSTACK, 0, STACK
        LOCFRAME XSTACK, 29, STACK
        LOCFRAME IOVERLAY, 0, STATIC
        LOCFRAME DOVERLAY, 0, STATIC
        ARGFRAME ISTACK, 0, STACK
        ARGFRAME PSTACK, 0, STACK
        ARGFRAME XSTACK, 29, STACK
        ARGFRAME IOVERLAY, 0, STATIC
        ARGFRAME DOVERLAY, 0, STATIC
        FUNCALL zb_BindDevice, ZDP_MatchDescReq
        LOCFRAME ISTACK, 0, STACK
        LOCFRAME PSTACK, 0, STACK
        LOCFRAME XSTACK, 35, STACK
        LOCFRAME IOVERLAY, 0, STATIC
        LOCFRAME DOVERLAY, 0, STATIC
        ARGFRAME ISTACK, 0, STACK
        ARGFRAME PSTACK, 0, STACK
        ARGFRAME XSTACK, 35, STACK
        ARGFRAME IOVERLAY, 0, STATIC
        ARGFRAME DOVERLAY, 0, STATIC
        FUNCALL zb_BindDevice, osal_start_timerEx
        LOCFRAME ISTACK, 0, STACK
        LOCFRAME PSTACK, 0, STACK
        LOCFRAME XSTACK, 31, STACK
        LOCFRAME IOVERLAY, 0, STATIC
        LOCFRAME DOVERLAY, 0, STATIC
        ARGFRAME ISTACK, 0, STACK
        ARGFRAME PSTACK, 0, STACK
        ARGFRAME XSTACK, 31, STACK
        ARGFRAME IOVERLAY, 0, STATIC
        ARGFRAME DOVERLAY, 0, STATIC
        FUNCALL zb_BindDevice, bindRemoveEntry
        LOCFRAME ISTACK, 0, STACK
        LOCFRAME PSTACK, 0, STACK
        LOCFRAME XSTACK, 27, STACK
        LOCFRAME IOVERLAY, 0, STATIC
        LOCFRAME DOVERLAY, 0, STATIC
        ARGFRAME ISTACK, 0, STACK
        ARGFRAME PSTACK, 0, STACK
        ARGFRAME XSTACK, 27, STACK
        ARGFRAME IOVERLAY, 0, STATIC
        ARGFRAME DOVERLAY, 0, STATIC
        FUNCALL zb_BindDevice, bindFind
        LOCFRAME ISTACK, 0, STACK
        LOCFRAME PSTACK, 0, STACK
        LOCFRAME XSTACK, 27, STACK
        LOCFRAME IOVERLAY, 0, STATIC
        LOCFRAME DOVERLAY, 0, STATIC
        ARGFRAME ISTACK, 0, STACK
        ARGFRAME PSTACK, 0, STACK
        ARGFRAME XSTACK, 27, STACK
        ARGFRAME IOVERLAY, 0, STATIC
        ARGFRAME DOVERLAY, 0, STATIC
        FUNCALL zb_BindDevice, osal_start_timerEx
        LOCFRAME ISTACK, 0, STACK
        LOCFRAME PSTACK, 0, STACK
        LOCFRAME XSTACK, 31, STACK
        LOCFRAME IOVERLAY, 0, STATIC
        LOCFRAME DOVERLAY, 0, STATIC
        ARGFRAME ISTACK, 0, STACK
        ARGFRAME PSTACK, 0, STACK
        ARGFRAME XSTACK, 31, STACK
        ARGFRAME IOVERLAY, 0, STATIC
        ARGFRAME DOVERLAY, 0, STATIC
        REQUIRE ?V0
        REQUIRE ?V1
        REQUIRE ?V2
        REQUIRE ?V3
        REQUIRE ?V4
        REQUIRE ?V5
        REQUIRE ?V6
        REQUIRE ?V7
        MOV     A,#-0x10
        LCALL   ?BANKED_ENTER_XDATA
          CFI DPH0 load(1, XDATA, add(CFA_XSP16, literal(-1)))
          CFI DPL0 load(1, XDATA, add(CFA_XSP16, literal(-2)))
          CFI ?BRET_EXT load(1, XDATA, add(CFA_XSP16, literal(-3)))
          CFI ?RET_HIGH load(1, XDATA, add(CFA_XSP16, literal(-4)))
          CFI ?RET_LOW load(1, XDATA, add(CFA_XSP16, literal(-5)))
          CFI R7 load(1, XDATA, add(CFA_XSP16, literal(-6)))
          CFI V7 load(1, XDATA, add(CFA_XSP16, literal(-7)))
          CFI V6 load(1, XDATA, add(CFA_XSP16, literal(-8)))
          CFI V5 load(1, XDATA, add(CFA_XSP16, literal(-9)))
          CFI V4 load(1, XDATA, add(CFA_XSP16, literal(-10)))
          CFI V3 load(1, XDATA, add(CFA_XSP16, literal(-11)))
          CFI V2 load(1, XDATA, add(CFA_XSP16, literal(-12)))
          CFI V1 load(1, XDATA, add(CFA_XSP16, literal(-13)))
          CFI V0 load(1, XDATA, add(CFA_XSP16, literal(-14)))
          CFI VB load(1, XDATA, add(CFA_XSP16, literal(-15)))
          CFI R6 load(1, XDATA, add(CFA_XSP16, literal(-16)))
          CFI CFA_SP SP+0
          CFI CFA_XSP16 add(XSP16, 16)
        ; Saved register size: 16
        ; Auto size: 11
        MOV     A,#-0xb
        LCALL   ?ALLOC_XSTACK8
          CFI CFA_XSP16 add(XSP16, 27)
        MOV     DPL,?XSP + 0
        MOV     DPH,?XSP + 1
        MOV     A,R2
        MOVX    @DPTR,A
        INC     DPTR
        MOV     A,R3
        MOVX    @DPTR,A
        MOV     A,R4
        MOV     R6,A
        MOV     A,R5
        MOV     R7,A
//  219   zAddrType_t destination;
//  220   uint8 ret = ZB_ALREADY_IN_PROGRESS;
        MOV     ?V0,#0x20
//  221 
//  222   if ( create )
        MOV     A,R1
        JNZ     $+5
        LJMP    ??zb_BindDevice_0 & 0xFFFF
//  223   {
//  224     if (sapi_bindInProgress == 0xffff)
        MOV     DPTR,#sapi_bindInProgress
        MOVX    A,@DPTR
        CPL     A
        JNZ     ??zb_BindDevice_1
        INC     DPTR
        MOVX    A,@DPTR
        CPL     A
??zb_BindDevice_1:
        JNZ     ??zb_BindDevice_2
//  225     {
//  226       if ( pDestination )
        MOV     A,R6
        ORL     A,R7
        JZ      ??zb_BindDevice_3
//  227       {
//  228         destination.addrMode = Addr64Bit;
        MOV     A,#0xa
        LCALL   ?XSTACK_DISP0_8
        MOV     A,#0x3
        MOVX    @DPTR,A
//  229         osal_cpyExtAddr( destination.addr.extAddr, pDestination );
        ; Setup parameters for call to function sAddrExtCpy
        MOV     A,#0x2
        LCALL   ?XSTACK_DISP101_8
        LCALL   `??sAddrExtCpy::?relay`; Banked call to: sAddrExtCpy
//  230 
//  231         ret = APSME_BindRequest( sapi_epDesc.endPoint, commandId,
//  232                                             &destination, sapi_epDesc.endPoint );
        ; Setup parameters for call to function APSME_BindRequest
        MOV     DPTR,#sapi_epDesc
        MOVX    A,@DPTR
        MOV     ?V0,A
        MOV     R0,#?V0
        LCALL   ?PUSH_XSTACK_I_ONE
          CFI CFA_XSP16 add(XSP16, 28)
        MOV     A,#0x3
        LCALL   ?XSTACK_DISP102_8
        MOV     A,#0x1
        LCALL   ?XSTACK_DISP0_8
        LCALL   ??Subroutine10_0 & 0xFFFF
??CrossCallReturnLabel_4:
        MOV     DPTR,#sapi_epDesc
        MOVX    A,@DPTR
        MOV     R1,A
        LCALL   `??APSME_BindRequest::?relay`; Banked call to: APSME_BindRequest
        MOV     A,#0x1
        LCALL   ?DEALLOC_XSTACK8
          CFI CFA_XSP16 add(XSP16, 27)
        MOV     A,R1
        MOV     ?V0,A
//  233 
//  234         if ( ret == ZSuccess )
        JNZ     ??zb_BindDevice_2
//  235         {
//  236           // Find nwk addr
//  237           ZDP_NwkAddrReq(pDestination, ZDP_ADDR_REQTYPE_SINGLE, 0, 0 );
        ; Setup parameters for call to function ZDP_NwkAddrReq
        MOV     R5,#0x0
        MOV     R4,#0x0
        MOV     R1,#0x0
        MOV     A,R6
        MOV     R2,A
        MOV     A,R7
        MOV     R3,A
        LCALL   `??ZDP_NwkAddrReq::?relay`; Banked call to: ZDP_NwkAddrReq
//  238           osal_start_timerEx( ZDAppTaskID, ZDO_NWK_UPDATE_NV, 250 );
        ; Setup parameters for call to function osal_start_timerEx
        MOV     DPTR,#__Constant_fa
        LCALL   ?PUSH_XSTACK8_X_FOUR
          CFI CFA_XSP16 add(XSP16, 31)
        MOV     R2,#0x0
        MOV     R3,#0x1
        MOV     DPTR,#ZDAppTaskID
        MOVX    A,@DPTR
        MOV     R1,A
        LCALL   `??osal_start_timerEx::?relay`; Banked call to: osal_start_timerEx
        MOV     A,#0x4
        LCALL   ?DEALLOC_XSTACK8
          CFI CFA_XSP16 add(XSP16, 27)
//  239         }
//  240       }
//  241       else
//  242       {
//  243         ret = ZB_INVALID_PARAMETER;
//  244         destination.addrMode = Addr16Bit;
//  245         destination.addr.shortAddr = NWK_BROADCAST_SHORTADDR;
//  246         if ( ZDO_AnyClusterMatches( 1, &commandId, sapi_epDesc.simpleDesc->AppNumOutClusters,
//  247                                                 sapi_epDesc.simpleDesc->pAppOutClusterList ) )
//  248         {
//  249           // Try to match with a device in the allow bind mode
//  250           ret = ZDP_MatchDescReq( &destination, NWK_BROADCAST_SHORTADDR,
//  251               sapi_epDesc.simpleDesc->AppProfId, 1, &commandId, 0, (cId_t *)NULL, 0 );
//  252         }
//  253         else if ( ZDO_AnyClusterMatches( 1, &commandId, sapi_epDesc.simpleDesc->AppNumInClusters,
//  254                                                 sapi_epDesc.simpleDesc->pAppInClusterList ) )
//  255         {
//  256           ret = ZDP_MatchDescReq( &destination, NWK_BROADCAST_SHORTADDR,
//  257               sapi_epDesc.simpleDesc->AppProfId, 0, (cId_t *)NULL, 1, &commandId, 0 );
//  258         }
//  259 
//  260         if ( ret == ZB_SUCCESS )
//  261         {
//  262           // Set a timer to make sure bind completes
//  263 #if ( ZG_BUILD_RTR_TYPE )
//  264           osal_start_timerEx(sapi_TaskID, ZB_BIND_TIMER, AIB_MaxBindingTime);
//  265 #else
//  266           // AIB_MaxBindingTime is not defined for an End Device
//  267           osal_start_timerEx(sapi_TaskID, ZB_BIND_TIMER, zgApsDefaultMaxBindingTime);
//  268 #endif
//  269           sapi_bindInProgress = commandId;
//  270           return; // dont send cback event
//  271         }
//  272       }
//  273     }
//  274 
//  275     SAPI_SendCback( SAPICB_BIND_CNF, ret, commandId );
??zb_BindDevice_2:
        ; Setup parameters for call to function SAPI_SendCback
        MOV     DPL,?XSP + 0
        MOV     DPH,?XSP + 1
        MOVX    A,@DPTR
        MOV     R4,A
        INC     DPTR
        MOVX    A,@DPTR
        MOV     R5,A
        MOV     R2,?V0
        MOV     R1,#-0x1f
        LCALL   `??SAPI_SendCback::?relay`; Banked call to: SAPI_SendCback
        LJMP    ??zb_BindDevice_4 & 0xFFFF
??zb_BindDevice_3:
        MOV     ?V0,#0x2
        MOV     A,#0xa
        LCALL   ?XSTACK_DISP0_8
        MOV     A,#0x2
        MOVX    @DPTR,A
        LCALL   ?XSTACK_DISP0_8
        MOV     A,#-0x1
        MOVX    @DPTR,A
        INC     DPTR
        MOVX    @DPTR,A
        LCALL   ?Subroutine4 & 0xFFFF
??CrossCallReturnLabel_0:
        INC     DPTR
        INC     DPTR
        INC     DPTR
        LCALL   ?PUSH_XSTACK8_X_TWO
          CFI CFA_XSP16 add(XSP16, 29)
        MOV     DPL,R0
        MOV     DPH,R1
        INC     DPTR
        INC     DPTR
        INC     DPTR
        INC     DPTR
        INC     DPTR
        INC     DPTR
        INC     DPTR
        INC     DPTR
        INC     DPTR
        MOVX    A,@DPTR
        MOV     R4,A
        MOV     A,#0x2
        LCALL   ?XSTACK_DISP101_8
        MOV     R1,#0x1
        LCALL   `??ZDO_AnyClusterMatches::?relay`; Banked call to: ZDO_AnyClusterMatches
        MOV     A,#0x2
        LCALL   ?DEALLOC_XSTACK8
          CFI CFA_XSP16 add(XSP16, 27)
        MOV     A,R1
        JZ      ??zb_BindDevice_5
        ; Setup parameters for call to function ZDP_MatchDescReq
        MOV     ?V0,#0x0
        MOV     R0,#?V0
        LCALL   ?PUSH_XSTACK_I_ONE
          CFI CFA_XSP16 add(XSP16, 28)
        CLR     A
        MOV     ?V2,A
        MOV     ?V3,A
        MOV     R0,#?V2
        LCALL   ?PUSH_XSTACK_I_TWO
          CFI CFA_XSP16 add(XSP16, 30)
        MOV     R0,#?V0
        LCALL   ?PUSH_XSTACK_I_ONE
          CFI CFA_XSP16 add(XSP16, 31)
        MOV     A,#0x4
        LCALL   ?XSTACK_DISP100_8
        MOV     ?V2,R0
        MOV     ?V3,R1
        MOV     R0,#?V2
        LCALL   ?PUSH_XSTACK_I_TWO
          CFI CFA_XSP16 add(XSP16, 33)
        LCALL   ?Subroutine6 & 0xFFFF
??CrossCallReturnLabel_2:
        LCALL   ?PUSH_XSTACK8_X_TWO
          CFI CFA_XSP16 add(XSP16, 35)
        MOV     R1,#0x1
        SJMP    ??zb_BindDevice_6
          CFI CFA_XSP16 add(XSP16, 27)
??zb_BindDevice_5:
        LCALL   ?Subroutine4 & 0xFFFF
??CrossCallReturnLabel_1:
        LCALL   ?PUSH_XSTACK8_X_TWO
          CFI CFA_XSP16 add(XSP16, 29)
        MOV     DPL,R0
        MOV     DPH,R1
        INC     DPTR
        INC     DPTR
        INC     DPTR
        INC     DPTR
        INC     DPTR
        INC     DPTR
        MOVX    A,@DPTR
        MOV     R4,A
        MOV     A,#0x2
        LCALL   ?XSTACK_DISP101_8
        MOV     R1,#0x1
        LCALL   `??ZDO_AnyClusterMatches::?relay`; Banked call to: ZDO_AnyClusterMatches
        MOV     A,#0x2
        LCALL   ?DEALLOC_XSTACK8
          CFI CFA_XSP16 add(XSP16, 27)
        MOV     A,R1
        JNZ     $+5
        LJMP    ??zb_BindDevice_2 & 0xFFFF
        ; Setup parameters for call to function ZDP_MatchDescReq
        MOV     ?V0,#0x0
        MOV     R0,#?V0
        LCALL   ?PUSH_XSTACK_I_ONE
          CFI CFA_XSP16 add(XSP16, 28)
        MOV     A,#0x1
        LCALL   ?XSTACK_DISP100_8
        MOV     ?V2,R0
        MOV     ?V3,R1
        MOV     R0,#?V2
        LCALL   ?PUSH_XSTACK_I_TWO
          CFI CFA_XSP16 add(XSP16, 30)
        MOV     ?V0,#0x1
        MOV     R0,#?V0
        LCALL   ?PUSH_XSTACK_I_ONE
          CFI CFA_XSP16 add(XSP16, 31)
        CLR     A
        MOV     ?V2,A
        MOV     ?V3,A
        MOV     R0,#?V2
        LCALL   ?PUSH_XSTACK_I_TWO
          CFI CFA_XSP16 add(XSP16, 33)
        LCALL   ?Subroutine6 & 0xFFFF
??CrossCallReturnLabel_3:
        LCALL   ?PUSH_XSTACK8_X_TWO
          CFI CFA_XSP16 add(XSP16, 35)
        MOV     R1,#0x0
??zb_BindDevice_6:
        MOV     R4,#-0x1
        MOV     R5,#-0x1
        MOV     A,#0xa
        LCALL   ?XSTACK_DISP101_8
        LCALL   `??ZDP_MatchDescReq::?relay`; Banked call to: ZDP_MatchDescReq
        MOV     A,#0x8
        LCALL   ?DEALLOC_XSTACK8
          CFI CFA_XSP16 add(XSP16, 27)
        MOV     A,R1
        MOV     ?V0,A
        MOV     A,?V0
        JZ      $+5
        LJMP    ??zb_BindDevice_2 & 0xFFFF
        ; Setup parameters for call to function osal_start_timerEx
        MOV     DPTR,#AIB_MaxBindingTime
        MOVX    A,@DPTR
        MOV     ?V4,A
        INC     DPTR
        MOVX    A,@DPTR
        MOV     ?V5,A
        CLR     A
        MOV     ?V6,A
        MOV     ?V7,A
        MOV     R0,#?V4
        LCALL   ?PUSH_XSTACK_I_FOUR
          CFI CFA_XSP16 add(XSP16, 31)
        MOV     R2,#0x0
        MOV     R3,#0x20
        MOV     DPTR,#sapi_TaskID
        MOVX    A,@DPTR
        MOV     R1,A
        LCALL   `??osal_start_timerEx::?relay`; Banked call to: osal_start_timerEx
        MOV     A,#0x4
        LCALL   ?DEALLOC_XSTACK8
          CFI CFA_XSP16 add(XSP16, 27)
        MOV     DPL,?XSP + 0
        MOV     DPH,?XSP + 1
        MOVX    A,@DPTR
        MOV     R0,A
        INC     DPTR
        MOVX    A,@DPTR
        MOV     R1,A
        MOV     DPTR,#sapi_bindInProgress
        MOV     A,R0
        MOVX    @DPTR,A
        INC     DPTR
        MOV     A,R1
        MOVX    @DPTR,A
        SJMP    ??zb_BindDevice_4
//  276   }
//  277   else
//  278   {
//  279     // Remove local bindings for the commandId
//  280     BindingEntry_t *pBind;
//  281 
//  282     // Loop through bindings an remove any that match the cluster
//  283     while ( pBind = bindFind( sapi_epDesc.simpleDesc->EndPoint, commandId, 0 ) )
//  284     {
//  285       bindRemoveEntry(pBind);
??zb_BindDevice_7:
        ; Setup parameters for call to function bindRemoveEntry
        LCALL   `??bindRemoveEntry::?relay`; Banked call to: bindRemoveEntry
//  286     }
??zb_BindDevice_0:
        ; Setup parameters for call to function bindFind
        MOV     R4,#0x0
        MOV     DPL,?XSP + 0
        MOV     DPH,?XSP + 1
        LCALL   ?Subroutine3 & 0xFFFF
??CrossCallReturnLabel_15:
        LCALL   `??bindFind::?relay` ; Banked call to: bindFind
        MOV     A,R2
        ORL     A,R3
        JNZ     ??zb_BindDevice_7
//  287     osal_start_timerEx( ZDAppTaskID, ZDO_NWK_UPDATE_NV, 250 );
        ; Setup parameters for call to function osal_start_timerEx
        MOV     DPTR,#__Constant_fa
        LCALL   ?PUSH_XSTACK8_X_FOUR
          CFI CFA_XSP16 add(XSP16, 31)
        MOV     R2,#0x0
        MOV     R3,#0x1
        MOV     DPTR,#ZDAppTaskID
        MOVX    A,@DPTR
        MOV     R1,A
        LCALL   `??osal_start_timerEx::?relay`; Banked call to: osal_start_timerEx
        MOV     A,#0x4
        LCALL   ?DEALLOC_XSTACK8
          CFI CFA_XSP16 add(XSP16, 27)
//  288   }
//  289   return;
??zb_BindDevice_4:
        MOV     A,#0xb
        LCALL   ?DEALLOC_XSTACK8
          CFI CFA_XSP16 add(XSP16, 16)
        MOV     R7,#0x8
        LJMP    ?BANKED_LEAVE_XDATA
//  290 }
          CFI EndBlock cfiBlock2

        RSEG BANKED_CODE:CODE:NOROOT(0)
?Subroutine6:
          CFI Block cfiCond3 Using cfiCommon0
          CFI Function zb_BindDevice
          CFI Conditional ??CrossCallReturnLabel_2
          CFI R6 load(1, XDATA, add(CFA_XSP16, literal(-16)))
          CFI VB load(1, XDATA, add(CFA_XSP16, literal(-15)))
          CFI V0 load(1, XDATA, add(CFA_XSP16, literal(-14)))
          CFI V1 load(1, XDATA, add(CFA_XSP16, literal(-13)))
          CFI V2 load(1, XDATA, add(CFA_XSP16, literal(-12)))
          CFI V3 load(1, XDATA, add(CFA_XSP16, literal(-11)))
          CFI V4 load(1, XDATA, add(CFA_XSP16, literal(-10)))
          CFI V5 load(1, XDATA, add(CFA_XSP16, literal(-9)))
          CFI V6 load(1, XDATA, add(CFA_XSP16, literal(-8)))
          CFI V7 load(1, XDATA, add(CFA_XSP16, literal(-7)))
          CFI R7 load(1, XDATA, add(CFA_XSP16, literal(-6)))
          CFI ?RET_LOW load(1, XDATA, add(CFA_XSP16, literal(-5)))
          CFI ?RET_HIGH load(1, XDATA, add(CFA_XSP16, literal(-4)))
          CFI ?BRET_EXT load(1, XDATA, add(CFA_XSP16, literal(-3)))
          CFI DPL0 load(1, XDATA, add(CFA_XSP16, literal(-2)))
          CFI DPH0 load(1, XDATA, add(CFA_XSP16, literal(-1)))
          CFI CFA_SP SP+-2
          CFI CFA_XSP16 add(XSP16, 33)
          CFI Block cfiCond4 Using cfiCommon0
          CFI (cfiCond4) Function zb_BindDevice
          CFI (cfiCond4) Conditional ??CrossCallReturnLabel_3
          CFI (cfiCond4) R6 load(1, XDATA, add(CFA_XSP16, literal(-16)))
          CFI (cfiCond4) VB load(1, XDATA, add(CFA_XSP16, literal(-15)))
          CFI (cfiCond4) V0 load(1, XDATA, add(CFA_XSP16, literal(-14)))
          CFI (cfiCond4) V1 load(1, XDATA, add(CFA_XSP16, literal(-13)))
          CFI (cfiCond4) V2 load(1, XDATA, add(CFA_XSP16, literal(-12)))
          CFI (cfiCond4) V3 load(1, XDATA, add(CFA_XSP16, literal(-11)))
          CFI (cfiCond4) V4 load(1, XDATA, add(CFA_XSP16, literal(-10)))
          CFI (cfiCond4) V5 load(1, XDATA, add(CFA_XSP16, literal(-9)))
          CFI (cfiCond4) V6 load(1, XDATA, add(CFA_XSP16, literal(-8)))
          CFI (cfiCond4) V7 load(1, XDATA, add(CFA_XSP16, literal(-7)))
          CFI (cfiCond4) R7 load(1, XDATA, add(CFA_XSP16, literal(-6)))
          CFI (cfiCond4) ?RET_LOW load(1, XDATA, add(CFA_XSP16, literal(-5)))
          CFI (cfiCond4) ?RET_HIGH load(1, XDATA, add(CFA_XSP16, literal(-4)))
          CFI (cfiCond4) ?BRET_EXT load(1, XDATA, add(CFA_XSP16, literal(-3)))
          CFI (cfiCond4) DPL0 load(1, XDATA, add(CFA_XSP16, literal(-2)))
          CFI (cfiCond4) DPH0 load(1, XDATA, add(CFA_XSP16, literal(-1)))
          CFI (cfiCond4) CFA_SP SP+-2
          CFI (cfiCond4) CFA_XSP16 add(XSP16, 33)
          CFI Block cfiPicker5 Using cfiCommon1
          CFI (cfiPicker5) NoFunction
          CFI (cfiPicker5) Picker
        LCALL   ?Subroutine8 & 0xFFFF
??CrossCallReturnLabel_19:
        INC     DPTR
        RET
          CFI EndBlock cfiCond3
          CFI EndBlock cfiCond4
          CFI EndBlock cfiPicker5

        RSEG BANKED_CODE:CODE:NOROOT(0)
?Subroutine4:
          CFI Block cfiCond6 Using cfiCommon0
          CFI Function zb_BindDevice
          CFI Conditional ??CrossCallReturnLabel_0
          CFI R6 load(1, XDATA, add(CFA_XSP16, literal(-16)))
          CFI VB load(1, XDATA, add(CFA_XSP16, literal(-15)))
          CFI V0 load(1, XDATA, add(CFA_XSP16, literal(-14)))
          CFI V1 load(1, XDATA, add(CFA_XSP16, literal(-13)))
          CFI V2 load(1, XDATA, add(CFA_XSP16, literal(-12)))
          CFI V3 load(1, XDATA, add(CFA_XSP16, literal(-11)))
          CFI V4 load(1, XDATA, add(CFA_XSP16, literal(-10)))
          CFI V5 load(1, XDATA, add(CFA_XSP16, literal(-9)))
          CFI V6 load(1, XDATA, add(CFA_XSP16, literal(-8)))
          CFI V7 load(1, XDATA, add(CFA_XSP16, literal(-7)))
          CFI R7 load(1, XDATA, add(CFA_XSP16, literal(-6)))
          CFI ?RET_LOW load(1, XDATA, add(CFA_XSP16, literal(-5)))
          CFI ?RET_HIGH load(1, XDATA, add(CFA_XSP16, literal(-4)))
          CFI ?BRET_EXT load(1, XDATA, add(CFA_XSP16, literal(-3)))
          CFI DPL0 load(1, XDATA, add(CFA_XSP16, literal(-2)))
          CFI DPH0 load(1, XDATA, add(CFA_XSP16, literal(-1)))
          CFI CFA_SP SP+-2
          CFI CFA_XSP16 add(XSP16, 27)
          CFI Block cfiCond7 Using cfiCommon0
          CFI (cfiCond7) Function zb_BindDevice
          CFI (cfiCond7) Conditional ??CrossCallReturnLabel_1
          CFI (cfiCond7) R6 load(1, XDATA, add(CFA_XSP16, literal(-16)))
          CFI (cfiCond7) VB load(1, XDATA, add(CFA_XSP16, literal(-15)))
          CFI (cfiCond7) V0 load(1, XDATA, add(CFA_XSP16, literal(-14)))
          CFI (cfiCond7) V1 load(1, XDATA, add(CFA_XSP16, literal(-13)))
          CFI (cfiCond7) V2 load(1, XDATA, add(CFA_XSP16, literal(-12)))
          CFI (cfiCond7) V3 load(1, XDATA, add(CFA_XSP16, literal(-11)))
          CFI (cfiCond7) V4 load(1, XDATA, add(CFA_XSP16, literal(-10)))
          CFI (cfiCond7) V5 load(1, XDATA, add(CFA_XSP16, literal(-9)))
          CFI (cfiCond7) V6 load(1, XDATA, add(CFA_XSP16, literal(-8)))
          CFI (cfiCond7) V7 load(1, XDATA, add(CFA_XSP16, literal(-7)))
          CFI (cfiCond7) R7 load(1, XDATA, add(CFA_XSP16, literal(-6)))
          CFI (cfiCond7) ?RET_LOW load(1, XDATA, add(CFA_XSP16, literal(-5)))
          CFI (cfiCond7) ?RET_HIGH load(1, XDATA, add(CFA_XSP16, literal(-4)))
          CFI (cfiCond7) ?BRET_EXT load(1, XDATA, add(CFA_XSP16, literal(-3)))
          CFI (cfiCond7) DPL0 load(1, XDATA, add(CFA_XSP16, literal(-2)))
          CFI (cfiCond7) DPH0 load(1, XDATA, add(CFA_XSP16, literal(-1)))
          CFI (cfiCond7) CFA_SP SP+-2
          CFI (cfiCond7) CFA_XSP16 add(XSP16, 27)
          CFI Block cfiPicker8 Using cfiCommon1
          CFI (cfiPicker8) NoFunction
          CFI (cfiPicker8) Picker
        MOV     DPTR,#sapi_epDesc + 3
        MOVX    A,@DPTR
        MOV     R0,A
        INC     DPTR
        MOVX    A,@DPTR
        MOV     R1,A
        ; Setup parameters for call to function ZDO_AnyClusterMatches
        ; Setup parameters for call to function ZDO_AnyClusterMatches
        MOV     DPL,R0
        MOV     DPH,R1
        INC     DPTR
        INC     DPTR
        INC     DPTR
        INC     DPTR
        INC     DPTR
        INC     DPTR
        INC     DPTR
        RET
          CFI EndBlock cfiCond6
          CFI EndBlock cfiCond7
          CFI EndBlock cfiPicker8
//  291 /******************************************************************************
//  292  * @fn          zb_PermitJoiningRequest
//  293  *
//  294  * @brief       The zb_PermitJoiningRequest function is used to control the
//  295  *              joining permissions and thus allow or disallow new devices from
//  296  *              joining the network.
//  297  *
//  298  * @param       destination - The destination parameter indicates the address
//  299  *                            of the device for which the joining permissions
//  300  *                            should be set. This is usually the local device
//  301  *                            address or the special broadcast address that denotes
//  302  *                            all routers and coordinator ( 0xFFFC ). This way
//  303  *                            the joining permissions of a single device or the
//  304  *                            whole network can be controlled.
//  305  *              timeout -  Indicates the amount of time in seconds for which
//  306  *                         the joining permissions should be turned on.
//  307  *                         If timeout is set to 0x00, the device will turn off the
//  308  *                         joining permissions indefinitely. If it is set to 0xFF,
//  309  *                         the joining permissions will be turned on indefinitely.
//  310  *
//  311  *
//  312  * @return      ZB_SUCCESS or a failure code
//  313  *
//  314  */
//  315 

        RSEG BANKED_CODE:CODE:NOROOT(0)
//  316 uint8 zb_PermitJoiningRequest ( uint16 destination, uint8 timeout )
zb_PermitJoiningRequest:
          CFI Block cfiBlock9 Using cfiCommon0
          CFI Function zb_PermitJoiningRequest
        CODE
//  317 {
        FUNCALL zb_PermitJoiningRequest, ZDP_MgmtPermitJoinReq
        LOCFRAME ISTACK, 0, STACK
        LOCFRAME PSTACK, 0, STACK
        LOCFRAME XSTACK, 18, STACK
        LOCFRAME IOVERLAY, 0, STATIC
        LOCFRAME DOVERLAY, 0, STATIC
        ARGFRAME ISTACK, 0, STACK
        ARGFRAME PSTACK, 0, STACK
        ARGFRAME XSTACK, 18, STACK
        ARGFRAME IOVERLAY, 0, STATIC
        ARGFRAME DOVERLAY, 0, STATIC
        MOV     A,#-0x9
        LCALL   ?BANKED_ENTER_XDATA
          CFI DPH0 load(1, XDATA, add(CFA_XSP16, literal(-1)))
          CFI DPL0 load(1, XDATA, add(CFA_XSP16, literal(-2)))
          CFI ?BRET_EXT load(1, XDATA, add(CFA_XSP16, literal(-3)))
          CFI ?RET_HIGH load(1, XDATA, add(CFA_XSP16, literal(-4)))
          CFI ?RET_LOW load(1, XDATA, add(CFA_XSP16, literal(-5)))
          CFI R7 load(1, XDATA, add(CFA_XSP16, literal(-6)))
          CFI V0 load(1, XDATA, add(CFA_XSP16, literal(-7)))
          CFI VB load(1, XDATA, add(CFA_XSP16, literal(-8)))
          CFI R6 load(1, XDATA, add(CFA_XSP16, literal(-9)))
          CFI CFA_SP SP+0
          CFI CFA_XSP16 add(XSP16, 9)
        ; Saved register size: 9
        ; Auto size: 9
        MOV     A,#-0x9
        LCALL   ?ALLOC_XSTACK8
          CFI CFA_XSP16 add(XSP16, 18)
//  318 #if defined( ZDO_MGMT_PERMIT_JOIN_REQUEST )
//  319   zAddrType_t dstAddr;
//  320 
//  321   dstAddr.addrMode = Addr16Bit;
        MOV     A,#0x8
        LCALL   ?XSTACK_DISP0_8
        MOV     A,#0x2
        MOVX    @DPTR,A
//  322   dstAddr.addr.shortAddr = destination;
        MOV     DPL,?XSP + 0
        MOV     DPH,?XSP + 1
        MOV     A,R2
        MOVX    @DPTR,A
        INC     DPTR
        MOV     A,R3
        MOVX    @DPTR,A
//  323 
//  324   return( (uint8) ZDP_MgmtPermitJoinReq( &dstAddr, timeout, 0, 0 ) );
        ; Setup parameters for call to function ZDP_MgmtPermitJoinReq
        MOV     R5,#0x0
        MOV     R4,#0x0
        MOV     R2,?XSP + 0
        MOV     R3,?XSP + 1
        LCALL   `??ZDP_MgmtPermitJoinReq::?relay`; Banked call to: ZDP_MgmtPermitJoinReq
        MOV     A,#0x9
        LCALL   ?DEALLOC_XSTACK8
          CFI CFA_XSP16 add(XSP16, 9)
        LJMP    ?Subroutine0 & 0xFFFF
//  325 #else
//  326   (void)destination;
//  327   (void)timeout;
//  328   return ZUnsupportedMode;
//  329 #endif
//  330 }
          CFI EndBlock cfiBlock9
//  331 /******************************************************************************
//  332  * @fn          zb_AllowBind
//  333  *
//  334  * @brief       The zb_AllowBind function puts the device into the
//  335  *              Allow Binding Mode for a given period of time.  A peer device
//  336  *              can establish a binding to a device in the Allow Binding Mode
//  337  *              by calling zb_BindDevice with a destination address of NULL
//  338  *
//  339  * @param       timeout - The number of seconds to remain in the allow binding
//  340  *                        mode.  Valid values range from 1 through 65.
//  341  *                        If 0, the Allow Bind mode will be set false without TO
//  342  *                        If greater than 64, the Allow Bind mode will be true
//  343  *
//  344  * @return      ZB_SUCCESS if the device entered the allow bind mode, else
//  345  *              an error code.
//  346  */

        RSEG BANKED_CODE:CODE:NOROOT(0)
//  347 void zb_AllowBind ( uint8 timeout )
zb_AllowBind:
          CFI Block cfiBlock10 Using cfiCommon0
          CFI Function zb_AllowBind
        CODE
//  348 {
        FUNCALL zb_AllowBind, osal_stop_timerEx
        LOCFRAME ISTACK, 0, STACK
        LOCFRAME PSTACK, 0, STACK
        LOCFRAME XSTACK, 12, STACK
        LOCFRAME IOVERLAY, 0, STATIC
        LOCFRAME DOVERLAY, 0, STATIC
        ARGFRAME ISTACK, 0, STACK
        ARGFRAME PSTACK, 0, STACK
        ARGFRAME XSTACK, 12, STACK
        ARGFRAME IOVERLAY, 0, STATIC
        ARGFRAME DOVERLAY, 0, STATIC
        FUNCALL zb_AllowBind, afSetMatch
        LOCFRAME ISTACK, 0, STACK
        LOCFRAME PSTACK, 0, STACK
        LOCFRAME XSTACK, 12, STACK
        LOCFRAME IOVERLAY, 0, STATIC
        LOCFRAME DOVERLAY, 0, STATIC
        ARGFRAME ISTACK, 0, STACK
        ARGFRAME PSTACK, 0, STACK
        ARGFRAME XSTACK, 12, STACK
        ARGFRAME IOVERLAY, 0, STATIC
        ARGFRAME DOVERLAY, 0, STATIC
        FUNCALL zb_AllowBind, afSetMatch
        LOCFRAME ISTACK, 0, STACK
        LOCFRAME PSTACK, 0, STACK
        LOCFRAME XSTACK, 12, STACK
        LOCFRAME IOVERLAY, 0, STATIC
        LOCFRAME DOVERLAY, 0, STATIC
        ARGFRAME ISTACK, 0, STACK
        ARGFRAME PSTACK, 0, STACK
        ARGFRAME XSTACK, 12, STACK
        ARGFRAME IOVERLAY, 0, STATIC
        ARGFRAME DOVERLAY, 0, STATIC
        FUNCALL zb_AllowBind, osal_start_timerEx
        LOCFRAME ISTACK, 0, STACK
        LOCFRAME PSTACK, 0, STACK
        LOCFRAME XSTACK, 16, STACK
        LOCFRAME IOVERLAY, 0, STATIC
        LOCFRAME DOVERLAY, 0, STATIC
        ARGFRAME ISTACK, 0, STACK
        ARGFRAME PSTACK, 0, STACK
        ARGFRAME XSTACK, 16, STACK
        ARGFRAME IOVERLAY, 0, STATIC
        ARGFRAME DOVERLAY, 0, STATIC
        REQUIRE ?V0
        REQUIRE ?V1
        REQUIRE ?V2
        REQUIRE ?V3
        MOV     A,#-0xc
        LCALL   ?BANKED_ENTER_XDATA
          CFI DPH0 load(1, XDATA, add(CFA_XSP16, literal(-1)))
          CFI DPL0 load(1, XDATA, add(CFA_XSP16, literal(-2)))
          CFI ?BRET_EXT load(1, XDATA, add(CFA_XSP16, literal(-3)))
          CFI ?RET_HIGH load(1, XDATA, add(CFA_XSP16, literal(-4)))
          CFI ?RET_LOW load(1, XDATA, add(CFA_XSP16, literal(-5)))
          CFI R7 load(1, XDATA, add(CFA_XSP16, literal(-6)))
          CFI V3 load(1, XDATA, add(CFA_XSP16, literal(-7)))
          CFI V2 load(1, XDATA, add(CFA_XSP16, literal(-8)))
          CFI V1 load(1, XDATA, add(CFA_XSP16, literal(-9)))
          CFI V0 load(1, XDATA, add(CFA_XSP16, literal(-10)))
          CFI VB load(1, XDATA, add(CFA_XSP16, literal(-11)))
          CFI R6 load(1, XDATA, add(CFA_XSP16, literal(-12)))
          CFI CFA_SP SP+0
          CFI CFA_XSP16 add(XSP16, 12)
        ; Saved register size: 12
        ; Auto size: 0
        MOV     A,R1
        MOV     R6,A
//  349 
//  350   osal_stop_timerEx(sapi_TaskID, ZB_ALLOW_BIND_TIMER);
        ; Setup parameters for call to function osal_stop_timerEx
        MOV     R2,#0x0
        MOV     R3,#0x40
        MOV     DPTR,#sapi_TaskID
        MOVX    A,@DPTR
        MOV     R1,A
        LCALL   `??osal_stop_timerEx::?relay`; Banked call to: osal_stop_timerEx
//  351 
//  352   if ( timeout == 0 )
        MOV     A,R6
        JNZ     ??zb_AllowBind_0
//  353   {
//  354     afSetMatch(sapi_epDesc.simpleDesc->EndPoint, FALSE);
        ; Setup parameters for call to function afSetMatch
        MOV     R2,#0x0
        LCALL   ??Subroutine11_0 & 0xFFFF
//  355   }
??CrossCallReturnLabel_11:
        LCALL   `??afSetMatch::?relay`; Banked call to: afSetMatch
        SJMP    ??zb_AllowBind_1
//  356   else
//  357   {
//  358     afSetMatch(sapi_epDesc.simpleDesc->EndPoint, TRUE);
??zb_AllowBind_0:
        ; Setup parameters for call to function afSetMatch
        MOV     R2,#0x1
        LCALL   ??Subroutine11_0 & 0xFFFF
??CrossCallReturnLabel_12:
        LCALL   `??afSetMatch::?relay`; Banked call to: afSetMatch
//  359     if ( timeout != 0xFF )
        MOV     A,#-0x1
        XRL     A,R6
        JZ      ??zb_AllowBind_1
//  360     {
//  361       if ( timeout > 64 )
        MOV     A,R6
        CLR     C
        SUBB    A,#0x41
        JC      ??zb_AllowBind_2
//  362       {
//  363         timeout = 64;
        MOV     R6,#0x40
//  364       }
//  365       osal_start_timerEx(sapi_TaskID, ZB_ALLOW_BIND_TIMER, timeout*1000);
??zb_AllowBind_2:
        ; Setup parameters for call to function osal_start_timerEx
        MOV     A,R6
        MOV     R0,A
        MOV     B,#-0x18
        MUL     AB
        XCH     A,R0
        MOV     R2,B
        MOV     B,#0x3
        MUL     AB
        ADD     A,R2
        MOV     R2,A
        CLR     A
        ADD     A,R2
        MOV     ?V0,R0
        MOV     ?V1,A
        RLC     A
        SUBB    A,0xE0 /* A   */
        MOV     ?V2,A
        MOV     ?V3,A
        MOV     R0,#?V0
        LCALL   ?PUSH_XSTACK_I_FOUR
          CFI CFA_XSP16 add(XSP16, 16)
        MOV     R2,#0x0
        MOV     R3,#0x40
        MOV     DPTR,#sapi_TaskID
        MOVX    A,@DPTR
        MOV     R1,A
        LCALL   `??osal_start_timerEx::?relay`; Banked call to: osal_start_timerEx
        MOV     A,#0x4
        LCALL   ?DEALLOC_XSTACK8
          CFI CFA_XSP16 add(XSP16, 12)
//  366     }
//  367   }
//  368   return;
??zb_AllowBind_1:
        LJMP    ?Subroutine1 & 0xFFFF
//  369 }
          CFI EndBlock cfiBlock10
//  370 /******************************************************************************
//  371  * @fn          zb_SendDataRequest
//  372  *
//  373  * @brief       The zb_SendDataRequest function initiates transmission of data
//  374  *              to a peer device
//  375  *
//  376  * @param       destination - The destination of the data.  The destination can
//  377  *                            be one of the following:
//  378  *                            - 16-Bit short address of device [0-0xfffD]
//  379  *                            - ZB_BROADCAST_ADDR sends the data to all devices
//  380  *                              in the network.
//  381  *                            - ZB_BINDING_ADDR sends the data to a previously
//  382  *                              bound device.
//  383  *
//  384  *              commandId - The command ID to send with the message.  If the
//  385  *                          ZB_BINDING_ADDR destination is used, this parameter
//  386  *                          also indicates the binding to use.
//  387  *
//  388  *              len - The size of the pData buffer in bytes
//  389  *              handle - A handle used to identify the send data request.
//  390  *              txOptions - TRUE if requesting acknowledgement from the destination.
//  391  *              radius - The max number of hops the packet can travel through
//  392  *                       before it is dropped.
//  393  *
//  394  * @return      none
//  395  */

        RSEG BANKED_CODE:CODE:NOROOT(0)
//  396 void zb_SendDataRequest ( uint16 destination, uint16 commandId, uint8 len,
zb_SendDataRequest:
          CFI Block cfiBlock11 Using cfiCommon0
          CFI Function zb_SendDataRequest
        CODE
//  397                           uint8 *pData, uint8 handle, uint8 txOptions, uint8 radius )
//  398 {
        FUNCALL zb_SendDataRequest, NLME_IsAddressBroadcast
        LOCFRAME ISTACK, 0, STACK
        LOCFRAME PSTACK, 0, STACK
        LOCFRAME XSTACK, 24, STACK
        LOCFRAME IOVERLAY, 0, STATIC
        LOCFRAME DOVERLAY, 0, STATIC
        ARGFRAME ISTACK, 0, STACK
        ARGFRAME PSTACK, 0, STACK
        ARGFRAME XSTACK, 24, STACK
        ARGFRAME IOVERLAY, 0, STATIC
        ARGFRAME DOVERLAY, 0, STATIC
        FUNCALL zb_SendDataRequest, AF_DataRequest
        LOCFRAME ISTACK, 0, STACK
        LOCFRAME PSTACK, 0, STACK
        LOCFRAME XSTACK, 33, STACK
        LOCFRAME IOVERLAY, 0, STATIC
        LOCFRAME DOVERLAY, 0, STATIC
        ARGFRAME ISTACK, 0, STACK
        ARGFRAME PSTACK, 0, STACK
        ARGFRAME XSTACK, 33, STACK
        ARGFRAME IOVERLAY, 0, STATIC
        ARGFRAME DOVERLAY, 0, STATIC
        FUNCALL zb_SendDataRequest, SAPI_SendCback
        LOCFRAME ISTACK, 0, STACK
        LOCFRAME PSTACK, 0, STACK
        LOCFRAME XSTACK, 24, STACK
        LOCFRAME IOVERLAY, 0, STATIC
        LOCFRAME DOVERLAY, 0, STATIC
        ARGFRAME ISTACK, 0, STACK
        ARGFRAME PSTACK, 0, STACK
        ARGFRAME XSTACK, 24, STACK
        ARGFRAME IOVERLAY, 0, STATIC
        ARGFRAME DOVERLAY, 0, STATIC
        REQUIRE ?V0
        REQUIRE ?V1
        REQUIRE ?V2
        REQUIRE ?V3
        MOV     A,#-0xc
        LCALL   ?BANKED_ENTER_XDATA
          CFI DPH0 load(1, XDATA, add(CFA_XSP16, literal(-1)))
          CFI DPL0 load(1, XDATA, add(CFA_XSP16, literal(-2)))
          CFI ?BRET_EXT load(1, XDATA, add(CFA_XSP16, literal(-3)))
          CFI ?RET_HIGH load(1, XDATA, add(CFA_XSP16, literal(-4)))
          CFI ?RET_LOW load(1, XDATA, add(CFA_XSP16, literal(-5)))
          CFI R7 load(1, XDATA, add(CFA_XSP16, literal(-6)))
          CFI V3 load(1, XDATA, add(CFA_XSP16, literal(-7)))
          CFI V2 load(1, XDATA, add(CFA_XSP16, literal(-8)))
          CFI V1 load(1, XDATA, add(CFA_XSP16, literal(-9)))
          CFI V0 load(1, XDATA, add(CFA_XSP16, literal(-10)))
          CFI VB load(1, XDATA, add(CFA_XSP16, literal(-11)))
          CFI R6 load(1, XDATA, add(CFA_XSP16, literal(-12)))
          CFI CFA_SP SP+0
          CFI CFA_XSP16 add(XSP16, 12)
        ; Saved register size: 12
        ; Auto size: 12
        MOV     A,#-0xc
        LCALL   ?ALLOC_XSTACK8
          CFI CFA_XSP16 add(XSP16, 24)
        MOV     ?V0,R4
        MOV     ?V1,R5
        MOV     A,R1
        MOV     R7,A
        MOV     A,#0x1b
        LCALL   ?XSTACK_DISP0_8
        MOVX    A,@DPTR
        MOV     R6,A
//  399   afStatus_t status;
//  400   afAddrType_t dstAddr;
//  401 
//  402   txOptions |= AF_DISCV_ROUTE;
//  403 
//  404   // Set the destination address
//  405   if (destination == ZB_BINDING_ADDR)
        MOV     A,#-0x2
        XRL     A,R2
        JNZ     ??zb_SendDataRequest_0
        MOV     A,#-0x1
        XRL     A,R3
??zb_SendDataRequest_0:
        JNZ     ??zb_SendDataRequest_1
//  406   {
//  407     // Binding
//  408     dstAddr.addrMode = afAddrNotPresent;
        MOV     A,#0x8
        LCALL   ?XSTACK_DISP0_8
        CLR     A
        MOVX    @DPTR,A
        SJMP    ??zb_SendDataRequest_2
//  409   }
//  410   else
//  411   {
//  412     // Use short address
//  413     dstAddr.addr.shortAddr = destination;
??zb_SendDataRequest_1:
        MOV     DPL,?XSP + 0
        MOV     DPH,?XSP + 1
        MOV     A,R2
        MOVX    @DPTR,A
        INC     DPTR
        MOV     A,R3
        MOVX    @DPTR,A
//  414     dstAddr.addrMode = afAddr16Bit;
        MOV     A,#0x8
        LCALL   ?XSTACK_DISP0_8
        MOV     A,#0x2
        MOVX    @DPTR,A
//  415 
//  416     if ( ADDR_NOT_BCAST != NLME_IsAddressBroadcast( destination ) )
        ; Setup parameters for call to function NLME_IsAddressBroadcast
        LCALL   `??NLME_IsAddressBroadcast::?relay`; Banked call to: NLME_IsAddressBroadcast
        MOV     A,R1
        JZ      ??zb_SendDataRequest_2
//  417     {
//  418       txOptions &= ~AF_ACK_REQUEST;
        MOV     A,R6
        CLR     0xE0 /* A   */.4
        MOV     R6,A
//  419     }
//  420   }
//  421 
//  422   dstAddr.panId = 0;                                    // Not an inter-pan message.
??zb_SendDataRequest_2:
        MOV     A,#0xa
        LCALL   ?XSTACK_DISP0_8
        CLR     A
        MOVX    @DPTR,A
        INC     DPTR
        MOVX    @DPTR,A
//  423   dstAddr.endPoint = sapi_epDesc.simpleDesc->EndPoint;  // Set the endpoint.
        LCALL   ?Subroutine7 & 0xFFFF
??CrossCallReturnLabel_17:
        PUSH    A
          CFI CFA_SP SP+-1
        MOV     A,#0x9
        LCALL   ?XSTACK_DISP0_8
        POP     A
          CFI CFA_SP SP+0
        MOVX    @DPTR,A
//  424 
//  425   // Send the message
//  426   status = AF_DataRequest(&dstAddr, &sapi_epDesc, commandId, len,
//  427                           pData, &handle, txOptions, radius);
        ; Setup parameters for call to function AF_DataRequest
        MOV     A,#0x1c
        LCALL   ?XSTACK_DISP0_8
        MOVX    A,@DPTR
        MOV     ?V2,A
        MOV     R0,#?V2
        LCALL   ?PUSH_XSTACK_I_ONE
          CFI CFA_XSP16 add(XSP16, 25)
        MOV     A,#0x1b
        LCALL   ?XSTACK_DISP100_8
        MOV     ?V2,R0
        MOV     ?V3,R1
        MOV     R0,#?V2
        LCALL   ?PUSH_XSTACK_I_TWO
          CFI CFA_XSP16 add(XSP16, 27)
        MOV     A,#0x1b
        LCALL   ?XSTACK_DISP0_8
        LCALL   ?PUSH_XSTACK8_X_TWO
          CFI CFA_XSP16 add(XSP16, 29)
        MOV     ?V2,R7
        MOV     ?V3,#0x0
        MOV     R0,#?V2
        LCALL   ?PUSH_XSTACK_I_TWO
          CFI CFA_XSP16 add(XSP16, 31)
        MOV     R0,#?V0
        LCALL   ?PUSH_XSTACK_I_TWO
          CFI CFA_XSP16 add(XSP16, 33)
        MOV     A,R6
        MOV     R1,A
        MOV     R4,#sapi_epDesc & 0xff
        MOV     R5,#(sapi_epDesc >> 8) & 0xff
        MOV     A,#0x9
        LCALL   ?XSTACK_DISP101_8
        LCALL   `??AF_DataRequest::?relay`; Banked call to: AF_DataRequest
        MOV     A,#0x9
        LCALL   ?DEALLOC_XSTACK8
          CFI CFA_XSP16 add(XSP16, 24)
        MOV     A,R1
        MOV     R2,A
//  428 
//  429   if (status != afStatus_SUCCESS)
        JZ      ??zb_SendDataRequest_3
//  430   {
//  431     SAPI_SendCback( SAPICB_DATA_CNF, status, handle );
        ; Setup parameters for call to function SAPI_SendCback
        MOV     A,#0x1a
        LCALL   ?XSTACK_DISP0_8
        MOVX    A,@DPTR
        MOV     R4,A
        MOV     R5,#0x0
        MOV     R1,#-0x20
        LCALL   `??SAPI_SendCback::?relay`; Banked call to: SAPI_SendCback
//  432   }
//  433 }
??zb_SendDataRequest_3:
        MOV     A,#0xc
        LCALL   ?DEALLOC_XSTACK8
          CFI CFA_XSP16 add(XSP16, 12)
        SJMP    ?Subroutine1
          CFI EndBlock cfiBlock11
//  434 
//  435 /******************************************************************************
//  436  * @fn          zb_ReadConfiguration
//  437  *
//  438  * @brief       The zb_ReadConfiguration function is used to get a
//  439  *              Configuration Protperty from Nonvolatile memory.
//  440  *
//  441  * @param       configId - The identifier for the configuration property
//  442  *              len - The size of the pValue buffer in bytes
//  443  *              pValue - A buffer to hold the configuration property
//  444  *
//  445  * @return      none
//  446  */

        RSEG BANKED_CODE:CODE:NOROOT(0)
//  447 uint8 zb_ReadConfiguration( uint8 configId, uint8 len, void *pValue )
zb_ReadConfiguration:
          CFI Block cfiBlock12 Using cfiCommon0
          CFI Function zb_ReadConfiguration
        CODE
//  448 {
        FUNCALL zb_ReadConfiguration, osal_nv_item_len
        LOCFRAME ISTACK, 0, STACK
        LOCFRAME PSTACK, 0, STACK
        LOCFRAME XSTACK, 12, STACK
        LOCFRAME IOVERLAY, 0, STATIC
        LOCFRAME DOVERLAY, 0, STATIC
        ARGFRAME ISTACK, 0, STACK
        ARGFRAME PSTACK, 0, STACK
        ARGFRAME XSTACK, 12, STACK
        ARGFRAME IOVERLAY, 0, STATIC
        ARGFRAME DOVERLAY, 0, STATIC
        FUNCALL zb_ReadConfiguration, osal_nv_read
        LOCFRAME ISTACK, 0, STACK
        LOCFRAME PSTACK, 0, STACK
        LOCFRAME XSTACK, 16, STACK
        LOCFRAME IOVERLAY, 0, STATIC
        LOCFRAME DOVERLAY, 0, STATIC
        ARGFRAME ISTACK, 0, STACK
        ARGFRAME PSTACK, 0, STACK
        ARGFRAME XSTACK, 16, STACK
        ARGFRAME IOVERLAY, 0, STATIC
        ARGFRAME DOVERLAY, 0, STATIC
        REQUIRE ?V0
        REQUIRE ?V1
        REQUIRE ?V2
        REQUIRE ?V3
        MOV     A,#-0xc
        LCALL   ?BANKED_ENTER_XDATA
          CFI DPH0 load(1, XDATA, add(CFA_XSP16, literal(-1)))
          CFI DPL0 load(1, XDATA, add(CFA_XSP16, literal(-2)))
          CFI ?BRET_EXT load(1, XDATA, add(CFA_XSP16, literal(-3)))
          CFI ?RET_HIGH load(1, XDATA, add(CFA_XSP16, literal(-4)))
          CFI ?RET_LOW load(1, XDATA, add(CFA_XSP16, literal(-5)))
          CFI R7 load(1, XDATA, add(CFA_XSP16, literal(-6)))
          CFI V3 load(1, XDATA, add(CFA_XSP16, literal(-7)))
          CFI V2 load(1, XDATA, add(CFA_XSP16, literal(-8)))
          CFI V1 load(1, XDATA, add(CFA_XSP16, literal(-9)))
          CFI V0 load(1, XDATA, add(CFA_XSP16, literal(-10)))
          CFI VB load(1, XDATA, add(CFA_XSP16, literal(-11)))
          CFI R6 load(1, XDATA, add(CFA_XSP16, literal(-12)))
          CFI CFA_SP SP+0
          CFI CFA_XSP16 add(XSP16, 12)
        ; Saved register size: 12
        ; Auto size: 0
        MOV     A,R1
        MOV     R7,A
        MOV     A,R2
        MOV     R6,A
        MOV     ?V2,R4
        MOV     ?V3,R5
//  449   uint8 size;
//  450 
//  451   size = (uint8)osal_nv_item_len( configId );
        ; Setup parameters for call to function osal_nv_item_len
        MOV     A,R7
        MOV     R2,A
        MOV     R3,#0x0
        LCALL   `??osal_nv_item_len::?relay`; Banked call to: osal_nv_item_len
        MOV     A,R2
        MOV     ?V0,A
//  452   if ( size > len )
        MOV     A,R6
        CLR     C
        SUBB    A,?V0
        JNC     ??zb_ReadConfiguration_0
//  453   {
//  454     return ZFailure;
        MOV     R1,#0x1
        SJMP    ??zb_ReadConfiguration_1
//  455   }
//  456   else
//  457   {
//  458     return( osal_nv_read(configId, 0, size, pValue) );
??zb_ReadConfiguration_0:
        ; Setup parameters for call to function osal_nv_read
        MOV     R0,#?V2
        LCALL   ?PUSH_XSTACK_I_TWO
          CFI CFA_XSP16 add(XSP16, 14)
        MOV     ?V1,#0x0
        MOV     R0,#?V0
        LCALL   ?PUSH_XSTACK_I_TWO
          CFI CFA_XSP16 add(XSP16, 16)
        MOV     R4,#0x0
        MOV     R5,#0x0
        MOV     A,R7
        MOV     R2,A
        MOV     R3,#0x0
        LCALL   `??osal_nv_read::?relay`; Banked call to: osal_nv_read
        MOV     A,#0x4
        LCALL   ?DEALLOC_XSTACK8
          CFI CFA_XSP16 add(XSP16, 12)
//  459   }
??zb_ReadConfiguration_1:
          CFI EndBlock cfiBlock12
        REQUIRE ?Subroutine1
        ; // Fall through to label ?Subroutine1
//  460 }

        RSEG BANKED_CODE:CODE:NOROOT(0)
?Subroutine1:
          CFI Block cfiBlock13 Using cfiCommon0
          CFI NoFunction
          CFI CFA_SP SP+0
          CFI CFA_XSP16 add(XSP16, 12)
          CFI VB load(1, XDATA, add(CFA_XSP16, literal(-11)))
          CFI DPL0 load(1, XDATA, add(CFA_XSP16, literal(-2)))
          CFI DPH0 load(1, XDATA, add(CFA_XSP16, literal(-1)))
          CFI R6 load(1, XDATA, add(CFA_XSP16, literal(-12)))
          CFI R7 load(1, XDATA, add(CFA_XSP16, literal(-6)))
          CFI V0 load(1, XDATA, add(CFA_XSP16, literal(-10)))
          CFI V1 load(1, XDATA, add(CFA_XSP16, literal(-9)))
          CFI V2 load(1, XDATA, add(CFA_XSP16, literal(-8)))
          CFI V3 load(1, XDATA, add(CFA_XSP16, literal(-7)))
          CFI ?BRET_EXT load(1, XDATA, add(CFA_XSP16, literal(-3)))
          CFI ?RET_HIGH load(1, XDATA, add(CFA_XSP16, literal(-4)))
          CFI ?RET_LOW load(1, XDATA, add(CFA_XSP16, literal(-5)))
        MOV     R7,#0x4
        LJMP    ?BANKED_LEAVE_XDATA
          CFI EndBlock cfiBlock13
//  461 /******************************************************************************
//  462  * @fn          zb_WriteConfiguration
//  463  *
//  464  * @brief       The zb_WriteConfiguration function is used to write a
//  465  *              Configuration Property to nonvolatile memory.
//  466  *
//  467  * @param       configId - The identifier for the configuration property
//  468  *              len - The size of the pValue buffer in bytes
//  469  *              pValue - A buffer containing the new value of the
//  470  *                       configuration property
//  471  *
//  472  * @return      none
//  473  */

        RSEG BANKED_CODE:CODE:NOROOT(0)
//  474 uint8 zb_WriteConfiguration( uint8 configId, uint8 len, void *pValue )
zb_WriteConfiguration:
          CFI Block cfiBlock14 Using cfiCommon0
          CFI Function zb_WriteConfiguration
        CODE
//  475 {
        FUNCALL zb_WriteConfiguration, osal_nv_write
        LOCFRAME ISTACK, 0, STACK
        LOCFRAME PSTACK, 0, STACK
        LOCFRAME XSTACK, 14, STACK
        LOCFRAME IOVERLAY, 0, STATIC
        LOCFRAME DOVERLAY, 0, STATIC
        ARGFRAME ISTACK, 0, STACK
        ARGFRAME PSTACK, 0, STACK
        ARGFRAME XSTACK, 14, STACK
        ARGFRAME IOVERLAY, 0, STATIC
        ARGFRAME DOVERLAY, 0, STATIC
        REQUIRE ?V0
        REQUIRE ?V1
        MOV     A,#-0xa
        LCALL   ?BANKED_ENTER_XDATA
          CFI DPH0 load(1, XDATA, add(CFA_XSP16, literal(-1)))
          CFI DPL0 load(1, XDATA, add(CFA_XSP16, literal(-2)))
          CFI ?BRET_EXT load(1, XDATA, add(CFA_XSP16, literal(-3)))
          CFI ?RET_HIGH load(1, XDATA, add(CFA_XSP16, literal(-4)))
          CFI ?RET_LOW load(1, XDATA, add(CFA_XSP16, literal(-5)))
          CFI R7 load(1, XDATA, add(CFA_XSP16, literal(-6)))
          CFI V1 load(1, XDATA, add(CFA_XSP16, literal(-7)))
          CFI V0 load(1, XDATA, add(CFA_XSP16, literal(-8)))
          CFI VB load(1, XDATA, add(CFA_XSP16, literal(-9)))
          CFI R6 load(1, XDATA, add(CFA_XSP16, literal(-10)))
          CFI CFA_SP SP+0
          CFI CFA_XSP16 add(XSP16, 10)
        ; Saved register size: 10
        ; Auto size: 0
        MOV     A,R1
        MOV     R7,A
        MOV     A,R2
        MOV     R6,A
//  476   return( osal_nv_write(configId, 0, len, pValue) );
        ; Setup parameters for call to function osal_nv_write
        MOV     ?V0,R4
        MOV     ?V1,R5
        MOV     R0,#?V0
        LCALL   ?PUSH_XSTACK_I_TWO
          CFI CFA_XSP16 add(XSP16, 12)
        MOV     ?V0,R6
        MOV     ?V1,#0x0
        MOV     R0,#?V0
        LCALL   ?PUSH_XSTACK_I_TWO
          CFI CFA_XSP16 add(XSP16, 14)
        MOV     R4,#0x0
        MOV     R5,#0x0
        MOV     A,R7
        MOV     R2,A
        MOV     R3,#0x0
        LCALL   `??osal_nv_write::?relay`; Banked call to: osal_nv_write
        MOV     A,#0x4
          CFI EndBlock cfiBlock14
        REQUIRE ?Subroutine2
        ; // Fall through to label ?Subroutine2
//  477 }

        RSEG BANKED_CODE:CODE:NOROOT(0)
?Subroutine2:
          CFI Block cfiBlock15 Using cfiCommon0
          CFI NoFunction
          CFI CFA_SP SP+0
          CFI CFA_XSP16 add(XSP16, 14)
          CFI VB load(1, XDATA, add(CFA_XSP16, literal(-9)))
          CFI DPL0 load(1, XDATA, add(CFA_XSP16, literal(-2)))
          CFI DPH0 load(1, XDATA, add(CFA_XSP16, literal(-1)))
          CFI R6 load(1, XDATA, add(CFA_XSP16, literal(-10)))
          CFI R7 load(1, XDATA, add(CFA_XSP16, literal(-6)))
          CFI V0 load(1, XDATA, add(CFA_XSP16, literal(-8)))
          CFI V1 load(1, XDATA, add(CFA_XSP16, literal(-7)))
          CFI ?BRET_EXT load(1, XDATA, add(CFA_XSP16, literal(-3)))
          CFI ?RET_HIGH load(1, XDATA, add(CFA_XSP16, literal(-4)))
          CFI ?RET_LOW load(1, XDATA, add(CFA_XSP16, literal(-5)))
          CFI Invalid
        LCALL   ?DEALLOC_XSTACK8
          CFI CFA_XSP16 add(XSP16, 10)
          CFI Valid
        MOV     R7,#0x2
        LJMP    ?BANKED_LEAVE_XDATA
          CFI EndBlock cfiBlock15
//  478 /******************************************************************************
//  479  * @fn          zb_GetDeviceInfo
//  480  *
//  481  * @brief       The zb_GetDeviceInfo function retrieves a Device Information
//  482  *              Property.
//  483  *
//  484  * @param       param - The identifier for the device information
//  485  *              pValue - A buffer to hold the device information
//  486  *
//  487  * @return      none
//  488  */

        RSEG BANKED_CODE:CODE:NOROOT(0)
//  489 void zb_GetDeviceInfo ( uint8 param, void *pValue )
zb_GetDeviceInfo:
          CFI Block cfiBlock16 Using cfiCommon0
          CFI Function zb_GetDeviceInfo
        CODE
//  490 {
        FUNCALL zb_GetDeviceInfo, osal_memcpy
        LOCFRAME ISTACK, 0, STACK
        LOCFRAME PSTACK, 0, STACK
        LOCFRAME XSTACK, 14, STACK
        LOCFRAME IOVERLAY, 0, STATIC
        LOCFRAME DOVERLAY, 0, STATIC
        ARGFRAME ISTACK, 0, STACK
        ARGFRAME PSTACK, 0, STACK
        ARGFRAME XSTACK, 14, STACK
        ARGFRAME IOVERLAY, 0, STATIC
        ARGFRAME DOVERLAY, 0, STATIC
        FUNCALL zb_GetDeviceInfo, osal_memcpy
        LOCFRAME ISTACK, 0, STACK
        LOCFRAME PSTACK, 0, STACK
        LOCFRAME XSTACK, 14, STACK
        LOCFRAME IOVERLAY, 0, STATIC
        LOCFRAME DOVERLAY, 0, STATIC
        ARGFRAME ISTACK, 0, STACK
        ARGFRAME PSTACK, 0, STACK
        ARGFRAME XSTACK, 14, STACK
        ARGFRAME IOVERLAY, 0, STATIC
        ARGFRAME DOVERLAY, 0, STATIC
        FUNCALL zb_GetDeviceInfo, osal_memcpy
        LOCFRAME ISTACK, 0, STACK
        LOCFRAME PSTACK, 0, STACK
        LOCFRAME XSTACK, 14, STACK
        LOCFRAME IOVERLAY, 0, STATIC
        LOCFRAME DOVERLAY, 0, STATIC
        ARGFRAME ISTACK, 0, STACK
        ARGFRAME PSTACK, 0, STACK
        ARGFRAME XSTACK, 14, STACK
        ARGFRAME IOVERLAY, 0, STATIC
        ARGFRAME DOVERLAY, 0, STATIC
        FUNCALL zb_GetDeviceInfo, osal_memcpy
        LOCFRAME ISTACK, 0, STACK
        LOCFRAME PSTACK, 0, STACK
        LOCFRAME XSTACK, 14, STACK
        LOCFRAME IOVERLAY, 0, STATIC
        LOCFRAME DOVERLAY, 0, STATIC
        ARGFRAME ISTACK, 0, STACK
        ARGFRAME PSTACK, 0, STACK
        ARGFRAME XSTACK, 14, STACK
        ARGFRAME IOVERLAY, 0, STATIC
        ARGFRAME DOVERLAY, 0, STATIC
        FUNCALL zb_GetDeviceInfo, osal_memcpy
        LOCFRAME ISTACK, 0, STACK
        LOCFRAME PSTACK, 0, STACK
        LOCFRAME XSTACK, 14, STACK
        LOCFRAME IOVERLAY, 0, STATIC
        LOCFRAME DOVERLAY, 0, STATIC
        ARGFRAME ISTACK, 0, STACK
        ARGFRAME PSTACK, 0, STACK
        ARGFRAME XSTACK, 14, STACK
        ARGFRAME IOVERLAY, 0, STATIC
        ARGFRAME DOVERLAY, 0, STATIC
        FUNCALL zb_GetDeviceInfo, osal_memcpy
        LOCFRAME ISTACK, 0, STACK
        LOCFRAME PSTACK, 0, STACK
        LOCFRAME XSTACK, 14, STACK
        LOCFRAME IOVERLAY, 0, STATIC
        LOCFRAME DOVERLAY, 0, STATIC
        ARGFRAME ISTACK, 0, STACK
        ARGFRAME PSTACK, 0, STACK
        ARGFRAME XSTACK, 14, STACK
        ARGFRAME IOVERLAY, 0, STATIC
        ARGFRAME DOVERLAY, 0, STATIC
        FUNCALL zb_GetDeviceInfo, osal_memcpy
        LOCFRAME ISTACK, 0, STACK
        LOCFRAME PSTACK, 0, STACK
        LOCFRAME XSTACK, 14, STACK
        LOCFRAME IOVERLAY, 0, STATIC
        LOCFRAME DOVERLAY, 0, STATIC
        ARGFRAME ISTACK, 0, STACK
        ARGFRAME PSTACK, 0, STACK
        ARGFRAME XSTACK, 14, STACK
        ARGFRAME IOVERLAY, 0, STATIC
        ARGFRAME DOVERLAY, 0, STATIC
        FUNCALL zb_GetDeviceInfo, osal_memcpy
        LOCFRAME ISTACK, 0, STACK
        LOCFRAME PSTACK, 0, STACK
        LOCFRAME XSTACK, 14, STACK
        LOCFRAME IOVERLAY, 0, STATIC
        LOCFRAME DOVERLAY, 0, STATIC
        ARGFRAME ISTACK, 0, STACK
        ARGFRAME PSTACK, 0, STACK
        ARGFRAME XSTACK, 14, STACK
        ARGFRAME IOVERLAY, 0, STATIC
        ARGFRAME DOVERLAY, 0, STATIC
        REQUIRE ?V0
        REQUIRE ?V1
        REQUIRE ?V2
        MOV     A,#-0xb
        LCALL   ?BANKED_ENTER_XDATA
          CFI DPH0 load(1, XDATA, add(CFA_XSP16, literal(-1)))
          CFI DPL0 load(1, XDATA, add(CFA_XSP16, literal(-2)))
          CFI ?BRET_EXT load(1, XDATA, add(CFA_XSP16, literal(-3)))
          CFI ?RET_HIGH load(1, XDATA, add(CFA_XSP16, literal(-4)))
          CFI ?RET_LOW load(1, XDATA, add(CFA_XSP16, literal(-5)))
          CFI R7 load(1, XDATA, add(CFA_XSP16, literal(-6)))
          CFI V2 load(1, XDATA, add(CFA_XSP16, literal(-7)))
          CFI V1 load(1, XDATA, add(CFA_XSP16, literal(-8)))
          CFI V0 load(1, XDATA, add(CFA_XSP16, literal(-9)))
          CFI VB load(1, XDATA, add(CFA_XSP16, literal(-10)))
          CFI R6 load(1, XDATA, add(CFA_XSP16, literal(-11)))
          CFI CFA_SP SP+0
          CFI CFA_XSP16 add(XSP16, 11)
        ; Saved register size: 11
        ; Auto size: 0
        MOV     A,R1
//  491   switch(param)
        JZ      ??zb_GetDeviceInfo_0
        DEC     A
        JZ      ??zb_GetDeviceInfo_1
        DEC     A
        JZ      ??zb_GetDeviceInfo_2
        DEC     A
        JZ      ??zb_GetDeviceInfo_3
        DEC     A
        JZ      ??zb_GetDeviceInfo_4
        DEC     A
        JZ      ??zb_GetDeviceInfo_5
        DEC     A
        JZ      ??zb_GetDeviceInfo_6
        DEC     A
        JZ      ??zb_GetDeviceInfo_7
        SJMP    ??zb_GetDeviceInfo_8
//  492   {
//  493     case ZB_INFO_DEV_STATE:
//  494       osal_memcpy(pValue, &devState, sizeof(uint8));
??zb_GetDeviceInfo_0:
        ; Setup parameters for call to function osal_memcpy
        MOV     ?V0,#devState & 0xff
        MOV     ?V1,#(devState >> 8) & 0xff
        SJMP    ??zb_GetDeviceInfo_9
//  495       break;
//  496     case ZB_INFO_IEEE_ADDR:
//  497       osal_memcpy(pValue, &aExtendedAddress, Z_EXTADDR_LEN);
??zb_GetDeviceInfo_1:
        ; Setup parameters for call to function osal_memcpy
        MOV     ?V0,#aExtendedAddress & 0xff
        MOV     ?V1,#(aExtendedAddress >> 8) & 0xff
        SJMP    ??zb_GetDeviceInfo_10
//  498       break;
//  499     case ZB_INFO_SHORT_ADDR:
//  500       osal_memcpy(pValue, &_NIB.nwkDevAddress, sizeof(uint16));
??zb_GetDeviceInfo_2:
        ; Setup parameters for call to function osal_memcpy
        MOV     ?V0,#(_NIB + 20) & 0xff
        MOV     ?V1,#((_NIB + 20) >> 8) & 0xff
        SJMP    ??zb_GetDeviceInfo_11
//  501       break;
//  502     case ZB_INFO_PARENT_SHORT_ADDR:
//  503       osal_memcpy(pValue, &_NIB.nwkCoordAddress, sizeof(uint16));
??zb_GetDeviceInfo_3:
        ; Setup parameters for call to function osal_memcpy
        MOV     ?V0,#(_NIB + 23) & 0xff
        MOV     ?V1,#((_NIB + 23) >> 8) & 0xff
        SJMP    ??zb_GetDeviceInfo_11
//  504       break;
//  505     case ZB_INFO_PARENT_IEEE_ADDR:
//  506       osal_memcpy(pValue, &_NIB.nwkCoordExtAddress, Z_EXTADDR_LEN);
??zb_GetDeviceInfo_4:
        ; Setup parameters for call to function osal_memcpy
        MOV     ?V0,#(_NIB + 25) & 0xff
        MOV     ?V1,#((_NIB + 25) >> 8) & 0xff
        SJMP    ??zb_GetDeviceInfo_10
//  507       break;
//  508     case ZB_INFO_CHANNEL:
//  509       osal_memcpy(pValue, &_NIB.nwkLogicalChannel, sizeof(uint8));
??zb_GetDeviceInfo_5:
        ; Setup parameters for call to function osal_memcpy
        MOV     ?V0,#(_NIB + 22) & 0xff
        MOV     ?V1,#((_NIB + 22) >> 8) & 0xff
??zb_GetDeviceInfo_9:
        MOV     ?V2,#0x0
        MOV     R0,#?V0
        LCALL   ?PUSH_XSTACK_I_THREE
          CFI CFA_XSP16 add(XSP16, 14)
        MOV     R4,#0x1
        SJMP    ??zb_GetDeviceInfo_12
          CFI CFA_XSP16 add(XSP16, 11)
//  510       break;
//  511     case ZB_INFO_PAN_ID:
//  512       osal_memcpy(pValue, &_NIB.nwkPanId, sizeof(uint16));
??zb_GetDeviceInfo_6:
        ; Setup parameters for call to function osal_memcpy
        MOV     ?V0,#(_NIB + 33) & 0xff
        MOV     ?V1,#((_NIB + 33) >> 8) & 0xff
??zb_GetDeviceInfo_11:
        MOV     ?V2,#0x0
        MOV     R0,#?V0
        LCALL   ?PUSH_XSTACK_I_THREE
          CFI CFA_XSP16 add(XSP16, 14)
        MOV     R4,#0x2
        SJMP    ??zb_GetDeviceInfo_12
          CFI CFA_XSP16 add(XSP16, 11)
//  513       break;
//  514     case ZB_INFO_EXT_PAN_ID:
//  515       osal_memcpy(pValue, &_NIB.extendedPANID, Z_EXTADDR_LEN);
??zb_GetDeviceInfo_7:
        ; Setup parameters for call to function osal_memcpy
        MOV     ?V0,#(_NIB + 53) & 0xff
        MOV     ?V1,#((_NIB + 53) >> 8) & 0xff
??zb_GetDeviceInfo_10:
        MOV     ?V2,#0x0
        MOV     R0,#?V0
        LCALL   ?PUSH_XSTACK_I_THREE
          CFI CFA_XSP16 add(XSP16, 14)
        MOV     R4,#0x8
??zb_GetDeviceInfo_12:
        MOV     R5,#0x0
        LCALL   `??osal_memcpy::?relay`; Banked call to: osal_memcpy
        MOV     A,#0x3
        LCALL   ?DEALLOC_XSTACK8
          CFI CFA_XSP16 add(XSP16, 11)
//  516       break;
//  517   }
//  518 }
??zb_GetDeviceInfo_8:
        MOV     R7,#0x3
        LJMP    ?BANKED_LEAVE_XDATA
          CFI EndBlock cfiBlock16
//  519 
//  520 /******************************************************************************
//  521  * @fn          zb_FindDeviceRequest
//  522  *
//  523  * @brief       The zb_FindDeviceRequest function is used to determine the
//  524  *              short address for a device in the network.  The device initiating
//  525  *              a call to zb_FindDeviceRequest and the device being discovered
//  526  *              must both be a member of the same network.  When the search is
//  527  *              complete, the zv_FindDeviceConfirm callback function is called.
//  528  *
//  529  * @param       searchType - The type of search to perform. Can be one of following:
//  530  *                           ZB_IEEE_SEARCH - Search for 16-bit addr given IEEE addr.
//  531  *              searchKey - Value to search on.
//  532  *
//  533  * @return      none
//  534  */

        RSEG BANKED_CODE:CODE:NOROOT(0)
//  535 void zb_FindDeviceRequest( uint8 searchType, void *searchKey )
zb_FindDeviceRequest:
          CFI Block cfiBlock17 Using cfiCommon0
          CFI Function zb_FindDeviceRequest
        CODE
//  536 {
        FUNCALL zb_FindDeviceRequest, ZDP_NwkAddrReq
        LOCFRAME ISTACK, 0, STACK
        LOCFRAME PSTACK, 0, STACK
        LOCFRAME XSTACK, 9, STACK
        LOCFRAME IOVERLAY, 0, STATIC
        LOCFRAME DOVERLAY, 0, STATIC
        ARGFRAME ISTACK, 0, STACK
        ARGFRAME PSTACK, 0, STACK
        ARGFRAME XSTACK, 9, STACK
        ARGFRAME IOVERLAY, 0, STATIC
        ARGFRAME DOVERLAY, 0, STATIC
        MOV     A,#-0x9
        LCALL   ?BANKED_ENTER_XDATA
          CFI DPH0 load(1, XDATA, add(CFA_XSP16, literal(-1)))
          CFI DPL0 load(1, XDATA, add(CFA_XSP16, literal(-2)))
          CFI ?BRET_EXT load(1, XDATA, add(CFA_XSP16, literal(-3)))
          CFI ?RET_HIGH load(1, XDATA, add(CFA_XSP16, literal(-4)))
          CFI ?RET_LOW load(1, XDATA, add(CFA_XSP16, literal(-5)))
          CFI R7 load(1, XDATA, add(CFA_XSP16, literal(-6)))
          CFI V0 load(1, XDATA, add(CFA_XSP16, literal(-7)))
          CFI VB load(1, XDATA, add(CFA_XSP16, literal(-8)))
          CFI R6 load(1, XDATA, add(CFA_XSP16, literal(-9)))
          CFI CFA_SP SP+0
          CFI CFA_XSP16 add(XSP16, 9)
        ; Saved register size: 9
        ; Auto size: 0
        MOV     A,R1
        MOV     R6,A
//  537   if (searchType == ZB_IEEE_SEARCH)
        MOV     A,#0x1
        XRL     A,R6
        JNZ     ??zb_FindDeviceRequest_0
//  538   {
//  539     ZDP_NwkAddrReq((uint8*) searchKey, ZDP_ADDR_REQTYPE_SINGLE, 0, 0 );
        ; Setup parameters for call to function ZDP_NwkAddrReq
        MOV     R5,#0x0
        MOV     R4,#0x0
        MOV     R1,#0x0
        LCALL   `??ZDP_NwkAddrReq::?relay`; Banked call to: ZDP_NwkAddrReq
//  540   }
//  541 }
??zb_FindDeviceRequest_0:
        SJMP    ?Subroutine0
          CFI EndBlock cfiBlock17
//  542 /******************************************************************************
//  543  * @fn          SAPI_StartConfirm
//  544  *
//  545  * @brief       The SAPI_StartConfirm callback is called by the ZigBee stack
//  546  *              after a start request operation completes
//  547  *
//  548  * @param       status - The status of the start operation.  Status of
//  549  *                       ZB_SUCCESS indicates the start operation completed
//  550  *                       successfully.  Else the status is an error code.
//  551  *
//  552  * @return      none
//  553  */
//  554 void SAPI_StartConfirm( uint8 status )
//  555 {
//  556 #if defined ( MT_SAPI_CB_FUNC )
//  557   /* First check if MT has subscribed for this callback. If so , pass it as
//  558   a event to MonitorTest and return control to calling function after that */
//  559   if ( SAPICB_CHECK( SPI_CB_SAPI_START_CNF ) )
//  560   {
//  561     zb_MTCallbackStartConfirm( status );
//  562   }
//  563   else
//  564 #endif  //MT_SAPI_CB_FUNC
//  565   {
//  566 #if ( SAPI_CB_FUNC )
//  567     zb_StartConfirm( status );
//  568 #endif
//  569   }
//  570 }
//  571 
//  572 /******************************************************************************
//  573  * @fn          SAPI_SendDataConfirm
//  574  *
//  575  * @brief       The SAPI_SendDataConfirm callback function is called by the
//  576  *              ZigBee after a send data operation completes
//  577  *
//  578  * @param       handle - The handle identifying the data transmission.
//  579  *              status - The status of the operation.
//  580  *
//  581  * @return      none
//  582  */

        RSEG BANKED_CODE:CODE:NOROOT(0)
//  583 void SAPI_SendDataConfirm( uint8 handle, uint8 status )
SAPI_SendDataConfirm:
          CFI Block cfiBlock18 Using cfiCommon0
          CFI Function SAPI_SendDataConfirm
        CODE
//  584 {
        FUNCALL SAPI_SendDataConfirm, zb_MTCallbackSendDataConfirm
        LOCFRAME ISTACK, 0, STACK
        LOCFRAME PSTACK, 0, STACK
        LOCFRAME XSTACK, 9, STACK
        LOCFRAME IOVERLAY, 0, STATIC
        LOCFRAME DOVERLAY, 0, STATIC
        ARGFRAME ISTACK, 0, STACK
        ARGFRAME PSTACK, 0, STACK
        ARGFRAME XSTACK, 9, STACK
        ARGFRAME IOVERLAY, 0, STATIC
        ARGFRAME DOVERLAY, 0, STATIC
        MOV     A,#-0x9
        LCALL   ?BANKED_ENTER_XDATA
          CFI DPH0 load(1, XDATA, add(CFA_XSP16, literal(-1)))
          CFI DPL0 load(1, XDATA, add(CFA_XSP16, literal(-2)))
          CFI ?BRET_EXT load(1, XDATA, add(CFA_XSP16, literal(-3)))
          CFI ?RET_HIGH load(1, XDATA, add(CFA_XSP16, literal(-4)))
          CFI ?RET_LOW load(1, XDATA, add(CFA_XSP16, literal(-5)))
          CFI R7 load(1, XDATA, add(CFA_XSP16, literal(-6)))
          CFI V0 load(1, XDATA, add(CFA_XSP16, literal(-7)))
          CFI VB load(1, XDATA, add(CFA_XSP16, literal(-8)))
          CFI R6 load(1, XDATA, add(CFA_XSP16, literal(-9)))
          CFI CFA_SP SP+0
          CFI CFA_XSP16 add(XSP16, 9)
        ; Saved register size: 9
        ; Auto size: 0
//  585 #if defined ( MT_SAPI_CB_FUNC )
//  586   /* First check if MT has subscribed for this callback. If so , pass it as
//  587   a event to MonitorTest and return control to calling function after that */
//  588   if ( SAPICB_CHECK( SPI_CB_SAPI_SEND_DATA_CNF ) )
//  589   {
//  590     zb_MTCallbackSendDataConfirm( handle, status );
        ; Setup parameters for call to function zb_MTCallbackSendDataConfirm
        LCALL   `??zb_MTCallbackSendDataConfirm::?relay`; Banked call to: zb_MTCallbackSendDataConfirm
//  591   }
//  592   else
//  593 #endif  //MT_SAPI_CB_FUNC
//  594   {
//  595 #if ( SAPI_CB_FUNC )
//  596     zb_SendDataConfirm( handle, status );
//  597 #endif
//  598   }
//  599 }
          CFI EndBlock cfiBlock18
        REQUIRE ?Subroutine0
        ; // Fall through to label ?Subroutine0

        RSEG BANKED_CODE:CODE:NOROOT(0)
?Subroutine0:
          CFI Block cfiBlock19 Using cfiCommon0
          CFI NoFunction
          CFI CFA_SP SP+0
          CFI CFA_XSP16 add(XSP16, 9)
          CFI VB load(1, XDATA, add(CFA_XSP16, literal(-8)))
          CFI DPL0 load(1, XDATA, add(CFA_XSP16, literal(-2)))
          CFI DPH0 load(1, XDATA, add(CFA_XSP16, literal(-1)))
          CFI R6 load(1, XDATA, add(CFA_XSP16, literal(-9)))
          CFI R7 load(1, XDATA, add(CFA_XSP16, literal(-6)))
          CFI V0 load(1, XDATA, add(CFA_XSP16, literal(-7)))
          CFI ?BRET_EXT load(1, XDATA, add(CFA_XSP16, literal(-3)))
          CFI ?RET_HIGH load(1, XDATA, add(CFA_XSP16, literal(-4)))
          CFI ?RET_LOW load(1, XDATA, add(CFA_XSP16, literal(-5)))
        MOV     R7,#0x1
        LJMP    ?BANKED_LEAVE_XDATA
          CFI EndBlock cfiBlock19
//  600 
//  601 /******************************************************************************
//  602  * @fn          SAPI_BindConfirm
//  603  *
//  604  * @brief       The SAPI_BindConfirm callback is called by the ZigBee stack
//  605  *              after a bind operation completes.
//  606  *
//  607  * @param       commandId - The command ID of the binding being confirmed.
//  608  *              status - The status of the bind operation.
//  609  *              allowBind - TRUE if the bind operation was initiated by a call
//  610  *                          to zb_AllowBindRespones.  FALSE if the operation
//  611  *                          was initiated by a call to ZB_BindDevice
//  612  *
//  613  * @return      none
//  614  */

        RSEG BANKED_CODE:CODE:NOROOT(0)
//  615 void SAPI_BindConfirm( uint16 commandId, uint8 status )
SAPI_BindConfirm:
          CFI Block cfiBlock20 Using cfiCommon0
          CFI Function SAPI_BindConfirm
        CODE
//  616 {
        FUNCALL SAPI_BindConfirm, zb_MTCallbackBindConfirm
        LOCFRAME ISTACK, 0, STACK
        LOCFRAME PSTACK, 0, STACK
        LOCFRAME XSTACK, 9, STACK
        LOCFRAME IOVERLAY, 0, STATIC
        LOCFRAME DOVERLAY, 0, STATIC
        ARGFRAME ISTACK, 0, STACK
        ARGFRAME PSTACK, 0, STACK
        ARGFRAME XSTACK, 9, STACK
        ARGFRAME IOVERLAY, 0, STATIC
        ARGFRAME DOVERLAY, 0, STATIC
        MOV     A,#-0x9
        LCALL   ?BANKED_ENTER_XDATA
          CFI DPH0 load(1, XDATA, add(CFA_XSP16, literal(-1)))
          CFI DPL0 load(1, XDATA, add(CFA_XSP16, literal(-2)))
          CFI ?BRET_EXT load(1, XDATA, add(CFA_XSP16, literal(-3)))
          CFI ?RET_HIGH load(1, XDATA, add(CFA_XSP16, literal(-4)))
          CFI ?RET_LOW load(1, XDATA, add(CFA_XSP16, literal(-5)))
          CFI R7 load(1, XDATA, add(CFA_XSP16, literal(-6)))
          CFI V0 load(1, XDATA, add(CFA_XSP16, literal(-7)))
          CFI VB load(1, XDATA, add(CFA_XSP16, literal(-8)))
          CFI R6 load(1, XDATA, add(CFA_XSP16, literal(-9)))
          CFI CFA_SP SP+0
          CFI CFA_XSP16 add(XSP16, 9)
        ; Saved register size: 9
        ; Auto size: 0
//  617 #if defined ( MT_SAPI_CB_FUNC )
//  618   /* First check if MT has subscribed for this callback. If so , pass it as
//  619   a event to MonitorTest and return control to calling function after that */
//  620   if ( SAPICB_CHECK( SPI_CB_SAPI_BIND_CNF ) )
//  621   {
//  622     zb_MTCallbackBindConfirm( commandId, status );
        ; Setup parameters for call to function zb_MTCallbackBindConfirm
        LCALL   `??zb_MTCallbackBindConfirm::?relay`; Banked call to: zb_MTCallbackBindConfirm
//  623   }
//  624   else
//  625 #endif  //MT_SAPI_CB_FUNC
//  626   {
//  627 #if ( SAPI_CB_FUNC )
//  628     zb_BindConfirm( commandId, status );
//  629 #endif
//  630   }
//  631 }
        SJMP    ?Subroutine0
          CFI EndBlock cfiBlock20
//  632 /******************************************************************************
//  633  * @fn          SAPI_AllowBindConfirm
//  634  *
//  635  * @brief       Indicates when another device attempted to bind to this device
//  636  *
//  637  * @param
//  638  *
//  639  * @return      none
//  640  */
//  641 void SAPI_AllowBindConfirm( uint16 source )
//  642 {
//  643   #if defined ( MT_SAPI_CB_FUNC )
//  644   /* First check if MT has subscribed for this callback. If so , pass it as
//  645   a event to MonitorTest and return control to calling function after that */
//  646   if ( SAPICB_CHECK( SPI_CB_SAPI_ALLOW_BIND_CNF ) )
//  647   {
//  648     zb_MTCallbackAllowBindConfirm( source );
//  649   }
//  650   else
//  651 #endif  //MT_SAPI_CB_FUNC
//  652   {
//  653 #if ( SAPI_CB_FUNC )
//  654     zb_AllowBindConfirm( source );
//  655 #endif
//  656   }
//  657 }
//  658 /******************************************************************************
//  659  * @fn          SAPI_FindDeviceConfirm
//  660  *
//  661  * @brief       The SAPI_FindDeviceConfirm callback function is called by the
//  662  *              ZigBee stack when a find device operation completes.
//  663  *
//  664  * @param       searchType - The type of search that was performed.
//  665  *              searchKey - Value that the search was executed on.
//  666  *              result - The result of the search.
//  667  *
//  668  * @return      none
//  669  */
//  670 void SAPI_FindDeviceConfirm( uint8 searchType, uint8 *searchKey, uint8 *result )
//  671 {
//  672 #if defined ( MT_SAPI_CB_FUNC )
//  673   /* First check if MT has subscribed for this callback. If so , pass it as
//  674   a event to MonitorTest and return control to calling function after that */
//  675   if ( SAPICB_CHECK( SPI_CB_SAPI_FIND_DEV_CNF ) )
//  676   {
//  677     zb_MTCallbackFindDeviceConfirm( searchType, searchKey, result );
//  678   }
//  679   else
//  680 #endif  //MT_SAPI_CB_FUNC
//  681   {
//  682 #if ( SAPI_CB_FUNC )
//  683     zb_FindDeviceConfirm( searchType, searchKey, result );
//  684 #endif
//  685   }
//  686 }
//  687 /******************************************************************************
//  688  * @fn          SAPI_ReceiveDataIndication
//  689  *
//  690  * @brief       The SAPI_ReceiveDataIndication callback function is called
//  691  *              asynchronously by the ZigBee stack to notify the application
//  692  *              when data is received from a peer device.
//  693  *
//  694  * @param       source - The short address of the peer device that sent the data
//  695  *              command - The commandId associated with the data
//  696  *              len - The number of bytes in the pData parameter
//  697  *              pData - The data sent by the peer device
//  698  *
//  699  * @return      none
//  700  */
//  701 void SAPI_ReceiveDataIndication( uint16 source, uint16 command, uint16 len, uint8 *pData  )
//  702 {
//  703 #if defined ( MT_SAPI_CB_FUNC )
//  704   /* First check if MT has subscribed for this callback. If so , pass it as
//  705   a event to MonitorTest and return control to calling function after that */
//  706   if ( SAPICB_CHECK( SPI_CB_SAPI_RCV_DATA_IND ) )
//  707   {
//  708     zb_MTCallbackReceiveDataIndication( source, command, len, pData  );
//  709   }
//  710   else
//  711 #endif  //MT_SAPI_CB_FUNC
//  712   {
//  713 #if ( SAPI_CB_FUNC )
//  714     zb_ReceiveDataIndication( source, command, len, pData  );
//  715 #endif
//  716   }
//  717 }
//  718 /*********************************************************************
//  719  * @fn      SAPI_ProcessEvent
//  720  *
//  721  * @brief   Simple API Task event processor.  This function
//  722  *          is called to process all events for the task.  Events
//  723  *          include timers, messages and any other user defined events.
//  724  *
//  725  * @param   task_id  - The OSAL assigned task ID.
//  726  * @param   events - events to process.  This is a bit map and can
//  727  *                   contain more than one event.
//  728  *
//  729  * @return  none
//  730  */

        RSEG BANKED_CODE:CODE:NOROOT(0)
//  731 UINT16 SAPI_ProcessEvent( byte task_id, UINT16 events )
SAPI_ProcessEvent:
          CFI Block cfiBlock21 Using cfiCommon0
          CFI Function SAPI_ProcessEvent
        CODE
//  732 {
        FUNCALL SAPI_ProcessEvent, osal_msg_receive
        LOCFRAME ISTACK, 0, STACK
        LOCFRAME PSTACK, 0, STACK
        LOCFRAME XSTACK, 15, STACK
        LOCFRAME IOVERLAY, 0, STATIC
        LOCFRAME DOVERLAY, 0, STATIC
        ARGFRAME ISTACK, 0, STACK
        ARGFRAME PSTACK, 0, STACK
        ARGFRAME XSTACK, 15, STACK
        ARGFRAME IOVERLAY, 0, STATIC
        ARGFRAME DOVERLAY, 0, STATIC
        FUNCALL SAPI_ProcessEvent, zb_MTCallbackStartConfirm
        LOCFRAME ISTACK, 0, STACK
        LOCFRAME PSTACK, 0, STACK
        LOCFRAME XSTACK, 15, STACK
        LOCFRAME IOVERLAY, 0, STATIC
        LOCFRAME DOVERLAY, 0, STATIC
        ARGFRAME ISTACK, 0, STACK
        ARGFRAME PSTACK, 0, STACK
        ARGFRAME XSTACK, 15, STACK
        ARGFRAME IOVERLAY, 0, STATIC
        ARGFRAME DOVERLAY, 0, STATIC
        FUNCALL SAPI_ProcessEvent, osal_msg_deallocate
        LOCFRAME ISTACK, 0, STACK
        LOCFRAME PSTACK, 0, STACK
        LOCFRAME XSTACK, 15, STACK
        LOCFRAME IOVERLAY, 0, STATIC
        LOCFRAME DOVERLAY, 0, STATIC
        ARGFRAME ISTACK, 0, STACK
        ARGFRAME PSTACK, 0, STACK
        ARGFRAME XSTACK, 15, STACK
        ARGFRAME IOVERLAY, 0, STATIC
        ARGFRAME DOVERLAY, 0, STATIC
        FUNCALL SAPI_ProcessEvent, osal_msg_receive
        LOCFRAME ISTACK, 0, STACK
        LOCFRAME PSTACK, 0, STACK
        LOCFRAME XSTACK, 15, STACK
        LOCFRAME IOVERLAY, 0, STATIC
        LOCFRAME DOVERLAY, 0, STATIC
        ARGFRAME ISTACK, 0, STACK
        ARGFRAME PSTACK, 0, STACK
        ARGFRAME XSTACK, 15, STACK
        ARGFRAME IOVERLAY, 0, STATIC
        ARGFRAME DOVERLAY, 0, STATIC
        FUNCALL SAPI_ProcessEvent, SAPI_ProcessZDOMsgs
        LOCFRAME ISTACK, 0, STACK
        LOCFRAME PSTACK, 0, STACK
        LOCFRAME XSTACK, 15, STACK
        LOCFRAME IOVERLAY, 0, STATIC
        LOCFRAME DOVERLAY, 0, STATIC
        ARGFRAME ISTACK, 0, STACK
        ARGFRAME PSTACK, 0, STACK
        ARGFRAME XSTACK, 15, STACK
        ARGFRAME IOVERLAY, 0, STATIC
        ARGFRAME DOVERLAY, 0, STATIC
        FUNCALL SAPI_ProcessEvent, SAPI_SendDataConfirm
        LOCFRAME ISTACK, 0, STACK
        LOCFRAME PSTACK, 0, STACK
        LOCFRAME XSTACK, 15, STACK
        LOCFRAME IOVERLAY, 0, STATIC
        LOCFRAME DOVERLAY, 0, STATIC
        ARGFRAME ISTACK, 0, STACK
        ARGFRAME PSTACK, 0, STACK
        ARGFRAME XSTACK, 15, STACK
        ARGFRAME IOVERLAY, 0, STATIC
        ARGFRAME DOVERLAY, 0, STATIC
        FUNCALL SAPI_ProcessEvent, zb_MTCallbackReceiveDataIndication
        LOCFRAME ISTACK, 0, STACK
        LOCFRAME PSTACK, 0, STACK
        LOCFRAME XSTACK, 19, STACK
        LOCFRAME IOVERLAY, 0, STATIC
        LOCFRAME DOVERLAY, 0, STATIC
        ARGFRAME ISTACK, 0, STACK
        ARGFRAME PSTACK, 0, STACK
        ARGFRAME XSTACK, 19, STACK
        ARGFRAME IOVERLAY, 0, STATIC
        ARGFRAME DOVERLAY, 0, STATIC
        FUNCALL SAPI_ProcessEvent, zb_MTCallbackStartConfirm
        LOCFRAME ISTACK, 0, STACK
        LOCFRAME PSTACK, 0, STACK
        LOCFRAME XSTACK, 15, STACK
        LOCFRAME IOVERLAY, 0, STATIC
        LOCFRAME DOVERLAY, 0, STATIC
        ARGFRAME ISTACK, 0, STACK
        ARGFRAME PSTACK, 0, STACK
        ARGFRAME XSTACK, 15, STACK
        ARGFRAME IOVERLAY, 0, STATIC
        ARGFRAME DOVERLAY, 0, STATIC
        FUNCALL SAPI_ProcessEvent, zb_MTCallbackStartConfirm
        LOCFRAME ISTACK, 0, STACK
        LOCFRAME PSTACK, 0, STACK
        LOCFRAME XSTACK, 15, STACK
        LOCFRAME IOVERLAY, 0, STATIC
        LOCFRAME DOVERLAY, 0, STATIC
        ARGFRAME ISTACK, 0, STACK
        ARGFRAME PSTACK, 0, STACK
        ARGFRAME XSTACK, 15, STACK
        ARGFRAME IOVERLAY, 0, STATIC
        ARGFRAME DOVERLAY, 0, STATIC
        FUNCALL SAPI_ProcessEvent, zb_MTCallbackAllowBindConfirm
        LOCFRAME ISTACK, 0, STACK
        LOCFRAME PSTACK, 0, STACK
        LOCFRAME XSTACK, 15, STACK
        LOCFRAME IOVERLAY, 0, STATIC
        LOCFRAME DOVERLAY, 0, STATIC
        ARGFRAME ISTACK, 0, STACK
        ARGFRAME PSTACK, 0, STACK
        ARGFRAME XSTACK, 15, STACK
        ARGFRAME IOVERLAY, 0, STATIC
        ARGFRAME DOVERLAY, 0, STATIC
        FUNCALL SAPI_ProcessEvent, SAPI_SendDataConfirm
        LOCFRAME ISTACK, 0, STACK
        LOCFRAME PSTACK, 0, STACK
        LOCFRAME XSTACK, 15, STACK
        LOCFRAME IOVERLAY, 0, STATIC
        LOCFRAME DOVERLAY, 0, STATIC
        ARGFRAME ISTACK, 0, STACK
        ARGFRAME PSTACK, 0, STACK
        ARGFRAME XSTACK, 15, STACK
        ARGFRAME IOVERLAY, 0, STATIC
        ARGFRAME DOVERLAY, 0, STATIC
        FUNCALL SAPI_ProcessEvent, SAPI_BindConfirm
        LOCFRAME ISTACK, 0, STACK
        LOCFRAME PSTACK, 0, STACK
        LOCFRAME XSTACK, 15, STACK
        LOCFRAME IOVERLAY, 0, STATIC
        LOCFRAME DOVERLAY, 0, STATIC
        ARGFRAME ISTACK, 0, STACK
        ARGFRAME PSTACK, 0, STACK
        ARGFRAME XSTACK, 15, STACK
        ARGFRAME IOVERLAY, 0, STATIC
        ARGFRAME DOVERLAY, 0, STATIC
        FUNCALL SAPI_ProcessEvent, afSetMatch
        LOCFRAME ISTACK, 0, STACK
        LOCFRAME PSTACK, 0, STACK
        LOCFRAME XSTACK, 15, STACK
        LOCFRAME IOVERLAY, 0, STATIC
        LOCFRAME DOVERLAY, 0, STATIC
        ARGFRAME ISTACK, 0, STACK
        ARGFRAME PSTACK, 0, STACK
        ARGFRAME XSTACK, 15, STACK
        ARGFRAME IOVERLAY, 0, STATIC
        ARGFRAME DOVERLAY, 0, STATIC
        FUNCALL SAPI_ProcessEvent, SAPI_BindConfirm
        LOCFRAME ISTACK, 0, STACK
        LOCFRAME PSTACK, 0, STACK
        LOCFRAME XSTACK, 15, STACK
        LOCFRAME IOVERLAY, 0, STATIC
        LOCFRAME DOVERLAY, 0, STATIC
        ARGFRAME ISTACK, 0, STACK
        ARGFRAME PSTACK, 0, STACK
        ARGFRAME XSTACK, 15, STACK
        ARGFRAME IOVERLAY, 0, STATIC
        ARGFRAME DOVERLAY, 0, STATIC
        FUNCALL SAPI_ProcessEvent, HalLedSet
        LOCFRAME ISTACK, 0, STACK
        LOCFRAME PSTACK, 0, STACK
        LOCFRAME XSTACK, 15, STACK
        LOCFRAME IOVERLAY, 0, STATIC
        LOCFRAME DOVERLAY, 0, STATIC
        ARGFRAME ISTACK, 0, STACK
        ARGFRAME PSTACK, 0, STACK
        ARGFRAME XSTACK, 15, STACK
        ARGFRAME IOVERLAY, 0, STATIC
        ARGFRAME DOVERLAY, 0, STATIC
        FUNCALL SAPI_ProcessEvent, zb_ReadConfiguration
        LOCFRAME ISTACK, 0, STACK
        LOCFRAME PSTACK, 0, STACK
        LOCFRAME XSTACK, 15, STACK
        LOCFRAME IOVERLAY, 0, STATIC
        LOCFRAME DOVERLAY, 0, STATIC
        ARGFRAME ISTACK, 0, STACK
        ARGFRAME PSTACK, 0, STACK
        ARGFRAME XSTACK, 15, STACK
        ARGFRAME IOVERLAY, 0, STATIC
        ARGFRAME DOVERLAY, 0, STATIC
        FUNCALL SAPI_ProcessEvent, zb_StartRequest
        LOCFRAME ISTACK, 0, STACK
        LOCFRAME PSTACK, 0, STACK
        LOCFRAME XSTACK, 15, STACK
        LOCFRAME IOVERLAY, 0, STATIC
        LOCFRAME DOVERLAY, 0, STATIC
        ARGFRAME ISTACK, 0, STACK
        ARGFRAME PSTACK, 0, STACK
        ARGFRAME XSTACK, 15, STACK
        ARGFRAME IOVERLAY, 0, STATIC
        ARGFRAME DOVERLAY, 0, STATIC
        FUNCALL SAPI_ProcessEvent, HalLedBlink
        LOCFRAME ISTACK, 0, STACK
        LOCFRAME PSTACK, 0, STACK
        LOCFRAME XSTACK, 15, STACK
        LOCFRAME IOVERLAY, 0, STATIC
        LOCFRAME DOVERLAY, 0, STATIC
        ARGFRAME ISTACK, 0, STACK
        ARGFRAME PSTACK, 0, STACK
        ARGFRAME XSTACK, 15, STACK
        ARGFRAME IOVERLAY, 0, STATIC
        ARGFRAME DOVERLAY, 0, STATIC
        REQUIRE ?V0
        REQUIRE ?V1
        REQUIRE ?V2
        REQUIRE ?V4
        REQUIRE ?V5
        MOV     A,#-0xe
        LCALL   ?BANKED_ENTER_XDATA
          CFI DPH0 load(1, XDATA, add(CFA_XSP16, literal(-1)))
          CFI DPL0 load(1, XDATA, add(CFA_XSP16, literal(-2)))
          CFI ?BRET_EXT load(1, XDATA, add(CFA_XSP16, literal(-3)))
          CFI ?RET_HIGH load(1, XDATA, add(CFA_XSP16, literal(-4)))
          CFI ?RET_LOW load(1, XDATA, add(CFA_XSP16, literal(-5)))
          CFI R7 load(1, XDATA, add(CFA_XSP16, literal(-6)))
          CFI V5 load(1, XDATA, add(CFA_XSP16, literal(-7)))
          CFI V4 load(1, XDATA, add(CFA_XSP16, literal(-8)))
          CFI V3 load(1, XDATA, add(CFA_XSP16, literal(-9)))
          CFI V2 load(1, XDATA, add(CFA_XSP16, literal(-10)))
          CFI V1 load(1, XDATA, add(CFA_XSP16, literal(-11)))
          CFI V0 load(1, XDATA, add(CFA_XSP16, literal(-12)))
          CFI VB load(1, XDATA, add(CFA_XSP16, literal(-13)))
          CFI R6 load(1, XDATA, add(CFA_XSP16, literal(-14)))
          CFI CFA_SP SP+0
          CFI CFA_XSP16 add(XSP16, 14)
        ; Saved register size: 14
        ; Auto size: 1
        MOV     A,#-0x1
        LCALL   ?ALLOC_XSTACK8
          CFI CFA_XSP16 add(XSP16, 15)
        MOV     ?V2,R1
        MOV     ?V0,R2
        MOV     ?V1,R3
//  733   osal_event_hdr_t *pMsg;
//  734   afIncomingMSGPacket_t *pMSGpkt;
//  735   afDataConfirm_t *pDataConfirm;
//  736 
//  737   if ( events & SYS_EVENT_MSG )
        MOV     A,R3
        ANL     A,#0x80
        JNZ     $+5
        LJMP    ??SAPI_ProcessEvent_0 & 0xFFFF
//  738   {
//  739     pMsg = (osal_event_hdr_t *) osal_msg_receive( task_id );
        ; Setup parameters for call to function osal_msg_receive
        SJMP    ??SAPI_ProcessEvent_1
//  740     while ( pMsg )
//  741     {
//  742       switch ( pMsg->event )
//  743       {
//  744         case ZDO_CB_MSG:
//  745           SAPI_ProcessZDOMsgs( (zdoIncomingMsg_t *)pMsg );
//  746           break;
//  747 
//  748         case AF_DATA_CONFIRM_CMD:
//  749           // This message is received as a confirmation of a data packet sent.
//  750           // The status is of ZStatus_t type [defined in ZComDef.h]
//  751           // The message fields are defined in AF.h
//  752           pDataConfirm = (afDataConfirm_t *) pMsg;
//  753           SAPI_SendDataConfirm( pDataConfirm->transID, pDataConfirm->hdr.status );
//  754           break;
//  755 
//  756         case AF_INCOMING_MSG_CMD:
//  757           pMSGpkt = (afIncomingMSGPacket_t *) pMsg;
//  758           SAPI_ReceiveDataIndication( pMSGpkt->srcAddr.addr.shortAddr, pMSGpkt->clusterId,
//  759                                     pMSGpkt->cmd.DataLength, pMSGpkt->cmd.Data);
//  760           break;
//  761 
//  762         case ZDO_STATE_CHANGE:
//  763           // If the device has started up, notify the application
//  764           if (pMsg->status == DEV_END_DEVICE ||
//  765               pMsg->status == DEV_ROUTER ||
//  766               pMsg->status == DEV_ZB_COORD )
//  767           {
//  768             SAPI_StartConfirm( ZB_SUCCESS );
//  769           }
//  770           else  if (pMsg->status == DEV_HOLD ||
//  771                   pMsg->status == DEV_INIT)
//  772           {
//  773             SAPI_StartConfirm( ZB_INIT );
//  774           }
//  775           break;
//  776 
//  777         case ZDO_MATCH_DESC_RSP_SENT:
//  778           SAPI_AllowBindConfirm( ((ZDO_MatchDescRspSent_t *)pMsg)->nwkAddr );
//  779           break;
//  780 
//  781         case KEY_CHANGE:
//  782 #if ( SAPI_CB_FUNC )
//  783           zb_HandleKeys( ((keyChange_t *)pMsg)->state, ((keyChange_t *)pMsg)->keys );
//  784 #endif
//  785           break;
//  786 
//  787         case SAPICB_DATA_CNF:
//  788           SAPI_SendDataConfirm( (uint8)((sapi_CbackEvent_t *)pMsg)->data,
//  789                                     ((sapi_CbackEvent_t *)pMsg)->hdr.status );
//  790           break;
//  791 
//  792         case SAPICB_BIND_CNF:
//  793           SAPI_BindConfirm( ((sapi_CbackEvent_t *)pMsg)->data,
//  794                               ((sapi_CbackEvent_t *)pMsg)->hdr.status );
//  795           break;
//  796 
//  797         case SAPICB_START_CNF:
//  798           SAPI_StartConfirm( ((sapi_CbackEvent_t *)pMsg)->hdr.status );
??SAPI_ProcessEvent_2:
        ; Setup parameters for call to function zb_MTCallbackStartConfirm
        INC     DPTR
        MOVX    A,@DPTR
        MOV     R1,A
??SAPI_ProcessEvent_3:
        LCALL   `??zb_MTCallbackStartConfirm::?relay`; Banked call to: zb_MTCallbackStartConfirm
//  799           break;
//  800 
//  801         default:
//  802           // User messages should be handled by user or passed to the application
//  803           if ( pMsg->event >= ZB_USER_MSG )
//  804           {
//  805 
//  806           }
//  807           break;
//  808       }
//  809 
//  810       // Release the memory
//  811       osal_msg_deallocate( (uint8 *) pMsg );
??SAPI_ProcessEvent_4:
        ; Setup parameters for call to function osal_msg_deallocate
        MOV     A,R6
        MOV     R2,A
        MOV     A,R7
        MOV     R3,A
        LCALL   `??osal_msg_deallocate::?relay`; Banked call to: osal_msg_deallocate
//  812 
//  813       // Next
//  814       pMsg = (osal_event_hdr_t *) osal_msg_receive( task_id );
        ; Setup parameters for call to function osal_msg_receive
        MOV     R1,?V2
??SAPI_ProcessEvent_1:
        LCALL   `??osal_msg_receive::?relay`; Banked call to: osal_msg_receive
        MOV     ?V4,R2
        MOV     ?V5,R3
        MOV     R6,?V4
        MOV     R7,?V5
        MOV     A,R6
        ORL     A,R7
        JNZ     $+5
        LJMP    ??SAPI_ProcessEvent_5 & 0xFFFF
        MOV     DPL,R6
        MOV     DPH,R7
        MOVX    A,@DPTR
        ADD     A,#-0x1a
        JZ      ??SAPI_ProcessEvent_6
        ADD     A,#0x49
        JZ      ??SAPI_ProcessEvent_7
        DEC     A
        JNZ     $+5
        LJMP    ??SAPI_ProcessEvent_8 & 0xFFFF
        DEC     A
        JZ      ??SAPI_ProcessEvent_9
        ADD     A,#-0xd
        JNZ     $+5
        LJMP    ??SAPI_ProcessEvent_10 & 0xFFFF
        DEC     A
        JNZ     $+5
        LJMP    ??SAPI_ProcessEvent_11 & 0xFFFF
        DEC     A
        JZ      ??SAPI_ProcessEvent_2
        ADD     A,#-0x1b
        JZ      ??SAPI_ProcessEvent_12
        SJMP    ??SAPI_ProcessEvent_4
??SAPI_ProcessEvent_9:
        ; Setup parameters for call to function SAPI_ProcessZDOMsgs
        MOV     A,R6
        MOV     R2,A
        MOV     A,R7
        MOV     R3,A
        LCALL   `??SAPI_ProcessZDOMsgs::?relay`; Banked call to: SAPI_ProcessZDOMsgs
        SJMP    ??SAPI_ProcessEvent_4
??SAPI_ProcessEvent_12:
        ; Setup parameters for call to function SAPI_SendDataConfirm
        INC     DPTR
        MOVX    A,@DPTR
        MOV     R2,A
        MOV     DPL,R6
        MOV     DPH,R7
        INC     DPTR
??SAPI_ProcessEvent_13:
        INC     DPTR
        INC     DPTR
        MOVX    A,@DPTR
        MOV     R1,A
        LCALL   `??SAPI_SendDataConfirm::?relay`; Banked call to: SAPI_SendDataConfirm
        SJMP    ??SAPI_ProcessEvent_4
??SAPI_ProcessEvent_6:
        ; Setup parameters for call to function zb_MTCallbackReceiveDataIndication
        MOV     A,R6
        ADD     A,#0x22
        MOV     DPL,A
        CLR     A
        ADDC    A,R7
        MOV     DPH,A
        LCALL   ?PUSH_XSTACK8_X_TWO
          CFI CFA_XSP16 add(XSP16, 17)
        MOV     A,R6
        ADD     A,#0x20
        MOV     DPL,A
        CLR     A
        ADDC    A,R7
        MOV     DPH,A
        LCALL   ?PUSH_XSTACK8_X_TWO
          CFI CFA_XSP16 add(XSP16, 19)
        MOV     DPL,R6
        MOV     DPH,R7
        INC     DPTR
        INC     DPTR
        INC     DPTR
        INC     DPTR
        MOVX    A,@DPTR
        MOV     R4,A
        INC     DPTR
        MOVX    A,@DPTR
        MOV     R5,A
        MOV     DPL,R6
        MOV     DPH,R7
        INC     DPTR
        INC     DPTR
        INC     DPTR
        INC     DPTR
        LCALL   ?Subroutine5 & 0xFFFF
??CrossCallReturnLabel_8:
        LCALL   `??zb_MTCallbackReceiveDataIndication::?relay`; Banked call to: zb_MTCallbackReceiveDataIndication
        MOV     A,#0x4
        LCALL   ?DEALLOC_XSTACK8
          CFI CFA_XSP16 add(XSP16, 15)
        LJMP    ??SAPI_ProcessEvent_4 & 0xFFFF
??SAPI_ProcessEvent_7:
        INC     DPTR
        MOVX    A,@DPTR
        XRL     A,#0x6
        JZ      ??SAPI_ProcessEvent_14
        MOV     DPL,R6
        MOV     DPH,R7
        INC     DPTR
        MOVX    A,@DPTR
        XRL     A,#0x7
        JZ      ??SAPI_ProcessEvent_14
        MOV     DPL,R6
        MOV     DPH,R7
        INC     DPTR
        MOVX    A,@DPTR
        XRL     A,#0x9
        JNZ     ??SAPI_ProcessEvent_15
??SAPI_ProcessEvent_14:
        ; Setup parameters for call to function zb_MTCallbackStartConfirm
        MOV     R1,#0x0
        LJMP    ??SAPI_ProcessEvent_3 & 0xFFFF
??SAPI_ProcessEvent_15:
        MOV     DPL,R6
        MOV     DPH,R7
        INC     DPTR
        MOVX    A,@DPTR
        JZ      ??SAPI_ProcessEvent_16
        XRL     A,#0x1
        JZ      $+5
        LJMP    ??SAPI_ProcessEvent_4 & 0xFFFF
??SAPI_ProcessEvent_16:
        ; Setup parameters for call to function zb_MTCallbackStartConfirm
        MOV     R1,#0x22
        LJMP    ??SAPI_ProcessEvent_3 & 0xFFFF
??SAPI_ProcessEvent_8:
        ; Setup parameters for call to function zb_MTCallbackAllowBindConfirm
        LCALL   ?Subroutine5 & 0xFFFF
??CrossCallReturnLabel_9:
        LCALL   `??zb_MTCallbackAllowBindConfirm::?relay`; Banked call to: zb_MTCallbackAllowBindConfirm
        LJMP    ??SAPI_ProcessEvent_4 & 0xFFFF
??SAPI_ProcessEvent_10:
        ; Setup parameters for call to function SAPI_SendDataConfirm
        INC     DPTR
        MOVX    A,@DPTR
        MOV     R2,A
        MOV     DPL,R6
        MOV     DPH,R7
        LJMP    ??SAPI_ProcessEvent_13 & 0xFFFF
??SAPI_ProcessEvent_11:
        ; Setup parameters for call to function SAPI_BindConfirm
        INC     DPTR
        MOVX    A,@DPTR
        MOV     R1,A
        MOV     DPL,R6
        MOV     DPH,R7
        LCALL   ?Subroutine5 & 0xFFFF
??CrossCallReturnLabel_10:
        LCALL   `??SAPI_BindConfirm::?relay`; Banked call to: SAPI_BindConfirm
        LJMP    ??SAPI_ProcessEvent_4 & 0xFFFF
//  815     }
//  816 
//  817     // Return unprocessed events
//  818     return (events ^ SYS_EVENT_MSG);
??SAPI_ProcessEvent_5:
        MOV     R2,?V0
        MOV     A,?V1
        XRL     A,#0x80
        SJMP    ??SAPI_ProcessEvent_17
//  819   }
//  820 
//  821   if ( events & ZB_ALLOW_BIND_TIMER )
??SAPI_ProcessEvent_0:
        MOV     A,R3
        ANL     A,#0x40
        JZ      ??SAPI_ProcessEvent_18
//  822   {
//  823     afSetMatch(sapi_epDesc.simpleDesc->EndPoint, FALSE);
        ; Setup parameters for call to function afSetMatch
        MOV     R2,#0x0
        LCALL   ??Subroutine11_0 & 0xFFFF
??CrossCallReturnLabel_13:
        LCALL   `??afSetMatch::?relay`; Banked call to: afSetMatch
//  824     return (events ^ ZB_ALLOW_BIND_TIMER);
        MOV     R2,?V0
        MOV     A,?V1
        XRL     A,#0x40
        SJMP    ??SAPI_ProcessEvent_17
//  825   }
//  826 
//  827   if ( events & ZB_BIND_TIMER )
??SAPI_ProcessEvent_18:
        MOV     A,R3
        ANL     A,#0x20
        JZ      ??SAPI_ProcessEvent_19
//  828   {
//  829     // Send bind confirm callback to application
//  830     SAPI_BindConfirm( sapi_bindInProgress, ZB_TIMEOUT );
        ; Setup parameters for call to function SAPI_BindConfirm
        MOV     R1,#0x21
        MOV     DPTR,#sapi_bindInProgress
        LCALL   ??Subroutine10_0 & 0xFFFF
??CrossCallReturnLabel_5:
        LCALL   `??SAPI_BindConfirm::?relay`; Banked call to: SAPI_BindConfirm
//  831     sapi_bindInProgress = 0xffff;
        MOV     DPTR,#sapi_bindInProgress
        MOV     A,#-0x1
        MOVX    @DPTR,A
        INC     DPTR
        MOVX    @DPTR,A
//  832 
//  833     return (events ^ ZB_BIND_TIMER);
        MOV     R2,?V0
        MOV     A,?V1
        XRL     A,#0x20
        SJMP    ??SAPI_ProcessEvent_17
//  834   }
//  835 
//  836   if ( events & ZB_ENTRY_EVENT )
??SAPI_ProcessEvent_19:
        MOV     A,R3
        ANL     A,#0x10
        MOV     R2,#0x0
        JZ      ??SAPI_ProcessEvent_20
//  837   {
//  838     uint8 startOptions;
//  839 
//  840     // Give indication to application of device startup
//  841 #if ( SAPI_CB_FUNC )
//  842     zb_HandleOsalEvent( ZB_ENTRY_EVENT );
//  843 #endif
//  844 
//  845     // LED off cancels HOLD_AUTO_START blink set in the stack
//  846     HalLedSet (HAL_LED_4, HAL_LED_MODE_OFF);
        ; Setup parameters for call to function HalLedSet
        MOV     R1,#0x8
        LCALL   `??HalLedSet::?relay`; Banked call to: HalLedSet
//  847 
//  848     zb_ReadConfiguration( ZCD_NV_STARTUP_OPTION, sizeof(uint8), &startOptions );
        ; Setup parameters for call to function zb_ReadConfiguration
        MOV     R4,?XSP + 0
        MOV     R5,?XSP + 1
        MOV     R2,#0x1
        MOV     R1,#0x3
        LCALL   `??zb_ReadConfiguration::?relay`; Banked call to: zb_ReadConfiguration
//  849     if ( startOptions & ZCD_STARTOPT_AUTO_START )
        MOV     DPL,?XSP + 0
        MOV     DPH,?XSP + 1
        MOVX    A,@DPTR
        MOV     C,0xE0 /* A   */.2
        JNC     ??SAPI_ProcessEvent_21
//  850     {
//  851       zb_StartRequest();
        ; Setup parameters for call to function zb_StartRequest
        LCALL   `??zb_StartRequest::?relay`; Banked call to: zb_StartRequest
        SJMP    ??SAPI_ProcessEvent_22
//  852     }
//  853     else
//  854     {
//  855       // blink leds and wait for external input to config and restart
//  856       HalLedBlink(HAL_LED_2, 0, 50, 500);
??SAPI_ProcessEvent_21:
        ; Setup parameters for call to function HalLedBlink
        MOV     R4,#-0xc
        MOV     R5,#0x1
        MOV     R3,#0x32
        MOV     R2,#0x0
        MOV     R1,#0x2
        LCALL   `??HalLedBlink::?relay`; Banked call to: HalLedBlink
//  857     }
//  858 
//  859     return (events ^ ZB_ENTRY_EVENT );
??SAPI_ProcessEvent_22:
        MOV     R2,?V0
        MOV     A,?V1
        XRL     A,#0x10
??SAPI_ProcessEvent_17:
        MOV     R3,A
        SJMP    ??SAPI_ProcessEvent_23
//  860   }
//  861 
//  862   // This must be the last event to be processed
//  863   if ( events & ( ZB_USER_EVENTS ) )
//  864   {
//  865     // User events are passed to the application
//  866 #if ( SAPI_CB_FUNC )
//  867     zb_HandleOsalEvent( events );
//  868 #endif
//  869 
//  870     // Do not return here, return 0 later
//  871   }
//  872 
//  873   // Discard unknown events
//  874   return 0;
??SAPI_ProcessEvent_20:
        MOV     R3,#0x0
??SAPI_ProcessEvent_23:
        MOV     A,#0x1
        LCALL   ?DEALLOC_XSTACK8
          CFI CFA_XSP16 add(XSP16, 14)
        MOV     R7,#0x6
        LJMP    ?BANKED_LEAVE_XDATA
//  875 }
          CFI EndBlock cfiBlock21

        RSEG BANKED_CODE:CODE:NOROOT(0)
?Subroutine5:
          CFI Block cfiCond22 Using cfiCommon0
          CFI Function SAPI_ProcessEvent
          CFI Conditional ??CrossCallReturnLabel_8
          CFI R6 load(1, XDATA, add(CFA_XSP16, literal(-14)))
          CFI VB load(1, XDATA, add(CFA_XSP16, literal(-13)))
          CFI V0 load(1, XDATA, add(CFA_XSP16, literal(-12)))
          CFI V1 load(1, XDATA, add(CFA_XSP16, literal(-11)))
          CFI V2 load(1, XDATA, add(CFA_XSP16, literal(-10)))
          CFI V3 load(1, XDATA, add(CFA_XSP16, literal(-9)))
          CFI V4 load(1, XDATA, add(CFA_XSP16, literal(-8)))
          CFI V5 load(1, XDATA, add(CFA_XSP16, literal(-7)))
          CFI R7 load(1, XDATA, add(CFA_XSP16, literal(-6)))
          CFI ?RET_LOW load(1, XDATA, add(CFA_XSP16, literal(-5)))
          CFI ?RET_HIGH load(1, XDATA, add(CFA_XSP16, literal(-4)))
          CFI ?BRET_EXT load(1, XDATA, add(CFA_XSP16, literal(-3)))
          CFI DPL0 load(1, XDATA, add(CFA_XSP16, literal(-2)))
          CFI DPH0 load(1, XDATA, add(CFA_XSP16, literal(-1)))
          CFI CFA_SP SP+-2
          CFI CFA_XSP16 add(XSP16, 19)
          CFI Block cfiCond23 Using cfiCommon0
          CFI (cfiCond23) Function SAPI_ProcessEvent
          CFI (cfiCond23) Conditional ??CrossCallReturnLabel_9
          CFI (cfiCond23) R6 load(1, XDATA, add(CFA_XSP16, literal(-14)))
          CFI (cfiCond23) VB load(1, XDATA, add(CFA_XSP16, literal(-13)))
          CFI (cfiCond23) V0 load(1, XDATA, add(CFA_XSP16, literal(-12)))
          CFI (cfiCond23) V1 load(1, XDATA, add(CFA_XSP16, literal(-11)))
          CFI (cfiCond23) V2 load(1, XDATA, add(CFA_XSP16, literal(-10)))
          CFI (cfiCond23) V3 load(1, XDATA, add(CFA_XSP16, literal(-9)))
          CFI (cfiCond23) V4 load(1, XDATA, add(CFA_XSP16, literal(-8)))
          CFI (cfiCond23) V5 load(1, XDATA, add(CFA_XSP16, literal(-7)))
          CFI (cfiCond23) R7 load(1, XDATA, add(CFA_XSP16, literal(-6)))
          CFI (cfiCond23) ?RET_LOW load(1, XDATA, add(CFA_XSP16, literal(-5)))
          CFI (cfiCond23) ?RET_HIGH load(1, XDATA, add(CFA_XSP16, literal(-4)))
          CFI (cfiCond23) ?BRET_EXT load(1, XDATA, add(CFA_XSP16, literal(-3)))
          CFI (cfiCond23) DPL0 load(1, XDATA, add(CFA_XSP16, literal(-2)))
          CFI (cfiCond23) DPH0 load(1, XDATA, add(CFA_XSP16, literal(-1)))
          CFI (cfiCond23) CFA_SP SP+-2
          CFI (cfiCond23) CFA_XSP16 add(XSP16, 15)
          CFI Block cfiCond24 Using cfiCommon0
          CFI (cfiCond24) Function SAPI_ProcessEvent
          CFI (cfiCond24) Conditional ??CrossCallReturnLabel_10
          CFI (cfiCond24) R6 load(1, XDATA, add(CFA_XSP16, literal(-14)))
          CFI (cfiCond24) VB load(1, XDATA, add(CFA_XSP16, literal(-13)))
          CFI (cfiCond24) V0 load(1, XDATA, add(CFA_XSP16, literal(-12)))
          CFI (cfiCond24) V1 load(1, XDATA, add(CFA_XSP16, literal(-11)))
          CFI (cfiCond24) V2 load(1, XDATA, add(CFA_XSP16, literal(-10)))
          CFI (cfiCond24) V3 load(1, XDATA, add(CFA_XSP16, literal(-9)))
          CFI (cfiCond24) V4 load(1, XDATA, add(CFA_XSP16, literal(-8)))
          CFI (cfiCond24) V5 load(1, XDATA, add(CFA_XSP16, literal(-7)))
          CFI (cfiCond24) R7 load(1, XDATA, add(CFA_XSP16, literal(-6)))
          CFI (cfiCond24) ?RET_LOW load(1, XDATA, add(CFA_XSP16, literal(-5)))
          CFI (cfiCond24) ?RET_HIGH load(1, XDATA, add(CFA_XSP16, literal(-4)))
          CFI (cfiCond24) ?BRET_EXT load(1, XDATA, add(CFA_XSP16, literal(-3)))
          CFI (cfiCond24) DPL0 load(1, XDATA, add(CFA_XSP16, literal(-2)))
          CFI (cfiCond24) DPH0 load(1, XDATA, add(CFA_XSP16, literal(-1)))
          CFI (cfiCond24) CFA_SP SP+-2
          CFI (cfiCond24) CFA_XSP16 add(XSP16, 15)
          CFI Block cfiPicker25 Using cfiCommon1
          CFI (cfiPicker25) NoFunction
          CFI (cfiPicker25) Picker
        INC     DPTR
          CFI EndBlock cfiCond22
          CFI EndBlock cfiCond23
          CFI EndBlock cfiCond24
          CFI EndBlock cfiPicker25
        REQUIRE ??Subroutine9_0
        ; // Fall through to label ??Subroutine9_0

        RSEG BANKED_CODE:CODE:NOROOT(0)
??Subroutine9_0:
          CFI Block cfiCond26 Using cfiCommon0
          CFI Function SAPI_ProcessZDOMsgs
          CFI Conditional ??CrossCallReturnLabel_7
          CFI R6 load(1, XDATA, add(CFA_XSP16, literal(-10)))
          CFI VB load(1, XDATA, add(CFA_XSP16, literal(-9)))
          CFI V0 load(1, XDATA, add(CFA_XSP16, literal(-8)))
          CFI V1 load(1, XDATA, add(CFA_XSP16, literal(-7)))
          CFI R7 load(1, XDATA, add(CFA_XSP16, literal(-6)))
          CFI ?RET_LOW load(1, XDATA, add(CFA_XSP16, literal(-5)))
          CFI ?RET_HIGH load(1, XDATA, add(CFA_XSP16, literal(-4)))
          CFI ?BRET_EXT load(1, XDATA, add(CFA_XSP16, literal(-3)))
          CFI DPL0 load(1, XDATA, add(CFA_XSP16, literal(-2)))
          CFI DPH0 load(1, XDATA, add(CFA_XSP16, literal(-1)))
          CFI CFA_SP SP+-2
          CFI CFA_XSP16 add(XSP16, 19)
          CFI Block cfiCond27 Using cfiCommon0
          CFI (cfiCond27) Function SAPI_ProcessEvent
          CFI (cfiCond27) Conditional ??CrossCallReturnLabel_8
          CFI (cfiCond27) R6 load(1, XDATA, add(CFA_XSP16, literal(-14)))
          CFI (cfiCond27) VB load(1, XDATA, add(CFA_XSP16, literal(-13)))
          CFI (cfiCond27) V0 load(1, XDATA, add(CFA_XSP16, literal(-12)))
          CFI (cfiCond27) V1 load(1, XDATA, add(CFA_XSP16, literal(-11)))
          CFI (cfiCond27) V2 load(1, XDATA, add(CFA_XSP16, literal(-10)))
          CFI (cfiCond27) V3 load(1, XDATA, add(CFA_XSP16, literal(-9)))
          CFI (cfiCond27) V4 load(1, XDATA, add(CFA_XSP16, literal(-8)))
          CFI (cfiCond27) V5 load(1, XDATA, add(CFA_XSP16, literal(-7)))
          CFI (cfiCond27) R7 load(1, XDATA, add(CFA_XSP16, literal(-6)))
          CFI (cfiCond27) ?RET_LOW load(1, XDATA, add(CFA_XSP16, literal(-5)))
          CFI (cfiCond27) ?RET_HIGH load(1, XDATA, add(CFA_XSP16, literal(-4)))
          CFI (cfiCond27) ?BRET_EXT load(1, XDATA, add(CFA_XSP16, literal(-3)))
          CFI (cfiCond27) DPL0 load(1, XDATA, add(CFA_XSP16, literal(-2)))
          CFI (cfiCond27) DPH0 load(1, XDATA, add(CFA_XSP16, literal(-1)))
          CFI (cfiCond27) CFA_SP SP+-2
          CFI (cfiCond27) CFA_XSP16 add(XSP16, 19)
          CFI Block cfiCond28 Using cfiCommon0
          CFI (cfiCond28) Function SAPI_ProcessEvent
          CFI (cfiCond28) Conditional ??CrossCallReturnLabel_9
          CFI (cfiCond28) R6 load(1, XDATA, add(CFA_XSP16, literal(-14)))
          CFI (cfiCond28) VB load(1, XDATA, add(CFA_XSP16, literal(-13)))
          CFI (cfiCond28) V0 load(1, XDATA, add(CFA_XSP16, literal(-12)))
          CFI (cfiCond28) V1 load(1, XDATA, add(CFA_XSP16, literal(-11)))
          CFI (cfiCond28) V2 load(1, XDATA, add(CFA_XSP16, literal(-10)))
          CFI (cfiCond28) V3 load(1, XDATA, add(CFA_XSP16, literal(-9)))
          CFI (cfiCond28) V4 load(1, XDATA, add(CFA_XSP16, literal(-8)))
          CFI (cfiCond28) V5 load(1, XDATA, add(CFA_XSP16, literal(-7)))
          CFI (cfiCond28) R7 load(1, XDATA, add(CFA_XSP16, literal(-6)))
          CFI (cfiCond28) ?RET_LOW load(1, XDATA, add(CFA_XSP16, literal(-5)))
          CFI (cfiCond28) ?RET_HIGH load(1, XDATA, add(CFA_XSP16, literal(-4)))
          CFI (cfiCond28) ?BRET_EXT load(1, XDATA, add(CFA_XSP16, literal(-3)))
          CFI (cfiCond28) DPL0 load(1, XDATA, add(CFA_XSP16, literal(-2)))
          CFI (cfiCond28) DPH0 load(1, XDATA, add(CFA_XSP16, literal(-1)))
          CFI (cfiCond28) CFA_SP SP+-2
          CFI (cfiCond28) CFA_XSP16 add(XSP16, 15)
          CFI Block cfiCond29 Using cfiCommon0
          CFI (cfiCond29) Function SAPI_ProcessEvent
          CFI (cfiCond29) Conditional ??CrossCallReturnLabel_10
          CFI (cfiCond29) R6 load(1, XDATA, add(CFA_XSP16, literal(-14)))
          CFI (cfiCond29) VB load(1, XDATA, add(CFA_XSP16, literal(-13)))
          CFI (cfiCond29) V0 load(1, XDATA, add(CFA_XSP16, literal(-12)))
          CFI (cfiCond29) V1 load(1, XDATA, add(CFA_XSP16, literal(-11)))
          CFI (cfiCond29) V2 load(1, XDATA, add(CFA_XSP16, literal(-10)))
          CFI (cfiCond29) V3 load(1, XDATA, add(CFA_XSP16, literal(-9)))
          CFI (cfiCond29) V4 load(1, XDATA, add(CFA_XSP16, literal(-8)))
          CFI (cfiCond29) V5 load(1, XDATA, add(CFA_XSP16, literal(-7)))
          CFI (cfiCond29) R7 load(1, XDATA, add(CFA_XSP16, literal(-6)))
          CFI (cfiCond29) ?RET_LOW load(1, XDATA, add(CFA_XSP16, literal(-5)))
          CFI (cfiCond29) ?RET_HIGH load(1, XDATA, add(CFA_XSP16, literal(-4)))
          CFI (cfiCond29) ?BRET_EXT load(1, XDATA, add(CFA_XSP16, literal(-3)))
          CFI (cfiCond29) DPL0 load(1, XDATA, add(CFA_XSP16, literal(-2)))
          CFI (cfiCond29) DPH0 load(1, XDATA, add(CFA_XSP16, literal(-1)))
          CFI (cfiCond29) CFA_SP SP+-2
          CFI (cfiCond29) CFA_XSP16 add(XSP16, 15)
          CFI Block cfiPicker30 Using cfiCommon1
          CFI (cfiPicker30) NoFunction
          CFI (cfiPicker30) Picker
        INC     DPTR
          CFI EndBlock cfiCond26
          CFI EndBlock cfiCond27
          CFI EndBlock cfiCond28
          CFI EndBlock cfiCond29
          CFI EndBlock cfiPicker30
        REQUIRE ??Subroutine10_0
        ; // Fall through to label ??Subroutine10_0

        RSEG BANKED_CODE:CODE:NOROOT(0)
??Subroutine10_0:
          CFI Block cfiCond31 Using cfiCommon0
          CFI Function zb_BindDevice
          CFI Conditional ??CrossCallReturnLabel_4
          CFI R6 load(1, XDATA, add(CFA_XSP16, literal(-16)))
          CFI VB load(1, XDATA, add(CFA_XSP16, literal(-15)))
          CFI V0 load(1, XDATA, add(CFA_XSP16, literal(-14)))
          CFI V1 load(1, XDATA, add(CFA_XSP16, literal(-13)))
          CFI V2 load(1, XDATA, add(CFA_XSP16, literal(-12)))
          CFI V3 load(1, XDATA, add(CFA_XSP16, literal(-11)))
          CFI V4 load(1, XDATA, add(CFA_XSP16, literal(-10)))
          CFI V5 load(1, XDATA, add(CFA_XSP16, literal(-9)))
          CFI V6 load(1, XDATA, add(CFA_XSP16, literal(-8)))
          CFI V7 load(1, XDATA, add(CFA_XSP16, literal(-7)))
          CFI R7 load(1, XDATA, add(CFA_XSP16, literal(-6)))
          CFI ?RET_LOW load(1, XDATA, add(CFA_XSP16, literal(-5)))
          CFI ?RET_HIGH load(1, XDATA, add(CFA_XSP16, literal(-4)))
          CFI ?BRET_EXT load(1, XDATA, add(CFA_XSP16, literal(-3)))
          CFI DPL0 load(1, XDATA, add(CFA_XSP16, literal(-2)))
          CFI DPH0 load(1, XDATA, add(CFA_XSP16, literal(-1)))
          CFI CFA_SP SP+-2
          CFI CFA_XSP16 add(XSP16, 28)
          CFI Block cfiCond32 Using cfiCommon0
          CFI (cfiCond32) Function SAPI_ProcessEvent
          CFI (cfiCond32) Conditional ??CrossCallReturnLabel_5
          CFI (cfiCond32) R6 load(1, XDATA, add(CFA_XSP16, literal(-14)))
          CFI (cfiCond32) VB load(1, XDATA, add(CFA_XSP16, literal(-13)))
          CFI (cfiCond32) V0 load(1, XDATA, add(CFA_XSP16, literal(-12)))
          CFI (cfiCond32) V1 load(1, XDATA, add(CFA_XSP16, literal(-11)))
          CFI (cfiCond32) V2 load(1, XDATA, add(CFA_XSP16, literal(-10)))
          CFI (cfiCond32) V3 load(1, XDATA, add(CFA_XSP16, literal(-9)))
          CFI (cfiCond32) V4 load(1, XDATA, add(CFA_XSP16, literal(-8)))
          CFI (cfiCond32) V5 load(1, XDATA, add(CFA_XSP16, literal(-7)))
          CFI (cfiCond32) R7 load(1, XDATA, add(CFA_XSP16, literal(-6)))
          CFI (cfiCond32) ?RET_LOW load(1, XDATA, add(CFA_XSP16, literal(-5)))
          CFI (cfiCond32) ?RET_HIGH load(1, XDATA, add(CFA_XSP16, literal(-4)))
          CFI (cfiCond32) ?BRET_EXT load(1, XDATA, add(CFA_XSP16, literal(-3)))
          CFI (cfiCond32) DPL0 load(1, XDATA, add(CFA_XSP16, literal(-2)))
          CFI (cfiCond32) DPH0 load(1, XDATA, add(CFA_XSP16, literal(-1)))
          CFI (cfiCond32) CFA_SP SP+-2
          CFI (cfiCond32) CFA_XSP16 add(XSP16, 15)
          CFI Block cfiCond33 Using cfiCommon0
          CFI (cfiCond33) Function SAPI_ProcessZDOMsgs
          CFI (cfiCond33) Conditional ??CrossCallReturnLabel_6
          CFI (cfiCond33) R6 load(1, XDATA, add(CFA_XSP16, literal(-10)))
          CFI (cfiCond33) VB load(1, XDATA, add(CFA_XSP16, literal(-9)))
          CFI (cfiCond33) V0 load(1, XDATA, add(CFA_XSP16, literal(-8)))
          CFI (cfiCond33) V1 load(1, XDATA, add(CFA_XSP16, literal(-7)))
          CFI (cfiCond33) R7 load(1, XDATA, add(CFA_XSP16, literal(-6)))
          CFI (cfiCond33) ?RET_LOW load(1, XDATA, add(CFA_XSP16, literal(-5)))
          CFI (cfiCond33) ?RET_HIGH load(1, XDATA, add(CFA_XSP16, literal(-4)))
          CFI (cfiCond33) ?BRET_EXT load(1, XDATA, add(CFA_XSP16, literal(-3)))
          CFI (cfiCond33) DPL0 load(1, XDATA, add(CFA_XSP16, literal(-2)))
          CFI (cfiCond33) DPH0 load(1, XDATA, add(CFA_XSP16, literal(-1)))
          CFI (cfiCond33) CFA_SP SP+-2
          CFI (cfiCond33) CFA_XSP16 add(XSP16, 19)
          CFI Block cfiCond34 Using cfiCommon0
          CFI (cfiCond34) Function SAPI_ProcessZDOMsgs
          CFI (cfiCond34) Conditional ??CrossCallReturnLabel_7
          CFI (cfiCond34) R6 load(1, XDATA, add(CFA_XSP16, literal(-10)))
          CFI (cfiCond34) VB load(1, XDATA, add(CFA_XSP16, literal(-9)))
          CFI (cfiCond34) V0 load(1, XDATA, add(CFA_XSP16, literal(-8)))
          CFI (cfiCond34) V1 load(1, XDATA, add(CFA_XSP16, literal(-7)))
          CFI (cfiCond34) R7 load(1, XDATA, add(CFA_XSP16, literal(-6)))
          CFI (cfiCond34) ?RET_LOW load(1, XDATA, add(CFA_XSP16, literal(-5)))
          CFI (cfiCond34) ?RET_HIGH load(1, XDATA, add(CFA_XSP16, literal(-4)))
          CFI (cfiCond34) ?BRET_EXT load(1, XDATA, add(CFA_XSP16, literal(-3)))
          CFI (cfiCond34) DPL0 load(1, XDATA, add(CFA_XSP16, literal(-2)))
          CFI (cfiCond34) DPH0 load(1, XDATA, add(CFA_XSP16, literal(-1)))
          CFI (cfiCond34) CFA_SP SP+-2
          CFI (cfiCond34) CFA_XSP16 add(XSP16, 19)
          CFI Block cfiCond35 Using cfiCommon0
          CFI (cfiCond35) Function SAPI_ProcessEvent
          CFI (cfiCond35) Conditional ??CrossCallReturnLabel_8
          CFI (cfiCond35) R6 load(1, XDATA, add(CFA_XSP16, literal(-14)))
          CFI (cfiCond35) VB load(1, XDATA, add(CFA_XSP16, literal(-13)))
          CFI (cfiCond35) V0 load(1, XDATA, add(CFA_XSP16, literal(-12)))
          CFI (cfiCond35) V1 load(1, XDATA, add(CFA_XSP16, literal(-11)))
          CFI (cfiCond35) V2 load(1, XDATA, add(CFA_XSP16, literal(-10)))
          CFI (cfiCond35) V3 load(1, XDATA, add(CFA_XSP16, literal(-9)))
          CFI (cfiCond35) V4 load(1, XDATA, add(CFA_XSP16, literal(-8)))
          CFI (cfiCond35) V5 load(1, XDATA, add(CFA_XSP16, literal(-7)))
          CFI (cfiCond35) R7 load(1, XDATA, add(CFA_XSP16, literal(-6)))
          CFI (cfiCond35) ?RET_LOW load(1, XDATA, add(CFA_XSP16, literal(-5)))
          CFI (cfiCond35) ?RET_HIGH load(1, XDATA, add(CFA_XSP16, literal(-4)))
          CFI (cfiCond35) ?BRET_EXT load(1, XDATA, add(CFA_XSP16, literal(-3)))
          CFI (cfiCond35) DPL0 load(1, XDATA, add(CFA_XSP16, literal(-2)))
          CFI (cfiCond35) DPH0 load(1, XDATA, add(CFA_XSP16, literal(-1)))
          CFI (cfiCond35) CFA_SP SP+-2
          CFI (cfiCond35) CFA_XSP16 add(XSP16, 19)
          CFI Block cfiCond36 Using cfiCommon0
          CFI (cfiCond36) Function SAPI_ProcessEvent
          CFI (cfiCond36) Conditional ??CrossCallReturnLabel_9
          CFI (cfiCond36) R6 load(1, XDATA, add(CFA_XSP16, literal(-14)))
          CFI (cfiCond36) VB load(1, XDATA, add(CFA_XSP16, literal(-13)))
          CFI (cfiCond36) V0 load(1, XDATA, add(CFA_XSP16, literal(-12)))
          CFI (cfiCond36) V1 load(1, XDATA, add(CFA_XSP16, literal(-11)))
          CFI (cfiCond36) V2 load(1, XDATA, add(CFA_XSP16, literal(-10)))
          CFI (cfiCond36) V3 load(1, XDATA, add(CFA_XSP16, literal(-9)))
          CFI (cfiCond36) V4 load(1, XDATA, add(CFA_XSP16, literal(-8)))
          CFI (cfiCond36) V5 load(1, XDATA, add(CFA_XSP16, literal(-7)))
          CFI (cfiCond36) R7 load(1, XDATA, add(CFA_XSP16, literal(-6)))
          CFI (cfiCond36) ?RET_LOW load(1, XDATA, add(CFA_XSP16, literal(-5)))
          CFI (cfiCond36) ?RET_HIGH load(1, XDATA, add(CFA_XSP16, literal(-4)))
          CFI (cfiCond36) ?BRET_EXT load(1, XDATA, add(CFA_XSP16, literal(-3)))
          CFI (cfiCond36) DPL0 load(1, XDATA, add(CFA_XSP16, literal(-2)))
          CFI (cfiCond36) DPH0 load(1, XDATA, add(CFA_XSP16, literal(-1)))
          CFI (cfiCond36) CFA_SP SP+-2
          CFI (cfiCond36) CFA_XSP16 add(XSP16, 15)
          CFI Block cfiCond37 Using cfiCommon0
          CFI (cfiCond37) Function SAPI_ProcessEvent
          CFI (cfiCond37) Conditional ??CrossCallReturnLabel_10
          CFI (cfiCond37) R6 load(1, XDATA, add(CFA_XSP16, literal(-14)))
          CFI (cfiCond37) VB load(1, XDATA, add(CFA_XSP16, literal(-13)))
          CFI (cfiCond37) V0 load(1, XDATA, add(CFA_XSP16, literal(-12)))
          CFI (cfiCond37) V1 load(1, XDATA, add(CFA_XSP16, literal(-11)))
          CFI (cfiCond37) V2 load(1, XDATA, add(CFA_XSP16, literal(-10)))
          CFI (cfiCond37) V3 load(1, XDATA, add(CFA_XSP16, literal(-9)))
          CFI (cfiCond37) V4 load(1, XDATA, add(CFA_XSP16, literal(-8)))
          CFI (cfiCond37) V5 load(1, XDATA, add(CFA_XSP16, literal(-7)))
          CFI (cfiCond37) R7 load(1, XDATA, add(CFA_XSP16, literal(-6)))
          CFI (cfiCond37) ?RET_LOW load(1, XDATA, add(CFA_XSP16, literal(-5)))
          CFI (cfiCond37) ?RET_HIGH load(1, XDATA, add(CFA_XSP16, literal(-4)))
          CFI (cfiCond37) ?BRET_EXT load(1, XDATA, add(CFA_XSP16, literal(-3)))
          CFI (cfiCond37) DPL0 load(1, XDATA, add(CFA_XSP16, literal(-2)))
          CFI (cfiCond37) DPH0 load(1, XDATA, add(CFA_XSP16, literal(-1)))
          CFI (cfiCond37) CFA_SP SP+-2
          CFI (cfiCond37) CFA_XSP16 add(XSP16, 15)
          CFI Block cfiPicker38 Using cfiCommon1
          CFI (cfiPicker38) NoFunction
          CFI (cfiPicker38) Picker
        MOVX    A,@DPTR
        MOV     R2,A
        INC     DPTR
        MOVX    A,@DPTR
        MOV     R3,A
        RET
          CFI EndBlock cfiCond31
          CFI EndBlock cfiCond32
          CFI EndBlock cfiCond33
          CFI EndBlock cfiCond34
          CFI EndBlock cfiCond35
          CFI EndBlock cfiCond36
          CFI EndBlock cfiCond37
          CFI EndBlock cfiPicker38
//  876 
//  877 /*********************************************************************
//  878  * @fn      SAPI_ProcessZDOMsgs()
//  879  *
//  880  * @brief   Process response messages
//  881  *
//  882  * @param   none
//  883  *
//  884  * @return  none
//  885  */

        RSEG BANKED_CODE:CODE:NOROOT(0)
//  886 void SAPI_ProcessZDOMsgs( zdoIncomingMsg_t *inMsg )
SAPI_ProcessZDOMsgs:
          CFI Block cfiBlock39 Using cfiCommon0
          CFI Function SAPI_ProcessZDOMsgs
        CODE
//  887 {
        FUNCALL SAPI_ProcessZDOMsgs, ZDO_ParseAddrRsp
        LOCFRAME ISTACK, 0, STACK
        LOCFRAME PSTACK, 0, STACK
        LOCFRAME XSTACK, 19, STACK
        LOCFRAME IOVERLAY, 0, STATIC
        LOCFRAME DOVERLAY, 0, STATIC
        ARGFRAME ISTACK, 0, STACK
        ARGFRAME PSTACK, 0, STACK
        ARGFRAME XSTACK, 19, STACK
        ARGFRAME IOVERLAY, 0, STATIC
        ARGFRAME DOVERLAY, 0, STATIC
        FUNCALL SAPI_ProcessZDOMsgs, zb_MTCallbackFindDeviceConfirm
        LOCFRAME ISTACK, 0, STACK
        LOCFRAME PSTACK, 0, STACK
        LOCFRAME XSTACK, 19, STACK
        LOCFRAME IOVERLAY, 0, STATIC
        LOCFRAME DOVERLAY, 0, STATIC
        ARGFRAME ISTACK, 0, STACK
        ARGFRAME PSTACK, 0, STACK
        ARGFRAME XSTACK, 19, STACK
        ARGFRAME IOVERLAY, 0, STATIC
        ARGFRAME DOVERLAY, 0, STATIC
        FUNCALL SAPI_ProcessZDOMsgs, ZDO_ParseEPListRsp
        LOCFRAME ISTACK, 0, STACK
        LOCFRAME PSTACK, 0, STACK
        LOCFRAME XSTACK, 19, STACK
        LOCFRAME IOVERLAY, 0, STATIC
        LOCFRAME DOVERLAY, 0, STATIC
        ARGFRAME ISTACK, 0, STACK
        ARGFRAME PSTACK, 0, STACK
        ARGFRAME XSTACK, 19, STACK
        ARGFRAME IOVERLAY, 0, STATIC
        ARGFRAME DOVERLAY, 0, STATIC
        FUNCALL SAPI_ProcessZDOMsgs, APSME_BindRequest
        LOCFRAME ISTACK, 0, STACK
        LOCFRAME PSTACK, 0, STACK
        LOCFRAME XSTACK, 20, STACK
        LOCFRAME IOVERLAY, 0, STATIC
        LOCFRAME DOVERLAY, 0, STATIC
        ARGFRAME ISTACK, 0, STACK
        ARGFRAME PSTACK, 0, STACK
        ARGFRAME XSTACK, 20, STACK
        ARGFRAME IOVERLAY, 0, STATIC
        ARGFRAME DOVERLAY, 0, STATIC
        FUNCALL SAPI_ProcessZDOMsgs, osal_stop_timerEx
        LOCFRAME ISTACK, 0, STACK
        LOCFRAME PSTACK, 0, STACK
        LOCFRAME XSTACK, 19, STACK
        LOCFRAME IOVERLAY, 0, STATIC
        LOCFRAME DOVERLAY, 0, STATIC
        ARGFRAME ISTACK, 0, STACK
        ARGFRAME PSTACK, 0, STACK
        ARGFRAME XSTACK, 19, STACK
        ARGFRAME IOVERLAY, 0, STATIC
        ARGFRAME DOVERLAY, 0, STATIC
        FUNCALL SAPI_ProcessZDOMsgs, osal_start_timerEx
        LOCFRAME ISTACK, 0, STACK
        LOCFRAME PSTACK, 0, STACK
        LOCFRAME XSTACK, 23, STACK
        LOCFRAME IOVERLAY, 0, STATIC
        LOCFRAME DOVERLAY, 0, STATIC
        ARGFRAME ISTACK, 0, STACK
        ARGFRAME PSTACK, 0, STACK
        ARGFRAME XSTACK, 23, STACK
        ARGFRAME IOVERLAY, 0, STATIC
        ARGFRAME DOVERLAY, 0, STATIC
        FUNCALL SAPI_ProcessZDOMsgs, ZDP_IEEEAddrReq
        LOCFRAME ISTACK, 0, STACK
        LOCFRAME PSTACK, 0, STACK
        LOCFRAME XSTACK, 19, STACK
        LOCFRAME IOVERLAY, 0, STATIC
        LOCFRAME DOVERLAY, 0, STATIC
        ARGFRAME ISTACK, 0, STACK
        ARGFRAME PSTACK, 0, STACK
        ARGFRAME XSTACK, 19, STACK
        ARGFRAME IOVERLAY, 0, STATIC
        ARGFRAME DOVERLAY, 0, STATIC
        FUNCALL SAPI_ProcessZDOMsgs, zb_MTCallbackBindConfirm
        LOCFRAME ISTACK, 0, STACK
        LOCFRAME PSTACK, 0, STACK
        LOCFRAME XSTACK, 19, STACK
        LOCFRAME IOVERLAY, 0, STATIC
        LOCFRAME DOVERLAY, 0, STATIC
        ARGFRAME ISTACK, 0, STACK
        ARGFRAME PSTACK, 0, STACK
        ARGFRAME XSTACK, 19, STACK
        ARGFRAME IOVERLAY, 0, STATIC
        ARGFRAME DOVERLAY, 0, STATIC
        REQUIRE ?V0
        REQUIRE ?V1
        MOV     A,#-0xa
        LCALL   ?BANKED_ENTER_XDATA
          CFI DPH0 load(1, XDATA, add(CFA_XSP16, literal(-1)))
          CFI DPL0 load(1, XDATA, add(CFA_XSP16, literal(-2)))
          CFI ?BRET_EXT load(1, XDATA, add(CFA_XSP16, literal(-3)))
          CFI ?RET_HIGH load(1, XDATA, add(CFA_XSP16, literal(-4)))
          CFI ?RET_LOW load(1, XDATA, add(CFA_XSP16, literal(-5)))
          CFI R7 load(1, XDATA, add(CFA_XSP16, literal(-6)))
          CFI V1 load(1, XDATA, add(CFA_XSP16, literal(-7)))
          CFI V0 load(1, XDATA, add(CFA_XSP16, literal(-8)))
          CFI VB load(1, XDATA, add(CFA_XSP16, literal(-9)))
          CFI R6 load(1, XDATA, add(CFA_XSP16, literal(-10)))
          CFI CFA_SP SP+0
          CFI CFA_XSP16 add(XSP16, 10)
        ; Saved register size: 10
        ; Auto size: 9
        MOV     A,#-0x9
        LCALL   ?ALLOC_XSTACK8
          CFI CFA_XSP16 add(XSP16, 19)
//  888   switch ( inMsg->clusterID )
        MOV     A,R2
        ADD     A,#0xc
        MOV     DPL,A
        CLR     A
        ADDC    A,R3
        MOV     DPH,A
        MOVX    A,@DPTR
        MOV     ?V0,A
        INC     DPTR
        MOVX    A,@DPTR
        MOV     ?V1,A
        MOV     R0,#?V0
        LCALL   ?US_SWITCH_SPARSE
`?<Jumptable for SAPI_ProcessZDOMsgs>_0`:
        DATA
        DATA16
        DATA
        DATA16
        DATA
        DATA16
        DW        0
        DATA
        DATA16
        DATA
        DATA16
        DATA
        DATA16
        DW        2
        DATA
        DATA16
        DATA
        DATA16
        DATA
        DATA16
        DW        32768
        DATA
        DATA16
        DATA
        DATA16
        DATA
        DATA16
        DW        ??SAPI_ProcessZDOMsgs_0
        DATA
        DATA16
        DATA
        DATA16
        DATA
        DATA16
        DW        32774
        DATA
        DATA16
        DATA
        DATA16
        DATA
        DATA16
        DW        ??SAPI_ProcessZDOMsgs_1
        DATA
        DATA16
        DATA
        DATA16
        DW        ??SAPI_ProcessZDOMsgs_2
        CODE
//  889   {
//  890     case NWK_addr_rsp:
//  891       {
//  892         // Send find device callback to application
//  893         ZDO_NwkIEEEAddrResp_t *pNwkAddrRsp = ZDO_ParseAddrRsp( inMsg );
??SAPI_ProcessZDOMsgs_0:
        ; Setup parameters for call to function ZDO_ParseAddrRsp
        LCALL   `??ZDO_ParseAddrRsp::?relay`; Banked call to: ZDO_ParseAddrRsp
        MOV     DPL,R2
        MOV     DPH,R3
//  894         SAPI_FindDeviceConfirm( ZB_IEEE_SEARCH, (uint8*)&pNwkAddrRsp->nwkAddr, pNwkAddrRsp->extAddr );
        ; Setup parameters for call to function zb_MTCallbackFindDeviceConfirm
        MOV     A,DPL
        ADD     A,#0x3
        MOV     R4,A
        CLR     A
        ADDC    A,DPH
        MOV     R5,A
        INC     DPTR
        MOV     R2,DPL
        MOV     R3,DPH
        MOV     R1,#0x1
        LCALL   `??zb_MTCallbackFindDeviceConfirm::?relay`; Banked call to: zb_MTCallbackFindDeviceConfirm
//  895       }
//  896       break;
        LJMP    ??SAPI_ProcessZDOMsgs_2 & 0xFFFF
//  897 
//  898     case Match_Desc_rsp:
//  899       {
//  900         zAddrType_t dstAddr;
//  901         ZDO_ActiveEndpointRsp_t *pRsp = ZDO_ParseEPListRsp( inMsg );
??SAPI_ProcessZDOMsgs_1:
        ; Setup parameters for call to function ZDO_ParseEPListRsp
        LCALL   `??ZDO_ParseEPListRsp::?relay`; Banked call to: ZDO_ParseEPListRsp
        MOV     ?V0,R2
        MOV     ?V1,R3
        MOV     R6,?V0
        MOV     R7,?V1
//  902 
//  903         if ( sapi_bindInProgress != 0xffff )
        MOV     DPTR,#sapi_bindInProgress
        MOVX    A,@DPTR
        CPL     A
        JNZ     ??SAPI_ProcessZDOMsgs_3
        INC     DPTR
        MOVX    A,@DPTR
        CPL     A
??SAPI_ProcessZDOMsgs_3:
        JNZ     $+5
        LJMP    ??SAPI_ProcessZDOMsgs_2 & 0xFFFF
//  904         {
//  905           // Create a binding table entry
//  906           dstAddr.addrMode = Addr16Bit;
        MOV     A,#0x8
        LCALL   ?XSTACK_DISP0_8
        MOV     A,#0x2
        MOVX    @DPTR,A
//  907           dstAddr.addr.shortAddr = pRsp->nwkAddr;
        MOV     DPL,R6
        MOV     DPH,R7
        INC     DPTR
        MOVX    A,@DPTR
        MOV     R0,A
        INC     DPTR
        MOVX    A,@DPTR
        MOV     R1,A
        MOV     DPL,?XSP + 0
        MOV     DPH,?XSP + 1
        MOV     A,R0
        MOVX    @DPTR,A
        INC     DPTR
        MOV     A,R1
        MOVX    @DPTR,A
//  908 
//  909           if ( APSME_BindRequest( sapi_epDesc.simpleDesc->EndPoint,
//  910                      sapi_bindInProgress, &dstAddr, pRsp->epList[0] ) == ZSuccess )
        ; Setup parameters for call to function APSME_BindRequest
        MOV     DPL,R6
        MOV     DPH,R7
        INC     DPTR
        INC     DPTR
        INC     DPTR
        INC     DPTR
        MOVX    A,@DPTR
        MOV     ?V0,A
        MOV     R0,#?V0
        LCALL   ?PUSH_XSTACK_I_ONE
          CFI CFA_XSP16 add(XSP16, 20)
        MOV     A,#0x1
        LCALL   ?XSTACK_DISP102_8
        MOV     DPTR,#sapi_bindInProgress
        LCALL   ?Subroutine3 & 0xFFFF
??CrossCallReturnLabel_16:
        LCALL   `??APSME_BindRequest::?relay`; Banked call to: APSME_BindRequest
        MOV     A,#0x1
        LCALL   ?DEALLOC_XSTACK8
          CFI CFA_XSP16 add(XSP16, 19)
        MOV     A,R1
        JNZ     ??SAPI_ProcessZDOMsgs_2
//  911           {
//  912             osal_stop_timerEx(sapi_TaskID,  ZB_BIND_TIMER);
        ; Setup parameters for call to function osal_stop_timerEx
        MOV     R2,#0x0
        MOV     R3,#0x20
        MOV     DPTR,#sapi_TaskID
        MOVX    A,@DPTR
        MOV     R1,A
        LCALL   `??osal_stop_timerEx::?relay`; Banked call to: osal_stop_timerEx
//  913             osal_start_timerEx( ZDAppTaskID, ZDO_NWK_UPDATE_NV, 250 );
        ; Setup parameters for call to function osal_start_timerEx
        MOV     DPTR,#__Constant_fa
        LCALL   ?PUSH_XSTACK8_X_FOUR
          CFI CFA_XSP16 add(XSP16, 23)
        MOV     R2,#0x0
        MOV     R3,#0x1
        MOV     DPTR,#ZDAppTaskID
        MOVX    A,@DPTR
        MOV     R1,A
        LCALL   `??osal_start_timerEx::?relay`; Banked call to: osal_start_timerEx
        MOV     A,#0x4
        LCALL   ?DEALLOC_XSTACK8
          CFI CFA_XSP16 add(XSP16, 19)
//  914 
//  915             // Find IEEE addr
//  916             ZDP_IEEEAddrReq( pRsp->nwkAddr, ZDP_ADDR_REQTYPE_SINGLE, 0, 0 );
        ; Setup parameters for call to function ZDP_IEEEAddrReq
        MOV     R5,#0x0
        MOV     R4,#0x0
        MOV     R1,#0x0
        MOV     DPL,R6
        MOV     DPH,R7
        LCALL   ??Subroutine9_0 & 0xFFFF
??CrossCallReturnLabel_7:
        LCALL   `??ZDP_IEEEAddrReq::?relay`; Banked call to: ZDP_IEEEAddrReq
//  917 #if defined ( MT_SAPI_CB_FUNC )
//  918             zb_MTCallbackBindConfirm( sapi_bindInProgress, ZB_SUCCESS );
        ; Setup parameters for call to function zb_MTCallbackBindConfirm
        MOV     R1,#0x0
        MOV     DPTR,#sapi_bindInProgress
        LCALL   ??Subroutine10_0 & 0xFFFF
??CrossCallReturnLabel_6:
        LCALL   `??zb_MTCallbackBindConfirm::?relay`; Banked call to: zb_MTCallbackBindConfirm
//  919 #endif              
//  920             // Send bind confirm callback to application
//  921 #if ( SAPI_CB_FUNC )
//  922             zb_BindConfirm( sapi_bindInProgress, ZB_SUCCESS );
//  923 #endif
//  924             sapi_bindInProgress = 0xffff;
        MOV     DPTR,#sapi_bindInProgress
        MOV     A,#-0x1
        MOVX    @DPTR,A
        INC     DPTR
        MOVX    @DPTR,A
//  925           }
//  926         }
//  927       }
//  928       break;
//  929   }
//  930 }
??SAPI_ProcessZDOMsgs_2:
        MOV     A,#0x9
        LJMP    ?Subroutine2 & 0xFFFF
          CFI EndBlock cfiBlock39
//  931 
//  932 /*********************************************************************
//  933  * @fn      SAPI_Init
//  934  *
//  935  * @brief   Initialization function for the Simple API Task.
//  936  *          This is called during initialization and should contain
//  937  *          any application specific initialization (ie. hardware
//  938  *          initialization/setup, table initialization, power up
//  939  *          notification ... ).
//  940  *
//  941  * @param   task_id - the ID assigned by OSAL.  This ID should be
//  942  *                    used to send messages and set timers.
//  943  *
//  944  * @return  none
//  945  */

        RSEG BANKED_CODE:CODE:NOROOT(0)
//  946 void SAPI_Init( byte task_id )
SAPI_Init:
          CFI Block cfiBlock40 Using cfiCommon0
          CFI Function SAPI_Init
        CODE
//  947 {
        FUNCALL SAPI_Init, afSetMatch
        LOCFRAME ISTACK, 0, STACK
        LOCFRAME PSTACK, 0, STACK
        LOCFRAME XSTACK, 9, STACK
        LOCFRAME IOVERLAY, 0, STATIC
        LOCFRAME DOVERLAY, 0, STATIC
        ARGFRAME ISTACK, 0, STACK
        ARGFRAME PSTACK, 0, STACK
        ARGFRAME XSTACK, 9, STACK
        ARGFRAME IOVERLAY, 0, STATIC
        ARGFRAME DOVERLAY, 0, STATIC
        FUNCALL SAPI_Init, ZDO_RegisterForZDOMsg
        LOCFRAME ISTACK, 0, STACK
        LOCFRAME PSTACK, 0, STACK
        LOCFRAME XSTACK, 9, STACK
        LOCFRAME IOVERLAY, 0, STATIC
        LOCFRAME DOVERLAY, 0, STATIC
        ARGFRAME ISTACK, 0, STACK
        ARGFRAME PSTACK, 0, STACK
        ARGFRAME XSTACK, 9, STACK
        ARGFRAME IOVERLAY, 0, STATIC
        ARGFRAME DOVERLAY, 0, STATIC
        FUNCALL SAPI_Init, ZDO_RegisterForZDOMsg
        LOCFRAME ISTACK, 0, STACK
        LOCFRAME PSTACK, 0, STACK
        LOCFRAME XSTACK, 9, STACK
        LOCFRAME IOVERLAY, 0, STATIC
        LOCFRAME DOVERLAY, 0, STATIC
        ARGFRAME ISTACK, 0, STACK
        ARGFRAME PSTACK, 0, STACK
        ARGFRAME XSTACK, 9, STACK
        ARGFRAME IOVERLAY, 0, STATIC
        ARGFRAME DOVERLAY, 0, STATIC
        MOV     A,#-0x9
        LCALL   ?BANKED_ENTER_XDATA
          CFI DPH0 load(1, XDATA, add(CFA_XSP16, literal(-1)))
          CFI DPL0 load(1, XDATA, add(CFA_XSP16, literal(-2)))
          CFI ?BRET_EXT load(1, XDATA, add(CFA_XSP16, literal(-3)))
          CFI ?RET_HIGH load(1, XDATA, add(CFA_XSP16, literal(-4)))
          CFI ?RET_LOW load(1, XDATA, add(CFA_XSP16, literal(-5)))
          CFI R7 load(1, XDATA, add(CFA_XSP16, literal(-6)))
          CFI V0 load(1, XDATA, add(CFA_XSP16, literal(-7)))
          CFI VB load(1, XDATA, add(CFA_XSP16, literal(-8)))
          CFI R6 load(1, XDATA, add(CFA_XSP16, literal(-9)))
          CFI CFA_SP SP+0
          CFI CFA_XSP16 add(XSP16, 9)
        ; Saved register size: 9
        ; Auto size: 0
        MOV     A,R1
//  948   sapi_TaskID = task_id;
        MOV     DPTR,#sapi_TaskID
        MOVX    @DPTR,A
//  949   sapi_bindInProgress = 0xffff;
        MOV     DPTR,#sapi_bindInProgress
        MOV     A,#-0x1
        MOVX    @DPTR,A
        INC     DPTR
        MOVX    @DPTR,A
//  950 
//  951   sapi_epDesc.task_id = &sapi_TaskID;
        MOV     DPTR,#sapi_epDesc + 1
        MOV     A,#sapi_TaskID & 0xff
        MOVX    @DPTR,A
        INC     DPTR
        MOV     A,#(sapi_TaskID >> 8) & 0xff
        MOVX    @DPTR,A
//  952   sapi_epDesc.endPoint = 0;
        MOV     DPTR,#sapi_epDesc
        CLR     A
        MOVX    @DPTR,A
//  953   
//  954 #if ( SAPI_CB_FUNC )
//  955   sapi_epDesc.endPoint = zb_SimpleDesc.EndPoint;
//  956   sapi_epDesc.task_id = &sapi_TaskID;
//  957   sapi_epDesc.simpleDesc = (SimpleDescriptionFormat_t *)&zb_SimpleDesc;
//  958   sapi_epDesc.latencyReq = noLatencyReqs;
//  959 
//  960   // Register the endpoint/interface description with the AF
//  961   afRegister( &sapi_epDesc );
//  962 #endif
//  963 
//  964   // Turn off match descriptor response by default
//  965   afSetMatch(sapi_epDesc.simpleDesc->EndPoint, FALSE);
        ; Setup parameters for call to function afSetMatch
        MOV     R2,A
        LCALL   ??Subroutine11_0 & 0xFFFF
??CrossCallReturnLabel_14:
        LCALL   `??afSetMatch::?relay`; Banked call to: afSetMatch
//  966 
//  967   // Register callback evetns from the ZDApp
//  968   ZDO_RegisterForZDOMsg( sapi_TaskID, NWK_addr_rsp );
        ; Setup parameters for call to function ZDO_RegisterForZDOMsg
        MOV     R2,#0x0
        MOV     R3,#-0x80
        MOV     DPTR,#sapi_TaskID
        MOVX    A,@DPTR
        MOV     R1,A
        LCALL   `??ZDO_RegisterForZDOMsg::?relay`; Banked call to: ZDO_RegisterForZDOMsg
//  969   ZDO_RegisterForZDOMsg( sapi_TaskID, Match_Desc_rsp );
        ; Setup parameters for call to function ZDO_RegisterForZDOMsg
        MOV     R2,#0x6
        MOV     R3,#-0x80
        MOV     DPTR,#sapi_TaskID
        MOVX    A,@DPTR
        MOV     R1,A
        LCALL   `??ZDO_RegisterForZDOMsg::?relay`; Banked call to: ZDO_RegisterForZDOMsg
//  970 
//  971 #if ( SAPI_CB_FUNC )
//  972 #if (defined HAL_KEY) && (HAL_KEY == TRUE)
//  973   // Register for HAL events
//  974   RegisterForKeys( sapi_TaskID );
//  975 
//  976   if ( HalKeyRead () == HAL_KEY_SW_5)
//  977   {
//  978     // If SW5 is pressed and held while powerup, force auto-start and nv-restore off and reset
//  979     uint8 startOptions = ZCD_STARTOPT_CLEAR_STATE | ZCD_STARTOPT_CLEAR_CONFIG;
//  980     zb_WriteConfiguration( ZCD_NV_STARTUP_OPTION, sizeof(uint8), &startOptions );
//  981     zb_SystemReset();
//  982   }
//  983 #endif // HAL_KEY
//  984 
//  985   // Set an event to start the application
//  986   osal_set_event(task_id, ZB_ENTRY_EVENT);
//  987 #endif
//  988 }
        LJMP    ?Subroutine0 & 0xFFFF
          CFI EndBlock cfiBlock40

        RSEG BANKED_CODE:CODE:NOROOT(0)
?Subroutine3:
          CFI Block cfiCond41 Using cfiCommon0
          CFI Function zb_BindDevice
          CFI Conditional ??CrossCallReturnLabel_15
          CFI R6 load(1, XDATA, add(CFA_XSP16, literal(-16)))
          CFI VB load(1, XDATA, add(CFA_XSP16, literal(-15)))
          CFI V0 load(1, XDATA, add(CFA_XSP16, literal(-14)))
          CFI V1 load(1, XDATA, add(CFA_XSP16, literal(-13)))
          CFI V2 load(1, XDATA, add(CFA_XSP16, literal(-12)))
          CFI V3 load(1, XDATA, add(CFA_XSP16, literal(-11)))
          CFI V4 load(1, XDATA, add(CFA_XSP16, literal(-10)))
          CFI V5 load(1, XDATA, add(CFA_XSP16, literal(-9)))
          CFI V6 load(1, XDATA, add(CFA_XSP16, literal(-8)))
          CFI V7 load(1, XDATA, add(CFA_XSP16, literal(-7)))
          CFI R7 load(1, XDATA, add(CFA_XSP16, literal(-6)))
          CFI ?RET_LOW load(1, XDATA, add(CFA_XSP16, literal(-5)))
          CFI ?RET_HIGH load(1, XDATA, add(CFA_XSP16, literal(-4)))
          CFI ?BRET_EXT load(1, XDATA, add(CFA_XSP16, literal(-3)))
          CFI DPL0 load(1, XDATA, add(CFA_XSP16, literal(-2)))
          CFI DPH0 load(1, XDATA, add(CFA_XSP16, literal(-1)))
          CFI CFA_SP SP+-2
          CFI CFA_XSP16 add(XSP16, 27)
          CFI Block cfiCond42 Using cfiCommon0
          CFI (cfiCond42) Function SAPI_ProcessZDOMsgs
          CFI (cfiCond42) Conditional ??CrossCallReturnLabel_16
          CFI (cfiCond42) R6 load(1, XDATA, add(CFA_XSP16, literal(-10)))
          CFI (cfiCond42) VB load(1, XDATA, add(CFA_XSP16, literal(-9)))
          CFI (cfiCond42) V0 load(1, XDATA, add(CFA_XSP16, literal(-8)))
          CFI (cfiCond42) V1 load(1, XDATA, add(CFA_XSP16, literal(-7)))
          CFI (cfiCond42) R7 load(1, XDATA, add(CFA_XSP16, literal(-6)))
          CFI (cfiCond42) ?RET_LOW load(1, XDATA, add(CFA_XSP16, literal(-5)))
          CFI (cfiCond42) ?RET_HIGH load(1, XDATA, add(CFA_XSP16, literal(-4)))
          CFI (cfiCond42) ?BRET_EXT load(1, XDATA, add(CFA_XSP16, literal(-3)))
          CFI (cfiCond42) DPL0 load(1, XDATA, add(CFA_XSP16, literal(-2)))
          CFI (cfiCond42) DPH0 load(1, XDATA, add(CFA_XSP16, literal(-1)))
          CFI (cfiCond42) CFA_SP SP+-2
          CFI (cfiCond42) CFA_XSP16 add(XSP16, 20)
          CFI Block cfiPicker43 Using cfiCommon1
          CFI (cfiPicker43) NoFunction
          CFI (cfiPicker43) Picker
        MOVX    A,@DPTR
        MOV     R2,A
        INC     DPTR
        MOVX    A,@DPTR
        MOV     R3,A
          CFI EndBlock cfiCond41
          CFI EndBlock cfiCond42
          CFI EndBlock cfiPicker43
        REQUIRE ??Subroutine11_0
        ; // Fall through to label ??Subroutine11_0

        RSEG BANKED_CODE:CODE:NOROOT(0)
??Subroutine11_0:
          CFI Block cfiCond44 Using cfiCommon0
          CFI Function zb_AllowBind
          CFI Conditional ??CrossCallReturnLabel_11
          CFI R6 load(1, XDATA, add(CFA_XSP16, literal(-12)))
          CFI VB load(1, XDATA, add(CFA_XSP16, literal(-11)))
          CFI V0 load(1, XDATA, add(CFA_XSP16, literal(-10)))
          CFI V1 load(1, XDATA, add(CFA_XSP16, literal(-9)))
          CFI V2 load(1, XDATA, add(CFA_XSP16, literal(-8)))
          CFI V3 load(1, XDATA, add(CFA_XSP16, literal(-7)))
          CFI R7 load(1, XDATA, add(CFA_XSP16, literal(-6)))
          CFI ?RET_LOW load(1, XDATA, add(CFA_XSP16, literal(-5)))
          CFI ?RET_HIGH load(1, XDATA, add(CFA_XSP16, literal(-4)))
          CFI ?BRET_EXT load(1, XDATA, add(CFA_XSP16, literal(-3)))
          CFI DPL0 load(1, XDATA, add(CFA_XSP16, literal(-2)))
          CFI DPH0 load(1, XDATA, add(CFA_XSP16, literal(-1)))
          CFI CFA_SP SP+-2
          CFI CFA_XSP16 add(XSP16, 12)
          CFI Block cfiCond45 Using cfiCommon0
          CFI (cfiCond45) Function zb_AllowBind
          CFI (cfiCond45) Conditional ??CrossCallReturnLabel_12
          CFI (cfiCond45) R6 load(1, XDATA, add(CFA_XSP16, literal(-12)))
          CFI (cfiCond45) VB load(1, XDATA, add(CFA_XSP16, literal(-11)))
          CFI (cfiCond45) V0 load(1, XDATA, add(CFA_XSP16, literal(-10)))
          CFI (cfiCond45) V1 load(1, XDATA, add(CFA_XSP16, literal(-9)))
          CFI (cfiCond45) V2 load(1, XDATA, add(CFA_XSP16, literal(-8)))
          CFI (cfiCond45) V3 load(1, XDATA, add(CFA_XSP16, literal(-7)))
          CFI (cfiCond45) R7 load(1, XDATA, add(CFA_XSP16, literal(-6)))
          CFI (cfiCond45) ?RET_LOW load(1, XDATA, add(CFA_XSP16, literal(-5)))
          CFI (cfiCond45) ?RET_HIGH load(1, XDATA, add(CFA_XSP16, literal(-4)))
          CFI (cfiCond45) ?BRET_EXT load(1, XDATA, add(CFA_XSP16, literal(-3)))
          CFI (cfiCond45) DPL0 load(1, XDATA, add(CFA_XSP16, literal(-2)))
          CFI (cfiCond45) DPH0 load(1, XDATA, add(CFA_XSP16, literal(-1)))
          CFI (cfiCond45) CFA_SP SP+-2
          CFI (cfiCond45) CFA_XSP16 add(XSP16, 12)
          CFI Block cfiCond46 Using cfiCommon0
          CFI (cfiCond46) Function SAPI_ProcessEvent
          CFI (cfiCond46) Conditional ??CrossCallReturnLabel_13
          CFI (cfiCond46) R6 load(1, XDATA, add(CFA_XSP16, literal(-14)))
          CFI (cfiCond46) VB load(1, XDATA, add(CFA_XSP16, literal(-13)))
          CFI (cfiCond46) V0 load(1, XDATA, add(CFA_XSP16, literal(-12)))
          CFI (cfiCond46) V1 load(1, XDATA, add(CFA_XSP16, literal(-11)))
          CFI (cfiCond46) V2 load(1, XDATA, add(CFA_XSP16, literal(-10)))
          CFI (cfiCond46) V3 load(1, XDATA, add(CFA_XSP16, literal(-9)))
          CFI (cfiCond46) V4 load(1, XDATA, add(CFA_XSP16, literal(-8)))
          CFI (cfiCond46) V5 load(1, XDATA, add(CFA_XSP16, literal(-7)))
          CFI (cfiCond46) R7 load(1, XDATA, add(CFA_XSP16, literal(-6)))
          CFI (cfiCond46) ?RET_LOW load(1, XDATA, add(CFA_XSP16, literal(-5)))
          CFI (cfiCond46) ?RET_HIGH load(1, XDATA, add(CFA_XSP16, literal(-4)))
          CFI (cfiCond46) ?BRET_EXT load(1, XDATA, add(CFA_XSP16, literal(-3)))
          CFI (cfiCond46) DPL0 load(1, XDATA, add(CFA_XSP16, literal(-2)))
          CFI (cfiCond46) DPH0 load(1, XDATA, add(CFA_XSP16, literal(-1)))
          CFI (cfiCond46) CFA_SP SP+-2
          CFI (cfiCond46) CFA_XSP16 add(XSP16, 15)
          CFI Block cfiCond47 Using cfiCommon0
          CFI (cfiCond47) Function SAPI_Init
          CFI (cfiCond47) Conditional ??CrossCallReturnLabel_14
          CFI (cfiCond47) R6 load(1, XDATA, add(CFA_XSP16, literal(-9)))
          CFI (cfiCond47) VB load(1, XDATA, add(CFA_XSP16, literal(-8)))
          CFI (cfiCond47) V0 load(1, XDATA, add(CFA_XSP16, literal(-7)))
          CFI (cfiCond47) R7 load(1, XDATA, add(CFA_XSP16, literal(-6)))
          CFI (cfiCond47) ?RET_LOW load(1, XDATA, add(CFA_XSP16, literal(-5)))
          CFI (cfiCond47) ?RET_HIGH load(1, XDATA, add(CFA_XSP16, literal(-4)))
          CFI (cfiCond47) ?BRET_EXT load(1, XDATA, add(CFA_XSP16, literal(-3)))
          CFI (cfiCond47) DPL0 load(1, XDATA, add(CFA_XSP16, literal(-2)))
          CFI (cfiCond47) DPH0 load(1, XDATA, add(CFA_XSP16, literal(-1)))
          CFI (cfiCond47) CFA_SP SP+-2
          CFI (cfiCond47) CFA_XSP16 add(XSP16, 9)
          CFI Block cfiCond48 Using cfiCommon0
          CFI (cfiCond48) Function zb_BindDevice
          CFI (cfiCond48) Conditional ??CrossCallReturnLabel_15
          CFI (cfiCond48) R6 load(1, XDATA, add(CFA_XSP16, literal(-16)))
          CFI (cfiCond48) VB load(1, XDATA, add(CFA_XSP16, literal(-15)))
          CFI (cfiCond48) V0 load(1, XDATA, add(CFA_XSP16, literal(-14)))
          CFI (cfiCond48) V1 load(1, XDATA, add(CFA_XSP16, literal(-13)))
          CFI (cfiCond48) V2 load(1, XDATA, add(CFA_XSP16, literal(-12)))
          CFI (cfiCond48) V3 load(1, XDATA, add(CFA_XSP16, literal(-11)))
          CFI (cfiCond48) V4 load(1, XDATA, add(CFA_XSP16, literal(-10)))
          CFI (cfiCond48) V5 load(1, XDATA, add(CFA_XSP16, literal(-9)))
          CFI (cfiCond48) V6 load(1, XDATA, add(CFA_XSP16, literal(-8)))
          CFI (cfiCond48) V7 load(1, XDATA, add(CFA_XSP16, literal(-7)))
          CFI (cfiCond48) R7 load(1, XDATA, add(CFA_XSP16, literal(-6)))
          CFI (cfiCond48) ?RET_LOW load(1, XDATA, add(CFA_XSP16, literal(-5)))
          CFI (cfiCond48) ?RET_HIGH load(1, XDATA, add(CFA_XSP16, literal(-4)))
          CFI (cfiCond48) ?BRET_EXT load(1, XDATA, add(CFA_XSP16, literal(-3)))
          CFI (cfiCond48) DPL0 load(1, XDATA, add(CFA_XSP16, literal(-2)))
          CFI (cfiCond48) DPH0 load(1, XDATA, add(CFA_XSP16, literal(-1)))
          CFI (cfiCond48) CFA_SP SP+-2
          CFI (cfiCond48) CFA_XSP16 add(XSP16, 27)
          CFI Block cfiCond49 Using cfiCommon0
          CFI (cfiCond49) Function SAPI_ProcessZDOMsgs
          CFI (cfiCond49) Conditional ??CrossCallReturnLabel_16
          CFI (cfiCond49) R6 load(1, XDATA, add(CFA_XSP16, literal(-10)))
          CFI (cfiCond49) VB load(1, XDATA, add(CFA_XSP16, literal(-9)))
          CFI (cfiCond49) V0 load(1, XDATA, add(CFA_XSP16, literal(-8)))
          CFI (cfiCond49) V1 load(1, XDATA, add(CFA_XSP16, literal(-7)))
          CFI (cfiCond49) R7 load(1, XDATA, add(CFA_XSP16, literal(-6)))
          CFI (cfiCond49) ?RET_LOW load(1, XDATA, add(CFA_XSP16, literal(-5)))
          CFI (cfiCond49) ?RET_HIGH load(1, XDATA, add(CFA_XSP16, literal(-4)))
          CFI (cfiCond49) ?BRET_EXT load(1, XDATA, add(CFA_XSP16, literal(-3)))
          CFI (cfiCond49) DPL0 load(1, XDATA, add(CFA_XSP16, literal(-2)))
          CFI (cfiCond49) DPH0 load(1, XDATA, add(CFA_XSP16, literal(-1)))
          CFI (cfiCond49) CFA_SP SP+-2
          CFI (cfiCond49) CFA_XSP16 add(XSP16, 20)
          CFI Block cfiPicker50 Using cfiCommon1
          CFI (cfiPicker50) NoFunction
          CFI (cfiPicker50) Picker
        LCALL   ?Subroutine7 & 0xFFFF
??CrossCallReturnLabel_18:
        MOV     R1,A
        RET
          CFI EndBlock cfiCond44
          CFI EndBlock cfiCond45
          CFI EndBlock cfiCond46
          CFI EndBlock cfiCond47
          CFI EndBlock cfiCond48
          CFI EndBlock cfiCond49
          CFI EndBlock cfiPicker50

        RSEG BANKED_CODE:CODE:NOROOT(0)
?Subroutine7:
          CFI Block cfiCond51 Using cfiCommon0
          CFI Function zb_SendDataRequest
          CFI Conditional ??CrossCallReturnLabel_17
          CFI R6 load(1, XDATA, add(CFA_XSP16, literal(-12)))
          CFI VB load(1, XDATA, add(CFA_XSP16, literal(-11)))
          CFI V0 load(1, XDATA, add(CFA_XSP16, literal(-10)))
          CFI V1 load(1, XDATA, add(CFA_XSP16, literal(-9)))
          CFI V2 load(1, XDATA, add(CFA_XSP16, literal(-8)))
          CFI V3 load(1, XDATA, add(CFA_XSP16, literal(-7)))
          CFI R7 load(1, XDATA, add(CFA_XSP16, literal(-6)))
          CFI ?RET_LOW load(1, XDATA, add(CFA_XSP16, literal(-5)))
          CFI ?RET_HIGH load(1, XDATA, add(CFA_XSP16, literal(-4)))
          CFI ?BRET_EXT load(1, XDATA, add(CFA_XSP16, literal(-3)))
          CFI DPL0 load(1, XDATA, add(CFA_XSP16, literal(-2)))
          CFI DPH0 load(1, XDATA, add(CFA_XSP16, literal(-1)))
          CFI CFA_SP SP+-2
          CFI CFA_XSP16 add(XSP16, 24)
          CFI Block cfiCond52 Using cfiCommon0
          CFI (cfiCond52) Function zb_BindDevice
          CFI (cfiCond52) Conditional ??CrossCallReturnLabel_18, ??CrossCallReturnLabel_15
          CFI (cfiCond52) R6 load(1, XDATA, add(CFA_XSP16, literal(-16)))
          CFI (cfiCond52) VB load(1, XDATA, add(CFA_XSP16, literal(-15)))
          CFI (cfiCond52) V0 load(1, XDATA, add(CFA_XSP16, literal(-14)))
          CFI (cfiCond52) V1 load(1, XDATA, add(CFA_XSP16, literal(-13)))
          CFI (cfiCond52) V2 load(1, XDATA, add(CFA_XSP16, literal(-12)))
          CFI (cfiCond52) V3 load(1, XDATA, add(CFA_XSP16, literal(-11)))
          CFI (cfiCond52) V4 load(1, XDATA, add(CFA_XSP16, literal(-10)))
          CFI (cfiCond52) V5 load(1, XDATA, add(CFA_XSP16, literal(-9)))
          CFI (cfiCond52) V6 load(1, XDATA, add(CFA_XSP16, literal(-8)))
          CFI (cfiCond52) V7 load(1, XDATA, add(CFA_XSP16, literal(-7)))
          CFI (cfiCond52) R7 load(1, XDATA, add(CFA_XSP16, literal(-6)))
          CFI (cfiCond52) ?RET_LOW load(1, XDATA, add(CFA_XSP16, literal(-5)))
          CFI (cfiCond52) ?RET_HIGH load(1, XDATA, add(CFA_XSP16, literal(-4)))
          CFI (cfiCond52) ?BRET_EXT load(1, XDATA, add(CFA_XSP16, literal(-3)))
          CFI (cfiCond52) DPL0 load(1, XDATA, add(CFA_XSP16, literal(-2)))
          CFI (cfiCond52) DPH0 load(1, XDATA, add(CFA_XSP16, literal(-1)))
          CFI (cfiCond52) CFA_SP SP+-4
          CFI (cfiCond52) CFA_XSP16 add(XSP16, 27)
          CFI Block cfiCond53 Using cfiCommon0
          CFI (cfiCond53) Function SAPI_ProcessZDOMsgs
          CFI (cfiCond53) Conditional ??CrossCallReturnLabel_18, ??CrossCallReturnLabel_16
          CFI (cfiCond53) R6 load(1, XDATA, add(CFA_XSP16, literal(-10)))
          CFI (cfiCond53) VB load(1, XDATA, add(CFA_XSP16, literal(-9)))
          CFI (cfiCond53) V0 load(1, XDATA, add(CFA_XSP16, literal(-8)))
          CFI (cfiCond53) V1 load(1, XDATA, add(CFA_XSP16, literal(-7)))
          CFI (cfiCond53) R7 load(1, XDATA, add(CFA_XSP16, literal(-6)))
          CFI (cfiCond53) ?RET_LOW load(1, XDATA, add(CFA_XSP16, literal(-5)))
          CFI (cfiCond53) ?RET_HIGH load(1, XDATA, add(CFA_XSP16, literal(-4)))
          CFI (cfiCond53) ?BRET_EXT load(1, XDATA, add(CFA_XSP16, literal(-3)))
          CFI (cfiCond53) DPL0 load(1, XDATA, add(CFA_XSP16, literal(-2)))
          CFI (cfiCond53) DPH0 load(1, XDATA, add(CFA_XSP16, literal(-1)))
          CFI (cfiCond53) CFA_SP SP+-4
          CFI (cfiCond53) CFA_XSP16 add(XSP16, 20)
          CFI Block cfiCond54 Using cfiCommon0
          CFI (cfiCond54) Function zb_AllowBind
          CFI (cfiCond54) Conditional ??CrossCallReturnLabel_18, ??CrossCallReturnLabel_11
          CFI (cfiCond54) R6 load(1, XDATA, add(CFA_XSP16, literal(-12)))
          CFI (cfiCond54) VB load(1, XDATA, add(CFA_XSP16, literal(-11)))
          CFI (cfiCond54) V0 load(1, XDATA, add(CFA_XSP16, literal(-10)))
          CFI (cfiCond54) V1 load(1, XDATA, add(CFA_XSP16, literal(-9)))
          CFI (cfiCond54) V2 load(1, XDATA, add(CFA_XSP16, literal(-8)))
          CFI (cfiCond54) V3 load(1, XDATA, add(CFA_XSP16, literal(-7)))
          CFI (cfiCond54) R7 load(1, XDATA, add(CFA_XSP16, literal(-6)))
          CFI (cfiCond54) ?RET_LOW load(1, XDATA, add(CFA_XSP16, literal(-5)))
          CFI (cfiCond54) ?RET_HIGH load(1, XDATA, add(CFA_XSP16, literal(-4)))
          CFI (cfiCond54) ?BRET_EXT load(1, XDATA, add(CFA_XSP16, literal(-3)))
          CFI (cfiCond54) DPL0 load(1, XDATA, add(CFA_XSP16, literal(-2)))
          CFI (cfiCond54) DPH0 load(1, XDATA, add(CFA_XSP16, literal(-1)))
          CFI (cfiCond54) CFA_SP SP+-4
          CFI (cfiCond54) CFA_XSP16 add(XSP16, 12)
          CFI Block cfiCond55 Using cfiCommon0
          CFI (cfiCond55) Function zb_AllowBind
          CFI (cfiCond55) Conditional ??CrossCallReturnLabel_18, ??CrossCallReturnLabel_12
          CFI (cfiCond55) R6 load(1, XDATA, add(CFA_XSP16, literal(-12)))
          CFI (cfiCond55) VB load(1, XDATA, add(CFA_XSP16, literal(-11)))
          CFI (cfiCond55) V0 load(1, XDATA, add(CFA_XSP16, literal(-10)))
          CFI (cfiCond55) V1 load(1, XDATA, add(CFA_XSP16, literal(-9)))
          CFI (cfiCond55) V2 load(1, XDATA, add(CFA_XSP16, literal(-8)))
          CFI (cfiCond55) V3 load(1, XDATA, add(CFA_XSP16, literal(-7)))
          CFI (cfiCond55) R7 load(1, XDATA, add(CFA_XSP16, literal(-6)))
          CFI (cfiCond55) ?RET_LOW load(1, XDATA, add(CFA_XSP16, literal(-5)))
          CFI (cfiCond55) ?RET_HIGH load(1, XDATA, add(CFA_XSP16, literal(-4)))
          CFI (cfiCond55) ?BRET_EXT load(1, XDATA, add(CFA_XSP16, literal(-3)))
          CFI (cfiCond55) DPL0 load(1, XDATA, add(CFA_XSP16, literal(-2)))
          CFI (cfiCond55) DPH0 load(1, XDATA, add(CFA_XSP16, literal(-1)))
          CFI (cfiCond55) CFA_SP SP+-4
          CFI (cfiCond55) CFA_XSP16 add(XSP16, 12)
          CFI Block cfiCond56 Using cfiCommon0
          CFI (cfiCond56) Function SAPI_ProcessEvent
          CFI (cfiCond56) Conditional ??CrossCallReturnLabel_18, ??CrossCallReturnLabel_13
          CFI (cfiCond56) R6 load(1, XDATA, add(CFA_XSP16, literal(-14)))
          CFI (cfiCond56) VB load(1, XDATA, add(CFA_XSP16, literal(-13)))
          CFI (cfiCond56) V0 load(1, XDATA, add(CFA_XSP16, literal(-12)))
          CFI (cfiCond56) V1 load(1, XDATA, add(CFA_XSP16, literal(-11)))
          CFI (cfiCond56) V2 load(1, XDATA, add(CFA_XSP16, literal(-10)))
          CFI (cfiCond56) V3 load(1, XDATA, add(CFA_XSP16, literal(-9)))
          CFI (cfiCond56) V4 load(1, XDATA, add(CFA_XSP16, literal(-8)))
          CFI (cfiCond56) V5 load(1, XDATA, add(CFA_XSP16, literal(-7)))
          CFI (cfiCond56) R7 load(1, XDATA, add(CFA_XSP16, literal(-6)))
          CFI (cfiCond56) ?RET_LOW load(1, XDATA, add(CFA_XSP16, literal(-5)))
          CFI (cfiCond56) ?RET_HIGH load(1, XDATA, add(CFA_XSP16, literal(-4)))
          CFI (cfiCond56) ?BRET_EXT load(1, XDATA, add(CFA_XSP16, literal(-3)))
          CFI (cfiCond56) DPL0 load(1, XDATA, add(CFA_XSP16, literal(-2)))
          CFI (cfiCond56) DPH0 load(1, XDATA, add(CFA_XSP16, literal(-1)))
          CFI (cfiCond56) CFA_SP SP+-4
          CFI (cfiCond56) CFA_XSP16 add(XSP16, 15)
          CFI Block cfiCond57 Using cfiCommon0
          CFI (cfiCond57) Function SAPI_Init
          CFI (cfiCond57) Conditional ??CrossCallReturnLabel_18, ??CrossCallReturnLabel_14
          CFI (cfiCond57) R6 load(1, XDATA, add(CFA_XSP16, literal(-9)))
          CFI (cfiCond57) VB load(1, XDATA, add(CFA_XSP16, literal(-8)))
          CFI (cfiCond57) V0 load(1, XDATA, add(CFA_XSP16, literal(-7)))
          CFI (cfiCond57) R7 load(1, XDATA, add(CFA_XSP16, literal(-6)))
          CFI (cfiCond57) ?RET_LOW load(1, XDATA, add(CFA_XSP16, literal(-5)))
          CFI (cfiCond57) ?RET_HIGH load(1, XDATA, add(CFA_XSP16, literal(-4)))
          CFI (cfiCond57) ?BRET_EXT load(1, XDATA, add(CFA_XSP16, literal(-3)))
          CFI (cfiCond57) DPL0 load(1, XDATA, add(CFA_XSP16, literal(-2)))
          CFI (cfiCond57) DPH0 load(1, XDATA, add(CFA_XSP16, literal(-1)))
          CFI (cfiCond57) CFA_SP SP+-4
          CFI (cfiCond57) CFA_XSP16 add(XSP16, 9)
          CFI Block cfiPicker58 Using cfiCommon1
          CFI (cfiPicker58) NoFunction
          CFI (cfiPicker58) Picker
        LCALL   ?Subroutine8 & 0xFFFF
??CrossCallReturnLabel_20:
        MOVX    A,@DPTR
        RET
          CFI EndBlock cfiCond51
          CFI EndBlock cfiCond52
          CFI EndBlock cfiCond53
          CFI EndBlock cfiCond54
          CFI EndBlock cfiCond55
          CFI EndBlock cfiCond56
          CFI EndBlock cfiCond57
          CFI EndBlock cfiPicker58

        RSEG BANKED_CODE:CODE:NOROOT(0)
?Subroutine8:
          CFI Block cfiCond59 Using cfiCommon0
          CFI Function zb_BindDevice
          CFI Conditional ??CrossCallReturnLabel_19, ??CrossCallReturnLabel_2
          CFI R6 load(1, XDATA, add(CFA_XSP16, literal(-16)))
          CFI VB load(1, XDATA, add(CFA_XSP16, literal(-15)))
          CFI V0 load(1, XDATA, add(CFA_XSP16, literal(-14)))
          CFI V1 load(1, XDATA, add(CFA_XSP16, literal(-13)))
          CFI V2 load(1, XDATA, add(CFA_XSP16, literal(-12)))
          CFI V3 load(1, XDATA, add(CFA_XSP16, literal(-11)))
          CFI V4 load(1, XDATA, add(CFA_XSP16, literal(-10)))
          CFI V5 load(1, XDATA, add(CFA_XSP16, literal(-9)))
          CFI V6 load(1, XDATA, add(CFA_XSP16, literal(-8)))
          CFI V7 load(1, XDATA, add(CFA_XSP16, literal(-7)))
          CFI R7 load(1, XDATA, add(CFA_XSP16, literal(-6)))
          CFI ?RET_LOW load(1, XDATA, add(CFA_XSP16, literal(-5)))
          CFI ?RET_HIGH load(1, XDATA, add(CFA_XSP16, literal(-4)))
          CFI ?BRET_EXT load(1, XDATA, add(CFA_XSP16, literal(-3)))
          CFI DPL0 load(1, XDATA, add(CFA_XSP16, literal(-2)))
          CFI DPH0 load(1, XDATA, add(CFA_XSP16, literal(-1)))
          CFI CFA_SP SP+-4
          CFI CFA_XSP16 add(XSP16, 33)
          CFI Block cfiCond60 Using cfiCommon0
          CFI (cfiCond60) Function zb_BindDevice
          CFI (cfiCond60) Conditional ??CrossCallReturnLabel_19, ??CrossCallReturnLabel_3
          CFI (cfiCond60) R6 load(1, XDATA, add(CFA_XSP16, literal(-16)))
          CFI (cfiCond60) VB load(1, XDATA, add(CFA_XSP16, literal(-15)))
          CFI (cfiCond60) V0 load(1, XDATA, add(CFA_XSP16, literal(-14)))
          CFI (cfiCond60) V1 load(1, XDATA, add(CFA_XSP16, literal(-13)))
          CFI (cfiCond60) V2 load(1, XDATA, add(CFA_XSP16, literal(-12)))
          CFI (cfiCond60) V3 load(1, XDATA, add(CFA_XSP16, literal(-11)))
          CFI (cfiCond60) V4 load(1, XDATA, add(CFA_XSP16, literal(-10)))
          CFI (cfiCond60) V5 load(1, XDATA, add(CFA_XSP16, literal(-9)))
          CFI (cfiCond60) V6 load(1, XDATA, add(CFA_XSP16, literal(-8)))
          CFI (cfiCond60) V7 load(1, XDATA, add(CFA_XSP16, literal(-7)))
          CFI (cfiCond60) R7 load(1, XDATA, add(CFA_XSP16, literal(-6)))
          CFI (cfiCond60) ?RET_LOW load(1, XDATA, add(CFA_XSP16, literal(-5)))
          CFI (cfiCond60) ?RET_HIGH load(1, XDATA, add(CFA_XSP16, literal(-4)))
          CFI (cfiCond60) ?BRET_EXT load(1, XDATA, add(CFA_XSP16, literal(-3)))
          CFI (cfiCond60) DPL0 load(1, XDATA, add(CFA_XSP16, literal(-2)))
          CFI (cfiCond60) DPH0 load(1, XDATA, add(CFA_XSP16, literal(-1)))
          CFI (cfiCond60) CFA_SP SP+-4
          CFI (cfiCond60) CFA_XSP16 add(XSP16, 33)
          CFI Block cfiCond61 Using cfiCommon0
          CFI (cfiCond61) Function zb_SendDataRequest
          CFI (cfiCond61) Conditional ??CrossCallReturnLabel_20, ??CrossCallReturnLabel_17
          CFI (cfiCond61) R6 load(1, XDATA, add(CFA_XSP16, literal(-12)))
          CFI (cfiCond61) VB load(1, XDATA, add(CFA_XSP16, literal(-11)))
          CFI (cfiCond61) V0 load(1, XDATA, add(CFA_XSP16, literal(-10)))
          CFI (cfiCond61) V1 load(1, XDATA, add(CFA_XSP16, literal(-9)))
          CFI (cfiCond61) V2 load(1, XDATA, add(CFA_XSP16, literal(-8)))
          CFI (cfiCond61) V3 load(1, XDATA, add(CFA_XSP16, literal(-7)))
          CFI (cfiCond61) R7 load(1, XDATA, add(CFA_XSP16, literal(-6)))
          CFI (cfiCond61) ?RET_LOW load(1, XDATA, add(CFA_XSP16, literal(-5)))
          CFI (cfiCond61) ?RET_HIGH load(1, XDATA, add(CFA_XSP16, literal(-4)))
          CFI (cfiCond61) ?BRET_EXT load(1, XDATA, add(CFA_XSP16, literal(-3)))
          CFI (cfiCond61) DPL0 load(1, XDATA, add(CFA_XSP16, literal(-2)))
          CFI (cfiCond61) DPH0 load(1, XDATA, add(CFA_XSP16, literal(-1)))
          CFI (cfiCond61) CFA_SP SP+-4
          CFI (cfiCond61) CFA_XSP16 add(XSP16, 24)
          CFI Block cfiCond62 Using cfiCommon0
          CFI (cfiCond62) Function zb_BindDevice
          CFI (cfiCond62) Conditional ??CrossCallReturnLabel_20, ??CrossCallReturnLabel_18, ??CrossCallReturnLabel_15
          CFI (cfiCond62) R6 load(1, XDATA, add(CFA_XSP16, literal(-16)))
          CFI (cfiCond62) VB load(1, XDATA, add(CFA_XSP16, literal(-15)))
          CFI (cfiCond62) V0 load(1, XDATA, add(CFA_XSP16, literal(-14)))
          CFI (cfiCond62) V1 load(1, XDATA, add(CFA_XSP16, literal(-13)))
          CFI (cfiCond62) V2 load(1, XDATA, add(CFA_XSP16, literal(-12)))
          CFI (cfiCond62) V3 load(1, XDATA, add(CFA_XSP16, literal(-11)))
          CFI (cfiCond62) V4 load(1, XDATA, add(CFA_XSP16, literal(-10)))
          CFI (cfiCond62) V5 load(1, XDATA, add(CFA_XSP16, literal(-9)))
          CFI (cfiCond62) V6 load(1, XDATA, add(CFA_XSP16, literal(-8)))
          CFI (cfiCond62) V7 load(1, XDATA, add(CFA_XSP16, literal(-7)))
          CFI (cfiCond62) R7 load(1, XDATA, add(CFA_XSP16, literal(-6)))
          CFI (cfiCond62) ?RET_LOW load(1, XDATA, add(CFA_XSP16, literal(-5)))
          CFI (cfiCond62) ?RET_HIGH load(1, XDATA, add(CFA_XSP16, literal(-4)))
          CFI (cfiCond62) ?BRET_EXT load(1, XDATA, add(CFA_XSP16, literal(-3)))
          CFI (cfiCond62) DPL0 load(1, XDATA, add(CFA_XSP16, literal(-2)))
          CFI (cfiCond62) DPH0 load(1, XDATA, add(CFA_XSP16, literal(-1)))
          CFI (cfiCond62) CFA_SP SP+-6
          CFI (cfiCond62) CFA_XSP16 add(XSP16, 27)
          CFI Block cfiCond63 Using cfiCommon0
          CFI (cfiCond63) Function SAPI_ProcessZDOMsgs
          CFI (cfiCond63) Conditional ??CrossCallReturnLabel_20, ??CrossCallReturnLabel_18, ??CrossCallReturnLabel_16
          CFI (cfiCond63) R6 load(1, XDATA, add(CFA_XSP16, literal(-10)))
          CFI (cfiCond63) VB load(1, XDATA, add(CFA_XSP16, literal(-9)))
          CFI (cfiCond63) V0 load(1, XDATA, add(CFA_XSP16, literal(-8)))
          CFI (cfiCond63) V1 load(1, XDATA, add(CFA_XSP16, literal(-7)))
          CFI (cfiCond63) R7 load(1, XDATA, add(CFA_XSP16, literal(-6)))
          CFI (cfiCond63) ?RET_LOW load(1, XDATA, add(CFA_XSP16, literal(-5)))
          CFI (cfiCond63) ?RET_HIGH load(1, XDATA, add(CFA_XSP16, literal(-4)))
          CFI (cfiCond63) ?BRET_EXT load(1, XDATA, add(CFA_XSP16, literal(-3)))
          CFI (cfiCond63) DPL0 load(1, XDATA, add(CFA_XSP16, literal(-2)))
          CFI (cfiCond63) DPH0 load(1, XDATA, add(CFA_XSP16, literal(-1)))
          CFI (cfiCond63) CFA_SP SP+-6
          CFI (cfiCond63) CFA_XSP16 add(XSP16, 20)
          CFI Block cfiCond64 Using cfiCommon0
          CFI (cfiCond64) Function zb_AllowBind
          CFI (cfiCond64) Conditional ??CrossCallReturnLabel_20, ??CrossCallReturnLabel_18, ??CrossCallReturnLabel_11
          CFI (cfiCond64) R6 load(1, XDATA, add(CFA_XSP16, literal(-12)))
          CFI (cfiCond64) VB load(1, XDATA, add(CFA_XSP16, literal(-11)))
          CFI (cfiCond64) V0 load(1, XDATA, add(CFA_XSP16, literal(-10)))
          CFI (cfiCond64) V1 load(1, XDATA, add(CFA_XSP16, literal(-9)))
          CFI (cfiCond64) V2 load(1, XDATA, add(CFA_XSP16, literal(-8)))
          CFI (cfiCond64) V3 load(1, XDATA, add(CFA_XSP16, literal(-7)))
          CFI (cfiCond64) R7 load(1, XDATA, add(CFA_XSP16, literal(-6)))
          CFI (cfiCond64) ?RET_LOW load(1, XDATA, add(CFA_XSP16, literal(-5)))
          CFI (cfiCond64) ?RET_HIGH load(1, XDATA, add(CFA_XSP16, literal(-4)))
          CFI (cfiCond64) ?BRET_EXT load(1, XDATA, add(CFA_XSP16, literal(-3)))
          CFI (cfiCond64) DPL0 load(1, XDATA, add(CFA_XSP16, literal(-2)))
          CFI (cfiCond64) DPH0 load(1, XDATA, add(CFA_XSP16, literal(-1)))
          CFI (cfiCond64) CFA_SP SP+-6
          CFI (cfiCond64) CFA_XSP16 add(XSP16, 12)
          CFI Block cfiCond65 Using cfiCommon0
          CFI (cfiCond65) Function zb_AllowBind
          CFI (cfiCond65) Conditional ??CrossCallReturnLabel_20, ??CrossCallReturnLabel_18, ??CrossCallReturnLabel_12
          CFI (cfiCond65) R6 load(1, XDATA, add(CFA_XSP16, literal(-12)))
          CFI (cfiCond65) VB load(1, XDATA, add(CFA_XSP16, literal(-11)))
          CFI (cfiCond65) V0 load(1, XDATA, add(CFA_XSP16, literal(-10)))
          CFI (cfiCond65) V1 load(1, XDATA, add(CFA_XSP16, literal(-9)))
          CFI (cfiCond65) V2 load(1, XDATA, add(CFA_XSP16, literal(-8)))
          CFI (cfiCond65) V3 load(1, XDATA, add(CFA_XSP16, literal(-7)))
          CFI (cfiCond65) R7 load(1, XDATA, add(CFA_XSP16, literal(-6)))
          CFI (cfiCond65) ?RET_LOW load(1, XDATA, add(CFA_XSP16, literal(-5)))
          CFI (cfiCond65) ?RET_HIGH load(1, XDATA, add(CFA_XSP16, literal(-4)))
          CFI (cfiCond65) ?BRET_EXT load(1, XDATA, add(CFA_XSP16, literal(-3)))
          CFI (cfiCond65) DPL0 load(1, XDATA, add(CFA_XSP16, literal(-2)))
          CFI (cfiCond65) DPH0 load(1, XDATA, add(CFA_XSP16, literal(-1)))
          CFI (cfiCond65) CFA_SP SP+-6
          CFI (cfiCond65) CFA_XSP16 add(XSP16, 12)
          CFI Block cfiCond66 Using cfiCommon0
          CFI (cfiCond66) Function SAPI_ProcessEvent
          CFI (cfiCond66) Conditional ??CrossCallReturnLabel_20, ??CrossCallReturnLabel_18, ??CrossCallReturnLabel_13
          CFI (cfiCond66) R6 load(1, XDATA, add(CFA_XSP16, literal(-14)))
          CFI (cfiCond66) VB load(1, XDATA, add(CFA_XSP16, literal(-13)))
          CFI (cfiCond66) V0 load(1, XDATA, add(CFA_XSP16, literal(-12)))
          CFI (cfiCond66) V1 load(1, XDATA, add(CFA_XSP16, literal(-11)))
          CFI (cfiCond66) V2 load(1, XDATA, add(CFA_XSP16, literal(-10)))
          CFI (cfiCond66) V3 load(1, XDATA, add(CFA_XSP16, literal(-9)))
          CFI (cfiCond66) V4 load(1, XDATA, add(CFA_XSP16, literal(-8)))
          CFI (cfiCond66) V5 load(1, XDATA, add(CFA_XSP16, literal(-7)))
          CFI (cfiCond66) R7 load(1, XDATA, add(CFA_XSP16, literal(-6)))
          CFI (cfiCond66) ?RET_LOW load(1, XDATA, add(CFA_XSP16, literal(-5)))
          CFI (cfiCond66) ?RET_HIGH load(1, XDATA, add(CFA_XSP16, literal(-4)))
          CFI (cfiCond66) ?BRET_EXT load(1, XDATA, add(CFA_XSP16, literal(-3)))
          CFI (cfiCond66) DPL0 load(1, XDATA, add(CFA_XSP16, literal(-2)))
          CFI (cfiCond66) DPH0 load(1, XDATA, add(CFA_XSP16, literal(-1)))
          CFI (cfiCond66) CFA_SP SP+-6
          CFI (cfiCond66) CFA_XSP16 add(XSP16, 15)
          CFI Block cfiCond67 Using cfiCommon0
          CFI (cfiCond67) Function SAPI_Init
          CFI (cfiCond67) Conditional ??CrossCallReturnLabel_20, ??CrossCallReturnLabel_18, ??CrossCallReturnLabel_14
          CFI (cfiCond67) R6 load(1, XDATA, add(CFA_XSP16, literal(-9)))
          CFI (cfiCond67) VB load(1, XDATA, add(CFA_XSP16, literal(-8)))
          CFI (cfiCond67) V0 load(1, XDATA, add(CFA_XSP16, literal(-7)))
          CFI (cfiCond67) R7 load(1, XDATA, add(CFA_XSP16, literal(-6)))
          CFI (cfiCond67) ?RET_LOW load(1, XDATA, add(CFA_XSP16, literal(-5)))
          CFI (cfiCond67) ?RET_HIGH load(1, XDATA, add(CFA_XSP16, literal(-4)))
          CFI (cfiCond67) ?BRET_EXT load(1, XDATA, add(CFA_XSP16, literal(-3)))
          CFI (cfiCond67) DPL0 load(1, XDATA, add(CFA_XSP16, literal(-2)))
          CFI (cfiCond67) DPH0 load(1, XDATA, add(CFA_XSP16, literal(-1)))
          CFI (cfiCond67) CFA_SP SP+-6
          CFI (cfiCond67) CFA_XSP16 add(XSP16, 9)
          CFI Block cfiPicker68 Using cfiCommon1
          CFI (cfiPicker68) NoFunction
          CFI (cfiPicker68) Picker
        MOV     DPTR,#sapi_epDesc + 3
        MOVX    A,@DPTR
        MOV     R0,A
        INC     DPTR
        MOVX    A,@DPTR
        MOV     DPH,A
        MOV     DPL,R0
        RET
          CFI EndBlock cfiCond59
          CFI EndBlock cfiCond60
          CFI EndBlock cfiCond61
          CFI EndBlock cfiCond62
          CFI EndBlock cfiCond63
          CFI EndBlock cfiCond64
          CFI EndBlock cfiCond65
          CFI EndBlock cfiCond66
          CFI EndBlock cfiCond67
          CFI EndBlock cfiPicker68
//  989 /*********************************************************************
//  990  * @fn      SAPI_SendCback
//  991  *
//  992  * @brief   Sends a message to the sapi task ( itself ) so that a
//  993  *           callback can be generated later.
//  994  *
//  995  * @return  none
//  996  */

        RSEG BANKED_CODE:CODE:NOROOT(0)
//  997 void SAPI_SendCback( uint8 event, uint8 status, uint16 data )
SAPI_SendCback:
          CFI Block cfiBlock69 Using cfiCommon0
          CFI Function SAPI_SendCback
        CODE
//  998 {
        FUNCALL SAPI_SendCback, osal_msg_allocate
        LOCFRAME ISTACK, 0, STACK
        LOCFRAME PSTACK, 0, STACK
        LOCFRAME XSTACK, 12, STACK
        LOCFRAME IOVERLAY, 0, STATIC
        LOCFRAME DOVERLAY, 0, STATIC
        ARGFRAME ISTACK, 0, STACK
        ARGFRAME PSTACK, 0, STACK
        ARGFRAME XSTACK, 12, STACK
        ARGFRAME IOVERLAY, 0, STATIC
        ARGFRAME DOVERLAY, 0, STATIC
        FUNCALL SAPI_SendCback, osal_msg_send
        LOCFRAME ISTACK, 0, STACK
        LOCFRAME PSTACK, 0, STACK
        LOCFRAME XSTACK, 12, STACK
        LOCFRAME IOVERLAY, 0, STATIC
        LOCFRAME DOVERLAY, 0, STATIC
        ARGFRAME ISTACK, 0, STACK
        ARGFRAME PSTACK, 0, STACK
        ARGFRAME XSTACK, 12, STACK
        ARGFRAME IOVERLAY, 0, STATIC
        ARGFRAME DOVERLAY, 0, STATIC
        REQUIRE ?V0
        REQUIRE ?V1
        REQUIRE ?V2
        REQUIRE ?V3
        MOV     A,#-0xc
        LCALL   ?BANKED_ENTER_XDATA
          CFI DPH0 load(1, XDATA, add(CFA_XSP16, literal(-1)))
          CFI DPL0 load(1, XDATA, add(CFA_XSP16, literal(-2)))
          CFI ?BRET_EXT load(1, XDATA, add(CFA_XSP16, literal(-3)))
          CFI ?RET_HIGH load(1, XDATA, add(CFA_XSP16, literal(-4)))
          CFI ?RET_LOW load(1, XDATA, add(CFA_XSP16, literal(-5)))
          CFI R7 load(1, XDATA, add(CFA_XSP16, literal(-6)))
          CFI V3 load(1, XDATA, add(CFA_XSP16, literal(-7)))
          CFI V2 load(1, XDATA, add(CFA_XSP16, literal(-8)))
          CFI V1 load(1, XDATA, add(CFA_XSP16, literal(-9)))
          CFI V0 load(1, XDATA, add(CFA_XSP16, literal(-10)))
          CFI VB load(1, XDATA, add(CFA_XSP16, literal(-11)))
          CFI R6 load(1, XDATA, add(CFA_XSP16, literal(-12)))
          CFI CFA_SP SP+0
          CFI CFA_XSP16 add(XSP16, 12)
        ; Saved register size: 12
        ; Auto size: 0
        MOV     ?V0,R1
        MOV     ?V1,R2
        MOV     A,R4
        MOV     R6,A
        MOV     A,R5
        MOV     R7,A
//  999   sapi_CbackEvent_t *pMsg;
// 1000 
// 1001   pMsg = (sapi_CbackEvent_t *)osal_msg_allocate( sizeof(sapi_CbackEvent_t) );
        ; Setup parameters for call to function osal_msg_allocate
        MOV     R2,#0x4
        MOV     R3,#0x0
        LCALL   `??osal_msg_allocate::?relay`; Banked call to: osal_msg_allocate
// 1002   if( pMsg )
        MOV     A,R2
        ORL     A,R3
        JZ      ??SAPI_SendCback_0
// 1003   {
// 1004     pMsg->hdr.event = event;
        MOV     DPL,R2
        MOV     DPH,R3
        MOV     A,?V0
        MOVX    @DPTR,A
// 1005     pMsg->hdr.status = status;
        INC     DPTR
        MOV     A,?V1
        MOVX    @DPTR,A
// 1006     pMsg->data = data;
        MOV     DPL,R2
        MOV     DPH,R3
        INC     DPTR
        INC     DPTR
        MOV     A,R6
        MOVX    @DPTR,A
        INC     DPTR
        MOV     A,R7
        MOVX    @DPTR,A
// 1007 
// 1008     osal_msg_send( sapi_TaskID, (uint8 *)pMsg );
        ; Setup parameters for call to function osal_msg_send
        MOV     DPTR,#sapi_TaskID
        MOVX    A,@DPTR
        MOV     R1,A
        LCALL   `??osal_msg_send::?relay`; Banked call to: osal_msg_send
// 1009   }
// 1010 
// 1011 }
??SAPI_SendCback_0:
        LJMP    ?Subroutine1 & 0xFFFF
          CFI EndBlock cfiBlock69

        RSEG XDATA_ROM_C:CONST:REORDER:NOROOT(0)
        DATA32
__Constant_fa:
        DD 250

        RSEG BANK_RELAYS:CODE:REORDER:NOROOT(0)
`??zb_SystemReset::?relay`:
        CODE
        LCALL   ?BDISPATCH
        DATA24
        DC24    zb_SystemReset

        RSEG BANK_RELAYS:CODE:REORDER:NOROOT(0)
`??zb_StartRequest::?relay`:
        CODE
        LCALL   ?BDISPATCH
        DATA24
        DC24    zb_StartRequest

        RSEG BANK_RELAYS:CODE:REORDER:NOROOT(0)
`??zb_BindDevice::?relay`:
        CODE
        LCALL   ?BDISPATCH
        DATA24
        DC24    zb_BindDevice

        RSEG BANK_RELAYS:CODE:REORDER:NOROOT(0)
`??zb_PermitJoiningRequest::?relay`:
        CODE
        LCALL   ?BDISPATCH
        DATA24
        DC24    zb_PermitJoiningRequest

        RSEG BANK_RELAYS:CODE:REORDER:NOROOT(0)
`??zb_AllowBind::?relay`:
        CODE
        LCALL   ?BDISPATCH
        DATA24
        DC24    zb_AllowBind

        RSEG BANK_RELAYS:CODE:REORDER:NOROOT(0)
`??zb_SendDataRequest::?relay`:
        CODE
        LCALL   ?BDISPATCH
        DATA24
        DC24    zb_SendDataRequest

        RSEG BANK_RELAYS:CODE:REORDER:NOROOT(0)
`??zb_ReadConfiguration::?relay`:
        CODE
        LCALL   ?BDISPATCH
        DATA24
        DC24    zb_ReadConfiguration

        RSEG BANK_RELAYS:CODE:REORDER:NOROOT(0)
`??zb_WriteConfiguration::?relay`:
        CODE
        LCALL   ?BDISPATCH
        DATA24
        DC24    zb_WriteConfiguration

        RSEG BANK_RELAYS:CODE:REORDER:NOROOT(0)
`??zb_GetDeviceInfo::?relay`:
        CODE
        LCALL   ?BDISPATCH
        DATA24
        DC24    zb_GetDeviceInfo

        RSEG BANK_RELAYS:CODE:REORDER:NOROOT(0)
`??zb_FindDeviceRequest::?relay`:
        CODE
        LCALL   ?BDISPATCH
        DATA24
        DC24    zb_FindDeviceRequest

        RSEG BANK_RELAYS:CODE:REORDER:NOROOT(0)
`??SAPI_SendDataConfirm::?relay`:
        CODE
        LCALL   ?BDISPATCH
        DATA24
        DC24    SAPI_SendDataConfirm

        RSEG BANK_RELAYS:CODE:REORDER:NOROOT(0)
`??SAPI_BindConfirm::?relay`:
        CODE
        LCALL   ?BDISPATCH
        DATA24
        DC24    SAPI_BindConfirm

        RSEG BANK_RELAYS:CODE:REORDER:NOROOT(0)
`??SAPI_ProcessEvent::?relay`:
        CODE
        LCALL   ?BDISPATCH
        DATA24
        DC24    SAPI_ProcessEvent

        RSEG BANK_RELAYS:CODE:REORDER:NOROOT(0)
`??SAPI_ProcessZDOMsgs::?relay`:
        CODE
        LCALL   ?BDISPATCH
        DATA24
        DC24    SAPI_ProcessZDOMsgs

        RSEG BANK_RELAYS:CODE:REORDER:NOROOT(0)
`??SAPI_Init::?relay`:
        CODE
        LCALL   ?BDISPATCH
        DATA24
        DC24    SAPI_Init

        RSEG BANK_RELAYS:CODE:REORDER:NOROOT(0)
`??SAPI_SendCback::?relay`:
        CODE
        LCALL   ?BDISPATCH
        DATA24
        DC24    SAPI_SendCback

        END
// 1012 
// 1013 #if OSAL_SAPI
// 1014 /*********************************************************************
// 1015  * @fn      osalInitTasks
// 1016  *
// 1017  * @brief   This function invokes the initialization function for each task.
// 1018  *
// 1019  * @param   void
// 1020  *
// 1021  * @return  none
// 1022  */
// 1023 void osalInitTasks( void )
// 1024 {
// 1025   uint8 taskID = 0;
// 1026 
// 1027   tasksEvents = (uint16 *)osal_mem_alloc( sizeof( uint16 ) * tasksCnt);
// 1028   osal_memset( tasksEvents, 0, (sizeof( uint16 ) * tasksCnt));
// 1029 
// 1030   macTaskInit( taskID++ );
// 1031   nwk_init( taskID++ );
// 1032   Hal_Init( taskID++ );
// 1033 #if defined( MT_TASK )
// 1034   MT_TaskInit( taskID++ );
// 1035 #endif
// 1036   APS_Init( taskID++ );
// 1037   ZDApp_Init( taskID++ );
// 1038   SAPI_Init( taskID );
// 1039 }
// 1040 #endif
// 1041 
// 1042 /*********************************************************************
// 1043 *********************************************************************/
// 1044 
// 
// 2 051 bytes in segment BANKED_CODE
//    96 bytes in segment BANK_RELAYS
//     4 bytes in segment XDATA_ROM_C
//     9 bytes in segment XDATA_Z
// 
// 2 147 bytes of CODE  memory
//     0 bytes of CONST memory (+ 4 bytes shared)
//     9 bytes of XDATA memory
//
//Errors: none
//Warnings: none
