///////////////////////////////////////////////////////////////////////////////
//
// IAR C/C++ Compiler V9.30.1.3056 for 8051               21/Nov/2018  13:52:16
// Copyright 2004-2015 IAR Systems AB.
// Standalone license - IAR Embedded Workbench for 8051
//
//    Core               =  plain
//    Code model         =  banked
//    Data model         =  large
//    Calling convention =  xdata reentrant
//    Constant location  =  data_rom
//    Dptr setup         =  1,16
//                          
//    Source file        =  
//        D:\1.embedded\kit\cc2530\Reference\Z-Stack Mesh
//        1.0.0\Components\stack\zdo\ZDConfig.c
//    Command line       =  
//        -f "D:\1.embedded\kit\cc2530\Reference\Z-Stack Mesh
//        1.0.0\Projects\zstack\ZNP\CC253x\..\Source\znp.cfg"
//        (-DMAC_CFG_APP_PENDING_QUEUE=TRUE
//        "-DZSTACK_DEVICE_BUILD=(DEVICE_BUILD_COORDINATOR |
//        DEVICE_BUILD_ROUTER | DEVICE_BUILD_ENDDEVICE)" -DNWK_AUTO_POLL
//        -DZNP_RUN_WDOG=FALSE -DZNP_UART_BAUD=HAL_UART_BR_115200 -DZIGBEEPRO
//        -DZIGBEE_FRAGMENTATION -DINTER_PAN -DOSAL_CLOCK -DOSAL_SAPI=FALSE
//        -DSAPI_CB_FUNC=FALSE -DHOLD_AUTO_START -DNV_RESTORE -DNV_INIT
//        -DNUM_DISC_ATTEMPTS=0 -DMT_UTIL_FUNC -DMT_SYS_FUNC -DMT_AF_FUNC
//        -DMT_SAPI_FUNC -DMT_SAPI_CB_FUNC -DMT_ZDO_CB_FUNC -DMT_ZDO_FUNC
//        -DMT_ZDO_MGMT -DMT_ZDO_EXTENSIONS -DMT_APP_FUNC) -f
//        "D:\1.embedded\kit\cc2530\Reference\Z-Stack Mesh
//        1.0.0\Projects\zstack\ZNP\CC253x\..\..\Tools\CC2530DB\f8wConfig.cfg"
//        (-DZIGBEEPRO -DSECURE=1 -DZG_SECURE_DYNAMIC=0 -DREFLECTOR
//        -DDEFAULT_CHANLIST=0x00000800 -DZDAPP_CONFIG_PAN_ID=0xFFFF
//        -DNWK_START_DELAY=100 -DEXTENDED_JOINING_RANDOM_MASK=0x007F
//        -DBEACON_REQUEST_DELAY=100 -DBEACON_REQ_DELAY_MASK=0x00FF
//        -DLINK_STATUS_JITTER_MASK=0x007F -DROUTE_EXPIRY_TIME=30
//        -DAPSC_ACK_WAIT_DURATION_POLLED=3000 -DNWK_INDIRECT_MSG_TIMEOUT=7
//        -DMAX_RREQ_ENTRIES=8 -DAPSC_MAX_FRAME_RETRIES=3
//        -DNWK_MAX_DATA_RETRIES=2 -DMAX_POLL_FAILURE_RETRIES=2 -DMAX_BCAST=9
//        -DAPS_MAX_GROUPS=16 -DMAX_RTG_ENTRIES=40 -DNWK_MAX_BINDING_ENTRIES=4
//        -DMAX_BINDING_CLUSTER_IDS=4 "-DDEFAULT_KEY={0x01, 0x03, 0x05, 0x07,
//        0x09, 0x0B, 0x0D, 0x0F, 0x00, 0x02, 0x04, 0x06, 0x08, 0x0A, 0x0C,
//        0x0D}" -DMAC_MAX_FRAME_SIZE=116 -DZDNWKMGR_MIN_TRANSMISSIONS=20
//        "-DCONST=const __code" -DGENERIC=__generic -DRFD_RCVC_ALWAYS_ON=FALSE
//        -DPOLL_RATE=1000 -DQUEUED_POLL_RATE=100 -DRESPONSE_POLL_RATE=100
//        -DREJOIN_POLL_RATE=440) -f
//        "D:\1.embedded\kit\cc2530\Reference\Z-Stack Mesh
//        1.0.0\Projects\zstack\ZNP\CC253x\..\..\Tools\CC2530DB\f8wZCL.cfg"
//        "D:\1.embedded\kit\cc2530\Reference\Z-Stack Mesh
//        1.0.0\Components\stack\zdo\ZDConfig.c" -D FEATURE_SYSTEM_STATS -D
//        POWER_SAVING -lC "D:\1.embedded\kit\cc2530\Reference\Z-Stack Mesh
//        1.0.0\Projects\zstack\ZNP\CC253x\CC2530-Debug\List" -lA
//        "D:\1.embedded\kit\cc2530\Reference\Z-Stack Mesh
//        1.0.0\Projects\zstack\ZNP\CC253x\CC2530-Debug\List" --diag_suppress
//        Pe001,Pa010 -o "D:\1.embedded\kit\cc2530\Reference\Z-Stack Mesh
//        1.0.0\Projects\zstack\ZNP\CC253x\CC2530-Debug\Obj" -e
//        --no_code_motion --debug --core=plain --dptr=16,1 --data_model=large
//        --code_model=banked --calling_convention=xdata_reentrant
//        --place_constants=data_rom --nr_virtual_regs 16 -I
//        "D:\1.embedded\kit\cc2530\Reference\Z-Stack Mesh
//        1.0.0\Projects\zstack\ZNP\CC253x\" -I
//        "D:\1.embedded\kit\cc2530\Reference\Z-Stack Mesh
//        1.0.0\Projects\zstack\ZNP\CC253x\Source\" -I
//        "D:\1.embedded\kit\cc2530\Reference\Z-Stack Mesh
//        1.0.0\Projects\zstack\ZNP\CC253x\..\Source\" -I
//        "D:\1.embedded\kit\cc2530\Reference\Z-Stack Mesh
//        1.0.0\Projects\zstack\ZNP\CC253x\..\..\SE\Source\" -I
//        "D:\1.embedded\kit\cc2530\Reference\Z-Stack Mesh
//        1.0.0\Projects\zstack\ZNP\CC253x\..\..\ZMain\TI2530ZNP\" -I
//        "D:\1.embedded\kit\cc2530\Reference\Z-Stack Mesh
//        1.0.0\Projects\zstack\ZNP\CC253x\..\..\..\..\Components\hal\include\"
//        -I "D:\1.embedded\kit\cc2530\Reference\Z-Stack Mesh
//        1.0.0\Projects\zstack\ZNP\CC253x\..\..\..\..\Components\hal\target\CC2530ZNP\"
//        -I "D:\1.embedded\kit\cc2530\Reference\Z-Stack Mesh
//        1.0.0\Projects\zstack\ZNP\CC253x\..\..\..\..\Components\mac\include\"
//        -I "D:\1.embedded\kit\cc2530\Reference\Z-Stack Mesh
//        1.0.0\Projects\zstack\ZNP\CC253x\..\..\..\..\Components\mac\high_level\"
//        -I "D:\1.embedded\kit\cc2530\Reference\Z-Stack Mesh
//        1.0.0\Projects\zstack\ZNP\CC253x\..\..\..\..\Components\mac\low_level\srf04\"
//        -I "D:\1.embedded\kit\cc2530\Reference\Z-Stack Mesh
//        1.0.0\Projects\zstack\ZNP\CC253x\..\..\..\..\Components\mac\low_level\srf04\single_chip\"
//        -I "D:\1.embedded\kit\cc2530\Reference\Z-Stack Mesh
//        1.0.0\Projects\zstack\ZNP\CC253x\..\..\..\..\Components\mt\" -I
//        "D:\1.embedded\kit\cc2530\Reference\Z-Stack Mesh
//        1.0.0\Projects\zstack\ZNP\CC253x\..\..\..\..\Components\osal\include\"
//        -I "D:\1.embedded\kit\cc2530\Reference\Z-Stack Mesh
//        1.0.0\Projects\zstack\ZNP\CC253x\..\..\..\..\Components\services\saddr\"
//        -I "D:\1.embedded\kit\cc2530\Reference\Z-Stack Mesh
//        1.0.0\Projects\zstack\ZNP\CC253x\..\..\..\..\Components\services\sdata\"
//        -I "D:\1.embedded\kit\cc2530\Reference\Z-Stack Mesh
//        1.0.0\Projects\zstack\ZNP\CC253x\..\..\..\..\Components\stack\af\" -I
//        "D:\1.embedded\kit\cc2530\Reference\Z-Stack Mesh
//        1.0.0\Projects\zstack\ZNP\CC253x\..\..\..\..\Components\stack\nwk\"
//        -I "D:\1.embedded\kit\cc2530\Reference\Z-Stack Mesh
//        1.0.0\Projects\zstack\ZNP\CC253x\..\..\..\..\Components\stack\sapi\"
//        -I "D:\1.embedded\kit\cc2530\Reference\Z-Stack Mesh
//        1.0.0\Projects\zstack\ZNP\CC253x\..\..\..\..\Components\stack\sec\"
//        -I "D:\1.embedded\kit\cc2530\Reference\Z-Stack Mesh
//        1.0.0\Projects\zstack\ZNP\CC253x\..\..\..\..\Components\stack\sys\"
//        -I "D:\1.embedded\kit\cc2530\Reference\Z-Stack Mesh
//        1.0.0\Projects\zstack\ZNP\CC253x\..\..\..\..\Components\stack\zcl\"
//        -I "D:\1.embedded\kit\cc2530\Reference\Z-Stack Mesh
//        1.0.0\Projects\zstack\ZNP\CC253x\..\..\..\..\Components\stack\zdo\"
//        -I "D:\1.embedded\kit\cc2530\Reference\Z-Stack Mesh
//        1.0.0\Projects\zstack\ZNP\CC253x\..\..\..\..\Components\zmac\" -I
//        "D:\1.embedded\kit\cc2530\Reference\Z-Stack Mesh
//        1.0.0\Projects\zstack\ZNP\CC253x\..\..\..\..\Components\zmac\f8w\"
//        -Ohz --require_prototypes
//    List file          =  
//        D:\1.embedded\kit\cc2530\Reference\Z-Stack Mesh
//        1.0.0\Projects\zstack\ZNP\CC253x\CC2530-Debug\List\ZDConfig.s51
//
///////////////////////////////////////////////////////////////////////////////

        NAME ZDConfig

        RTMODEL "__SystemLibrary", "CLib"
        RTMODEL "__calling_convention", "xdata_reentrant"
        RTMODEL "__code_model", "banked"
        RTMODEL "__core", "plain"
        RTMODEL "__data_model", "large"
        RTMODEL "__dptr_size", "16"
        RTMODEL "__extended_stack", "disabled"
        RTMODEL "__location_for_constants", "data"
        RTMODEL "__number_of_dptrs", "1"
        RTMODEL "__rt_version", "1"

        RSEG DOVERLAY:DATA:NOROOT(0)
        RSEG IOVERLAY:IDATA:NOROOT(0)
        RSEG ISTACK:IDATA:NOROOT(0)
        RSEG PSTACK:XDATA:NOROOT(0)
        RSEG XSTACK:XDATA:NOROOT(0)

        EXTERN ?BDISPATCH
        EXTERN ?BRET
        EXTERN __INIT_XDATA_Z

        PUBLIC `??ZDConfig_InitDescriptors::?relay`
        FUNCTION `??ZDConfig_InitDescriptors::?relay`,0203H
        PUBLIC `??ZDConfig_UpdateNodeDescriptor::?relay`
        FUNCTION `??ZDConfig_UpdateNodeDescriptor::?relay`,0203H
        PUBLIC `??ZDConfig_UpdatePowerDescriptor::?relay`
        FUNCTION `??ZDConfig_UpdatePowerDescriptor::?relay`,0203H
        PUBLIC ZDConfig_InitDescriptors
        FUNCTION ZDConfig_InitDescriptors,021203H
        ARGFRAME XSTACK, 0, STACK
        LOCFRAME ISTACK, 2, STACK
        PUBLIC ZDConfig_UpdateNodeDescriptor
        FUNCTION ZDConfig_UpdateNodeDescriptor,0203H
        ARGFRAME XSTACK, 0, STACK
        ARGFRAME IOVERLAY, 0, STATIC
        ARGFRAME DOVERLAY, 0, STATIC
        LOCFRAME ISTACK, 2, STACK
        PUBLIC ZDConfig_UpdatePowerDescriptor
        FUNCTION ZDConfig_UpdatePowerDescriptor,0203H
        ARGFRAME XSTACK, 0, STACK
        ARGFRAME IOVERLAY, 0, STATIC
        ARGFRAME DOVERLAY, 0, STATIC
        LOCFRAME ISTACK, 2, STACK
        PUBLIC ZDO_Config_Node_Descriptor
        PUBLIC ZDO_Config_Power_Descriptor
        
          CFI Names cfiNames0
          CFI StackFrame CFA_SP SP IDATA
          CFI StackFrame CFA_PSP16 PSP16 XDATA
          CFI StackFrame CFA_XSP16 XSP16 XDATA
          CFI StaticOverlayFrame CFA_IOVERLAY IOVERLAY
          CFI StaticOverlayFrame CFA_DOVERLAY DOVERLAY
          CFI Resource `PSW.CY`:1, `B.BR0`:1, `B.BR1`:1, `B.BR2`:1, `B.BR3`:1
          CFI Resource `B.BR4`:1, `B.BR5`:1, `B.BR6`:1, `B.BR7`:1, `VB.BR8`:1
          CFI Resource `VB.BR9`:1, `VB.BR10`:1, `VB.BR11`:1, `VB.BR12`:1
          CFI Resource `VB.BR13`:1, `VB.BR14`:1, `VB.BR15`:1, VB:8, B:8, A:8
          CFI Resource PSW:8, DPL0:8, DPH0:8, R0:8, R1:8, R2:8, R3:8, R4:8, R5:8
          CFI Resource R6:8, R7:8, V0:8, V1:8, V2:8, V3:8, V4:8, V5:8, V6:8, V7:8
          CFI Resource V8:8, V9:8, V10:8, V11:8, V12:8, V13:8, V14:8, V15:8, SP:8
          CFI Resource PSPH:8, PSPL:8, PSP16:16, XSPH:8, XSPL:8, XSP16:16
          CFI VirtualResource ?RET:24
          CFI Resource ?BRET_EXT:8
          CFI VirtualResource ?RET_HIGH:8, ?RET_LOW:8
          CFI ResourceParts PSP16 PSPH, PSPL
          CFI ResourceParts XSP16 XSPH, XSPL
          CFI ResourceParts ?RET ?BRET_EXT, ?RET_HIGH, ?RET_LOW
          CFI EndNames cfiNames0
        
          CFI Common cfiCommon0 Using cfiNames0
          CFI CodeAlign 1
          CFI DataAlign -1
          CFI ReturnAddress ?RET CODE
          CFI CFA_DOVERLAY Used
          CFI CFA_IOVERLAY Used
          CFI CFA_SP SP+-3
          CFI CFA_PSP16 PSP16+0
          CFI CFA_XSP16 XSP16+0
          CFI `PSW.CY` SameValue
          CFI `B.BR0` SameValue
          CFI `B.BR1` SameValue
          CFI `B.BR2` SameValue
          CFI `B.BR3` SameValue
          CFI `B.BR4` SameValue
          CFI `B.BR5` SameValue
          CFI `B.BR6` SameValue
          CFI `B.BR7` SameValue
          CFI `VB.BR8` SameValue
          CFI `VB.BR9` SameValue
          CFI `VB.BR10` SameValue
          CFI `VB.BR11` SameValue
          CFI `VB.BR12` SameValue
          CFI `VB.BR13` SameValue
          CFI `VB.BR14` SameValue
          CFI `VB.BR15` SameValue
          CFI VB SameValue
          CFI B Undefined
          CFI A Undefined
          CFI PSW SameValue
          CFI DPL0 SameValue
          CFI DPH0 SameValue
          CFI R0 Undefined
          CFI R1 Undefined
          CFI R2 Undefined
          CFI R3 Undefined
          CFI R4 Undefined
          CFI R5 Undefined
          CFI R6 SameValue
          CFI R7 SameValue
          CFI V0 SameValue
          CFI V1 SameValue
          CFI V2 SameValue
          CFI V3 SameValue
          CFI V4 SameValue
          CFI V5 SameValue
          CFI V6 SameValue
          CFI V7 SameValue
          CFI V8 SameValue
          CFI V9 SameValue
          CFI V10 SameValue
          CFI V11 SameValue
          CFI V12 SameValue
          CFI V13 SameValue
          CFI V14 SameValue
          CFI V15 SameValue
          CFI PSPH Undefined
          CFI PSPL Undefined
          CFI XSPH Undefined
          CFI XSPL Undefined
          CFI ?RET Concat
          CFI ?BRET_EXT Frame(CFA_SP, 3)
          CFI ?RET_HIGH Frame(CFA_SP, 2)
          CFI ?RET_LOW Frame(CFA_SP, 1)
          CFI EndCommon cfiCommon0
        
ZDConfig_InitDescriptors SYMBOL "ZDConfig_InitDescriptors"
`??ZDConfig_InitDescriptors::?relay` SYMBOL "?relay", ZDConfig_InitDescriptors
ZDConfig_UpdateNodeDescriptor SYMBOL "ZDConfig_UpdateNodeDescriptor"
`??ZDConfig_UpdateNodeDescriptor::?relay` SYMBOL "?relay", ZDConfig_UpdateNodeDescriptor
ZDConfig_UpdatePowerDescriptor SYMBOL "ZDConfig_UpdatePowerDescriptor"
`??ZDConfig_UpdatePowerDescriptor::?relay` SYMBOL "?relay", ZDConfig_UpdatePowerDescriptor

        EXTERN zgDeviceLogicalType
        EXTERN zgPollRate

// D:\1.embedded\kit\cc2530\Reference\Z-Stack Mesh 1.0.0\Components\stack\zdo\ZDConfig.c
//    1 /**************************************************************************************************
//    2   Filename:       ZDConfig.c
//    3   Revised:        $Date: 2013-05-07 13:02:49 -0700 (Tue, 07 May 2013) $
//    4   Revision:       $Revision: 34167 $
//    5 
//    6 
//    7   Description:    This file contains the configuration attributes for the Zigbee Device Object.
//    8                   These are references to Configuration items that MUST be defined in ZDApp.c.
//    9                   The names mustn't change.
//   10 
//   11 
//   12   Copyright 2004-2013 Texas Instruments Incorporated. All rights reserved.
//   13 
//   14   IMPORTANT: Your use of this Software is limited to those specific rights
//   15   granted under the terms of a software license agreement between the user
//   16   who downloaded the software, his/her employer (which must be your employer)
//   17   and Texas Instruments Incorporated (the "License").  You may not use this
//   18   Software unless you agree to abide by the terms of the License. The License
//   19   limits your use, and you acknowledge, that the Software may not be modified,
//   20   copied or distributed unless embedded on a Texas Instruments microcontroller
//   21   or used solely and exclusively in conjunction with a Texas Instruments radio
//   22   frequency transceiver, which is integrated into your product.  Other than for
//   23   the foregoing purpose, you may not use, reproduce, copy, prepare derivative
//   24   works of, modify, distribute, perform, display or sell this Software and/or
//   25   its documentation for any purpose.
//   26 
//   27   YOU FURTHER ACKNOWLEDGE AND AGREE THAT THE SOFTWARE AND DOCUMENTATION ARE
//   28   PROVIDED "AS IS" WITHOUT WARRANTY OF ANY KIND, EITHER EXPRESS OR IMPLIED,
//   29   INCLUDING WITHOUT LIMITATION, ANY WARRANTY OF MERCHANTABILITY, TITLE,
//   30   NON-INFRINGEMENT AND FITNESS FOR A PARTICULAR PURPOSE. IN NO EVENT SHALL
//   31   TEXAS INSTRUMENTS OR ITS LICENSORS BE LIABLE OR OBLIGATED UNDER CONTRACT,
//   32   NEGLIGENCE, STRICT LIABILITY, CONTRIBUTION, BREACH OF WARRANTY, OR OTHER
//   33   LEGAL EQUITABLE THEORY ANY DIRECT OR INDIRECT DAMAGES OR EXPENSES
//   34   INCLUDING BUT NOT LIMITED TO ANY INCIDENTAL, SPECIAL, INDIRECT, PUNITIVE
//   35   OR CONSEQUENTIAL DAMAGES, LOST PROFITS OR LOST DATA, COST OF PROCUREMENT
//   36   OF SUBSTITUTE GOODS, TECHNOLOGY, SERVICES, OR ANY CLAIMS BY THIRD PARTIES
//   37   (INCLUDING BUT NOT LIMITED TO ANY DEFENSE THEREOF), OR OTHER SIMILAR COSTS.
//   38 
//   39   Should you have any questions regarding your right to use this Software,
//   40   contact Texas Instruments Incorporated at www.TI.com.
//   41 **************************************************************************************************/
//   42 
//   43 /*********************************************************************
//   44  * INCLUDES
//   45  */
//   46 #include "ZComDef.h"
//   47 #include "AF.h"
//   48 #include "ZDObject.h"
//   49 #include "ZDConfig.h"
//   50 
//   51  /*********************************************************************
//   52  * MACROS
//   53  */
//   54 
//   55 /*********************************************************************
//   56  * CONSTANTS
//   57  */
//   58 
//   59 /*********************************************************************
//   60  * TYPEDEFS
//   61  */
//   62 
//   63 /*********************************************************************
//   64  * GLOBAL VARIABLES
//   65  */

        RSEG XDATA_Z:XDATA:NOROOT(0)
        DATA8
//   66 NodeDescriptorFormat_t ZDO_Config_Node_Descriptor;
ZDO_Config_Node_Descriptor:
        DS 13
        REQUIRE __INIT_XDATA_Z

        RSEG XDATA_Z:XDATA:NOROOT(0)
        DATA16
//   67 NodePowerDescriptorFormat_t ZDO_Config_Power_Descriptor;
ZDO_Config_Power_Descriptor:
        DS 2
        REQUIRE __INIT_XDATA_Z
//   68 
//   69 /*********************************************************************
//   70  * EXTERNAL VARIABLES
//   71  */
//   72 
//   73 /*********************************************************************
//   74  * EXTERNAL FUNCTIONS
//   75  */
//   76 
//   77 /*********************************************************************
//   78  * LOCAL FUNCTIONS
//   79  */
//   80 
//   81 /*********************************************************************
//   82  * LOCAL VARIABLES
//   83  */
//   84 
//   85 /*********************************************************************
//   86  * @fn      ZDConfig_InitDescriptors()
//   87  *
//   88  * @brief   Setup the ZDO descriptors
//   89  *             Node, Power
//   90  *
//   91  * @param   none
//   92  *
//   93  * @return  none
//   94  */

        RSEG BANKED_CODE:CODE:NOROOT(0)
//   95 void ZDConfig_InitDescriptors( void )
ZDConfig_InitDescriptors:
          CFI Block cfiBlock0 Using cfiCommon0
          CFI Function ZDConfig_InitDescriptors
        CODE
//   96 {
        FUNCALL ZDConfig_InitDescriptors, ZDConfig_UpdateNodeDescriptor
        LOCFRAME ISTACK, 2, STACK
        LOCFRAME PSTACK, 0, STACK
        LOCFRAME XSTACK, 0, STACK
        LOCFRAME IOVERLAY, 0, STATIC
        LOCFRAME DOVERLAY, 0, STATIC
        ARGFRAME ISTACK, 2, STACK
        ARGFRAME PSTACK, 0, STACK
        ARGFRAME XSTACK, 0, STACK
        ARGFRAME IOVERLAY, 0, STATIC
        ARGFRAME DOVERLAY, 0, STATIC
        FUNCALL ZDConfig_InitDescriptors, ZDConfig_UpdatePowerDescriptor
        LOCFRAME ISTACK, 2, STACK
        LOCFRAME PSTACK, 0, STACK
        LOCFRAME XSTACK, 0, STACK
        LOCFRAME IOVERLAY, 0, STATIC
        LOCFRAME DOVERLAY, 0, STATIC
        ARGFRAME ISTACK, 2, STACK
        ARGFRAME PSTACK, 0, STACK
        ARGFRAME XSTACK, 0, STACK
        ARGFRAME IOVERLAY, 0, STATIC
        ARGFRAME DOVERLAY, 0, STATIC
        PUSH    DPL
          CFI DPL0 Frame(CFA_SP, 4)
          CFI CFA_SP SP+-4
        PUSH    DPH
          CFI DPH0 Frame(CFA_SP, 5)
          CFI CFA_SP SP+-5
        ; Saved register size: 2
        ; Auto size: 0
//   97   ZDConfig_UpdateNodeDescriptor();
        ; Setup parameters for call to function ZDConfig_UpdateNodeDescriptor
        LCALL   `??ZDConfig_UpdateNodeDescriptor::?relay`; Banked call to: ZDConfig_UpdateNodeDescriptor
//   98   ZDConfig_UpdatePowerDescriptor();
        ; Setup parameters for call to function ZDConfig_UpdatePowerDescriptor
        LCALL   `??ZDConfig_UpdatePowerDescriptor::?relay`; Banked call to: ZDConfig_UpdatePowerDescriptor
//   99 }
          CFI EndBlock cfiBlock0
        REQUIRE ?Subroutine0
        ; // Fall through to label ?Subroutine0

        RSEG BANKED_CODE:CODE:NOROOT(0)
?Subroutine0:
          CFI Block cfiBlock1 Using cfiCommon0
          CFI NoFunction
          CFI CFA_SP SP+-5
          CFI DPL0 Frame(CFA_SP, 4)
          CFI DPH0 Frame(CFA_SP, 5)
        POP     DPH
          CFI CFA_SP SP+-4
          CFI DPH0 SameValue
        POP     DPL
          CFI CFA_SP SP+-3
          CFI DPL0 SameValue
        LJMP    ?BRET
          CFI EndBlock cfiBlock1
//  100 
//  101 /*********************************************************************
//  102  * @fn      ZDConfig_UpdateNodeDescriptor()
//  103  *
//  104  * @brief   Update the ZDO Node Descriptor
//  105  *
//  106  * @param   none
//  107  *
//  108  * @return  none
//  109  */

        RSEG BANKED_CODE:CODE:NOROOT(0)
//  110 void ZDConfig_UpdateNodeDescriptor( void )
ZDConfig_UpdateNodeDescriptor:
          CFI Block cfiBlock2 Using cfiCommon0
          CFI Function ZDConfig_UpdateNodeDescriptor
        CODE
//  111 {
        PUSH    DPL
          CFI DPL0 Frame(CFA_SP, 4)
          CFI CFA_SP SP+-4
        PUSH    DPH
          CFI DPH0 Frame(CFA_SP, 5)
          CFI CFA_SP SP+-5
        ; Saved register size: 2
        ; Auto size: 0
//  112   // Build the Node Descriptor
//  113   if ( ZG_BUILD_COORDINATOR_TYPE && ZG_DEVICE_COORDINATOR_TYPE )
        MOV     DPTR,#zgDeviceLogicalType
        MOVX    A,@DPTR
        JNZ     ??ZDConfig_UpdateNodeDescriptor_0
//  114     ZDO_Config_Node_Descriptor.LogicalType = NODETYPE_COORDINATOR;
        MOV     DPTR,#ZDO_Config_Node_Descriptor
        MOVX    A,@DPTR
        ANL     A,#0xf8
        SJMP    ??ZDConfig_UpdateNodeDescriptor_1
//  115   else if ( ZSTACK_ROUTER_BUILD )
??ZDConfig_UpdateNodeDescriptor_0:
        XRL     A,#0x1
        JNZ     ??ZDConfig_UpdateNodeDescriptor_2
//  116     ZDO_Config_Node_Descriptor.LogicalType = NODETYPE_ROUTER;
        MOV     DPTR,#ZDO_Config_Node_Descriptor
        MOVX    A,@DPTR
        ANL     A,#0xf8
        MOVX    @DPTR,A
        ORL     A,#0x1
        SJMP    ??ZDConfig_UpdateNodeDescriptor_1
//  117   else if ( ZSTACK_END_DEVICE_BUILD )
??ZDConfig_UpdateNodeDescriptor_2:
        MOVX    A,@DPTR
        XRL     A,#0x2
        JNZ     ??ZDConfig_UpdateNodeDescriptor_3
//  118     ZDO_Config_Node_Descriptor.LogicalType = NODETYPE_DEVICE;
        MOV     DPTR,#ZDO_Config_Node_Descriptor
        MOVX    A,@DPTR
        ANL     A,#0xf8
        MOVX    @DPTR,A
        ORL     A,#0x2
??ZDConfig_UpdateNodeDescriptor_1:
        MOVX    @DPTR,A
//  119 
//  120   ZDO_Config_Node_Descriptor.ComplexDescAvail = FALSE;      // set elsewhere
//  121   ZDO_Config_Node_Descriptor.UserDescAvail = FALSE;         // set elsewhere
//  122   ZDO_Config_Node_Descriptor.Reserved = 0;                  // Reserved
??ZDConfig_UpdateNodeDescriptor_3:
        MOV     DPTR,#ZDO_Config_Node_Descriptor
        MOVX    A,@DPTR
        ANL     A,#0x7
        MOVX    @DPTR,A
//  123   ZDO_Config_Node_Descriptor.APSFlags = 0;                  // NO APS flags
//  124   ZDO_Config_Node_Descriptor.FrequencyBand = NODEFREQ_2400; // Frequency Band
        INC     DPTR
        MOV     A,#0x40
        MOVX    @DPTR,A
//  125 
//  126   // MAC Capabilities
//  127   if ( ZSTACK_ROUTER_BUILD )
        MOV     DPTR,#zgDeviceLogicalType
        MOVX    A,@DPTR
        JZ      ??ZDConfig_UpdateNodeDescriptor_4
        XRL     A,#0x1
        JNZ     ??ZDConfig_UpdateNodeDescriptor_5
//  128   {
//  129     ZDO_Config_Node_Descriptor.CapabilityFlags
//  130               = (CAPINFO_DEVICETYPE_FFD | CAPINFO_POWER_AC |
//  131                  CAPINFO_RCVR_ON_IDLE | CAPINFO_ALLOC_ADDR);
??ZDConfig_UpdateNodeDescriptor_4:
        MOV     DPTR,#ZDO_Config_Node_Descriptor + 2
        MOV     A,#-0x72
        MOVX    @DPTR,A
//  132 
//  133     if ( ZG_BUILD_COORDINATOR_TYPE && ZG_DEVICE_COORDINATOR_TYPE )
        MOV     DPTR,#zgDeviceLogicalType
        MOVX    A,@DPTR
        JNZ     ??ZDConfig_UpdateNodeDescriptor_6
//  134       ZDO_Config_Node_Descriptor.CapabilityFlags |= CAPINFO_ALTPANCOORD;
        MOV     DPTR,#ZDO_Config_Node_Descriptor + 2
        MOV     A,#-0x71
        SJMP    ??ZDConfig_UpdateNodeDescriptor_7
//  135   }
//  136   else if ( ZSTACK_END_DEVICE_BUILD )
??ZDConfig_UpdateNodeDescriptor_5:
        MOVX    A,@DPTR
        XRL     A,#0x2
        JNZ     ??ZDConfig_UpdateNodeDescriptor_6
//  137   {
//  138     ZDO_Config_Node_Descriptor.CapabilityFlags = (CAPINFO_DEVICETYPE_RFD
//  139   #if ( RFD_RCVC_ALWAYS_ON == TRUE)
//  140             | CAPINFO_RCVR_ON_IDLE
//  141   #endif
//  142         | CAPINFO_ALLOC_ADDR);
        MOV     DPTR,#ZDO_Config_Node_Descriptor + 2
        MOV     A,#-0x80
??ZDConfig_UpdateNodeDescriptor_7:
        MOVX    @DPTR,A
//  143   }
//  144 
//  145   // Manufacturer Code - *YOU FILL IN*
//  146   ZDO_Config_Node_Descriptor.ManufacturerCode[0] = 0;
??ZDConfig_UpdateNodeDescriptor_6:
        MOV     DPTR,#ZDO_Config_Node_Descriptor + 3
        CLR     A
        MOVX    @DPTR,A
//  147   ZDO_Config_Node_Descriptor.ManufacturerCode[1] = 0;
        INC     DPTR
        MOVX    @DPTR,A
//  148 
//  149   // Maximum Buffer Size
//  150   ZDO_Config_Node_Descriptor.MaxBufferSize = MAX_BUFFER_SIZE;
        INC     DPTR
        MOV     A,#0x50
        MOVX    @DPTR,A
//  151 
//  152   // Maximum Incoming Transfer Size Field
//  153   ZDO_Config_Node_Descriptor.MaxInTransferSize[0] = LO_UINT16( MAX_TRANSFER_SIZE );
        INC     DPTR
        MOV     A,#-0x60
        MOVX    @DPTR,A
//  154   ZDO_Config_Node_Descriptor.MaxInTransferSize[1] = HI_UINT16( MAX_TRANSFER_SIZE );
        INC     DPTR
        CLR     A
        MOVX    @DPTR,A
//  155 
//  156   // Maximum Outgoing Transfer Size Field
//  157   ZDO_Config_Node_Descriptor.MaxOutTransferSize[0] = LO_UINT16( MAX_TRANSFER_SIZE );
        MOV     DPTR,#ZDO_Config_Node_Descriptor + 10
        MOV     A,#-0x60
        MOVX    @DPTR,A
//  158   ZDO_Config_Node_Descriptor.MaxOutTransferSize[1] = HI_UINT16( MAX_TRANSFER_SIZE );
        INC     DPTR
        CLR     A
        MOVX    @DPTR,A
//  159 
//  160   // Server Mask
//  161   ZDO_Config_Node_Descriptor.ServerMask = 0;
        MOV     DPTR,#ZDO_Config_Node_Descriptor + 8
        MOVX    @DPTR,A
        INC     DPTR
        MOVX    @DPTR,A
//  162 
//  163   // Descriptor Capability Field - extended active endpoint list and
//  164   // extended simple descriptor are not supported.
//  165   ZDO_Config_Node_Descriptor.DescriptorCapability = 0;
        MOV     DPTR,#ZDO_Config_Node_Descriptor + 12
        MOVX    @DPTR,A
//  166 }
        LJMP    ?Subroutine0 & 0xFFFF
          CFI EndBlock cfiBlock2
//  167 
//  168 /*********************************************************************
//  169  * @fn      ZDConfig_UpdatePowerDescriptor()
//  170  *
//  171  * @brief   Update the ZDO Power Descriptor
//  172  *
//  173  * @param   none
//  174  *
//  175  * @return  none
//  176  */

        RSEG BANKED_CODE:CODE:NOROOT(0)
//  177 void ZDConfig_UpdatePowerDescriptor( void )
ZDConfig_UpdatePowerDescriptor:
          CFI Block cfiBlock3 Using cfiCommon0
          CFI Function ZDConfig_UpdatePowerDescriptor
        CODE
//  178 {
        PUSH    DPL
          CFI DPL0 Frame(CFA_SP, 4)
          CFI CFA_SP SP+-4
        PUSH    DPH
          CFI DPH0 Frame(CFA_SP, 5)
          CFI CFA_SP SP+-5
        ; Saved register size: 2
        ; Auto size: 0
//  179   // Build the Power Descriptor
//  180   if ( ZSTACK_ROUTER_BUILD )
        MOV     DPTR,#zgDeviceLogicalType
        MOVX    A,@DPTR
        JZ      ??ZDConfig_UpdatePowerDescriptor_0
        XRL     A,#0x1
        JNZ     ??ZDConfig_UpdatePowerDescriptor_1
//  181   {
//  182     ZDO_Config_Power_Descriptor.PowerMode = NODECURPWR_RCVR_ALWAYS_ON;
//  183     ZDO_Config_Power_Descriptor.AvailablePowerSources = NODEAVAILPWR_MAINS;
//  184     ZDO_Config_Power_Descriptor.CurrentPowerSource = NODEAVAILPWR_MAINS;
//  185     ZDO_Config_Power_Descriptor.CurrentPowerSourceLevel = NODEPOWER_LEVEL_100;
??ZDConfig_UpdatePowerDescriptor_0:
        MOV     DPTR,#ZDO_Config_Power_Descriptor
        MOV     A,#0x10
        MOVX    @DPTR,A
        INC     DPTR
        MOV     A,#-0x3f
        SJMP    ??ZDConfig_UpdatePowerDescriptor_2
//  186   }
//  187   else if ( ZSTACK_END_DEVICE_BUILD )
??ZDConfig_UpdatePowerDescriptor_1:
        MOVX    A,@DPTR
        XRL     A,#0x2
        JNZ     ??ZDConfig_UpdatePowerDescriptor_3
//  188   {
//  189     if ( zgPollRate )
        MOV     DPTR,#zgPollRate
        MOVX    A,@DPTR
        MOV     R0,A
        INC     DPTR
        MOVX    A,@DPTR
        MOV     R1,A
        MOV     A,R0
        ORL     A,R1
        MOV     DPTR,#ZDO_Config_Power_Descriptor
        JZ      ??ZDConfig_UpdatePowerDescriptor_4
//  190       ZDO_Config_Power_Descriptor.PowerMode = NODECURPWR_RCVR_AUTO;
        MOVX    A,@DPTR
        ANL     A,#0xf0
        MOVX    @DPTR,A
        ORL     A,#0x1
        SJMP    ??ZDConfig_UpdatePowerDescriptor_5
//  191     else
//  192       ZDO_Config_Power_Descriptor.PowerMode = NODECURPWR_RCVR_STIM;
??ZDConfig_UpdatePowerDescriptor_4:
        MOVX    A,@DPTR
        ANL     A,#0xf0
        MOVX    @DPTR,A
        ORL     A,#0x2
??ZDConfig_UpdatePowerDescriptor_5:
        MOVX    @DPTR,A
//  193 
//  194     ZDO_Config_Power_Descriptor.AvailablePowerSources = NODEAVAILPWR_RECHARGE;
//  195     ZDO_Config_Power_Descriptor.CurrentPowerSource = NODEAVAILPWR_RECHARGE;
//  196     ZDO_Config_Power_Descriptor.CurrentPowerSourceLevel = NODEPOWER_LEVEL_66;
        MOVX    A,@DPTR
        ANL     A,#0xf
        MOVX    @DPTR,A
        INC     DPTR
        CLR     A
        MOVX    @DPTR,A
        MOV     DPTR,#ZDO_Config_Power_Descriptor
        MOVX    A,@DPTR
        ORL     A,#0x20
        MOVX    @DPTR,A
        INC     DPTR
        MOV     A,#-0x7e
??ZDConfig_UpdatePowerDescriptor_2:
        MOVX    @DPTR,A
//  197   }
//  198 }
??ZDConfig_UpdatePowerDescriptor_3:
        LJMP    ?Subroutine0 & 0xFFFF
          CFI EndBlock cfiBlock3

        RSEG BANK_RELAYS:CODE:REORDER:NOROOT(0)
`??ZDConfig_InitDescriptors::?relay`:
        CODE
        LCALL   ?BDISPATCH
        DATA24
        DC24    ZDConfig_InitDescriptors

        RSEG BANK_RELAYS:CODE:REORDER:NOROOT(0)
`??ZDConfig_UpdateNodeDescriptor::?relay`:
        CODE
        LCALL   ?BDISPATCH
        DATA24
        DC24    ZDConfig_UpdateNodeDescriptor

        RSEG BANK_RELAYS:CODE:REORDER:NOROOT(0)
`??ZDConfig_UpdatePowerDescriptor::?relay`:
        CODE
        LCALL   ?BDISPATCH
        DATA24
        DC24    ZDConfig_UpdatePowerDescriptor

        END
//  199 
//  200 /*********************************************************************
//  201 *********************************************************************/
//  202 
//  203 
// 
// 237 bytes in segment BANKED_CODE
//  18 bytes in segment BANK_RELAYS
//  15 bytes in segment XDATA_Z
// 
// 255 bytes of CODE  memory
//  15 bytes of XDATA memory
//
//Errors: none
//Warnings: none
