###############################################################################
#
# IAR C/C++ Compiler V9.30.1.3056 for 8051                21/Nov/2018  13:52:20
# Copyright 2004-2015 IAR Systems AB.
# Standalone license - IAR Embedded Workbench for 8051
#
#    Core               =  plain
#    Code model         =  banked
#    Data model         =  large
#    Calling convention =  xdata reentrant
#    Constant location  =  data_rom
#    Dptr setup         =  1,16
#                          
#    Source file        =  
#        D:\1.embedded\kit\cc2530\Reference\Z-Stack Mesh
#        1.0.0\Components\stack\zdo\ZDProfile.c
#    Command line       =  
#        -f "D:\1.embedded\kit\cc2530\Reference\Z-Stack Mesh
#        1.0.0\Projects\zstack\ZNP\CC253x\..\Source\znp.cfg"
#        (-DMAC_CFG_APP_PENDING_QUEUE=TRUE
#        "-DZSTACK_DEVICE_BUILD=(DEVICE_BUILD_COORDINATOR | DEVICE_BUILD_ROUTER
#        | DEVICE_BUILD_ENDDEVICE)" -DNWK_AUTO_POLL -DZNP_RUN_WDOG=FALSE
#        -DZNP_UART_BAUD=HAL_UART_BR_115200 -DZIGBEEPRO -DZIGBEE_FRAGMENTATION
#        -DINTER_PAN -DOSAL_CLOCK -DOSAL_SAPI=FALSE -DSAPI_CB_FUNC=FALSE
#        -DHOLD_AUTO_START -DNV_RESTORE -DNV_INIT -DNUM_DISC_ATTEMPTS=0
#        -DMT_UTIL_FUNC -DMT_SYS_FUNC -DMT_AF_FUNC -DMT_SAPI_FUNC
#        -DMT_SAPI_CB_FUNC -DMT_ZDO_CB_FUNC -DMT_ZDO_FUNC -DMT_ZDO_MGMT
#        -DMT_ZDO_EXTENSIONS -DMT_APP_FUNC) -f
#        "D:\1.embedded\kit\cc2530\Reference\Z-Stack Mesh
#        1.0.0\Projects\zstack\ZNP\CC253x\..\..\Tools\CC2530DB\f8wConfig.cfg"
#        (-DZIGBEEPRO -DSECURE=1 -DZG_SECURE_DYNAMIC=0 -DREFLECTOR
#        -DDEFAULT_CHANLIST=0x00000800 -DZDAPP_CONFIG_PAN_ID=0xFFFF
#        -DNWK_START_DELAY=100 -DEXTENDED_JOINING_RANDOM_MASK=0x007F
#        -DBEACON_REQUEST_DELAY=100 -DBEACON_REQ_DELAY_MASK=0x00FF
#        -DLINK_STATUS_JITTER_MASK=0x007F -DROUTE_EXPIRY_TIME=30
#        -DAPSC_ACK_WAIT_DURATION_POLLED=3000 -DNWK_INDIRECT_MSG_TIMEOUT=7
#        -DMAX_RREQ_ENTRIES=8 -DAPSC_MAX_FRAME_RETRIES=3
#        -DNWK_MAX_DATA_RETRIES=2 -DMAX_POLL_FAILURE_RETRIES=2 -DMAX_BCAST=9
#        -DAPS_MAX_GROUPS=16 -DMAX_RTG_ENTRIES=40 -DNWK_MAX_BINDING_ENTRIES=4
#        -DMAX_BINDING_CLUSTER_IDS=4 "-DDEFAULT_KEY={0x01, 0x03, 0x05, 0x07,
#        0x09, 0x0B, 0x0D, 0x0F, 0x00, 0x02, 0x04, 0x06, 0x08, 0x0A, 0x0C,
#        0x0D}" -DMAC_MAX_FRAME_SIZE=116 -DZDNWKMGR_MIN_TRANSMISSIONS=20
#        "-DCONST=const __code" -DGENERIC=__generic -DRFD_RCVC_ALWAYS_ON=FALSE
#        -DPOLL_RATE=1000 -DQUEUED_POLL_RATE=100 -DRESPONSE_POLL_RATE=100
#        -DREJOIN_POLL_RATE=440) -f "D:\1.embedded\kit\cc2530\Reference\Z-Stack
#        Mesh 1.0.0\Projects\zstack\ZNP\CC253x\..\..\Tools\CC2530DB\f8wZCL.cfg"
#        "D:\1.embedded\kit\cc2530\Reference\Z-Stack Mesh
#        1.0.0\Components\stack\zdo\ZDProfile.c" -D FEATURE_SYSTEM_STATS -D
#        POWER_SAVING -lC "D:\1.embedded\kit\cc2530\Reference\Z-Stack Mesh
#        1.0.0\Projects\zstack\ZNP\CC253x\CC2530-Debug\List" -lA
#        "D:\1.embedded\kit\cc2530\Reference\Z-Stack Mesh
#        1.0.0\Projects\zstack\ZNP\CC253x\CC2530-Debug\List" --diag_suppress
#        Pe001,Pa010 -o "D:\1.embedded\kit\cc2530\Reference\Z-Stack Mesh
#        1.0.0\Projects\zstack\ZNP\CC253x\CC2530-Debug\Obj" -e --no_code_motion
#        --debug --core=plain --dptr=16,1 --data_model=large
#        --code_model=banked --calling_convention=xdata_reentrant
#        --place_constants=data_rom --nr_virtual_regs 16 -I
#        "D:\1.embedded\kit\cc2530\Reference\Z-Stack Mesh
#        1.0.0\Projects\zstack\ZNP\CC253x\" -I
#        "D:\1.embedded\kit\cc2530\Reference\Z-Stack Mesh
#        1.0.0\Projects\zstack\ZNP\CC253x\Source\" -I
#        "D:\1.embedded\kit\cc2530\Reference\Z-Stack Mesh
#        1.0.0\Projects\zstack\ZNP\CC253x\..\Source\" -I
#        "D:\1.embedded\kit\cc2530\Reference\Z-Stack Mesh
#        1.0.0\Projects\zstack\ZNP\CC253x\..\..\SE\Source\" -I
#        "D:\1.embedded\kit\cc2530\Reference\Z-Stack Mesh
#        1.0.0\Projects\zstack\ZNP\CC253x\..\..\ZMain\TI2530ZNP\" -I
#        "D:\1.embedded\kit\cc2530\Reference\Z-Stack Mesh
#        1.0.0\Projects\zstack\ZNP\CC253x\..\..\..\..\Components\hal\include\"
#        -I "D:\1.embedded\kit\cc2530\Reference\Z-Stack Mesh
#        1.0.0\Projects\zstack\ZNP\CC253x\..\..\..\..\Components\hal\target\CC2530ZNP\"
#        -I "D:\1.embedded\kit\cc2530\Reference\Z-Stack Mesh
#        1.0.0\Projects\zstack\ZNP\CC253x\..\..\..\..\Components\mac\include\"
#        -I "D:\1.embedded\kit\cc2530\Reference\Z-Stack Mesh
#        1.0.0\Projects\zstack\ZNP\CC253x\..\..\..\..\Components\mac\high_level\"
#        -I "D:\1.embedded\kit\cc2530\Reference\Z-Stack Mesh
#        1.0.0\Projects\zstack\ZNP\CC253x\..\..\..\..\Components\mac\low_level\srf04\"
#        -I "D:\1.embedded\kit\cc2530\Reference\Z-Stack Mesh
#        1.0.0\Projects\zstack\ZNP\CC253x\..\..\..\..\Components\mac\low_level\srf04\single_chip\"
#        -I "D:\1.embedded\kit\cc2530\Reference\Z-Stack Mesh
#        1.0.0\Projects\zstack\ZNP\CC253x\..\..\..\..\Components\mt\" -I
#        "D:\1.embedded\kit\cc2530\Reference\Z-Stack Mesh
#        1.0.0\Projects\zstack\ZNP\CC253x\..\..\..\..\Components\osal\include\"
#        -I "D:\1.embedded\kit\cc2530\Reference\Z-Stack Mesh
#        1.0.0\Projects\zstack\ZNP\CC253x\..\..\..\..\Components\services\saddr\"
#        -I "D:\1.embedded\kit\cc2530\Reference\Z-Stack Mesh
#        1.0.0\Projects\zstack\ZNP\CC253x\..\..\..\..\Components\services\sdata\"
#        -I "D:\1.embedded\kit\cc2530\Reference\Z-Stack Mesh
#        1.0.0\Projects\zstack\ZNP\CC253x\..\..\..\..\Components\stack\af\" -I
#        "D:\1.embedded\kit\cc2530\Reference\Z-Stack Mesh
#        1.0.0\Projects\zstack\ZNP\CC253x\..\..\..\..\Components\stack\nwk\" -I
#        "D:\1.embedded\kit\cc2530\Reference\Z-Stack Mesh
#        1.0.0\Projects\zstack\ZNP\CC253x\..\..\..\..\Components\stack\sapi\"
#        -I "D:\1.embedded\kit\cc2530\Reference\Z-Stack Mesh
#        1.0.0\Projects\zstack\ZNP\CC253x\..\..\..\..\Components\stack\sec\" -I
#        "D:\1.embedded\kit\cc2530\Reference\Z-Stack Mesh
#        1.0.0\Projects\zstack\ZNP\CC253x\..\..\..\..\Components\stack\sys\" -I
#        "D:\1.embedded\kit\cc2530\Reference\Z-Stack Mesh
#        1.0.0\Projects\zstack\ZNP\CC253x\..\..\..\..\Components\stack\zcl\" -I
#        "D:\1.embedded\kit\cc2530\Reference\Z-Stack Mesh
#        1.0.0\Projects\zstack\ZNP\CC253x\..\..\..\..\Components\stack\zdo\" -I
#        "D:\1.embedded\kit\cc2530\Reference\Z-Stack Mesh
#        1.0.0\Projects\zstack\ZNP\CC253x\..\..\..\..\Components\zmac\" -I
#        "D:\1.embedded\kit\cc2530\Reference\Z-Stack Mesh
#        1.0.0\Projects\zstack\ZNP\CC253x\..\..\..\..\Components\zmac\f8w\"
#        -Ohz --require_prototypes
#    List file          =  
#        D:\1.embedded\kit\cc2530\Reference\Z-Stack Mesh
#        1.0.0\Projects\zstack\ZNP\CC253x\CC2530-Debug\List\ZDProfile.lst
#    Object file        =  
#        D:\1.embedded\kit\cc2530\Reference\Z-Stack Mesh
#        1.0.0\Projects\zstack\ZNP\CC253x\CC2530-Debug\Obj\ZDProfile.r51
#
###############################################################################

D:\1.embedded\kit\cc2530\Reference\Z-Stack Mesh 1.0.0\Components\stack\zdo\ZDProfile.c
      1          /**************************************************************************************************
      2            Filename:       ZDProfile.c
      3            Revised:        $Date: 2013-10-02 15:57:50 -0700 (Wed, 02 Oct 2013) $
      4            Revision:       $Revision: 35529 $
      5          
      6            Description:    This is the Zigbee Device Profile.
      7          
      8          
      9            Copyright 2004-2013 Texas Instruments Incorporated. All rights reserved.
     10          
     11            IMPORTANT: Your use of this Software is limited to those specific rights
     12            granted under the terms of a software license agreement between the user
     13            who downloaded the software, his/her employer (which must be your employer)
     14            and Texas Instruments Incorporated (the "License").  You may not use this
     15            Software unless you agree to abide by the terms of the License. The License
     16            limits your use, and you acknowledge, that the Software may not be modified,
     17            copied or distributed unless embedded on a Texas Instruments microcontroller
     18            or used solely and exclusively in conjunction with a Texas Instruments radio
     19            frequency transceiver, which is integrated into your product.  Other than for
     20            the foregoing purpose, you may not use, reproduce, copy, prepare derivative
     21            works of, modify, distribute, perform, display or sell this Software and/or
     22            its documentation for any purpose.
     23          
     24            YOU FURTHER ACKNOWLEDGE AND AGREE THAT THE SOFTWARE AND DOCUMENTATION ARE
     25            PROVIDED "AS IS" WITHOUT WARRANTY OF ANY KIND, EITHER EXPRESS OR IMPLIED,
     26            INCLUDING WITHOUT LIMITATION, ANY WARRANTY OF MERCHANTABILITY, TITLE,
     27            NON-INFRINGEMENT AND FITNESS FOR A PARTICULAR PURPOSE. IN NO EVENT SHALL
     28            TEXAS INSTRUMENTS OR ITS LICENSORS BE LIABLE OR OBLIGATED UNDER CONTRACT,
     29            NEGLIGENCE, STRICT LIABILITY, CONTRIBUTION, BREACH OF WARRANTY, OR OTHER
     30            LEGAL EQUITABLE THEORY ANY DIRECT OR INDIRECT DAMAGES OR EXPENSES
     31            INCLUDING BUT NOT LIMITED TO ANY INCIDENTAL, SPECIAL, INDIRECT, PUNITIVE
     32            OR CONSEQUENTIAL DAMAGES, LOST PROFITS OR LOST DATA, COST OF PROCUREMENT
     33            OF SUBSTITUTE GOODS, TECHNOLOGY, SERVICES, OR ANY CLAIMS BY THIRD PARTIES
     34            (INCLUDING BUT NOT LIMITED TO ANY DEFENSE THEREOF), OR OTHER SIMILAR COSTS.
     35          
     36            Should you have any questions regarding your right to use this Software,
     37            contact Texas Instruments Incorporated at www.TI.com.
     38          **************************************************************************************************/
     39          
     40          /*********************************************************************
     41           * INCLUDES
     42           */
     43          #include "ZComDef.h"
     44          #include "OSAL.h"
     45          #include "AF.h"
     46          #include "NLMEDE.h"
     47          #include "nwk_util.h"
     48          #include "APS.h"
     49          
     50          #include "AddrMgr.h"
     51          #include "ZDConfig.h"
     52          #include "ZDProfile.h"
     53          #include "ZDObject.h"
     54          #include "ZDNwkMgr.h"
     55          
     56          #if defined( LCD_SUPPORTED )
     57            #include "OnBoard.h"
     58          #endif
     59          
     60          #include "nwk_util.h"
     61          
     62          #if defined( MT_ZDO_FUNC )
     63            #include "MT_ZDO.h"
     64          #endif
     65          
     66          /*********************************************************************
     67           * MACROS
     68           */
     69          
     70          #define ZADDR_TO_AFADDR( pZADDR, AFADDR ) {                            \
     71            (AFADDR).endPoint = ZDP_AF_ENDPOINT;                                 \
     72            (AFADDR).addrMode = (afAddrMode_t)(pZADDR)->addrMode;                \
     73            (AFADDR).addr.shortAddr = (pZADDR)->addr.shortAddr;                  \
     74          }
     75          
     76          #define FillAndSendBuffer( TRANSSEQ, ADDR, ID, LEN, BUF ) {     \
     77            afStatus_t stat;                                    \
     78            ZDP_TmpBuf = (BUF)+1;                               \
     79            stat = fillAndSend( (TRANSSEQ), (ADDR), (ID), (LEN) );          \
     80            osal_mem_free( (BUF) );                             \
     81            ZDP_TmpBuf = ZDP_Buf+1;                             \
     82            return stat;                                        \
     83          }
     84          
     85          #define FillAndSendTxOptions( TRANSSEQ, ADDR, ID, LEN, TxO ) {  \
     86            afStatus_t stat;                                    \
     87            ZDP_TxOptions = (TxO);                              \
     88            stat = fillAndSend( (TRANSSEQ), (ADDR), (ID), (LEN) );          \
     89            ZDP_TxOptions = AF_TX_OPTIONS_NONE;                 \
     90            return stat;                                        \
     91          }
     92          
     93          #define FillAndSendBufferTxOptions( TRANSSEQ, ADDR, ID, LEN, BUF, TxO ) { \
     94            afStatus_t stat;                                    \
     95            ZDP_TmpBuf = (BUF)+1;                               \
     96            ZDP_TxOptions = (TxO);                              \
     97            stat = fillAndSend( (TRANSSEQ), (ADDR), (ID), (LEN) );          \
     98            osal_mem_free( (BUF) );                             \
     99            ZDP_TmpBuf = ZDP_Buf+1;                             \
    100            ZDP_TxOptions = AF_TX_OPTIONS_NONE;                 \
    101            return stat;                                        \
    102          }
    103          
    104          /*********************************************************************
    105           * CONSTANTS
    106           */
    107          
    108          #define ZDP_BUF_SZ          80
    109          

   \                                 In  segment CODE_C, align 1
    110          CONST byte ZDP_AF_ENDPOINT = 0;
   \                     ZDP_AF_ENDPOINT:
   \   000000   00           DB 0
    111          
    112          // Routing table options
    113          #define ZP_RTG_RECORD       0x04       // Routing table indication that a route record is needed
    114          #define ZP_MTO_ROUTE_RC     0x08       // Concentrator with routing cache
    115          #define ZP_MTO_ROUTE_NRC    0x10       // Concentrator with limited cache
    116          
    117          
    118          /*********************************************************************
    119           * TYPEDEFS
    120           */
    121          typedef struct
    122          {
    123            void *next;
    124            uint8 taskID;
    125            uint16 clusterID;
    126          } ZDO_MsgCB_t;
    127          
    128          
    129          /*********************************************************************
    130           * GLOBAL VARIABLES
    131           */
    132          

   \                                 In  segment XDATA_Z, align 1, keep-with-next
    133          byte ZDP_TransID = 0;
   \                     ZDP_TransID:
   \   000000                DS 1
   \   000001                REQUIRE __INIT_XDATA_Z
    134          
    135          /*********************************************************************
    136           * EXTERNAL VARIABLES
    137           */
    138          
    139          extern endPointDesc_t ZDApp_epDesc;
    140          
    141          /*********************************************************************
    142           * EXTERNAL FUNCTIONS
    143           */
    144          
    145          /*********************************************************************
    146           * LOCAL FUNCTIONS
    147           */
    148          
    149          static afStatus_t fillAndSend( uint8 *transSeq, zAddrType_t *addr, cId_t clusterID, byte len );
    150          uint8 ZDO_SendMsgCBs( zdoIncomingMsg_t *inMsg );
    151          void zdpProcessAddrReq( zdoIncomingMsg_t *inMsg );
    152          
    153          /*********************************************************************
    154           * LOCAL VARIABLES
    155           */
    156          

   \                                 In  segment XDATA_Z, align 1, keep-with-next
    157          static uint8  ZDP_Buf[ ZDP_BUF_SZ ];
   \                     ZDP_Buf:
   \   000000                DS 80
   \   000050                REQUIRE __INIT_XDATA_Z

   \                                 In  segment XDATA_I, align 1, keep-with-next
    158          static uint8 *ZDP_TmpBuf = ZDP_Buf+1;
   \                     ZDP_TmpBuf:
   \   000000                DS 2
   \   000002                REQUIRE `?<Initializer for ZDP_TmpBuf>`
   \   000002                REQUIRE __INIT_XDATA_I
    159          

   \                                 In  segment XDATA_Z, align 1, keep-with-next
    160          byte ZDP_TxOptions = AF_TX_OPTIONS_NONE;
   \                     ZDP_TxOptions:
   \   000000                DS 1
   \   000001                REQUIRE __INIT_XDATA_Z

   \                                 In  segment XDATA_Z, align 1, keep-with-next
    161          ZDO_MsgCB_t *zdoMsgCBs = (ZDO_MsgCB_t *)NULL;
   \                     zdoMsgCBs:
   \   000000                DS 2
   \   000002                REQUIRE __INIT_XDATA_Z
    162          
    163          /*********************************************************************
    164           * ZDO Message Processing table
    165           */
    166          
    167          typedef void (*pfnZDPMsgProcessor)( zdoIncomingMsg_t *inMsg );
    168          
    169          typedef struct
    170          {
    171            uint16                clusterID;
    172            pfnZDPMsgProcessor    pFn;
    173          } zdpMsgProcItem_t;
    174          

   \                                 In  segment CODE_C, align 1
    175          CONST zdpMsgProcItem_t zdpMsgProcs[] =
   \                     zdpMsgProcs:
   \   000000   0000         DW 0
   \   000002   ....         DW `??zdpProcessAddrReq::?relay`
   \   000004   1300         DW 19
   \   000006   ....         DW `??ZDO_ProcessDeviceAnnce::?relay`
   \   000008   0100         DW 1
   \   00000A   ....         DW `??zdpProcessAddrReq::?relay`
   \   00000C   0200         DW 2
   \   00000E   ....         DW `??ZDO_ProcessNodeDescReq::?relay`
   \   000010   0300         DW 3
   \   000012   ....         DW `??ZDO_ProcessPowerDescReq::?relay`
   \   000014   0400         DW 4
   \   000016   ....         DW `??ZDO_ProcessSimpleDescReq::?relay`
   \   000018   0500         DW 5
   \   00001A   ....         DW `??ZDO_ProcessActiveEPReq::?relay`
   \   00001C   0600         DW 6
   \   00001E   ....         DW `??ZDO_ProcessMatchDescReq::?relay`
   \   000020   3000         DW 48
   \   000022   ....         DW `??ZDO_ProcessMgmtNwkDiscReq::?relay`
   \   000024   3100         DW 49
   \   000026   ....         DW `??ZDO_ProcessMgmtLqiReq::?relay`
   \   000028   3200         DW 50
   \   00002A   ....         DW `??ZDO_ProcessMgmtRtgReq::?relay`
   \   00002C   3300         DW 51
   \   00002E   ....         DW `??ZDO_ProcessMgmtBindReq::?relay`
   \   000030   3500         DW 53
   \   000032   ....         DW `??ZDO_ProcessMgmtDirectJoinReq::?relay`
   \   000034   3400         DW 52
   \   000036   ....         DW `??ZDO_ProcessMgmtLeaveReq::?relay`
   \   000038   3600         DW 54
   \   00003A   ....         DW `??ZDO_ProcessMgmtPermitJoinReq::?relay`
   \   00003C   1100         DW 17
   \   00003E   ....         DW `??ZDO_ProcessUserDescReq::?relay`
   \   000040   1400         DW 20
   \   000042   ....         DW `??ZDO_ProcessUserDescSet::?relay`
   \   000044   1500         DW 21
   \   000046   ....         DW `??ZDO_ProcessServerDiscReq::?relay`
   \   000048   1F00         DW 31
   \   00004A   ....         DW `??ZDO_ProcessEndDeviceTimeoutReq::?relay`
   \   00004C   FFFF         DW 65535
   \   00004E   0000         DW 0H
    176          {
    177          #if ( RFD_RCVC_ALWAYS_ON==TRUE ) || ( ZG_BUILD_RTR_TYPE )
    178            // These aren't processed by sleeping end devices.
    179            { NWK_addr_req,           zdpProcessAddrReq },
    180            { Device_annce,           ZDO_ProcessDeviceAnnce },
    181          #endif
    182            { IEEE_addr_req,          zdpProcessAddrReq },
    183            { Node_Desc_req,          ZDO_ProcessNodeDescReq },
    184            { Power_Desc_req,         ZDO_ProcessPowerDescReq },
    185            { Simple_Desc_req,        ZDO_ProcessSimpleDescReq },
    186            { Active_EP_req,          ZDO_ProcessActiveEPReq },
    187            { Match_Desc_req,         ZDO_ProcessMatchDescReq },
    188          #if defined ( ZDO_MGMT_NWKDISC_RESPONSE )
    189            { Mgmt_NWK_Disc_req,      ZDO_ProcessMgmtNwkDiscReq },
    190          #endif
    191          #if defined ( ZDO_MGMT_LQI_RESPONSE ) && ( ZG_BUILD_RTR_TYPE )
    192            { Mgmt_Lqi_req,           ZDO_ProcessMgmtLqiReq },
    193          #endif
    194          #if defined ( ZDO_MGMT_RTG_RESPONSE ) && ( ZG_BUILD_RTR_TYPE )
    195            { Mgmt_Rtg_req,           ZDO_ProcessMgmtRtgReq },
    196          #endif
    197          #if defined ( ZDO_MGMT_BIND_RESPONSE ) && defined ( REFLECTOR )
    198            { Mgmt_Bind_req,          ZDO_ProcessMgmtBindReq },
    199          #endif
    200          #if defined ( ZDO_MGMT_JOINDIRECT_RESPONSE ) && ( ZG_BUILD_RTR_TYPE )
    201            { Mgmt_Direct_Join_req,   ZDO_ProcessMgmtDirectJoinReq },
    202          #endif
    203          #if defined ( ZDO_MGMT_LEAVE_RESPONSE )
    204            { Mgmt_Leave_req,         ZDO_ProcessMgmtLeaveReq },
    205          #endif
    206          #if defined ( ZDO_MGMT_PERMIT_JOIN_RESPONSE )  && ( ZG_BUILD_RTR_TYPE )
    207            { Mgmt_Permit_Join_req,   ZDO_ProcessMgmtPermitJoinReq },
    208          #endif
    209          #if defined ( ZDO_USERDESC_RESPONSE )
    210            { User_Desc_req,          ZDO_ProcessUserDescReq },
    211          #endif
    212          #if defined ( ZDO_USERDESCSET_RESPONSE )
    213            { User_Desc_set,          ZDO_ProcessUserDescSet },
    214          #endif
    215          #if defined ( ZDO_SERVERDISC_RESPONSE )
    216            { Server_Discovery_req,   ZDO_ProcessServerDiscReq },
    217          #endif
    218          #if defined ( ZIGBEE_CHILD_AGING )
    219          #if defined ( ZDO_ENDDEVICETIMEOUT_REQUEST )
    220            { End_Device_Timeout_req, ZDO_ProcessEndDeviceTimeoutReq },
    221          #endif
    222          #endif // ZIGBEE_CHILD_AGING
    223            {0xFFFF, NULL} // Last
    224          };
    225          
    226          /*********************************************************************
    227           * @fn          fillAndSend
    228           *
    229           * @brief       Combined to reduce space
    230           *
    231           * @param
    232           * @param
    233           *
    234           * @return      afStatus_t
    235           */

   \                                 In  segment BANKED_CODE, align 1, keep-with-next
    236          static afStatus_t fillAndSend( uint8 *transSeq, zAddrType_t *addr, cId_t clusterID, byte len )
   \                     fillAndSend:
    237          {
   \   000000                REQUIRE ?V0
   \   000000                REQUIRE ?V1
   \   000000                REQUIRE ?V2
   \   000000                REQUIRE ?V3
   \   000000                REQUIRE ?V4
   \   000000                REQUIRE ?V5
   \   000000   74F2         MOV     A,#-0xe
   \   000002   12....       LCALL   ?BANKED_ENTER_XDATA
   \   000005                ; Saved register size: 14
   \   000005                ; Auto size: 12
   \   000005   74F4         MOV     A,#-0xc
   \   000007   12....       LCALL   ?ALLOC_XSTACK8
   \   00000A   8A..         MOV     ?V0,R2
   \   00000C   8B..         MOV     ?V1,R3
   \   00000E   EC           MOV     A,R4
   \   00000F   FE           MOV     R6,A
   \   000010   ED           MOV     A,R5
   \   000011   FF           MOV     R7,A
   \   000012   89..         MOV     ?V4,R1
    238            afAddrType_t afAddr;
    239          
    240            osal_memset( &afAddr, 0, sizeof(afAddrType_t) );
   \   000014                ; Setup parameters for call to function osal_memset
   \   000014   7C0C         MOV     R4,#0xc
   \   000016   7D00         MOV     R5,#0x0
   \   000018   7900         MOV     R1,#0x0
   \   00001A   AA..         MOV     R2,?XSP + 0
   \   00001C   AB..         MOV     R3,?XSP + 1
   \   00001E   12....       LCALL   `??osal_memset::?relay`; Banked call to: osal_memset
    241            ZADDR_TO_AFADDR( addr, afAddr );
   \   000021   7409         MOV     A,#0x9
   \   000023   12....       LCALL   ?XSTACK_DISP0_8
   \   000026   E4           CLR     A
   \   000027   12....       LCALL   ?Subroutine21 & 0xFFFF
   \                     ??CrossCallReturnLabel_23:
   \   00002A   E0           MOVX    A,@DPTR
   \   00002B   C0E0         PUSH    A
   \   00002D   7408         MOV     A,#0x8
   \   00002F   12....       LCALL   ?XSTACK_DISP0_8
   \   000032   D0E0         POP     A
   \   000034   F0           MOVX    @DPTR,A
   \   000035   8E82         MOV     DPL,R6
   \   000037   8F83         MOV     DPH,R7
   \   000039   12....       LCALL   ?Subroutine52 & 0xFFFF
   \                     ??CrossCallReturnLabel_74:
   \   00003C   12....       LCALL   ??Subroutine129_0 & 0xFFFF
    242          
    243            *(ZDP_TmpBuf-1) = *transSeq;
   \                     ??CrossCallReturnLabel_219:
   \   00003F   90....       MOV     DPTR,#ZDP_TmpBuf
   \   000042   E0           MOVX    A,@DPTR
   \   000043   24FF         ADD     A,#-0x1
   \   000045   F5..         MOV     ?V2,A
   \   000047   A3           INC     DPTR
   \   000048   E0           MOVX    A,@DPTR
   \   000049   34FF         ADDC    A,#-0x1
   \   00004B   F5..         MOV     ?V3,A
   \   00004D   85..82       MOV     DPL,?V0
   \   000050   85..83       MOV     DPH,?V1
   \   000053   12....       LCALL   ?Subroutine62 & 0xFFFF
    244          
    245            return AF_DataRequest( &afAddr, &ZDApp_epDesc, clusterID,
    246                                     (uint16)(len+1), (uint8*)(ZDP_TmpBuf-1),
    247                                     transSeq, ZDP_TxOptions,  AF_DEFAULT_RADIUS );
   \                     ??CrossCallReturnLabel_100:
   \   000056                ; Setup parameters for call to function AF_DataRequest
   \   000056   75..1E       MOV     ?V5,#0x1e
   \   000059   78..         MOV     R0,#?V5
   \   00005B   12....       LCALL   ?PUSH_XSTACK_I_ONE
   \   00005E   78..         MOV     R0,#?V0
   \   000060   12....       LCALL   ?PUSH_XSTACK_I_TWO
   \   000063   78..         MOV     R0,#?V2
   \   000065   12....       LCALL   ?PUSH_XSTACK_I_TWO
   \   000068   E5..         MOV     A,?V4
   \   00006A   2401         ADD     A,#0x1
   \   00006C   F5..         MOV     ?V0,A
   \   00006E   E4           CLR     A
   \   00006F   3400         ADDC    A,#0x0
   \   000071   F5..         MOV     ?V1,A
   \   000073   78..         MOV     R0,#?V0
   \   000075   12....       LCALL   ?PUSH_XSTACK_I_TWO
   \   000078   7421         MOV     A,#0x21
   \   00007A   12....       LCALL   ?XSTACK_DISP0_8
   \   00007D   12....       LCALL   ?PUSH_XSTACK8_X_TWO
   \   000080   90....       MOV     DPTR,#ZDP_TxOptions
   \   000083   E0           MOVX    A,@DPTR
   \   000084   F9           MOV     R1,A
   \   000085   7C..         MOV     R4,#ZDApp_epDesc & 0xff
   \   000087   7D..         MOV     R5,#(ZDApp_epDesc >> 8) & 0xff
   \   000089   7409         MOV     A,#0x9
   \   00008B   12....       LCALL   ?XSTACK_DISP101_8
   \   00008E   12....       LCALL   `??AF_DataRequest::?relay`; Banked call to: AF_DataRequest
   \   000091   7409         MOV     A,#0x9
   \   000093   12....       LCALL   ?DEALLOC_XSTACK8
   \   000096   740C         MOV     A,#0xc
   \   000098   02....       LJMP    ?Subroutine0 & 0xFFFF
    248          
    249          }

   \                                 In  segment BANKED_CODE, align 1, keep-with-next
   \                     ?Subroutine62:
   \   000000   E0           MOVX    A,@DPTR
   \   000001   85..82       MOV     DPL,?V2
   \   000004   85..83       MOV     DPH,?V3
   \   000007   F0           MOVX    @DPTR,A
   \   000008   22           RET

   \                                 In  segment BANKED_CODE, align 1, keep-with-next
   \                     ?Subroutine52:
   \   000000   12....       LCALL   ?Subroutine82 & 0xFFFF
   \                     ??CrossCallReturnLabel_296:
   \   000003   85..82       MOV     DPL,?XSP + 0
   \   000006   85..83       MOV     DPH,?XSP + 1
   \   000009   22           RET

   \                                 In  segment BANKED_CODE, align 1, keep-with-next
   \                     ?Subroutine0:
   \   000000   12....       LCALL   ?DEALLOC_XSTACK8
   \   000003                REQUIRE ??Subroutine114_0
   \   000003                ; // Fall through to label ??Subroutine114_0

   \                                 In  segment BANKED_CODE, align 1, keep-with-next
   \                     ??Subroutine114_0:
   \   000000   7F06         MOV     R7,#0x6
   \   000002   02....       LJMP    ?BANKED_LEAVE_XDATA

   \                                 In  segment BANKED_CODE, align 1, keep-with-next
   \                     ?Subroutine21:
   \   000000   12....       LCALL   ?Subroutine95 & 0xFFFF
   \                     ??CrossCallReturnLabel_151:
   \   000003   A3           INC     DPTR
   \   000004   A3           INC     DPTR
   \   000005   A3           INC     DPTR
   \   000006   A3           INC     DPTR
   \   000007   22           RET

   \                                 In  segment BANKED_CODE, align 1, keep-with-next
   \                     ??Subroutine129_0:
   \   000000   E8           MOV     A,R0
   \   000001   F0           MOVX    @DPTR,A
   \   000002   A3           INC     DPTR
   \   000003   E9           MOV     A,R1
   \   000004   F0           MOVX    @DPTR,A
   \   000005   22           RET

   \                                 In  segment BANKED_CODE, align 1, keep-with-next
   \                     ?Subroutine82:
   \   000000   12....       LCALL   ??Subroutine141_0 & 0xFFFF
   \                     ??CrossCallReturnLabel_304:
   \   000003   F9           MOV     R1,A
   \   000004   22           RET

   \                                 In  segment BANKED_CODE, align 1, keep-with-next
   \                     ??Subroutine141_0:
   \   000000   E0           MOVX    A,@DPTR
   \   000001   F8           MOV     R0,A
   \   000002   A3           INC     DPTR
   \   000003   E0           MOVX    A,@DPTR
   \   000004   22           RET

   \                                 In  segment BANKED_CODE, align 1, keep-with-next
   \                     ?Subroutine95:
   \   000000   F0           MOVX    @DPTR,A
   \   000001   8E82         MOV     DPL,R6
   \   000003   8F83         MOV     DPH,R7
   \   000005   A3           INC     DPTR
   \   000006   A3           INC     DPTR
   \   000007   A3           INC     DPTR
   \   000008   A3           INC     DPTR
   \   000009   22           RET
    250          
    251          /*********************************************************************
    252           * @fn          ZDP_SendData
    253           *
    254           * @brief       This builds and send a request message that has
    255           *              NWKAddrOfInterest as its only parameter.
    256           *
    257           * @param       dstAddr - destination address
    258           * @param       cmd - clusterID
    259           * @param       dataLen - number of bytes of data
    260           * @param       data - pointer to the data
    261           * @param       SecurityEnable - Security Options
    262           *
    263           * @return      afStatus_t
    264           */

   \                                 In  segment BANKED_CODE, align 1, keep-with-next
    265          afStatus_t ZDP_SendData( uint8 *TransSeq, zAddrType_t *dstAddr, uint16 cmd,
   \                     ZDP_SendData:
    266                                  byte len, uint8 *buf, byte SecurityEnable )
    267          {
   \   000000                REQUIRE ?V0
   \   000000                REQUIRE ?V2
   \   000000                REQUIRE ?V3
   \   000000   74F4         MOV     A,#-0xc
   \   000002   12....       LCALL   ?BANKED_ENTER_XDATA
   \   000005                ; Saved register size: 12
   \   000005                ; Auto size: 0
   \   000005   E9           MOV     A,R1
   \   000006   FF           MOV     R7,A
    268            uint8 *pBuf = ZDP_TmpBuf;
   \   000007   90....       MOV     DPTR,#ZDP_TmpBuf
   \   00000A   12....       LCALL   ??Subroutine120_0 & 0xFFFF
    269            byte cnt = len;
   \                     ??CrossCallReturnLabel_177:
   \   00000D   EF           MOV     A,R7
   \   00000E   FE           MOV     R6,A
   \   00000F   740E         MOV     A,#0xe
   \   000011   12....       LCALL   ?XSTACK_DISP0_8
   \   000014   12....       LCALL   ??Subroutine140_0 & 0xFFFF
   \                     ??CrossCallReturnLabel_286:
   \   000017   801D         SJMP    ??ZDP_SendData_0
    270          
    271            while ( cnt-- )
    272            {
    273              *pBuf++ = *buf++;
   \                     ??ZDP_SendData_1:
   \   000019   8882         MOV     DPL,R0
   \   00001B   8983         MOV     DPH,R1
   \   00001D   12....       LCALL   ?Subroutine62 & 0xFFFF
    274            }
   \                     ??CrossCallReturnLabel_101:
   \   000020   8882         MOV     DPL,R0
   \   000022   8983         MOV     DPH,R1
   \   000024   A3           INC     DPTR
   \   000025   A882         MOV     R0,DPL
   \   000027   A983         MOV     R1,DPH
   \   000029   85..82       MOV     DPL,?V2
   \   00002C   85..83       MOV     DPH,?V3
   \   00002F   A3           INC     DPTR
   \   000030   8582..       MOV     ?V2,DPL
   \   000033   8583..       MOV     ?V3,DPH
   \                     ??ZDP_SendData_0:
   \   000036   74FF         MOV     A,#-0x1
   \   000038   2E           ADD     A,R6
   \   000039   FE           MOV     R6,A
   \   00003A   04           INC     A
   \   00003B   70DC         JNZ     ??ZDP_SendData_1
    275          
    276            FillAndSendTxOptions( TransSeq, dstAddr, cmd, len, ((SecurityEnable) ? AF_EN_SECURITY : 0) );
   \   00003D   7410         MOV     A,#0x10
   \   00003F   12....       LCALL   ?XSTACK_DISP0_8
   \   000042   E0           MOVX    A,@DPTR
   \   000043   90....       MOV     DPTR,#ZDP_TxOptions
   \   000046   6004         JZ      ??ZDP_SendData_2
   \   000048   7440         MOV     A,#0x40
   \   00004A   8001         SJMP    ??ZDP_SendData_3
   \                     ??ZDP_SendData_2:
   \   00004C   E4           CLR     A
   \                     ??ZDP_SendData_3:
   \   00004D   F0           MOVX    @DPTR,A
   \   00004E                ; Setup parameters for call to function fillAndSend
   \   00004E   740C         MOV     A,#0xc
   \   000050   12....       LCALL   ?XSTACK_DISP0_8
   \   000053   12....       LCALL   ?PUSH_XSTACK8_X_TWO
   \   000056   EF           MOV     A,R7
   \   000057   F9           MOV     R1,A
   \   000058   12....       LCALL   `??fillAndSend::?relay`; Banked call to: fillAndSend
   \   00005B   7402         MOV     A,#0x2
   \   00005D   12....       LCALL   ?DEALLOC_XSTACK8
   \   000060   E9           MOV     A,R1
   \   000061   F9           MOV     R1,A
   \   000062   90....       MOV     DPTR,#ZDP_TxOptions
   \   000065   E4           CLR     A
   \   000066   F0           MOVX    @DPTR,A
   \   000067   02....       LJMP    ??Subroutine110_0 & 0xFFFF
    277          }

   \                                 In  segment BANKED_CODE, align 1, keep-with-next
   \                     ??Subroutine110_0:
   \   000000   7F04         MOV     R7,#0x4
   \   000002   02....       LJMP    ?BANKED_LEAVE_XDATA

   \                                 In  segment BANKED_CODE, align 1, keep-with-next
   \                     ??Subroutine120_0:
   \   000000   E0           MOVX    A,@DPTR
   \   000001   F5..         MOV     ?V2,A
   \   000003   A3           INC     DPTR
   \   000004   E0           MOVX    A,@DPTR
   \   000005   F5..         MOV     ?V3,A
   \   000007   22           RET

   \                                 In  segment BANKED_CODE, align 1, keep-with-next
   \                     ??Subroutine140_0:
   \   000000   12....       LCALL   ?Subroutine82 & 0xFFFF
   \                     ??CrossCallReturnLabel_298:
   \   000003   22           RET
    278          
    279          /*********************************************************************
    280           * @fn          ZDP_NWKAddrOfInterestReq
    281           *
    282           * @brief       This builds and send a request message that has
    283           *              NWKAddrOfInterest as its only parameter.
    284           *
    285           * @param       dstAddr - destination address
    286           * @param       nwkAddr - 16 bit address
    287           * @param       SecurityEnable - Security Options
    288           *
    289           * @return      afStatus_t
    290           */

   \                                 In  segment BANKED_CODE, align 1, keep-with-next
    291          afStatus_t ZDP_NWKAddrOfInterestReq( zAddrType_t *dstAddr, uint16 nwkAddr,
   \                     ZDP_NWKAddrOfInterestReq:
    292                                               byte cmd, byte SecurityEnable )
    293          {
   \   000000                REQUIRE ?V0
   \   000000                REQUIRE ?V1
   \   000000   74F6         MOV     A,#-0xa
   \   000002   12....       LCALL   ?BANKED_ENTER_XDATA
   \   000005                ; Saved register size: 10
   \   000005                ; Auto size: 0
   \   000005   E9           MOV     A,R1
   \   000006   FE           MOV     R6,A
    294            (void)SecurityEnable;  // Intentionally unreferenced parameter
    295          
    296            ZDP_TmpBuf[0] = LO_UINT16( nwkAddr );
   \   000007   12....       LCALL   ?Subroutine18 & 0xFFFF
    297            ZDP_TmpBuf[1] = HI_UINT16( nwkAddr );
   \                     ??CrossCallReturnLabel_17:
   \   00000A   F0           MOVX    @DPTR,A
    298          
    299            return fillAndSend( &ZDP_TransID, dstAddr, cmd, 2 );
   \   00000B                ; Setup parameters for call to function fillAndSend
   \   00000B   8E..         MOV     ?V0,R6
   \   00000D   02....       LJMP    ?Subroutine2 & 0xFFFF
    300          }

   \                                 In  segment BANKED_CODE, align 1, keep-with-next
   \                     ?Subroutine2:
   \   000000   75..00       MOV     ?V1,#0x0
   \   000003   78..         MOV     R0,#?V0
   \   000005   12....       LCALL   ?PUSH_XSTACK_I_TWO
   \   000008   7902         MOV     R1,#0x2
   \   00000A                REQUIRE ??Subroutine111_0
   \   00000A                ; // Fall through to label ??Subroutine111_0

   \                                 In  segment BANKED_CODE, align 1, keep-with-next
   \                     ??Subroutine111_0:
   \   000000   EA           MOV     A,R2
   \   000001   FC           MOV     R4,A
   \   000002   EB           MOV     A,R3
   \   000003   FD           MOV     R5,A
   \   000004   7A..         MOV     R2,#ZDP_TransID & 0xff
   \   000006   7B..         MOV     R3,#(ZDP_TransID >> 8) & 0xff
   \   000008                REQUIRE ??Subroutine112_0
   \   000008                ; // Fall through to label ??Subroutine112_0

   \                                 In  segment BANKED_CODE, align 1, keep-with-next
   \                     ??Subroutine112_0:
   \   000000   12....       LCALL   `??fillAndSend::?relay`; Banked call to: fillAndSend
   \   000003   7402         MOV     A,#0x2
   \   000005                REQUIRE ??Subroutine113_0
   \   000005                ; // Fall through to label ??Subroutine113_0

   \                                 In  segment BANKED_CODE, align 1, keep-with-next
   \                     ??Subroutine113_0:
   \   000000   12....       LCALL   ?DEALLOC_XSTACK8
   \   000003   7F02         MOV     R7,#0x2
   \   000005   02....       LJMP    ?BANKED_LEAVE_XDATA

   \                                 In  segment BANKED_CODE, align 1, keep-with-next
   \                     ?Subroutine18:
   \   000000   12....       LCALL   ?Subroutine102 & 0xFFFF
   \                     ??CrossCallReturnLabel_165:
   \   000003   EC           MOV     A,R4
   \   000004   12....       LCALL   ?Subroutine77 & 0xFFFF
   \                     ??CrossCallReturnLabel_121:
   \   000007   ED           MOV     A,R5
   \   000008   22           RET

   \                                 In  segment BANKED_CODE, align 1, keep-with-next
   \                     ?Subroutine77:
   \   000000   F0           MOVX    @DPTR,A
   \   000001   12....       LCALL   ?Subroutine102 & 0xFFFF
   \                     ??CrossCallReturnLabel_166:
   \   000004   A3           INC     DPTR
   \   000005   22           RET

   \                                 In  segment BANKED_CODE, align 1, keep-with-next
   \                     ?Subroutine102:
   \   000000   90....       MOV     DPTR,#ZDP_TmpBuf
   \   000003   E0           MOVX    A,@DPTR
   \   000004   F8           MOV     R0,A
   \   000005   A3           INC     DPTR
   \   000006   E0           MOVX    A,@DPTR
   \   000007   F583         MOV     DPH,A
   \   000009   8882         MOV     DPL,R0
   \   00000B   22           RET
    301          
    302          /*********************************************************************
    303           * Address Requests
    304           */
    305          
    306          /*********************************************************************
    307           * @fn          ZDP_NwkAddrReq
    308           *
    309           * @brief       This builds and send a NWK_addr_req message.  This
    310           *              function sends a broadcast message looking for a 16
    311           *              bit address with a 64 bit address as bait.
    312           *
    313           * @param       IEEEAddress - looking for this device
    314           * @param       SecurityEnable - Security Options
    315           *
    316           * @return      afStatus_t
    317           */

   \                                 In  segment BANKED_CODE, align 1, keep-with-next
    318          afStatus_t ZDP_NwkAddrReq( uint8 *IEEEAddress, byte ReqType,
   \                     ZDP_NwkAddrReq:
    319                                     byte StartIndex, byte SecurityEnable )
    320          {
   \   000000                REQUIRE ?V0
   \   000000                REQUIRE ?V1
   \   000000                REQUIRE ?V2
   \   000000                REQUIRE ?V3
   \   000000   74F4         MOV     A,#-0xc
   \   000002   12....       LCALL   ?BANKED_ENTER_XDATA
   \   000005                ; Saved register size: 12
   \   000005                ; Auto size: 9
   \   000005   74F7         MOV     A,#-0x9
   \   000007   12....       LCALL   ?ALLOC_XSTACK8
   \   00000A   EA           MOV     A,R2
   \   00000B   FE           MOV     R6,A
   \   00000C   EB           MOV     A,R3
   \   00000D   FF           MOV     R7,A
   \   00000E   89..         MOV     ?V2,R1
   \   000010   8C..         MOV     ?V3,R4
    321            uint8 *pBuf = ZDP_TmpBuf;
   \   000012   12....       LCALL   ?Subroutine63 & 0xFFFF
    322            byte len = Z_EXTADDR_LEN + 1 + 1;  // IEEEAddress + ReqType + StartIndex.
    323            zAddrType_t dstAddr;
    324          
    325            (void)SecurityEnable;  // Intentionally unreferenced parameter
    326          
    327            if ( osal_ExtAddrEqual( saveExtAddr, IEEEAddress ) == FALSE )
   \                     ??CrossCallReturnLabel_102:
   \   000015   FC           MOV     R4,A
   \   000016   EF           MOV     A,R7
   \   000017   FD           MOV     R5,A
   \   000018   7A..         MOV     R2,#saveExtAddr & 0xff
   \   00001A   7B..         MOV     R3,#(saveExtAddr >> 8) & 0xff
   \   00001C   12....       LCALL   `??sAddrExtCmp::?relay`; Banked call to: sAddrExtCmp
   \   00001F   E9           MOV     A,R1
   \   000020   700A         JNZ     ??ZDP_NwkAddrReq_0
    328            {
    329              dstAddr.addrMode = AddrBroadcast;
   \   000022   7408         MOV     A,#0x8
   \   000024   12....       LCALL   ?XSTACK_DISP0_8
   \   000027   12....       LCALL   ?Subroutine92 & 0xFFFF
    330              dstAddr.addr.shortAddr = NWK_BROADCAST_SHORTADDR_DEVRXON;
    331            }
   \                     ??CrossCallReturnLabel_147:
   \   00002A   8012         SJMP    ??ZDP_NwkAddrReq_1
    332            else
    333            {
    334              dstAddr.addrMode = Addr16Bit;
   \                     ??ZDP_NwkAddrReq_0:
   \   00002C   7408         MOV     A,#0x8
   \   00002E   12....       LCALL   ?XSTACK_DISP0_8
   \   000031   7402         MOV     A,#0x2
   \   000033   F0           MOVX    @DPTR,A
    335              dstAddr.addr.shortAddr = ZDAppNwkAddr.addr.shortAddr;
   \   000034   90....       MOV     DPTR,#ZDAppNwkAddr
   \   000037   12....       LCALL   ?Subroutine52 & 0xFFFF
    336            }
   \                     ??CrossCallReturnLabel_75:
   \   00003A   E8           MOV     A,R0
   \   00003B   F0           MOVX    @DPTR,A
   \   00003C   A3           INC     DPTR
   \   00003D   E9           MOV     A,R1
   \                     ??ZDP_NwkAddrReq_1:
   \   00003E   F0           MOVX    @DPTR,A
    337          
    338            pBuf = osal_cpyExtAddr( pBuf, IEEEAddress );
   \   00003F                ; Setup parameters for call to function sAddrExtCpy
   \   00003F   EE           MOV     A,R6
   \   000040   FC           MOV     R4,A
   \   000041   EF           MOV     A,R7
   \   000042   FD           MOV     R5,A
   \   000043   AA..         MOV     R2,?V0
   \   000045   AB..         MOV     R3,?V1
   \   000047   12....       LCALL   `??sAddrExtCpy::?relay`; Banked call to: sAddrExtCpy
   \   00004A   8A82         MOV     DPL,R2
   \   00004C   8B83         MOV     DPH,R3
    339          
    340            *pBuf++ = ReqType;
   \   00004E   E5..         MOV     A,?V2
   \   000050   F0           MOVX    @DPTR,A
    341            *pBuf++ = StartIndex;
   \   000051   A3           INC     DPTR
   \   000052   E5..         MOV     A,?V3
   \   000054   F0           MOVX    @DPTR,A
    342          
    343            return fillAndSend( &ZDP_TransID, &dstAddr, NWK_addr_req, len );
   \   000055                ; Setup parameters for call to function fillAndSend
   \   000055   E4           CLR     A
   \   000056   F5..         MOV     ?V0,A
   \   000058   F5..         MOV     ?V1,A
   \   00005A   78..         MOV     R0,#?V0
   \   00005C   12....       LCALL   ?PUSH_XSTACK_I_TWO
   \   00005F   790A         MOV     R1,#0xa
   \   000061   7402         MOV     A,#0x2
   \   000063   12....       LCALL   ?XSTACK_DISP102_8
   \   000066   7A..         MOV     R2,#ZDP_TransID & 0xff
   \   000068   7B..         MOV     R3,#(ZDP_TransID >> 8) & 0xff
   \   00006A   12....       LCALL   `??fillAndSend::?relay`; Banked call to: fillAndSend
   \   00006D   7402         MOV     A,#0x2
   \   00006F   12....       LCALL   ?DEALLOC_XSTACK8
   \   000072   7409         MOV     A,#0x9
   \   000074   80..         SJMP    ??Subroutine109_0
    344          }

   \                                 In  segment BANKED_CODE, align 1, keep-with-next
   \                     ??Subroutine109_0:
   \   000000   12....       LCALL   ?DEALLOC_XSTACK8
   \   000003                REQUIRE ??Subroutine110_0
   \   000003                ; // Fall through to label ??Subroutine110_0

   \                                 In  segment BANKED_CODE, align 1, keep-with-next
   \                     ?Subroutine92:
   \   000000   740F         MOV     A,#0xf
   \   000002   F0           MOVX    @DPTR,A
   \   000003   85..82       MOV     DPL,?XSP + 0
   \   000006   85..83       MOV     DPH,?XSP + 1
   \   000009   74FD         MOV     A,#-0x3
   \   00000B   F0           MOVX    @DPTR,A
   \   00000C   A3           INC     DPTR
   \   00000D   74FF         MOV     A,#-0x1
   \   00000F   22           RET

   \                                 In  segment BANKED_CODE, align 1, keep-with-next
   \                     ?Subroutine63:
   \   000000   90....       MOV     DPTR,#ZDP_TmpBuf
   \   000003   12....       LCALL   ?Subroutine79 & 0xFFFF
   \                     ??CrossCallReturnLabel_128:
   \   000006                ; Setup parameters for call to function sAddrExtCmp
   \   000006   EE           MOV     A,R6
   \   000007   22           RET

   \                                 In  segment BANKED_CODE, align 1, keep-with-next
   \                     ?Subroutine79:
   \   000000   E0           MOVX    A,@DPTR
   \   000001   F5..         MOV     ?V0,A
   \   000003   A3           INC     DPTR
   \   000004   E0           MOVX    A,@DPTR
   \   000005   F5..         MOV     ?V1,A
   \   000007   22           RET
    345          
    346          /*********************************************************************
    347           * @fn          ZDP_IEEEAddrReq
    348           *
    349           * @brief       This builds and send a IEEE_addr_req message.  This
    350           *              function sends a unicast message looking for a 64
    351           *              bit IEEE address with a 16 bit address as bait.
    352           *
    353           * @param       ReqType - ZDP_IEEEADDR_REQTYPE_SINGLE or
    354           *                        ZDP_IEEEADDR_REQTYPE_EXTENDED
    355           * @param       SecurityEnable - Security Options
    356           *
    357           * @return      afStatus_t
    358           */

   \                                 In  segment BANKED_CODE, align 1, keep-with-next
    359          afStatus_t ZDP_IEEEAddrReq( uint16 shortAddr, byte ReqType,
   \                     ZDP_IEEEAddrReq:
    360                                      byte StartIndex, byte SecurityEnable )
    361          {
   \   000000                REQUIRE ?V0
   \   000000                REQUIRE ?V1
   \   000000   74F6         MOV     A,#-0xa
   \   000002   12....       LCALL   ?BANKED_ENTER_XDATA
   \   000005                ; Saved register size: 10
   \   000005                ; Auto size: 9
   \   000005   74F7         MOV     A,#-0x9
   \   000007   12....       LCALL   ?ALLOC_XSTACK8
   \   00000A   E9           MOV     A,R1
   \   00000B   FE           MOV     R6,A
   \   00000C   EC           MOV     A,R4
   \   00000D   FF           MOV     R7,A
    362            uint8 *pBuf = ZDP_TmpBuf;
   \   00000E   12....       LCALL   ??Subroutine139_0 & 0xFFFF
    363            byte len = 2 + 1 + 1;  // shortAddr + ReqType + StartIndex.
    364            zAddrType_t dstAddr;
    365          
    366            (void)SecurityEnable;  // Intentionally unreferenced parameter
    367          
    368            dstAddr.addrMode = (afAddrMode_t)Addr16Bit;
   \                     ??CrossCallReturnLabel_294:
   \   000011   7408         MOV     A,#0x8
   \   000013   12....       LCALL   ?XSTACK_DISP0_8
   \   000016   12....       LCALL   ?Subroutine25 & 0xFFFF
    369            dstAddr.addr.shortAddr = shortAddr;
    370          
    371            *pBuf++ = LO_UINT16( shortAddr );
   \                     ??CrossCallReturnLabel_31:
   \   000019   EA           MOV     A,R2
   \   00001A   8882         MOV     DPL,R0
   \   00001C   8983         MOV     DPH,R1
   \   00001E   F0           MOVX    @DPTR,A
    372            *pBuf++ = HI_UINT16( shortAddr );
   \   00001F   EB           MOV     A,R3
   \   000020   12....       LCALL   ?Subroutine38 & 0xFFFF
    373          
    374            *pBuf++ = ReqType;
   \                     ??CrossCallReturnLabel_53:
   \   000023   F0           MOVX    @DPTR,A
    375            *pBuf++ = StartIndex;
   \   000024   EF           MOV     A,R7
   \   000025   8882         MOV     DPL,R0
   \   000027   8983         MOV     DPH,R1
   \   000029   A3           INC     DPTR
   \   00002A   A3           INC     DPTR
   \   00002B   A3           INC     DPTR
   \   00002C   F0           MOVX    @DPTR,A
    376          
    377            return fillAndSend( &ZDP_TransID, &dstAddr, IEEE_addr_req, len );
   \   00002D                ; Setup parameters for call to function fillAndSend
   \   00002D   75..01       MOV     ?V0,#0x1
   \   000030   75..00       MOV     ?V1,#0x0
   \   000033   78..         MOV     R0,#?V0
   \   000035   12....       LCALL   ?PUSH_XSTACK_I_TWO
   \   000038   7904         MOV     R1,#0x4
   \   00003A   02....       LJMP    ?Subroutine8 & 0xFFFF
    378          }

   \                                 In  segment BANKED_CODE, align 1, keep-with-next
   \                     ?Subroutine38:
   \   000000   A3           INC     DPTR
   \   000001   F0           MOVX    @DPTR,A
   \   000002   EE           MOV     A,R6
   \   000003   8882         MOV     DPL,R0
   \   000005   8983         MOV     DPH,R1
   \   000007   A3           INC     DPTR
   \   000008   A3           INC     DPTR
   \   000009   22           RET

   \                                 In  segment BANKED_CODE, align 1, keep-with-next
   \                     ?Subroutine8:
   \   000000   7402         MOV     A,#0x2
   \   000002   12....       LCALL   ?XSTACK_DISP102_8
   \   000005   7A..         MOV     R2,#ZDP_TransID & 0xff
   \   000007   7B..         MOV     R3,#(ZDP_TransID >> 8) & 0xff
   \   000009   12....       LCALL   `??fillAndSend::?relay`; Banked call to: fillAndSend
   \   00000C   7402         MOV     A,#0x2
   \   00000E   12....       LCALL   ?DEALLOC_XSTACK8
   \   000011                REQUIRE ??Subroutine115_0
   \   000011                ; // Fall through to label ??Subroutine115_0

   \                                 In  segment BANKED_CODE, align 1, keep-with-next
   \                     ??Subroutine115_0:
   \   000000   7409         MOV     A,#0x9
   \   000002   02....       LJMP    ??Subroutine113_0 & 0xFFFF

   \                                 In  segment BANKED_CODE, align 1, keep-with-next
   \                     ?Subroutine25:
   \   000000   7402         MOV     A,#0x2
   \   000002   F0           MOVX    @DPTR,A
   \   000003   85..82       MOV     DPL,?XSP + 0
   \   000006   85..83       MOV     DPH,?XSP + 1
   \   000009   EA           MOV     A,R2
   \   00000A   F0           MOVX    @DPTR,A
   \   00000B   A3           INC     DPTR
   \   00000C   EB           MOV     A,R3
   \   00000D   F0           MOVX    @DPTR,A
   \   00000E   22           RET

   \                                 In  segment BANKED_CODE, align 1, keep-with-next
   \                     ??Subroutine139_0:
   \   000000   90....       MOV     DPTR,#ZDP_TmpBuf
   \   000003                REQUIRE ??Subroutine140_0
   \   000003                ; // Fall through to label ??Subroutine140_0
    379          
    380          /*********************************************************************
    381           * @fn          ZDP_MatchDescReq
    382           *
    383           * @brief       This builds and send a Match_Desc_req message.  This
    384           *              function sends a broadcast or unicast message
    385           *              requesting the list of endpoint/interfaces that
    386           *              match profile ID and cluster IDs.
    387           *
    388           * @param       dstAddr - destination address
    389           * @param       nwkAddr - network address of interest
    390           * @param       ProfileID - Profile ID
    391           * @param       NumInClusters - number of input clusters
    392           * @param       InClusterList - input cluster ID list
    393           * @param       NumOutClusters - number of output clusters
    394           * @param       OutClusterList - output cluster ID list
    395           * @param       SecurityEnable - Security Options
    396           *
    397           * @return      afStatus_t
    398           */

   \                                 In  segment BANKED_CODE, align 1, keep-with-next
    399          afStatus_t ZDP_MatchDescReq( zAddrType_t *dstAddr, uint16 nwkAddr,
   \                     ZDP_MatchDescReq:
    400                                          uint16 ProfileID,
    401                                          byte NumInClusters, cId_t *InClusterList,
    402                                          byte NumOutClusters, cId_t *OutClusterList,
    403                                          byte SecurityEnable )
    404          {
   \   000000                REQUIRE ?V0
   \   000000                REQUIRE ?V1
   \   000000                REQUIRE ?V2
   \   000000                REQUIRE ?V3
   \   000000                REQUIRE ?V4
   \   000000                REQUIRE ?V5
   \   000000   74F2         MOV     A,#-0xe
   \   000002   12....       LCALL   ?BANKED_ENTER_XDATA
   \   000005                ; Saved register size: 14
   \   000005                ; Auto size: 0
   \   000005   12....       LCALL   ?Subroutine56 & 0xFFFF
    405            uint8 *pBuf = ZDP_TmpBuf;
   \                     ??CrossCallReturnLabel_284:
   \   000008   7412         MOV     A,#0x12
   \   00000A   12....       LCALL   ?XSTACK_DISP0_8
   \   00000D   E0           MOVX    A,@DPTR
   \   00000E   F5..         MOV     ?V0,A
    406            // nwkAddr+ProfileID+NumInClusters+NumOutClusters.
    407            byte i, len = 2 + 2 + 1 + 1;  // nwkAddr+ProfileID+NumInClusters+NumOutClusters.
    408          
    409            (void)SecurityEnable;  // Intentionally unreferenced parameter
    410          
    411            len += (NumInClusters + NumOutClusters) * sizeof(uint16);
   \   000010   EE           MOV     A,R6
   \   000011   25..         ADD     A,?V0
   \   000013   C3           CLR     C
   \   000014   33           RLC     A
   \   000015   2406         ADD     A,#0x6
   \   000017   FF           MOV     R7,A
    412          
    413            if ( len >= ZDP_BUF_SZ-1 )
   \   000018   C3           CLR     C
   \   000019   944F         SUBB    A,#0x4f
   \   00001B   4005         JC      ??ZDP_MatchDescReq_0
    414            {
    415              return afStatus_MEM_FAIL;
   \   00001D   7910         MOV     R1,#0x10
   \   00001F   02....       LJMP    ??ZDP_MatchDescReq_1 & 0xFFFF
    416            }
    417          
    418            // The spec changed in Zigbee 2007 (2.4.3.1.7.1) to not allow sending
    419            // this command to 0xFFFF.  So, here we will filter this and replace
    420            // with 0xFFFD to only send to devices with RX ON.  This includes the
    421            // network address of interest.
    422            if ( ((dstAddr->addrMode == AddrBroadcast) || (dstAddr->addrMode == Addr16Bit))
    423                && (dstAddr->addr.shortAddr == NWK_BROADCAST_SHORTADDR_DEVALL) )
   \                     ??ZDP_MatchDescReq_0:
   \   000022   8A82         MOV     DPL,R2
   \   000024   8B83         MOV     DPH,R3
   \   000026   A3           INC     DPTR
   \   000027   A3           INC     DPTR
   \   000028   A3           INC     DPTR
   \   000029   A3           INC     DPTR
   \   00002A   A3           INC     DPTR
   \   00002B   A3           INC     DPTR
   \   00002C   A3           INC     DPTR
   \   00002D   A3           INC     DPTR
   \   00002E   E0           MOVX    A,@DPTR
   \   00002F   640F         XRL     A,#0xf
   \   000031   6011         JZ      ??ZDP_MatchDescReq_2
   \   000033   8A82         MOV     DPL,R2
   \   000035   8B83         MOV     DPH,R3
   \   000037   A3           INC     DPTR
   \   000038   A3           INC     DPTR
   \   000039   A3           INC     DPTR
   \   00003A   A3           INC     DPTR
   \   00003B   A3           INC     DPTR
   \   00003C   A3           INC     DPTR
   \   00003D   A3           INC     DPTR
   \   00003E   A3           INC     DPTR
   \   00003F   E0           MOVX    A,@DPTR
   \   000040   6402         XRL     A,#0x2
   \   000042   7018         JNZ     ??ZDP_MatchDescReq_3
   \                     ??ZDP_MatchDescReq_2:
   \   000044   8A82         MOV     DPL,R2
   \   000046   8B83         MOV     DPH,R3
   \   000048   E0           MOVX    A,@DPTR
   \   000049   F4           CPL     A
   \   00004A   7003         JNZ     ??ZDP_MatchDescReq_4
   \   00004C   A3           INC     DPTR
   \   00004D   E0           MOVX    A,@DPTR
   \   00004E   F4           CPL     A
   \                     ??ZDP_MatchDescReq_4:
   \   00004F   700B         JNZ     ??ZDP_MatchDescReq_3
    424            {
    425              dstAddr->addr.shortAddr = NWK_BROADCAST_SHORTADDR_DEVRXON;
   \   000051   8A82         MOV     DPL,R2
   \   000053   8B83         MOV     DPH,R3
   \   000055   74FD         MOV     A,#-0x3
   \   000057   F0           MOVX    @DPTR,A
   \   000058   A3           INC     DPTR
   \   000059   74FF         MOV     A,#-0x1
   \   00005B   F0           MOVX    @DPTR,A
    426            }
    427            if ( nwkAddr == NWK_BROADCAST_SHORTADDR_DEVALL )
   \                     ??ZDP_MatchDescReq_3:
   \   00005C   74FF         MOV     A,#-0x1
   \   00005E   6C           XRL     A,R4
   \   00005F   7003         JNZ     ??ZDP_MatchDescReq_5
   \   000061   74FF         MOV     A,#-0x1
   \   000063   6D           XRL     A,R5
   \                     ??ZDP_MatchDescReq_5:
   \   000064   7004         JNZ     ??ZDP_MatchDescReq_6
    428            {
    429              nwkAddr = NWK_BROADCAST_SHORTADDR_DEVRXON;
   \   000066   7CFD         MOV     R4,#-0x3
   \   000068   7DFF         MOV     R5,#-0x1
    430            }
    431          
    432            *pBuf++ = LO_UINT16( nwkAddr );   // NWKAddrOfInterest
   \                     ??ZDP_MatchDescReq_6:
   \   00006A   EC           MOV     A,R4
   \   00006B   8882         MOV     DPL,R0
   \   00006D   8983         MOV     DPH,R1
   \   00006F   F0           MOVX    @DPTR,A
    433            *pBuf++ = HI_UINT16( nwkAddr );
   \   000070   ED           MOV     A,R5
   \   000071   A3           INC     DPTR
   \   000072   F0           MOVX    @DPTR,A
   \   000073   740E         MOV     A,#0xe
   \   000075   12....       LCALL   ?XSTACK_DISP0_8
   \   000078   12....       LCALL   ?Subroutine83 & 0xFFFF
    434          
    435            *pBuf++ = LO_UINT16( ProfileID );   // Profile ID
   \                     ??CrossCallReturnLabel_131:
   \   00007B   EC           MOV     A,R4
   \   00007C   8882         MOV     DPL,R0
   \   00007E   8983         MOV     DPH,R1
   \   000080   A3           INC     DPTR
   \   000081   A3           INC     DPTR
   \   000082   F0           MOVX    @DPTR,A
    436            *pBuf++ = HI_UINT16( ProfileID );
   \   000083   ED           MOV     A,R5
   \   000084   8882         MOV     DPL,R0
   \   000086   8983         MOV     DPH,R1
   \   000088   A3           INC     DPTR
   \   000089   A3           INC     DPTR
   \   00008A   12....       LCALL   ?Subroutine38 & 0xFFFF
    437          
    438            *pBuf++ = NumInClusters; // Input cluster list
   \                     ??CrossCallReturnLabel_54:
   \   00008D   A3           INC     DPTR
   \   00008E   A3           INC     DPTR
   \   00008F   F0           MOVX    @DPTR,A
   \   000090   E8           MOV     A,R0
   \   000091   2405         ADD     A,#0x5
   \   000093   F8           MOV     R0,A
   \   000094   5001         JNC     ??ZDP_MatchDescReq_7
   \   000096   09           INC     R1
    439            if ( NumInClusters )
   \                     ??ZDP_MatchDescReq_7:
   \   000097   EE           MOV     A,R6
   \   000098   6019         JZ      ??ZDP_MatchDescReq_8
    440            {
    441              for (i=0; i<NumInClusters; ++i)  {
   \   00009A   75..00       MOV     ?V1,#0x0
   \   00009D   7410         MOV     A,#0x10
   \   00009F   12....       LCALL   ?XSTACK_DISP0_8
   \   0000A2   12....       LCALL   ?Subroutine57 & 0xFFFF
    442                *pBuf++ = LO_UINT16( InClusterList[i] );
   \                     ??CrossCallReturnLabel_85:
   \   0000A5   12....       LCALL   ?Subroutine14 & 0xFFFF
    443                *pBuf++ = HI_UINT16( InClusterList[i] );
    444              }
   \                     ??CrossCallReturnLabel_10:
   \   0000A8   5001         JNC     ??ZDP_MatchDescReq_9
   \   0000AA   09           INC     R1
   \                     ??ZDP_MatchDescReq_9:
   \   0000AB   05..         INC     ?V1
   \   0000AD   E5..         MOV     A,?V1
   \   0000AF   C3           CLR     C
   \   0000B0   9E           SUBB    A,R6
   \   0000B1   40F2         JC      ??CrossCallReturnLabel_85
    445            }
    446          
    447            *pBuf++ = NumOutClusters; // Output cluster list
   \                     ??ZDP_MatchDescReq_8:
   \   0000B3   8882         MOV     DPL,R0
   \   0000B5   8983         MOV     DPH,R1
   \   0000B7   E5..         MOV     A,?V0
   \   0000B9   F0           MOVX    @DPTR,A
   \   0000BA   A3           INC     DPTR
   \   0000BB   A882         MOV     R0,DPL
   \   0000BD   A983         MOV     R1,DPH
    448            if ( NumOutClusters )
   \   0000BF   601A         JZ      ??ZDP_MatchDescReq_10
    449            {
    450              for (i=0; i<NumOutClusters; ++i)  {
   \   0000C1   75..00       MOV     ?V1,#0x0
   \   0000C4   7413         MOV     A,#0x13
   \   0000C6   12....       LCALL   ?XSTACK_DISP0_8
   \   0000C9   12....       LCALL   ?Subroutine57 & 0xFFFF
    451                *pBuf++ = LO_UINT16( OutClusterList[i] );
   \                     ??CrossCallReturnLabel_86:
   \   0000CC   12....       LCALL   ?Subroutine14 & 0xFFFF
    452                *pBuf++ = HI_UINT16( OutClusterList[i] );
    453              }
   \                     ??CrossCallReturnLabel_11:
   \   0000CF   5001         JNC     ??ZDP_MatchDescReq_11
   \   0000D1   09           INC     R1
   \                     ??ZDP_MatchDescReq_11:
   \   0000D2   05..         INC     ?V1
   \   0000D4   E5..         MOV     A,?V1
   \   0000D6   C3           CLR     C
   \   0000D7   95..         SUBB    A,?V0
   \   0000D9   40F1         JC      ??CrossCallReturnLabel_86
    454            }
    455          
    456            return fillAndSend( &ZDP_TransID, dstAddr, Match_Desc_req, len );
   \                     ??ZDP_MatchDescReq_10:
   \   0000DB                ; Setup parameters for call to function fillAndSend
   \   0000DB   75..06       MOV     ?V0,#0x6
   \   0000DE   75..00       MOV     ?V1,#0x0
   \   0000E1   78..         MOV     R0,#?V0
   \   0000E3   12....       LCALL   ?PUSH_XSTACK_I_TWO
   \   0000E6   EF           MOV     A,R7
   \   0000E7   F9           MOV     R1,A
   \   0000E8   EA           MOV     A,R2
   \   0000E9   FC           MOV     R4,A
   \   0000EA   EB           MOV     A,R3
   \   0000EB   FD           MOV     R5,A
   \   0000EC   7A..         MOV     R2,#ZDP_TransID & 0xff
   \   0000EE   7B..         MOV     R3,#(ZDP_TransID >> 8) & 0xff
   \   0000F0   12....       LCALL   `??fillAndSend::?relay`; Banked call to: fillAndSend
   \   0000F3   7402         MOV     A,#0x2
   \   0000F5   12....       LCALL   ?DEALLOC_XSTACK8
   \                     ??ZDP_MatchDescReq_1:
   \   0000F8   80..         SJMP    ??Subroutine114_0
    457          }

   \                                 In  segment BANKED_CODE, align 1, keep-with-next
   \                     ?Subroutine57:
   \   000000   12....       LCALL   ?Subroutine83 & 0xFFFF
   \                     ??CrossCallReturnLabel_134:
   \   000003   8C..         MOV     ?V2,R4
   \   000005   8D..         MOV     ?V3,R5
   \   000007   22           RET

   \                                 In  segment BANKED_CODE, align 1, keep-with-next
   \                     ?Subroutine14:
   \   000000   AC..         MOV     R4,?V1
   \   000002   EC           MOV     A,R4
   \   000003   2C           ADD     A,R4
   \   000004   FC           MOV     R4,A
   \   000005   E4           CLR     A
   \   000006   33           RLC     A
   \   000007   FD           MOV     R5,A
   \   000008   E5..         MOV     A,?V2
   \   00000A   2C           ADD     A,R4
   \   00000B   FC           MOV     R4,A
   \   00000C   E5..         MOV     A,?V3
   \   00000E   3D           ADDC    A,R5
   \   00000F   FD           MOV     R5,A
   \   000010   8C82         MOV     DPL,R4
   \   000012   8D83         MOV     DPH,R5
   \   000014   12....       LCALL   ?Subroutine84 & 0xFFFF
   \                     ??CrossCallReturnLabel_236:
   \   000017   F0           MOVX    @DPTR,A
   \   000018   8C82         MOV     DPL,R4
   \   00001A   8D83         MOV     DPH,R5
   \   00001C   A3           INC     DPTR
   \   00001D   12....       LCALL   ?Subroutine84 & 0xFFFF
   \                     ??CrossCallReturnLabel_237:
   \   000020   A3           INC     DPTR
   \   000021   F0           MOVX    @DPTR,A
   \   000022   E8           MOV     A,R0
   \   000023   2402         ADD     A,#0x2
   \   000025   F8           MOV     R0,A
   \   000026   22           RET

   \                                 In  segment BANKED_CODE, align 1, keep-with-next
   \                     ?Subroutine83:
   \   000000   E0           MOVX    A,@DPTR
   \   000001   FC           MOV     R4,A
   \   000002   A3           INC     DPTR
   \   000003   E0           MOVX    A,@DPTR
   \   000004   FD           MOV     R5,A
   \   000005   22           RET

   \                                 In  segment BANKED_CODE, align 1, keep-with-next
   \                     ?Subroutine84:
   \   000000   E0           MOVX    A,@DPTR
   \   000001   8882         MOV     DPL,R0
   \   000003   8983         MOV     DPH,R1
   \   000005   22           RET

   \                                 In  segment BANKED_CODE, align 1, keep-with-next
   \                     ?Subroutine56:
   \   000000   E9           MOV     A,R1
   \   000001   FE           MOV     R6,A
   \   000002                REQUIRE ??Subroutine139_0
   \   000002                ; // Fall through to label ??Subroutine139_0
    458          
    459          /*********************************************************************
    460           * @fn          ZDP_SimpleDescReq
    461           *
    462           * @brief       This builds and send a NWK_Simple_Desc_req
    463           *              message.  This function sends unicast message to the
    464           *              destination device.
    465           *
    466           * @param       dstAddr - destination address
    467           * @param       nwkAddr - 16 bit address
    468           * @param       epIntf - endpoint/interface
    469           * @param       SecurityEnable - Security Options
    470           *
    471           * @return      afStatus_t
    472           */

   \                                 In  segment BANKED_CODE, align 1, keep-with-next
    473          afStatus_t ZDP_SimpleDescReq( zAddrType_t *dstAddr, uint16 nwkAddr,
   \                     ZDP_SimpleDescReq:
    474                                              byte endPoint, byte SecurityEnable )
    475          
    476          {
   \   000000                REQUIRE ?V0
   \   000000                REQUIRE ?V1
   \   000000   74F6         MOV     A,#-0xa
   \   000002   12....       LCALL   ?BANKED_ENTER_XDATA
   \   000005                ; Saved register size: 10
   \   000005                ; Auto size: 0
    477            (void)SecurityEnable;  // Intentionally unreferenced parameter
    478          
    479            ZDP_TmpBuf[0] = LO_UINT16( nwkAddr );
   \   000005   12....       LCALL   ?Subroutine18 & 0xFFFF
    480            ZDP_TmpBuf[1] = HI_UINT16( nwkAddr );
   \                     ??CrossCallReturnLabel_18:
   \   000008   12....       LCALL   ?Subroutine15 & 0xFFFF
    481            ZDP_TmpBuf[2] = endPoint;
    482          
    483            return fillAndSend( &ZDP_TransID, dstAddr, Simple_Desc_req, 3 );
   \                     ??CrossCallReturnLabel_12:
   \   00000B                ; Setup parameters for call to function fillAndSend
   \   00000B   75..04       MOV     ?V0,#0x4
   \   00000E   75..00       MOV     ?V1,#0x0
   \   000011   78..         MOV     R0,#?V0
   \   000013   12....       LCALL   ?PUSH_XSTACK_I_TWO
   \   000016   7903         MOV     R1,#0x3
   \   000018   02....       LJMP    ??Subroutine111_0 & 0xFFFF
    484          }

   \                                 In  segment BANKED_CODE, align 1, keep-with-next
   \                     ?Subroutine15:
   \   000000   12....       LCALL   ?Subroutine77 & 0xFFFF
   \                     ??CrossCallReturnLabel_122:
   \   000003   A3           INC     DPTR
   \   000004   E9           MOV     A,R1
   \   000005   F0           MOVX    @DPTR,A
   \   000006   22           RET
    485          
    486          /*********************************************************************
    487           * @fn          ZDP_UserDescSet
    488           *
    489           * @brief       This builds and send a User_Desc_set message to set
    490           *              the user descriptor.  This function sends unicast
    491           *              message to the destination device.
    492           *
    493           * @param       dstAddr - destination address
    494           * @param       nwkAddr - 16 bit address
    495           * @param       UserDescriptor - user descriptor
    496           * @param       SecurityEnable - Security Options
    497           *
    498           * @return      afStatus_t
    499           */

   \                                 In  segment BANKED_CODE, align 1, keep-with-next
    500          afStatus_t ZDP_UserDescSet( zAddrType_t *dstAddr, uint16 nwkAddr,
   \                     ZDP_UserDescSet:
    501                                    UserDescriptorFormat_t *UserDescriptor,
    502                                    byte SecurityEnable )
    503          {
   \   000000                REQUIRE ?V0
   \   000000                REQUIRE ?V1
   \   000000                REQUIRE ?V2
   \   000000                REQUIRE ?V4
   \   000000                REQUIRE ?V5
   \   000000                REQUIRE ?V6
   \   000000   74F1         MOV     A,#-0xf
   \   000002   12....       LCALL   ?BANKED_ENTER_XDATA
   \   000005                ; Saved register size: 15
   \   000005                ; Auto size: 0
   \   000005   12....       LCALL   ?Subroutine55 & 0xFFFF
    504            uint8 *pBuf = ZDP_TmpBuf;
   \                     ??CrossCallReturnLabel_83:
   \   000008   740F         MOV     A,#0xf
   \   00000A   12....       LCALL   ?XSTACK_DISP0_8
   \   00000D   12....       LCALL   ?Subroutine41 & 0xFFFF
    505            byte len = (UserDescriptor->len < AF_MAX_USER_DESCRIPTOR_LEN) ?
    506                        UserDescriptor->len : AF_MAX_USER_DESCRIPTOR_LEN;
   \                     ??CrossCallReturnLabel_61:
   \   000010   C3           CLR     C
   \   000011   9410         SUBB    A,#0x10
   \   000013   5005         JNC     ??ZDP_UserDescSet_0
   \   000015   E0           MOVX    A,@DPTR
   \   000016   F5..         MOV     ?V2,A
   \   000018   8003         SJMP    ??ZDP_UserDescSet_1
   \                     ??ZDP_UserDescSet_0:
   \   00001A   75..10       MOV     ?V2,#0x10
    507            byte addrLen = 2;
    508          
    509            (void)SecurityEnable;  // Intentionally unreferenced parameter
    510          
    511            *pBuf++ = LO_UINT16( nwkAddr );
   \                     ??ZDP_UserDescSet_1:
   \   00001D   EC           MOV     A,R4
   \   00001E   85..82       MOV     DPL,?V0
   \   000021   85..83       MOV     DPH,?V1
   \   000024   F0           MOVX    @DPTR,A
    512            *pBuf++ = HI_UINT16( nwkAddr );
   \   000025   ED           MOV     A,R5
   \   000026   12....       LCALL   ?Subroutine35 & 0xFFFF
    513          
    514            *pBuf++ = len;
   \                     ??CrossCallReturnLabel_49:
   \   000029   E5..         MOV     A,?V2
   \   00002B   12....       LCALL   ?Subroutine10 & 0xFFFF
    515            addrLen = 3;
    516          
    517            pBuf = osal_memcpy( pBuf, UserDescriptor->desc, len );
   \                     ??CrossCallReturnLabel_2:
   \   00002E   12....       LCALL   ?PUSH_XSTACK_I_THREE
   \   000031   AC..         MOV     R4,?V2
   \   000033   7D00         MOV     R5,#0x0
   \   000035   E5..         MOV     A,?V0
   \   000037   2403         ADD     A,#0x3
   \   000039   FA           MOV     R2,A
   \   00003A   E4           CLR     A
   \   00003B   35..         ADDC    A,?V1
   \   00003D   FB           MOV     R3,A
   \   00003E   12....       LCALL   `??osal_memcpy::?relay`; Banked call to: osal_memcpy
   \   000041   7403         MOV     A,#0x3
   \   000043   12....       LCALL   ?DEALLOC_XSTACK8
    518            osal_memset( pBuf, AF_USER_DESCRIPTOR_FILL, AF_MAX_USER_DESCRIPTOR_LEN-len );
   \   000046                ; Setup parameters for call to function osal_memset
   \   000046   A8..         MOV     R0,?V2
   \   000048   7410         MOV     A,#0x10
   \   00004A   C3           CLR     C
   \   00004B   98           SUBB    A,R0
   \   00004C   FC           MOV     R4,A
   \   00004D   95E0         SUBB    A,0xE0 /* A   */
   \   00004F   FD           MOV     R5,A
   \   000050   7920         MOV     R1,#0x20
   \   000052   12....       LCALL   `??osal_memset::?relay`; Banked call to: osal_memset
    519          
    520            return fillAndSend( &ZDP_TransID, dstAddr, User_Desc_set, (AF_MAX_USER_DESCRIPTOR_LEN + addrLen) );
   \   000055                ; Setup parameters for call to function fillAndSend
   \   000055   75..14       MOV     ?V0,#0x14
   \   000058   75..00       MOV     ?V1,#0x0
   \   00005B   78..         MOV     R0,#?V0
   \   00005D   12....       LCALL   ?PUSH_XSTACK_I_TWO
   \   000060   7913         MOV     R1,#0x13
   \   000062   EE           MOV     A,R6
   \   000063   FC           MOV     R4,A
   \   000064   EF           MOV     A,R7
   \   000065   FD           MOV     R5,A
   \   000066   7A..         MOV     R2,#ZDP_TransID & 0xff
   \   000068   7B..         MOV     R3,#(ZDP_TransID >> 8) & 0xff
   \   00006A   12....       LCALL   `??fillAndSend::?relay`; Banked call to: fillAndSend
   \   00006D   7402         MOV     A,#0x2
   \   00006F                REQUIRE ?Subroutine3
   \   00006F                ; // Fall through to label ?Subroutine3
    521          }

   \                                 In  segment BANKED_CODE, align 1, keep-with-next
   \                     ?Subroutine3:
   \   000000   12....       LCALL   ?DEALLOC_XSTACK8
   \   000003   7F07         MOV     R7,#0x7
   \   000005   02....       LJMP    ?BANKED_LEAVE_XDATA

   \                                 In  segment BANKED_CODE, align 1, keep-with-next
   \                     ?Subroutine41:
   \   000000   12....       LCALL   ?Subroutine82 & 0xFFFF
   \                     ??CrossCallReturnLabel_295:
   \   000003   8882         MOV     DPL,R0
   \   000005   8983         MOV     DPH,R1
   \   000007   E0           MOVX    A,@DPTR
   \   000008   22           RET

   \                                 In  segment BANKED_CODE, align 1, keep-with-next
   \                     ?Subroutine55:
   \   000000   EA           MOV     A,R2
   \   000001   FE           MOV     R6,A
   \   000002   EB           MOV     A,R3
   \   000003   FF           MOV     R7,A
   \   000004   90....       MOV     DPTR,#ZDP_TmpBuf
   \   000007   12....       LCALL   ?Subroutine82 & 0xFFFF
   \                     ??CrossCallReturnLabel_297:
   \   00000A   88..         MOV     ?V0,R0
   \   00000C   89..         MOV     ?V1,R1
   \   00000E   22           RET

   \                                 In  segment BANKED_CODE, align 1, keep-with-next
   \                     ?Subroutine10:
   \   000000   12....       LCALL   ?Subroutine94 & 0xFFFF
   \                     ??CrossCallReturnLabel_246:
   \   000003   A982         MOV     R1,DPL
   \   000005   AA83         MOV     R2,DPH
   \   000007   89..         MOV     ?V4,R1
   \   000009   8A..         MOV     ?V5,R2
   \   00000B   75..00       MOV     ?V6,#0x0
   \   00000E   78..         MOV     R0,#?V4
   \   000010   22           RET

   \                                 In  segment BANKED_CODE, align 1, keep-with-next
   \                     ?Subroutine94:
   \   000000   12....       LCALL   ?Subroutine105 & 0xFFFF
   \                     ??CrossCallReturnLabel_250:
   \   000003   22           RET

   \                                 In  segment BANKED_CODE, align 1, keep-with-next
   \                     ?Subroutine105:
   \   000000   12....       LCALL   ?Subroutine107 & 0xFFFF
   \                     ??CrossCallReturnLabel_254:
   \   000003   A3           INC     DPTR
   \   000004   22           RET

   \                                 In  segment BANKED_CODE, align 1, keep-with-next
   \                     ?Subroutine107:
   \   000000   F0           MOVX    @DPTR,A
   \   000001                ; Setup parameters for call to function osal_memcpy
   \   000001                ; Setup parameters for call to function osal_memcpy
   \   000001   8882         MOV     DPL,R0
   \   000003   8983         MOV     DPH,R1
   \   000005   22           RET

   \                                 In  segment BANKED_CODE, align 1, keep-with-next
   \                     ?Subroutine35:
   \   000000   A3           INC     DPTR
   \   000001   12....       LCALL   ?Subroutine97 & 0xFFFF
   \                     ??CrossCallReturnLabel_156:
   \   000004   A3           INC     DPTR
   \   000005   22           RET

   \                                 In  segment BANKED_CODE, align 1, keep-with-next
   \                     ?Subroutine97:
   \   000000   F0           MOVX    @DPTR,A
   \   000001   85..82       MOV     DPL,?V0
   \   000004   85..83       MOV     DPH,?V1
   \   000007   A3           INC     DPTR
   \   000008   22           RET
    522          
    523          /*********************************************************************
    524           * @fn          ZDP_ServerDiscReq
    525           *
    526           * @brief       Build and send a Server_Discovery_req request message.
    527           *
    528           * @param       serverMask - 16-bit bit-mask of server services being sought.
    529           * @param       SecurityEnable - Security Options
    530           *
    531           * @return      afStatus_t
    532           */

   \                                 In  segment BANKED_CODE, align 1, keep-with-next
    533          afStatus_t ZDP_ServerDiscReq( uint16 serverMask, byte SecurityEnable )
   \                     ZDP_ServerDiscReq:
    534          {
   \   000000                REQUIRE ?V0
   \   000000                REQUIRE ?V1
   \   000000   74F6         MOV     A,#-0xa
   \   000002   12....       LCALL   ?BANKED_ENTER_XDATA
   \   000005                ; Saved register size: 10
   \   000005                ; Auto size: 9
   \   000005   74F7         MOV     A,#-0x9
   \   000007   12....       LCALL   ?ALLOC_XSTACK8
   \   00000A   12....       LCALL   ?Subroutine56 & 0xFFFF
    535            uint8 *pBuf = ZDP_TmpBuf;
    536            zAddrType_t dstAddr;
    537          
    538            dstAddr.addrMode = AddrBroadcast;
   \                     ??CrossCallReturnLabel_285:
   \   00000D   7408         MOV     A,#0x8
   \   00000F   12....       LCALL   ?XSTACK_DISP0_8
   \   000012   12....       LCALL   ?Subroutine19 & 0xFFFF
    539            dstAddr.addr.shortAddr = NWK_BROADCAST_SHORTADDR_DEVRXON;
    540          
    541            *pBuf++ = LO_UINT16( serverMask );
   \                     ??CrossCallReturnLabel_19:
   \   000015   EA           MOV     A,R2
   \   000016   8882         MOV     DPL,R0
   \   000018   8983         MOV     DPH,R1
   \   00001A   F0           MOVX    @DPTR,A
    542            *pBuf = HI_UINT16( serverMask );
   \   00001B   EB           MOV     A,R3
   \   00001C   A3           INC     DPTR
   \   00001D   F0           MOVX    @DPTR,A
    543          
    544            FillAndSendTxOptions( &ZDP_TransID, &dstAddr, Server_Discovery_req, 2,
    545                       ((SecurityEnable) ? AF_EN_SECURITY : AF_TX_OPTIONS_NONE) );
   \   00001E   EE           MOV     A,R6
   \   00001F   90....       MOV     DPTR,#ZDP_TxOptions
   \   000022   6004         JZ      ??ZDP_ServerDiscReq_0
   \   000024   7440         MOV     A,#0x40
   \   000026   8001         SJMP    ??ZDP_ServerDiscReq_1
   \                     ??ZDP_ServerDiscReq_0:
   \   000028   E4           CLR     A
   \                     ??ZDP_ServerDiscReq_1:
   \   000029   F0           MOVX    @DPTR,A
   \   00002A                ; Setup parameters for call to function fillAndSend
   \   00002A   75..15       MOV     ?V0,#0x15
   \   00002D   75..00       MOV     ?V1,#0x0
   \   000030   78..         MOV     R0,#?V0
   \   000032   12....       LCALL   ?PUSH_XSTACK_I_TWO
   \   000035   7902         MOV     R1,#0x2
   \   000037   E9           MOV     A,R1
   \   000038   12....       LCALL   ?XSTACK_DISP102_8
   \   00003B   7A..         MOV     R2,#ZDP_TransID & 0xff
   \   00003D   7B..         MOV     R3,#(ZDP_TransID >> 8) & 0xff
   \   00003F   12....       LCALL   `??fillAndSend::?relay`; Banked call to: fillAndSend
   \   000042   7402         MOV     A,#0x2
   \   000044   12....       LCALL   ?DEALLOC_XSTACK8
   \   000047   E9           MOV     A,R1
   \   000048   F9           MOV     R1,A
   \   000049   90....       MOV     DPTR,#ZDP_TxOptions
   \   00004C   E4           CLR     A
   \   00004D   F0           MOVX    @DPTR,A
   \   00004E   02....       LJMP    ??Subroutine115_0 & 0xFFFF
    546          }

   \                                 In  segment BANKED_CODE, align 1, keep-with-next
   \                     ?Subroutine19:
   \   000000   12....       LCALL   ?Subroutine92 & 0xFFFF
   \                     ??CrossCallReturnLabel_148:
   \   000003   F0           MOVX    @DPTR,A
   \   000004   22           RET
    547          
    548          /*********************************************************************
    549           * @fn          ZDP_DeviceAnnce
    550           *
    551           * @brief       This builds and send a Device_Annce message.  This
    552           *              function sends a broadcast message.
    553           *
    554           * @param       nwkAddr - 16 bit address of the device
    555           * @param       IEEEAddr - 64 bit address of the device
    556           * @param       capabilities - device capabilities.  This field is only
    557           *                 sent for v1.1 networks.
    558           * @param       SecurityEnable - Security Options
    559           *
    560           * @return      afStatus_t
    561           */

   \                                 In  segment BANKED_CODE, align 1, keep-with-next
    562          afStatus_t ZDP_DeviceAnnce( uint16 nwkAddr, uint8 *IEEEAddr,
   \                     ZDP_DeviceAnnce:
    563                                        byte capabilities, byte SecurityEnable )
    564          {
   \   000000                REQUIRE ?V0
   \   000000                REQUIRE ?V1
   \   000000   74F6         MOV     A,#-0xa
   \   000002   12....       LCALL   ?BANKED_ENTER_XDATA
   \   000005                ; Saved register size: 10
   \   000005                ; Auto size: 9
   \   000005   74F7         MOV     A,#-0x9
   \   000007   12....       LCALL   ?ALLOC_XSTACK8
   \   00000A   E9           MOV     A,R1
   \   00000B   FE           MOV     R6,A
    565            zAddrType_t dstAddr;
    566            uint8 len;
    567          
    568            (void)SecurityEnable;  // Intentionally unreferenced parameter
    569          
    570            dstAddr.addrMode = (afAddrMode_t)AddrBroadcast;
   \   00000C   7408         MOV     A,#0x8
   \   00000E   12....       LCALL   ?XSTACK_DISP0_8
   \   000011   12....       LCALL   ?Subroutine19 & 0xFFFF
    571            dstAddr.addr.shortAddr = NWK_BROADCAST_SHORTADDR_DEVRXON;
    572          
    573            ZDP_TmpBuf[0] = LO_UINT16( nwkAddr );
   \                     ??CrossCallReturnLabel_20:
   \   000014   12....       LCALL   ?Subroutine48 & 0xFFFF
   \                     ??CrossCallReturnLabel_204:
   \   000017   EA           MOV     A,R2
   \   000018   12....       LCALL   ?Subroutine22 & 0xFFFF
    574            ZDP_TmpBuf[1] = HI_UINT16( nwkAddr );
   \                     ??CrossCallReturnLabel_25:
   \   00001B   EB           MOV     A,R3
   \   00001C   F0           MOVX    @DPTR,A
    575            osal_cpyExtAddr( &ZDP_TmpBuf[2], IEEEAddr );
   \   00001D                ; Setup parameters for call to function sAddrExtCpy
   \   00001D   90....       MOV     DPTR,#ZDP_TmpBuf
   \   000020   E0           MOVX    A,@DPTR
   \   000021   2402         ADD     A,#0x2
   \   000023   FA           MOV     R2,A
   \   000024   A3           INC     DPTR
   \   000025   E0           MOVX    A,@DPTR
   \   000026   3400         ADDC    A,#0x0
   \   000028   FB           MOV     R3,A
   \   000029   12....       LCALL   `??sAddrExtCpy::?relay`; Banked call to: sAddrExtCpy
    576            len = 2 + Z_EXTADDR_LEN;
    577          
    578            ZDP_TmpBuf[10] = capabilities;
   \   00002C   12....       LCALL   ?Subroutine103 & 0xFFFF
   \                     ??CrossCallReturnLabel_301:
   \   00002F   C8           XCH     A,R0
   \   000030   240A         ADD     A,#0xa
   \   000032   F582         MOV     DPL,A
   \   000034   E4           CLR     A
   \   000035   38           ADDC    A,R0
   \   000036   F583         MOV     DPH,A
   \   000038   EE           MOV     A,R6
   \   000039   F0           MOVX    @DPTR,A
    579            len++;
    580          
    581            return fillAndSend( &ZDP_TransID, &dstAddr, Device_annce, len );
   \   00003A                ; Setup parameters for call to function fillAndSend
   \   00003A   75..13       MOV     ?V0,#0x13
   \   00003D   75..00       MOV     ?V1,#0x0
   \   000040   78..         MOV     R0,#?V0
   \   000042   12....       LCALL   ?PUSH_XSTACK_I_TWO
   \   000045   790B         MOV     R1,#0xb
   \   000047   80..         SJMP    ?Subroutine8
    582          }

   \                                 In  segment BANKED_CODE, align 1, keep-with-next
   \                     ?Subroutine48:
   \   000000   90....       MOV     DPTR,#ZDP_TmpBuf
   \   000003   E0           MOVX    A,@DPTR
   \   000004                REQUIRE ??Subroutine125_0
   \   000004                ; // Fall through to label ??Subroutine125_0

   \                                 In  segment BANKED_CODE, align 1, keep-with-next
   \                     ??Subroutine125_0:
   \   000000   F8           MOV     R0,A
   \   000001   A3           INC     DPTR
   \   000002   E0           MOVX    A,@DPTR
   \   000003   F583         MOV     DPH,A
   \   000005   8882         MOV     DPL,R0
   \   000007   22           RET

   \                                 In  segment BANKED_CODE, align 1, keep-with-next
   \                     ?Subroutine22:
   \   000000   12....       LCALL   ?Subroutine77 & 0xFFFF
   \                     ??CrossCallReturnLabel_123:
   \   000003   22           RET

   \                                 In  segment BANKED_CODE, align 1, keep-with-next
   \                     ?Subroutine103:
   \   000000   90....       MOV     DPTR,#ZDP_TmpBuf
   \   000003                REQUIRE ??Subroutine141_0
   \   000003                ; // Fall through to label ??Subroutine141_0
    583          
    584          #if defined ( ZIGBEE_CHILD_AGING )
    585          /*********************************************************************
    586           * @fn          ZDP_EndDeviceTimeoutReq
    587           *
    588           * @brief       This builds and send an End_Device_Timeout_req message.
    589           *
    590           * @param       parentAddr - destination address
    591           * @param       reqTimeout - Timeout value the device is requesting
    592           * @param       SecurityEnable - Security Options
    593           *
    594           * @return      afStatus_t
    595           */

   \                                 In  segment BANKED_CODE, align 1, keep-with-next
    596          afStatus_t ZDP_EndDeviceTimeoutReq( uint16 parentAddr, uint16 reqTimeout,
   \                     ZDP_EndDeviceTimeoutReq:
    597                                              uint8 SecurityEnable )
    598          {
   \   000000                REQUIRE ?V0
   \   000000                REQUIRE ?V1
   \   000000   74F6         MOV     A,#-0xa
   \   000002   12....       LCALL   ?BANKED_ENTER_XDATA
   \   000005                ; Saved register size: 10
   \   000005                ; Auto size: 9
   \   000005   74F7         MOV     A,#-0x9
   \   000007   12....       LCALL   ?ALLOC_XSTACK8
   \   00000A   EC           MOV     A,R4
   \   00000B   FE           MOV     R6,A
   \   00000C   ED           MOV     A,R5
   \   00000D   FF           MOV     R7,A
    599            uint8 *pBuf = ZDP_TmpBuf;
    600            uint8 len = Z_EXTADDR_LEN + 2;  // Device_IEEEAddress + reqTimeout.
    601            zAddrType_t dstAddr;
    602          
    603            (void)SecurityEnable;  // Intentionally unreferenced parameter
    604          
    605            dstAddr.addrMode = Addr16Bit;
   \   00000E   7408         MOV     A,#0x8
   \   000010   12....       LCALL   ?XSTACK_DISP0_8
   \   000013   12....       LCALL   ?Subroutine25 & 0xFFFF
    606            dstAddr.addr.shortAddr = parentAddr;
    607          
    608            pBuf = osal_cpyExtAddr( pBuf, saveExtAddr );
   \                     ??CrossCallReturnLabel_32:
   \   000016                ; Setup parameters for call to function sAddrExtCpy
   \   000016   7C..         MOV     R4,#saveExtAddr & 0xff
   \   000018   7D..         MOV     R5,#(saveExtAddr >> 8) & 0xff
   \   00001A   12....       LCALL   ??Subroutine126_0 & 0xFFFF
   \                     ??CrossCallReturnLabel_214:
   \   00001D   12....       LCALL   `??sAddrExtCpy::?relay`; Banked call to: sAddrExtCpy
   \   000020   8A82         MOV     DPL,R2
   \   000022   8B83         MOV     DPH,R3
    609          
    610            *pBuf++ = LO_UINT16( reqTimeout );
   \   000024   EE           MOV     A,R6
   \   000025   F0           MOVX    @DPTR,A
    611            *pBuf++ = HI_UINT16( reqTimeout );
   \   000026   EF           MOV     A,R7
   \   000027   A3           INC     DPTR
   \   000028   F0           MOVX    @DPTR,A
    612          
    613            return fillAndSend( &ZDP_TransID, &dstAddr, End_Device_Timeout_req, len );
   \   000029                ; Setup parameters for call to function fillAndSend
   \   000029   75..1F       MOV     ?V0,#0x1f
   \   00002C   75..00       MOV     ?V1,#0x0
   \   00002F   78..         MOV     R0,#?V0
   \   000031   12....       LCALL   ?PUSH_XSTACK_I_TWO
   \   000034   790A         MOV     R1,#0xa
   \   000036                REQUIRE ?Subroutine8
   \   000036                ; // Fall through to label ?Subroutine8
    614          }

   \                                 In  segment BANKED_CODE, align 1, keep-with-next
   \                     ??Subroutine126_0:
   \   000000   90....       MOV     DPTR,#ZDP_TmpBuf
   \   000003                REQUIRE ??Subroutine127_0
   \   000003                ; // Fall through to label ??Subroutine127_0

   \                                 In  segment BANKED_CODE, align 1, keep-with-next
   \                     ??Subroutine127_0:
   \   000000   E0           MOVX    A,@DPTR
   \   000001   FA           MOV     R2,A
   \   000002   A3           INC     DPTR
   \   000003   E0           MOVX    A,@DPTR
   \   000004   FB           MOV     R3,A
   \   000005   22           RET
    615          #endif // ZIGBEE_CHILD_AGING
    616          
    617          /*********************************************************************
    618           * Address Responses
    619           */
    620          
    621          /*********************************************************************
    622           * @fn      zdpProcessAddrReq
    623           *
    624           * @brief   Process an incoming NWK_addr_req or IEEE_addr_req message and then
    625           *          build and send a corresponding NWK_addr_rsp or IEEE_addr_rsp msg.
    626           *
    627           * @param   inMsg - incoming message
    628           *
    629           * @return  none
    630           */

   \                                 In  segment BANKED_CODE, align 1, keep-with-next
    631          void zdpProcessAddrReq( zdoIncomingMsg_t *inMsg )
   \                     zdpProcessAddrReq:
    632          {
   \   000000                REQUIRE ?V0
   \   000000                REQUIRE ?V1
   \   000000                REQUIRE ?V2
   \   000000                REQUIRE ?V3
   \   000000                REQUIRE ?V4
   \   000000                REQUIRE ?V5
   \   000000                REQUIRE ?V6
   \   000000                REQUIRE ?V7
   \   000000                REQUIRE ?V8
   \   000000                REQUIRE ?V9
   \   000000   74EE         MOV     A,#-0x12
   \   000002   12....       LCALL   ?BANKED_ENTER_XDATA
   \   000005                ; Saved register size: 18
   \   000005                ; Auto size: 14
   \   000005   74F2         MOV     A,#-0xe
   \   000007   12....       LCALL   ?ALLOC_XSTACK8
   \   00000A   8A..         MOV     ?V0,R2
   \   00000C   8B..         MOV     ?V1,R3
    633            associated_devices_t *pAssoc;
    634            uint8 reqType;
    635            uint16 aoi = INVALID_NODE_ADDR;
   \   00000E   75..FE       MOV     ?V2,#-0x2
   \   000011   75..FF       MOV     ?V3,#-0x1
    636            uint8 *ieee = NULL;
   \   000014   7E00         MOV     R6,#0x0
   \   000016   7F00         MOV     R7,#0x0
    637          
    638            reqType = inMsg->asdu[(inMsg->clusterID == NWK_addr_req) ? Z_EXTADDR_LEN : sizeof( uint16 ) ];
   \   000018   EA           MOV     A,R2
   \   000019   12....       LCALL   ??Subroutine118_0 & 0xFFFF
   \                     ??CrossCallReturnLabel_174:
   \   00001C   7004         JNZ     ??zdpProcessAddrReq_0
   \   00001E   7808         MOV     R0,#0x8
   \   000020   8002         SJMP    ??zdpProcessAddrReq_1
   \                     ??zdpProcessAddrReq_0:
   \   000022   7802         MOV     R0,#0x2
   \                     ??zdpProcessAddrReq_1:
   \   000024   EA           MOV     A,R2
   \   000025   12....       LCALL   ?Subroutine53 & 0xFFFF
   \                     ??CrossCallReturnLabel_76:
   \   000028   E0           MOVX    A,@DPTR
   \   000029   F5..         MOV     ?V4,A
    639          
    640            if ( inMsg->clusterID == NWK_addr_req )
   \   00002B   12....       LCALL   ?Subroutine70 & 0xFFFF
   \                     ??CrossCallReturnLabel_171:
   \   00002E   E0           MOVX    A,@DPTR
   \   00002F   49           ORL     A,R1
   \   000030   7062         JNZ     ??zdpProcessAddrReq_2
    641          
    642            {
    643              ieee = inMsg->asdu;
   \   000032   E5..         MOV     A,?V0
   \   000034   2413         ADD     A,#0x13
   \   000036   12....       LCALL   ??Subroutine116_0 & 0xFFFF
   \                     ??CrossCallReturnLabel_168:
   \   000039   12....       LCALL   ?Subroutine54 & 0xFFFF
    644          
    645              if ( osal_ExtAddrEqual( saveExtAddr, ieee ) )
   \                     ??CrossCallReturnLabel_78:
   \   00003C                ; Setup parameters for call to function sAddrExtCmp
   \   00003C   EE           MOV     A,R6
   \   00003D   FC           MOV     R4,A
   \   00003E   EF           MOV     A,R7
   \   00003F   FD           MOV     R5,A
   \   000040   7A..         MOV     R2,#saveExtAddr & 0xff
   \   000042   7B..         MOV     R3,#(saveExtAddr >> 8) & 0xff
   \   000044   12....       LCALL   `??sAddrExtCmp::?relay`; Banked call to: sAddrExtCmp
   \   000047   E9           MOV     A,R1
   \   000048   6006         JZ      ??zdpProcessAddrReq_3
    646              {
    647                aoi = ZDAppNwkAddr.addr.shortAddr;
   \   00004A   12....       LCALL   ?Subroutine42 & 0xFFFF
    648              }
   \                     ??CrossCallReturnLabel_181:
   \   00004D   02....       LJMP    ??zdpProcessAddrReq_4 & 0xFFFF
    649              // Handle response for sleeping end devices
    650              else if ( (ZSTACK_ROUTER_BUILD)
    651                && (((pAssoc = AssocGetWithExt( ieee )) != NULL)
    652                       && (pAssoc->nodeRelation == CHILD_RFD)) )
   \                     ??zdpProcessAddrReq_3:
   \   000050   90....       MOV     DPTR,#zgDeviceLogicalType
   \   000053   E0           MOVX    A,@DPTR
   \   000054   6007         JZ      ??zdpProcessAddrReq_5
   \   000056   6401         XRL     A,#0x1
   \   000058   6003         JZ      $+5
   \   00005A   02....       LJMP    ??zdpProcessAddrReq_6 & 0xFFFF
   \                     ??zdpProcessAddrReq_5:
   \   00005D                ; Setup parameters for call to function AssocGetWithExt
   \   00005D   EE           MOV     A,R6
   \   00005E   FA           MOV     R2,A
   \   00005F   EF           MOV     A,R7
   \   000060   FB           MOV     R3,A
   \   000061   12....       LCALL   `??AssocGetWithExt::?relay`; Banked call to: AssocGetWithExt
   \   000064   8A..         MOV     ?V6,R2
   \   000066   8B..         MOV     ?V7,R3
   \   000068   A8..         MOV     R0,?V6
   \   00006A   A9..         MOV     R1,?V7
   \   00006C   E8           MOV     A,R0
   \   00006D   49           ORL     A,R1
   \   00006E   7003         JNZ     $+5
   \   000070   02....       LJMP    ??zdpProcessAddrReq_6 & 0xFFFF
   \   000073   8882         MOV     DPL,R0
   \   000075   8983         MOV     DPH,R1
   \   000077   A3           INC     DPTR
   \   000078   A3           INC     DPTR
   \   000079   A3           INC     DPTR
   \   00007A   A3           INC     DPTR
   \   00007B   E0           MOVX    A,@DPTR
   \   00007C   6401         XRL     A,#0x1
   \   00007E   6003         JZ      $+5
   \   000080   02....       LJMP    ??zdpProcessAddrReq_6 & 0xFFFF
    653              {
    654                aoi = pAssoc->shortAddr;
   \   000083   8882         MOV     DPL,R0
   \   000085   8983         MOV     DPH,R1
   \   000087   12....       LCALL   ??Subroutine120_0 & 0xFFFF
    655                if ( reqType != ZDP_ADDR_REQTYPE_SINGLE )
   \                     ??CrossCallReturnLabel_178:
   \   00008A   E5..         MOV     A,?V4
   \   00008C   6003         JZ      $+5
   \   00008E   02....       LJMP    ??zdpProcessAddrReq_7 & 0xFFFF
   \   000091   02....       LJMP    ??zdpProcessAddrReq_4 & 0xFFFF
    656                  reqType = 0xFF; // Force Invalid
    657              }
    658            }
   \                     ??zdpProcessAddrReq_2:
   \   000094   E5..         MOV     A,?V0
   \   000096   2413         ADD     A,#0x13
   \   000098   12....       LCALL   ??Subroutine116_0 & 0xFFFF
   \                     ??CrossCallReturnLabel_169:
   \   00009B   12....       LCALL   ?Subroutine41 & 0xFFFF
   \                     ??CrossCallReturnLabel_64:
   \   00009E   FA           MOV     R2,A
   \   00009F   A3           INC     DPTR
   \   0000A0   E0           MOVX    A,@DPTR
   \   0000A1   F9           MOV     R1,A
   \   0000A2   EA           MOV     A,R2
   \   0000A3   2E           ADD     A,R6
   \   0000A4   F5..         MOV     ?V2,A
   \   0000A6   E4           CLR     A
   \   0000A7   39           ADDC    A,R1
   \   0000A8   F5..         MOV     ?V3,A
    659            else  // if ( inMsg->clusterID == IEEE_addr_req )
    660            {
    661              aoi = BUILD_UINT16( inMsg->asdu[0], inMsg->asdu[1] );
    662          
    663              if ( aoi == ZDAppNwkAddr.addr.shortAddr )
   \   0000AA   90....       MOV     DPTR,#ZDAppNwkAddr
   \   0000AD   E0           MOVX    A,@DPTR
   \   0000AE   65..         XRL     A,?V2
   \   0000B0   7004         JNZ     ??zdpProcessAddrReq_8
   \   0000B2   A3           INC     DPTR
   \   0000B3   E0           MOVX    A,@DPTR
   \   0000B4   65..         XRL     A,?V3
   \                     ??zdpProcessAddrReq_8:
   \   0000B6   7006         JNZ     ??zdpProcessAddrReq_9
    664              {
    665                ieee = saveExtAddr;
   \   0000B8   7E..         MOV     R6,#saveExtAddr & 0xff
   \   0000BA   7F..         MOV     R7,#(saveExtAddr >> 8) & 0xff
   \   0000BC   8058         SJMP    ??zdpProcessAddrReq_4
    666              }
    667              else if ( (ZSTACK_ROUTER_BUILD)
    668                && (((pAssoc = AssocGetWithShort( aoi )) != NULL)
    669                       && (pAssoc->nodeRelation == CHILD_RFD)) )
   \                     ??zdpProcessAddrReq_9:
   \   0000BE   90....       MOV     DPTR,#zgDeviceLogicalType
   \   0000C1   E0           MOVX    A,@DPTR
   \   0000C2   6004         JZ      ??zdpProcessAddrReq_10
   \   0000C4   6401         XRL     A,#0x1
   \   0000C6   705E         JNZ     ??zdpProcessAddrReq_6
   \                     ??zdpProcessAddrReq_10:
   \   0000C8                ; Setup parameters for call to function AssocGetWithShort
   \   0000C8   AB..         MOV     R3,?V3
   \   0000CA   12....       LCALL   `??AssocGetWithShort::?relay`; Banked call to: AssocGetWithShort
   \   0000CD   8A..         MOV     ?V6,R2
   \   0000CF   8B..         MOV     ?V7,R3
   \   0000D1   A8..         MOV     R0,?V6
   \   0000D3   A9..         MOV     R1,?V7
   \   0000D5   E8           MOV     A,R0
   \   0000D6   49           ORL     A,R1
   \   0000D7   604D         JZ      ??zdpProcessAddrReq_6
   \   0000D9   8882         MOV     DPL,R0
   \   0000DB   8983         MOV     DPH,R1
   \   0000DD   A3           INC     DPTR
   \   0000DE   A3           INC     DPTR
   \   0000DF   A3           INC     DPTR
   \   0000E0   A3           INC     DPTR
   \   0000E1   E0           MOVX    A,@DPTR
   \   0000E2   6401         XRL     A,#0x1
   \   0000E4   7040         JNZ     ??zdpProcessAddrReq_6
    670              {
    671                AddrMgrEntry_t addrEntry;
    672                addrEntry.user = ADDRMGR_USER_DEFAULT;
   \   0000E6   7401         MOV     A,#0x1
   \   0000E8   12....       LCALL   ?XSTACK_DISP0_8
   \   0000EB   E4           CLR     A
   \   0000EC   12....       LCALL   ?Subroutine37 & 0xFFFF
    673                addrEntry.index = pAssoc->addrIdx;
   \                     ??CrossCallReturnLabel_51:
   \   0000EF   F8           MOV     R0,A
   \   0000F0   A3           INC     DPTR
   \   0000F1   E0           MOVX    A,@DPTR
   \   0000F2   F9           MOV     R1,A
   \   0000F3   740C         MOV     A,#0xc
   \   0000F5   12....       LCALL   ?XSTACK_DISP0_8
   \   0000F8   12....       LCALL   ??Subroutine129_0 & 0xFFFF
    674                if ( AddrMgrEntryGet( &addrEntry ) )
   \                     ??CrossCallReturnLabel_220:
   \   0000FB                ; Setup parameters for call to function AddrMgrEntryGet
   \   0000FB   7401         MOV     A,#0x1
   \   0000FD   12....       LCALL   ?XSTACK_DISP101_8
   \   000100   12....       LCALL   `??AddrMgrEntryGet::?relay`; Banked call to: AddrMgrEntryGet
   \   000103   E9           MOV     A,R1
   \   000104   6009         JZ      ??zdpProcessAddrReq_11
    675                {
    676                  ieee = addrEntry.extAddr;
   \   000106   7404         MOV     A,#0x4
   \   000108   12....       LCALL   ?XSTACK_DISP0_8
   \   00010B   AE82         MOV     R6,DPL
   \   00010D   AF83         MOV     R7,DPH
    677                }
    678          
    679                if ( reqType != ZDP_ADDR_REQTYPE_SINGLE )
   \                     ??zdpProcessAddrReq_11:
   \   00010F   E5..         MOV     A,?V4
   \   000111   6003         JZ      ??zdpProcessAddrReq_4
    680                  reqType = 0xFF; // Force Invalid
   \                     ??zdpProcessAddrReq_7:
   \   000113   75..FF       MOV     ?V4,#-0x1
    681              }
    682            }
    683          
    684            if ( ((aoi != INVALID_NODE_ADDR) && (ieee != NULL)) || (inMsg->wasBroadcast == FALSE) )
   \                     ??zdpProcessAddrReq_4:
   \   000116   74FE         MOV     A,#-0x2
   \   000118   65..         XRL     A,?V2
   \   00011A   7004         JNZ     ??zdpProcessAddrReq_12
   \   00011C   74FF         MOV     A,#-0x1
   \   00011E   65..         XRL     A,?V3
   \                     ??zdpProcessAddrReq_12:
   \   000120   6004         JZ      ??zdpProcessAddrReq_6
   \   000122   EE           MOV     A,R6
   \   000123   4F           ORL     A,R7
   \   000124   700D         JNZ     ??zdpProcessAddrReq_13
   \                     ??zdpProcessAddrReq_6:
   \   000126   E5..         MOV     A,?V0
   \   000128   240B         ADD     A,#0xb
   \   00012A   12....       LCALL   ??Subroutine116_0 & 0xFFFF
   \                     ??CrossCallReturnLabel_170:
   \   00012D   E0           MOVX    A,@DPTR
   \   00012E   6003         JZ      $+5
   \   000130   02....       LJMP    ??zdpProcessAddrReq_14 & 0xFFFF
    685            {
    686              uint8 stat;
    687              uint8 *pBuf = ZDP_TmpBuf;
   \                     ??zdpProcessAddrReq_13:
   \   000133   12....       LCALL   ??Subroutine126_0 & 0xFFFF
    688              // Status + IEEE-Addr + Nwk-Addr.
    689              uint8 len = 1 + Z_EXTADDR_LEN + 2;
   \                     ??CrossCallReturnLabel_215:
   \   000136   75..0B       MOV     ?V5,#0xb
    690          
    691              // If aoi and iee are both setup, we found results
    692              if ( (aoi != INVALID_NODE_ADDR) && (ieee != NULL) )
   \   000139   74FE         MOV     A,#-0x2
   \   00013B   65..         XRL     A,?V2
   \   00013D   7004         JNZ     ??zdpProcessAddrReq_15
   \   00013F   74FF         MOV     A,#-0x1
   \   000141   65..         XRL     A,?V3
   \                     ??zdpProcessAddrReq_15:
   \   000143   6018         JZ      ??zdpProcessAddrReq_16
   \   000145   EE           MOV     A,R6
   \   000146   4F           ORL     A,R7
   \   000147   6014         JZ      ??zdpProcessAddrReq_16
    693              {
    694                stat = ((reqType == ZDP_ADDR_REQTYPE_SINGLE) || (reqType == ZDP_ADDR_REQTYPE_EXTENDED))
    695                              ? ZDP_SUCCESS : ZDP_INVALID_REQTYPE;
   \   000149   E5..         MOV     A,?V4
   \   00014B   6006         JZ      ??zdpProcessAddrReq_17
   \   00014D   7401         MOV     A,#0x1
   \   00014F   65..         XRL     A,?V4
   \   000151   7005         JNZ     ??zdpProcessAddrReq_18
   \                     ??zdpProcessAddrReq_17:
   \   000153   75..00       MOV     ?V6,#0x0
   \   000156   8016         SJMP    ??zdpProcessAddrReq_19
   \                     ??zdpProcessAddrReq_18:
   \   000158   75..80       MOV     ?V6,#-0x80
   \   00015B   8011         SJMP    ??zdpProcessAddrReq_19
    696              }
    697              else
    698              {
    699                // not found and the req was unicast to this device
    700                stat = ZDP_DEVICE_NOT_FOUND;
   \                     ??zdpProcessAddrReq_16:
   \   00015D   75..81       MOV     ?V6,#-0x7f
    701          
    702                // Fill in the missing field with this device's address
    703                if ( inMsg->clusterID == NWK_addr_req )
   \   000160   12....       LCALL   ?Subroutine45 & 0xFFFF
   \                     ??CrossCallReturnLabel_175:
   \   000163   7005         JNZ     ??zdpProcessAddrReq_20
    704                {
    705                  aoi = ZDAppNwkAddr.addr.shortAddr;
   \   000165   12....       LCALL   ?Subroutine42 & 0xFFFF
    706                }
   \                     ??CrossCallReturnLabel_182:
   \   000168   8004         SJMP    ??zdpProcessAddrReq_19
    707                else
    708                {
    709                  ieee = saveExtAddr;
   \                     ??zdpProcessAddrReq_20:
   \   00016A   7E..         MOV     R6,#saveExtAddr & 0xff
   \   00016C   7F..         MOV     R7,#(saveExtAddr >> 8) & 0xff
    710                }
    711              }
    712          
    713              *pBuf++ = stat;
   \                     ??zdpProcessAddrReq_19:
   \   00016E   8A82         MOV     DPL,R2
   \   000170   8B83         MOV     DPH,R3
   \   000172   E5..         MOV     A,?V6
   \   000174   12....       LCALL   ?Subroutine34 & 0xFFFF
    714          
    715              pBuf = osal_cpyExtAddr( pBuf, ieee );
   \                     ??CrossCallReturnLabel_46:
   \   000177                ; Setup parameters for call to function sAddrExtCpy
   \   000177   EE           MOV     A,R6
   \   000178   FC           MOV     R4,A
   \   000179   EF           MOV     A,R7
   \   00017A   FD           MOV     R5,A
   \   00017B   12....       LCALL   `??sAddrExtCpy::?relay`; Banked call to: sAddrExtCpy
   \   00017E   8A..         MOV     ?V8,R2
   \   000180   8B..         MOV     ?V9,R3
   \   000182   AE..         MOV     R6,?V8
   \   000184   AF..         MOV     R7,?V9
    716          
    717              *pBuf++ = LO_UINT16( aoi );
   \   000186   8E82         MOV     DPL,R6
   \   000188   8F83         MOV     DPH,R7
   \   00018A   E5..         MOV     A,?V2
   \   00018C   F0           MOVX    @DPTR,A
    718              *pBuf++ = HI_UINT16( aoi );
   \   00018D   A3           INC     DPTR
   \   00018E   E5..         MOV     A,?V3
   \   000190   F0           MOVX    @DPTR,A
    719          
    720              if ( ZSTACK_ROUTER_BUILD )
   \   000191   90....       MOV     DPTR,#zgDeviceLogicalType
   \   000194   E0           MOVX    A,@DPTR
   \   000195   6007         JZ      ??zdpProcessAddrReq_21
   \   000197   6401         XRL     A,#0x1
   \   000199   6003         JZ      $+5
   \   00019B   02....       LJMP    ??zdpProcessAddrReq_22 & 0xFFFF
    721              {
    722                if ( (reqType == ZDP_ADDR_REQTYPE_EXTENDED) && (aoi == ZDAppNwkAddr.addr.shortAddr)
    723                     && (stat == ZDP_SUCCESS) )
   \                     ??zdpProcessAddrReq_21:
   \   00019E   7401         MOV     A,#0x1
   \   0001A0   65..         XRL     A,?V4
   \   0001A2   6003         JZ      $+5
   \   0001A4   02....       LJMP    ??zdpProcessAddrReq_22 & 0xFFFF
   \   0001A7   90....       MOV     DPTR,#ZDAppNwkAddr
   \   0001AA   E0           MOVX    A,@DPTR
   \   0001AB   65..         XRL     A,?V2
   \   0001AD   7004         JNZ     ??zdpProcessAddrReq_23
   \   0001AF   A3           INC     DPTR
   \   0001B0   E0           MOVX    A,@DPTR
   \   0001B1   65..         XRL     A,?V3
   \                     ??zdpProcessAddrReq_23:
   \   0001B3   6003         JZ      $+5
   \   0001B5   02....       LJMP    ??zdpProcessAddrReq_22 & 0xFFFF
   \   0001B8   E5..         MOV     A,?V6
   \   0001BA   6003         JZ      $+5
   \   0001BC   02....       LJMP    ??zdpProcessAddrReq_22 & 0xFFFF
    724                {
    725                  uint8  cnt = 0;
   \   0001BF   85..82       MOV     DPL,?XSP + 0
   \   0001C2   85..83       MOV     DPH,?XSP + 1
   \   0001C5   E4           CLR     A
   \   0001C6   F0           MOVX    @DPTR,A
    726                  uint16 *list = AssocMakeList( &cnt );
   \   0001C7                ; Setup parameters for call to function AssocMakeList
   \   0001C7   AA..         MOV     R2,?XSP + 0
   \   0001C9   AB..         MOV     R3,?XSP + 1
   \   0001CB   12....       LCALL   `??AssocMakeList::?relay`; Banked call to: AssocMakeList
   \   0001CE   8A..         MOV     ?V2,R2
   \   0001D0   8B..         MOV     ?V3,R3
   \   0001D2   AC..         MOV     R4,?V2
   \   0001D4   AD..         MOV     R5,?V3
    727          
    728                  if ( list != NULL )
   \   0001D6   EC           MOV     A,R4
   \   0001D7   4D           ORL     A,R5
   \   0001D8   6077         JZ      ??zdpProcessAddrReq_24
    729                  {
    730                    byte idx = inMsg->asdu[(((inMsg->clusterID == NWK_addr_req) ? Z_EXTADDR_LEN : sizeof( uint16 )) + 1)];
   \   0001DA   12....       LCALL   ?Subroutine45 & 0xFFFF
   \                     ??CrossCallReturnLabel_176:
   \   0001DD   7004         JNZ     ??zdpProcessAddrReq_25
   \   0001DF   7808         MOV     R0,#0x8
   \   0001E1   8002         SJMP    ??zdpProcessAddrReq_26
   \                     ??zdpProcessAddrReq_25:
   \   0001E3   7802         MOV     R0,#0x2
   \                     ??zdpProcessAddrReq_26:
   \   0001E5   E5..         MOV     A,?V0
   \   0001E7   12....       LCALL   ?Subroutine53 & 0xFFFF
   \                     ??CrossCallReturnLabel_77:
   \   0001EA   A3           INC     DPTR
   \   0001EB   E0           MOVX    A,@DPTR
   \   0001EC   FA           MOV     R2,A
    731                    uint16 *pList = list + idx;
   \   0001ED   12....       LCALL   ??Subroutine122_0 & 0xFFFF
   \                     ??CrossCallReturnLabel_186:
   \   0001F0   28           ADD     A,R0
   \   0001F1   F8           MOV     R0,A
   \   0001F2   ED           MOV     A,R5
   \   0001F3   39           ADDC    A,R1
   \   0001F4   F9           MOV     R1,A
    732          
    733                    // NumAssocDev field is only present on success.
    734                    if ( cnt > idx )
   \   0001F5   85..82       MOV     DPL,?XSP + 0
   \   0001F8   85..83       MOV     DPH,?XSP + 1
   \   0001FB   E0           MOVX    A,@DPTR
   \   0001FC   FB           MOV     R3,A
   \   0001FD   EA           MOV     A,R2
   \   0001FE   C3           CLR     C
   \   0001FF   9B           SUBB    A,R3
   \   000200   500C         JNC     ??zdpProcessAddrReq_27
    735                    {
    736                      cnt -= idx;
   \   000202   E0           MOVX    A,@DPTR
   \   000203   C3           CLR     C
   \   000204   9A           SUBB    A,R2
   \   000205   F0           MOVX    @DPTR,A
    737                      len += (cnt * sizeof( uint16 ));
   \   000206   C3           CLR     C
   \   000207   33           RLC     A
   \   000208   240B         ADD     A,#0xb
   \   00020A   F5..         MOV     ?V5,A
   \   00020C   8002         SJMP    ??zdpProcessAddrReq_28
    738                    }
    739                    else
    740                    {
    741                      cnt = 0;
   \                     ??zdpProcessAddrReq_27:
   \   00020E   E4           CLR     A
   \   00020F   F0           MOVX    @DPTR,A
    742                    }
    743                    *pBuf++ = cnt;
   \                     ??zdpProcessAddrReq_28:
   \   000210   12....       LCALL   ?Subroutine64 & 0xFFFF
    744                    len++;
    745          
    746                    // StartIndex field is only present if NumAssocDev field is non-zero.
    747                    *pBuf++ = idx;
   \                     ??CrossCallReturnLabel_104:
   \   000213   EA           MOV     A,R2
   \   000214   8E82         MOV     DPL,R6
   \   000216   8F83         MOV     DPH,R7
   \   000218   A3           INC     DPTR
   \   000219   A3           INC     DPTR
   \   00021A   A3           INC     DPTR
   \   00021B   F0           MOVX    @DPTR,A
   \   00021C   EE           MOV     A,R6
   \   00021D   2404         ADD     A,#0x4
   \   00021F   FA           MOV     R2,A
   \   000220   E4           CLR     A
   \   000221   3F           ADDC    A,R7
   \   000222   FB           MOV     R3,A
    748                    len++;
   \   000223   05..         INC     ?V5
   \   000225   05..         INC     ?V5
   \   000227   8016         SJMP    ??zdpProcessAddrReq_29
    749          
    750                    while ( cnt != 0 )
    751                    {
    752                      *pBuf++ = LO_UINT16( *pList );
   \                     ??zdpProcessAddrReq_30:
   \   000229   12....       LCALL   ?Subroutine12 & 0xFFFF
    753                      *pBuf++ = HI_UINT16( *pList );
   \                     ??CrossCallReturnLabel_6:
   \   00022C   5001         JNC     ??zdpProcessAddrReq_31
   \   00022E   0B           INC     R3
    754                      pList++;
   \                     ??zdpProcessAddrReq_31:
   \   00022F   E8           MOV     A,R0
   \   000230   2402         ADD     A,#0x2
   \   000232   F8           MOV     R0,A
   \   000233   5001         JNC     ??zdpProcessAddrReq_32
   \   000235   09           INC     R1
    755                      cnt--;
   \                     ??zdpProcessAddrReq_32:
   \   000236   85..82       MOV     DPL,?XSP + 0
   \   000239   85..83       MOV     DPH,?XSP + 1
   \   00023C   E0           MOVX    A,@DPTR
   \   00023D   14           DEC     A
   \   00023E   F0           MOVX    @DPTR,A
    756                    }
   \                     ??zdpProcessAddrReq_29:
   \   00023F   85..82       MOV     DPL,?XSP + 0
   \   000242   85..83       MOV     DPH,?XSP + 1
   \   000245   E0           MOVX    A,@DPTR
   \   000246   70E1         JNZ     ??zdpProcessAddrReq_30
    757          
    758                    osal_mem_free( (uint8 *)list );
   \   000248                ; Setup parameters for call to function osal_mem_free
   \   000248   EC           MOV     A,R4
   \   000249   FA           MOV     R2,A
   \   00024A   ED           MOV     A,R5
   \   00024B   FB           MOV     R3,A
   \   00024C   12....       LCALL   `??osal_mem_free::?relay`; Banked call to: osal_mem_free
   \   00024F   800B         SJMP    ??zdpProcessAddrReq_22
    759                  }
    760                  else
    761                  {
    762                    // NumAssocDev field is only present on success.
    763                    *pBuf++ = 0;
   \                     ??zdpProcessAddrReq_24:
   \   000251   8E82         MOV     DPL,R6
   \   000253   8F83         MOV     DPH,R7
   \   000255   A3           INC     DPTR
   \   000256   A3           INC     DPTR
   \   000257   E4           CLR     A
   \   000258   F0           MOVX    @DPTR,A
    764                    len++;
   \   000259   75..0C       MOV     ?V5,#0xc
    765                  }
    766                }
    767              }
    768          
    769              ZDP_TxOptions = AF_MSG_ACK_REQUEST;
   \                     ??zdpProcessAddrReq_22:
   \   00025C   90....       MOV     DPTR,#ZDP_TxOptions
   \   00025F   7410         MOV     A,#0x10
   \   000261   F0           MOVX    @DPTR,A
    770              fillAndSend( &(inMsg->TransSeq), &(inMsg->srcAddr), (cId_t)(inMsg->clusterID | ZDO_RESPONSE_BIT), len );
   \   000262                ; Setup parameters for call to function fillAndSend
   \   000262   12....       LCALL   ?Subroutine70 & 0xFFFF
   \                     ??CrossCallReturnLabel_172:
   \   000265   E0           MOVX    A,@DPTR
   \   000266   F5..         MOV     ?V2,A
   \   000268   A3           INC     DPTR
   \   000269   E0           MOVX    A,@DPTR
   \   00026A   4480         ORL     A,#0x80
   \   00026C   F5..         MOV     ?V3,A
   \   00026E   78..         MOV     R0,#?V2
   \   000270   12....       LCALL   ?PUSH_XSTACK_I_TWO
   \   000273   A9..         MOV     R1,?V5
   \   000275   E5..         MOV     A,?V0
   \   000277   2402         ADD     A,#0x2
   \   000279   FC           MOV     R4,A
   \   00027A   E4           CLR     A
   \   00027B   35..         ADDC    A,?V1
   \   00027D   FD           MOV     R5,A
   \   00027E   E5..         MOV     A,?V0
   \   000280   240F         ADD     A,#0xf
   \   000282   FA           MOV     R2,A
   \   000283   E4           CLR     A
   \   000284   35..         ADDC    A,?V1
   \   000286   FB           MOV     R3,A
   \   000287   12....       LCALL   `??fillAndSend::?relay`; Banked call to: fillAndSend
   \   00028A   7402         MOV     A,#0x2
   \   00028C   12....       LCALL   ?DEALLOC_XSTACK8
    771              ZDP_TxOptions = AF_TX_OPTIONS_NONE;
   \   00028F   90....       MOV     DPTR,#ZDP_TxOptions
   \   000292   E4           CLR     A
   \   000293   F0           MOVX    @DPTR,A
    772            }
    773          }
   \                     ??zdpProcessAddrReq_14:
   \   000294   740E         MOV     A,#0xe
   \   000296   02....       LJMP    ??Subroutine134_0 & 0xFFFF

   \                                 In  segment BANKED_CODE, align 1, keep-with-next
   \                     ?Subroutine70:
   \   000000   E5..         MOV     A,?V0
   \   000002   240C         ADD     A,#0xc
   \   000004                REQUIRE ??Subroutine116_0
   \   000004                ; // Fall through to label ??Subroutine116_0

   \                                 In  segment BANKED_CODE, align 1, keep-with-next
   \                     ??Subroutine116_0:
   \   000000   F582         MOV     DPL,A
   \   000002   E4           CLR     A
   \   000003                REQUIRE ??Subroutine117_0
   \   000003                ; // Fall through to label ??Subroutine117_0

   \                                 In  segment BANKED_CODE, align 1, keep-with-next
   \                     ??Subroutine117_0:
   \   000000   35..         ADDC    A,?V1
   \   000002   F583         MOV     DPH,A
   \   000004   22           RET

   \                                 In  segment BANKED_CODE, align 1, keep-with-next
   \                     ?Subroutine53:
   \   000000   2413         ADD     A,#0x13
   \   000002   F582         MOV     DPL,A
   \   000004   E4           CLR     A
   \   000005   35..         ADDC    A,?V1
   \   000007   F583         MOV     DPH,A
   \   000009   E0           MOVX    A,@DPTR
   \   00000A   28           ADD     A,R0
   \   00000B   FA           MOV     R2,A
   \   00000C   A3           INC     DPTR
   \   00000D   E0           MOVX    A,@DPTR
   \   00000E   3400         ADDC    A,#0x0
   \   000010   8A82         MOV     DPL,R2
   \   000012   F583         MOV     DPH,A
   \   000014   22           RET

   \                                 In  segment BANKED_CODE, align 1, keep-with-next
   \                     ?Subroutine45:
   \   000000   E5..         MOV     A,?V0
   \   000002                REQUIRE ??Subroutine118_0
   \   000002                ; // Fall through to label ??Subroutine118_0

   \                                 In  segment BANKED_CODE, align 1, keep-with-next
   \                     ??Subroutine118_0:
   \   000000   240C         ADD     A,#0xc
   \   000002   F582         MOV     DPL,A
   \   000004   E4           CLR     A
   \   000005   35..         ADDC    A,?V1
   \   000007   F583         MOV     DPH,A
   \   000009                REQUIRE ??Subroutine119_0
   \   000009                ; // Fall through to label ??Subroutine119_0

   \                                 In  segment BANKED_CODE, align 1, keep-with-next
   \                     ??Subroutine119_0:
   \   000000   12....       LCALL   ?Subroutine81 & 0xFFFF
   \                     ??CrossCallReturnLabel_274:
   \   000003   49           ORL     A,R1
   \   000004   22           RET

   \                                 In  segment BANKED_CODE, align 1, keep-with-next
   \                     ?Subroutine42:
   \   000000   90....       MOV     DPTR,#ZDAppNwkAddr
   \   000003                REQUIRE ??Subroutine120_0
   \   000003                ; // Fall through to label ??Subroutine120_0

   \                                 In  segment BANKED_CODE, align 1, keep-with-next
   \                     ?Subroutine37:
   \   000000   12....       LCALL   ?Subroutine94 & 0xFFFF
   \                     ??CrossCallReturnLabel_244:
   \   000003   A3           INC     DPTR
   \   000004   E0           MOVX    A,@DPTR
   \   000005   22           RET

   \                                 In  segment BANKED_CODE, align 1, keep-with-next
   \                     ??Subroutine122_0:
   \   000000   25E0         ADD     A,0xE0 /* A   */
   \   000002   F8           MOV     R0,A
   \   000003   E4           CLR     A
   \   000004   33           RLC     A
   \   000005   F9           MOV     R1,A
   \   000006   EC           MOV     A,R4
   \   000007   22           RET

   \                                 In  segment BANKED_CODE, align 1, keep-with-next
   \                     ?Subroutine86:
   \   000000   12....       LCALL   ?Subroutine100 & 0xFFFF
   \                     ??CrossCallReturnLabel_164:
   \   000003   A3           INC     DPTR
   \   000004   22           RET

   \                                 In  segment BANKED_CODE, align 1, keep-with-next
   \                     ?Subroutine100:
   \   000000   E0           MOVX    A,@DPTR
   \   000001   8E82         MOV     DPL,R6
   \   000003   8F83         MOV     DPH,R7
   \   000005   22           RET

   \                                 In  segment BANKED_CODE, align 1, keep-with-next
   \                     ?Subroutine64:
   \   000000   12....       LCALL   ?Subroutine86 & 0xFFFF
   \                     ??CrossCallReturnLabel_140:
   \   000003   A3           INC     DPTR
   \   000004   F0           MOVX    @DPTR,A
   \   000005   22           RET

   \                                 In  segment BANKED_CODE, align 1, keep-with-next
   \                     ?Subroutine101:
   \   000000   E0           MOVX    A,@DPTR
   \   000001   8A82         MOV     DPL,R2
   \   000003   8B83         MOV     DPH,R3
   \   000005   22           RET

   \                                 In  segment BANKED_CODE, align 1, keep-with-next
   \                     ?Subroutine54:
   \   000000   E0           MOVX    A,@DPTR
   \   000001   FE           MOV     R6,A
   \   000002   A3           INC     DPTR
   \   000003   E0           MOVX    A,@DPTR
   \   000004   FF           MOV     R7,A
   \   000005   22           RET

   \                                 In  segment BANKED_CODE, align 1, keep-with-next
   \                     ?Subroutine34:
   \   000000   F0           MOVX    @DPTR,A
   \   000001   A3           INC     DPTR
   \   000002   AA82         MOV     R2,DPL
   \   000004   AB83         MOV     R3,DPH
   \   000006   22           RET

   \                                 In  segment BANKED_CODE, align 1, keep-with-next
   \                     ?Subroutine91:
   \   000000   12....       LCALL   ?Subroutine105 & 0xFFFF
   \                     ??CrossCallReturnLabel_251:
   \   000003                REQUIRE ??Subroutine133_0
   \   000003                ; // Fall through to label ??Subroutine133_0

   \                                 In  segment BANKED_CODE, align 1, keep-with-next
   \                     ??Subroutine133_0:
   \   000000   12....       LCALL   ?Subroutine101 & 0xFFFF
   \                     ??CrossCallReturnLabel_262:
   \   000003   A3           INC     DPTR
   \   000004   22           RET

   \                                 In  segment BANKED_CODE, align 1, keep-with-next
   \                     ?Subroutine12:
   \   000000   8882         MOV     DPL,R0
   \   000002   8983         MOV     DPH,R1
   \   000004   12....       LCALL   ?Subroutine101 & 0xFFFF
   \                     ??CrossCallReturnLabel_259:
   \   000007   12....       LCALL   ?Subroutine91 & 0xFFFF
   \                     ??CrossCallReturnLabel_257:
   \   00000A   F0           MOVX    @DPTR,A
   \   00000B   EA           MOV     A,R2
   \   00000C   2402         ADD     A,#0x2
   \   00000E   FA           MOV     R2,A
   \   00000F   22           RET

   \                                 In  segment BANKED_CODE, align 1, keep-with-next
   \                     ??Subroutine134_0:
   \   000000   12....       LCALL   ?DEALLOC_XSTACK8
   \   000003                REQUIRE ??Subroutine135_0
   \   000003                ; // Fall through to label ??Subroutine135_0

   \                                 In  segment BANKED_CODE, align 1, keep-with-next
   \                     ??Subroutine135_0:
   \   000000   7F0A         MOV     R7,#0xa
   \   000002   02....       LJMP    ?BANKED_LEAVE_XDATA

   \                                 In  segment BANKED_CODE, align 1, keep-with-next
   \                     ?Subroutine81:
   \   000000   12....       LCALL   ??Subroutine141_0 & 0xFFFF
   \                     ??CrossCallReturnLabel_303:
   \   000003   F9           MOV     R1,A
   \   000004   E8           MOV     A,R0
   \   000005   22           RET
    774          
    775          /*********************************************************************
    776           * @fn          ZDP_NodeDescMsg
    777           *
    778           * @brief       Builds and sends a Node Descriptor message, unicast to the
    779           *              specified device.
    780           *
    781           * @param       inMsg - incoming message
    782           * @param       nwkAddr - 16 bit network address for device
    783           * @param       pNodeDesc - pointer to the node descriptor
    784           *
    785           * @return      afStatus_t
    786           */

   \                                 In  segment BANKED_CODE, align 1, keep-with-next
    787          afStatus_t ZDP_NodeDescMsg( zdoIncomingMsg_t *inMsg,
   \                     ZDP_NodeDescMsg:
    788                                     uint16 nwkAddr, NodeDescriptorFormat_t *pNodeDesc )
    789          {
   \   000000                REQUIRE ?V0
   \   000000                REQUIRE ?V1
   \   000000   74F6         MOV     A,#-0xa
   \   000002   12....       LCALL   ?BANKED_ENTER_XDATA
   \   000005                ; Saved register size: 10
   \   000005                ; Auto size: 0
    790            uint8 *pBuf = ZDP_TmpBuf;
   \   000005   90....       MOV     DPTR,#ZDP_TmpBuf
   \   000008   E0           MOVX    A,@DPTR
   \   000009   FE           MOV     R6,A
   \   00000A   A3           INC     DPTR
   \   00000B   E0           MOVX    A,@DPTR
   \   00000C   12....       LCALL   ?Subroutine20 & 0xFFFF
    791            byte len;
    792          
    793            len = 1 + 2 + 13;  // Status + nwkAddr + Node descriptor
    794          
    795            *pBuf++ = ZDP_SUCCESS;
    796          
    797            *pBuf++ = LO_UINT16( nwkAddr );
    798            *pBuf++ = HI_UINT16( nwkAddr );
   \                     ??CrossCallReturnLabel_21:
   \   00000F   12....       LCALL   ?XSTACK_DISP0_8
   \   000012   12....       LCALL   ?Subroutine41 & 0xFFFF
    799          
    800            *pBuf++ = (byte)((pNodeDesc->ComplexDescAvail << 3) |
    801                               (pNodeDesc->UserDescAvail << 4) |
    802                               (pNodeDesc->LogicalType & 0x07));
   \                     ??CrossCallReturnLabel_62:
   \   000015   541F         ANL     A,#0x1f
   \   000017   8E82         MOV     DPL,R6
   \   000019   8F83         MOV     DPH,R7
   \   00001B   A3           INC     DPTR
   \   00001C   A3           INC     DPTR
   \   00001D   A3           INC     DPTR
   \   00001E   12....       LCALL   ?Subroutine107 & 0xFFFF
    803          
    804            *pBuf++ = (byte)((pNodeDesc->FrequencyBand << 3) | (pNodeDesc->APSFlags & 0x07));
   \                     ??CrossCallReturnLabel_252:
   \   000021   12....       LCALL   ?Subroutine58 & 0xFFFF
   \                     ??CrossCallReturnLabel_87:
   \   000024   12....       LCALL   ?Subroutine37 & 0xFFFF
    805            *pBuf++ = pNodeDesc->CapabilityFlags;
   \                     ??CrossCallReturnLabel_52:
   \   000027   8E82         MOV     DPL,R6
   \   000029   8F83         MOV     DPH,R7
   \   00002B   12....       LCALL   ?Subroutine29 & 0xFFFF
    806            *pBuf++ = pNodeDesc->ManufacturerCode[0];
   \                     ??CrossCallReturnLabel_240:
   \   00002E   12....       LCALL   ?Subroutine86 & 0xFFFF
   \                     ??CrossCallReturnLabel_137:
   \   000031   12....       LCALL   ?Subroutine29 & 0xFFFF
    807            *pBuf++ = pNodeDesc->ManufacturerCode[1];
   \                     ??CrossCallReturnLabel_241:
   \   000034   A3           INC     DPTR
   \   000035   12....       LCALL   ?Subroutine100 & 0xFFFF
   \                     ??CrossCallReturnLabel_161:
   \   000038   12....       LCALL   ?Subroutine28 & 0xFFFF
    808            *pBuf++ = pNodeDesc->MaxBufferSize;
   \                     ??CrossCallReturnLabel_38:
   \   00003B   12....       LCALL   ?Subroutine86 & 0xFFFF
   \                     ??CrossCallReturnLabel_138:
   \   00003E   12....       LCALL   ?Subroutine28 & 0xFFFF
    809            *pBuf++ = pNodeDesc->MaxInTransferSize[0];
   \                     ??CrossCallReturnLabel_39:
   \   000041   A3           INC     DPTR
   \   000042   12....       LCALL   ?Subroutine47 & 0xFFFF
   \                     ??CrossCallReturnLabel_68:
   \   000045   12....       LCALL   ?Subroutine23 & 0xFFFF
    810            *pBuf++ = pNodeDesc->MaxInTransferSize[1];
   \                     ??CrossCallReturnLabel_27:
   \   000048   12....       LCALL   ?Subroutine47 & 0xFFFF
   \                     ??CrossCallReturnLabel_69:
   \   00004B   A3           INC     DPTR
   \   00004C   F0           MOVX    @DPTR,A
    811          
    812            *pBuf++ = LO_UINT16( pNodeDesc->ServerMask );
   \   00004D   E8           MOV     A,R0
   \   00004E   2408         ADD     A,#0x8
   \   000050   FC           MOV     R4,A
   \   000051   E4           CLR     A
   \   000052   39           ADDC    A,R1
   \   000053   FD           MOV     R5,A
   \   000054   8C82         MOV     DPL,R4
   \   000056   8D83         MOV     DPH,R5
   \   000058   E0           MOVX    A,@DPTR
   \   000059   F5..         MOV     ?V0,A
   \   00005B   12....       LCALL   ?Subroutine71 & 0xFFFF
   \                     ??CrossCallReturnLabel_112:
   \   00005E   E5..         MOV     A,?V0
   \   000060   12....       LCALL   ??Subroutine124_0 & 0xFFFF
    813            *pBuf++ = HI_UINT16( pNodeDesc->ServerMask );
   \                     ??CrossCallReturnLabel_202:
   \   000063   E0           MOVX    A,@DPTR
   \   000064   C0E0         PUSH    A
   \   000066   12....       LCALL   ?Subroutine73 & 0xFFFF
   \                     ??CrossCallReturnLabel_117:
   \   000069   D0E0         POP     A
   \   00006B   12....       LCALL   ?Subroutine23 & 0xFFFF
    814            *pBuf++ = pNodeDesc->MaxOutTransferSize[0];
   \                     ??CrossCallReturnLabel_28:
   \   00006E   A3           INC     DPTR
   \   00006F   A3           INC     DPTR
   \   000070   A3           INC     DPTR
   \   000071   E0           MOVX    A,@DPTR
   \   000072   C0E0         PUSH    A
   \   000074   EE           MOV     A,R6
   \   000075   240D         ADD     A,#0xd
   \   000077   F582         MOV     DPL,A
   \   000079   E4           CLR     A
   \   00007A   3F           ADDC    A,R7
   \   00007B   F583         MOV     DPH,A
   \   00007D   D0E0         POP     A
   \   00007F   F0           MOVX    @DPTR,A
    815            *pBuf++ = pNodeDesc->MaxOutTransferSize[1];
   \   000080   E8           MOV     A,R0
   \   000081   240B         ADD     A,#0xb
   \   000083   F582         MOV     DPL,A
   \   000085   E4           CLR     A
   \   000086   39           ADDC    A,R1
   \   000087   F583         MOV     DPH,A
   \   000089   E0           MOVX    A,@DPTR
   \   00008A   C0E0         PUSH    A
   \   00008C   EE           MOV     A,R6
   \   00008D   240E         ADD     A,#0xe
   \   00008F   F582         MOV     DPL,A
   \   000091   E4           CLR     A
   \   000092   3F           ADDC    A,R7
   \   000093   F583         MOV     DPH,A
   \   000095   D0E0         POP     A
   \   000097   F0           MOVX    @DPTR,A
    816            *pBuf = pNodeDesc->DescriptorCapability;
   \   000098   E8           MOV     A,R0
   \   000099   240C         ADD     A,#0xc
   \   00009B   F582         MOV     DPL,A
   \   00009D   E4           CLR     A
   \   00009E   39           ADDC    A,R1
   \   00009F   F583         MOV     DPH,A
   \   0000A1   E0           MOVX    A,@DPTR
   \   0000A2   C0E0         PUSH    A
   \   0000A4   EE           MOV     A,R6
   \   0000A5   240F         ADD     A,#0xf
   \   0000A7   F582         MOV     DPL,A
   \   0000A9   E4           CLR     A
   \   0000AA   3F           ADDC    A,R7
   \   0000AB   F583         MOV     DPH,A
   \   0000AD   D0E0         POP     A
   \   0000AF   F0           MOVX    @DPTR,A
    817          
    818            return fillAndSend( &(inMsg->TransSeq), &(inMsg->srcAddr), Node_Desc_rsp, len );
   \   0000B0                ; Setup parameters for call to function fillAndSend
   \   0000B0   75..02       MOV     ?V0,#0x2
   \   0000B3   75..80       MOV     ?V1,#-0x80
   \   0000B6   78..         MOV     R0,#?V0
   \   0000B8   12....       LCALL   ?PUSH_XSTACK_I_TWO
   \   0000BB   7910         MOV     R1,#0x10
   \   0000BD   12....       LCALL   ?Subroutine69 & 0xFFFF
   \                     ??CrossCallReturnLabel_110:
   \   0000C0   5001         JNC     ??ZDP_NodeDescMsg_0
   \   0000C2   0B           INC     R3
   \                     ??ZDP_NodeDescMsg_0:
   \   0000C3   02....       LJMP    ??Subroutine112_0 & 0xFFFF
    819          }

   \                                 In  segment BANKED_CODE, align 1, keep-with-next
   \                     ?Subroutine47:
   \   000000   12....       LCALL   ?Subroutine85 & 0xFFFF
   \                     ??CrossCallReturnLabel_135:
   \   000003   A3           INC     DPTR
   \   000004   A3           INC     DPTR
   \   000005   A3           INC     DPTR
   \   000006   A3           INC     DPTR
   \   000007   A3           INC     DPTR
   \   000008   22           RET

   \                                 In  segment BANKED_CODE, align 1, keep-with-next
   \                     ?Subroutine28:
   \   000000   A3           INC     DPTR
   \   000001   A3           INC     DPTR
   \   000002   A3           INC     DPTR
   \   000003   A3           INC     DPTR
   \   000004   A3           INC     DPTR
   \   000005   A3           INC     DPTR
   \   000006   A3           INC     DPTR
   \   000007   12....       LCALL   ?Subroutine93 & 0xFFFF
   \                     ??CrossCallReturnLabel_149:
   \   00000A   22           RET

   \                                 In  segment BANKED_CODE, align 1, keep-with-next
   \                     ?Subroutine93:
   \   000000   12....       LCALL   ?Subroutine105 & 0xFFFF
   \                     ??CrossCallReturnLabel_249:
   \   000003   A3           INC     DPTR
   \   000004   A3           INC     DPTR
   \   000005   A3           INC     DPTR
   \   000006   A3           INC     DPTR
   \   000007   22           RET

   \                                 In  segment BANKED_CODE, align 1, keep-with-next
   \                     ?Subroutine23:
   \   000000   12....       LCALL   ?Subroutine93 & 0xFFFF
   \                     ??CrossCallReturnLabel_150:
   \   000003   A3           INC     DPTR
   \   000004   A3           INC     DPTR
   \   000005   22           RET

   \                                 In  segment BANKED_CODE, align 1, keep-with-next
   \                     ?Subroutine69:
   \   000000   EA           MOV     A,R2
   \   000001   2402         ADD     A,#0x2
   \   000003   FC           MOV     R4,A
   \   000004   E4           CLR     A
   \   000005   3B           ADDC    A,R3
   \   000006   FD           MOV     R5,A
   \   000007   EA           MOV     A,R2
   \   000008   240F         ADD     A,#0xf
   \   00000A   FA           MOV     R2,A
   \   00000B   22           RET

   \                                 In  segment BANKED_CODE, align 1, keep-with-next
   \                     ?Subroutine20:
   \   000000   FF           MOV     R7,A
   \   000001   8E82         MOV     DPL,R6
   \   000003   8F83         MOV     DPH,R7
   \   000005   E4           CLR     A
   \   000006   F0           MOVX    @DPTR,A
   \   000007   EC           MOV     A,R4
   \   000008   A3           INC     DPTR
   \   000009   F0           MOVX    @DPTR,A
   \   00000A   ED           MOV     A,R5
   \   00000B   8E82         MOV     DPL,R6
   \   00000D   8F83         MOV     DPH,R7
   \   00000F   A3           INC     DPTR
   \   000010   A3           INC     DPTR
   \   000011   F0           MOVX    @DPTR,A
   \   000012   740A         MOV     A,#0xa
   \   000014   22           RET

   \                                 In  segment BANKED_CODE, align 1, keep-with-next
   \                     ??Subroutine124_0:
   \   000000   F0           MOVX    @DPTR,A
   \   000001   8C82         MOV     DPL,R4
   \   000003   8D83         MOV     DPH,R5
   \   000005   A3           INC     DPTR
   \   000006   22           RET

   \                                 In  segment BANKED_CODE, align 1, keep-with-next
   \                     ?Subroutine71:
   \   000000   EE           MOV     A,R6
   \   000001   240B         ADD     A,#0xb
   \   000003   F582         MOV     DPL,A
   \   000005   E4           CLR     A
   \   000006   3F           ADDC    A,R7
   \   000007   F583         MOV     DPH,A
   \   000009   22           RET

   \                                 In  segment BANKED_CODE, align 1, keep-with-next
   \                     ?Subroutine58:
   \   000000   A3           INC     DPTR
   \   000001   12....       LCALL   ?Subroutine85 & 0xFFFF
   \                     ??CrossCallReturnLabel_136:
   \   000004   22           RET

   \                                 In  segment BANKED_CODE, align 1, keep-with-next
   \                     ?Subroutine85:
   \   000000   12....       LCALL   ?Subroutine100 & 0xFFFF
   \                     ??CrossCallReturnLabel_163:
   \   000003   A3           INC     DPTR
   \   000004   A3           INC     DPTR
   \   000005   A3           INC     DPTR
   \   000006   A3           INC     DPTR
   \   000007   22           RET

   \                                 In  segment BANKED_CODE, align 1, keep-with-next
   \                     ?Subroutine29:
   \   000000   A3           INC     DPTR
   \   000001   A3           INC     DPTR
   \   000002   A3           INC     DPTR
   \   000003                REQUIRE ??Subroutine131_0
   \   000003                ; // Fall through to label ??Subroutine131_0

   \                                 In  segment BANKED_CODE, align 1, keep-with-next
   \                     ??Subroutine131_0:
   \   000000   A3           INC     DPTR
   \   000001   A3           INC     DPTR
   \   000002                REQUIRE ??Subroutine132_0
   \   000002                ; // Fall through to label ??Subroutine132_0

   \                                 In  segment BANKED_CODE, align 1, keep-with-next
   \                     ??Subroutine132_0:
   \   000000   12....       LCALL   ?Subroutine94 & 0xFFFF
   \                     ??CrossCallReturnLabel_248:
   \   000003   A3           INC     DPTR
   \   000004   A3           INC     DPTR
   \   000005   22           RET

   \                                 In  segment BANKED_CODE, align 1, keep-with-next
   \                     ?Subroutine73:
   \   000000   12....       LCALL   ?Subroutine99 & 0xFFFF
   \                     ??CrossCallReturnLabel_160:
   \   000003   22           RET

   \                                 In  segment BANKED_CODE, align 1, keep-with-next
   \                     ?Subroutine99:
   \   000000   EE           MOV     A,R6
   \   000001   240C         ADD     A,#0xc
   \   000003   F582         MOV     DPL,A
   \   000005   E4           CLR     A
   \   000006   3F           ADDC    A,R7
   \   000007   F583         MOV     DPH,A
   \   000009   22           RET
    820          
    821          /*********************************************************************
    822           * @fn          ZDP_PowerDescMsg
    823           *
    824           * @brief       Builds and sends a Power Descriptor message, unicast to the
    825           *              specified device.
    826           *
    827           * @param       inMsg - incoming message (request)
    828           * @param       nwkAddr - 16 bit network address for device
    829           * @param       pPowerDesc - pointer to the node descriptor
    830           *
    831           * @return      afStatus_t
    832           */

   \                                 In  segment BANKED_CODE, align 1, keep-with-next
    833          afStatus_t ZDP_PowerDescMsg( zdoIncomingMsg_t *inMsg,
   \                     ZDP_PowerDescMsg:
    834                               uint16 nwkAddr, NodePowerDescriptorFormat_t *pPowerDesc )
    835          {
   \   000000                REQUIRE ?V0
   \   000000                REQUIRE ?V1
   \   000000   74F6         MOV     A,#-0xa
   \   000002   12....       LCALL   ?BANKED_ENTER_XDATA
   \   000005                ; Saved register size: 10
   \   000005                ; Auto size: 0
    836            uint8 *pBuf = ZDP_TmpBuf;
   \   000005   12....       LCALL   ?Subroutine50 & 0xFFFF
   \                     ??CrossCallReturnLabel_270:
   \   000008   FE           MOV     R6,A
   \   000009   E9           MOV     A,R1
   \   00000A   12....       LCALL   ?Subroutine20 & 0xFFFF
    837            byte len = 1 + 2 + 2;  // Status + nwkAddr + Node Power descriptor.
    838          
    839            *pBuf++ = ZDP_SUCCESS;
    840          
    841            *pBuf++ = LO_UINT16( nwkAddr );
    842            *pBuf++ = HI_UINT16( nwkAddr );
   \                     ??CrossCallReturnLabel_22:
   \   00000D   12....       LCALL   ?XSTACK_DISP0_8
   \   000010   12....       LCALL   ?Subroutine41 & 0xFFFF
    843          
    844            *pBuf++ = (byte)((pPowerDesc->AvailablePowerSources << 4)
    845                              | (pPowerDesc->PowerMode & 0x0F));
   \                     ??CrossCallReturnLabel_63:
   \   000013   8E82         MOV     DPL,R6
   \   000015   8F83         MOV     DPH,R7
   \   000017   A3           INC     DPTR
   \   000018   12....       LCALL   ?Subroutine33 & 0xFFFF
    846            *pBuf++ = (byte)((pPowerDesc->CurrentPowerSourceLevel << 4)
    847                              | (pPowerDesc->CurrentPowerSource & 0x0F));
   \                     ??CrossCallReturnLabel_183:
   \   00001B   F5..         MOV     ?V0,A
   \   00001D   A3           INC     DPTR
   \   00001E   E0           MOVX    A,@DPTR
   \   00001F   F5..         MOV     ?V1,A
   \   000021   540F         ANL     A,#0xf
   \   000023   F9           MOV     R1,A
   \   000024   740C         MOV     A,#0xc
   \   000026   78..         MOV     R0,#?V0
   \   000028   12....       LCALL   ?US_SHR
   \   00002B   E5..         MOV     A,?V0
   \   00002D   C4           SWAP    A
   \   00002E   49           ORL     A,R1
   \   00002F   8E82         MOV     DPL,R6
   \   000031   8F83         MOV     DPH,R7
   \   000033   A3           INC     DPTR
   \   000034   A3           INC     DPTR
   \   000035   A3           INC     DPTR
   \   000036   A3           INC     DPTR
   \   000037   F0           MOVX    @DPTR,A
    848          
    849            return fillAndSend( &(inMsg->TransSeq), &(inMsg->srcAddr), Power_Desc_rsp, len );
   \   000038                ; Setup parameters for call to function fillAndSend
   \   000038   75..03       MOV     ?V0,#0x3
   \   00003B   75..80       MOV     ?V1,#-0x80
   \   00003E   78..         MOV     R0,#?V0
   \   000040   12....       LCALL   ?PUSH_XSTACK_I_TWO
   \   000043   7905         MOV     R1,#0x5
   \   000045   12....       LCALL   ?Subroutine69 & 0xFFFF
   \                     ??CrossCallReturnLabel_111:
   \   000048   5001         JNC     ??ZDP_PowerDescMsg_0
   \   00004A   0B           INC     R3
   \                     ??ZDP_PowerDescMsg_0:
   \   00004B   02....       LJMP    ??Subroutine112_0 & 0xFFFF
    850          }

   \                                 In  segment BANKED_CODE, align 1, keep-with-next
   \                     ?Subroutine33:
   \   000000   A3           INC     DPTR
   \   000001   A3           INC     DPTR
   \   000002                REQUIRE ??Subroutine121_0
   \   000002                ; // Fall through to label ??Subroutine121_0

   \                                 In  segment BANKED_CODE, align 1, keep-with-next
   \                     ??Subroutine121_0:
   \   000000   12....       LCALL   ?Subroutine107 & 0xFFFF
   \                     ??CrossCallReturnLabel_253:
   \   000003   E0           MOVX    A,@DPTR
   \   000004   22           RET

   \                                 In  segment BANKED_CODE, align 1, keep-with-next
   \                     ?Subroutine50:
   \   000000   90....       MOV     DPTR,#ZDP_TmpBuf
   \   000003                REQUIRE ??Subroutine137_0
   \   000003                ; // Fall through to label ??Subroutine137_0

   \                                 In  segment BANKED_CODE, align 1, keep-with-next
   \                     ??Subroutine137_0:
   \   000000   12....       LCALL   ?Subroutine81 & 0xFFFF
   \                     ??CrossCallReturnLabel_272:
   \   000003   22           RET
    851          
    852          /*********************************************************************
    853           * @fn          ZDP_SimpleDescMsg
    854           *
    855           * @brief       Builds and sends a Simple Descriptor message, unicast to the
    856           *              specified device.
    857           *
    858           * @param       inMsg - incoming message (request)
    859           * @param       Status - message status (ZDP_SUCCESS or other)
    860           * @param       pSimpleDesc - pointer to the node descriptor
    861           *
    862           * @return      afStatus_t
    863           */

   \                                 In  segment BANKED_CODE, align 1, keep-with-next
    864          afStatus_t ZDP_SimpleDescMsg( zdoIncomingMsg_t *inMsg, byte Status,
   \                     ZDP_SimpleDescMsg:
    865                                        SimpleDescriptionFormat_t *pSimpleDesc )
    866          {
   \   000000                REQUIRE ?V0
   \   000000                REQUIRE ?V1
   \   000000                REQUIRE ?V2
   \   000000                REQUIRE ?V3
   \   000000                REQUIRE ?V4
   \   000000                REQUIRE ?V5
   \   000000                REQUIRE ?V6
   \   000000                REQUIRE ?V7
   \   000000   74F0         MOV     A,#-0x10
   \   000002   12....       LCALL   ?BANKED_ENTER_XDATA
   \   000005                ; Saved register size: 16
   \   000005                ; Auto size: 0
   \   000005   8A..         MOV     ?V2,R2
   \   000007   8B..         MOV     ?V3,R3
   \   000009   E9           MOV     A,R1
   \   00000A   FE           MOV     R6,A
    867            uint8 *pBuf = ZDP_TmpBuf;
   \   00000B   12....       LCALL   ?Subroutine63 & 0xFFFF
    868            uint8 i, len;
    869          
    870            if ( Status == ZDP_SUCCESS && pSimpleDesc )
   \                     ??CrossCallReturnLabel_103:
   \   00000E   702E         JNZ     ??ZDP_SimpleDescMsg_0
   \   000010   EC           MOV     A,R4
   \   000011   4D           ORL     A,R5
   \   000012   602A         JZ      ??ZDP_SimpleDescMsg_0
    871            {
    872              // Status + NWKAddrOfInterest + desc length + empty simple descriptor.
    873              len = 1 + 2 + 1 + 8;
    874              len += (pSimpleDesc->AppNumInClusters + pSimpleDesc->AppNumOutClusters) * sizeof ( uint16 );
   \   000014   8C82         MOV     DPL,R4
   \   000016   8D83         MOV     DPH,R5
   \   000018   A3           INC     DPTR
   \   000019   A3           INC     DPTR
   \   00001A   A3           INC     DPTR
   \   00001B   A3           INC     DPTR
   \   00001C   A3           INC     DPTR
   \   00001D   A3           INC     DPTR
   \   00001E   A3           INC     DPTR
   \   00001F   A3           INC     DPTR
   \   000020   A3           INC     DPTR
   \   000021   E0           MOVX    A,@DPTR
   \   000022   F8           MOV     R0,A
   \   000023   8C82         MOV     DPL,R4
   \   000025   8D83         MOV     DPH,R5
   \   000027   A3           INC     DPTR
   \   000028   A3           INC     DPTR
   \   000029   A3           INC     DPTR
   \   00002A   A3           INC     DPTR
   \   00002B   A3           INC     DPTR
   \   00002C   A3           INC     DPTR
   \   00002D   E0           MOVX    A,@DPTR
   \   00002E   28           ADD     A,R0
   \   00002F   C3           CLR     C
   \   000030   33           RLC     A
   \   000031   240C         ADD     A,#0xc
   \   000033   FA           MOV     R2,A
    875            }
    876            else
    877            {
    878              len = 1 + 2 + 1; // Status + desc length
    879            }
    880            if ( len >= ZDP_BUF_SZ-1 )
   \   000034   C3           CLR     C
   \   000035   944F         SUBB    A,#0x4f
   \   000037   4007         JC      ??ZDP_SimpleDescMsg_1
    881            {
    882              return afStatus_MEM_FAIL;
   \   000039   7910         MOV     R1,#0x10
   \   00003B   02....       LJMP    ??ZDP_SimpleDescMsg_2 & 0xFFFF
    883            }
   \                     ??ZDP_SimpleDescMsg_0:
   \   00003E   7A04         MOV     R2,#0x4
    884          
    885            *pBuf++ = Status;
   \                     ??ZDP_SimpleDescMsg_1:
   \   000040   EE           MOV     A,R6
   \   000041   85..82       MOV     DPL,?V0
   \   000044   85..83       MOV     DPH,?V1
   \   000047   F0           MOVX    @DPTR,A
    886          
    887            *pBuf++ = LO_UINT16( ZDAppNwkAddr.addr.shortAddr );
   \   000048   90....       MOV     DPTR,#ZDAppNwkAddr
   \   00004B   12....       LCALL   ?Subroutine65 & 0xFFFF
   \                     ??CrossCallReturnLabel_106:
   \   00004E   F0           MOVX    @DPTR,A
    888            *pBuf++ = HI_UINT16( ZDAppNwkAddr.addr.shortAddr );
   \   00004F   90....       MOV     DPTR,#ZDAppNwkAddr + 1
   \   000052   12....       LCALL   ??Subroutine123_0 & 0xFFFF
   \                     ??CrossCallReturnLabel_189:
   \   000055   F0           MOVX    @DPTR,A
    889          
    890            if ( len > 4 )
   \   000056   EA           MOV     A,R2
   \   000057   C3           CLR     C
   \   000058   9405         SUBB    A,#0x5
   \   00005A   5003         JNC     $+5
   \   00005C   02....       LJMP    ??ZDP_SimpleDescMsg_3 & 0xFFFF
    891            {
    892              *pBuf++ = len - 4;   // Simple descriptor length
   \   00005F   74FC         MOV     A,#-0x4
   \   000061   2A           ADD     A,R2
   \   000062   85..82       MOV     DPL,?V0
   \   000065   85..83       MOV     DPH,?V1
   \   000068   A3           INC     DPTR
   \   000069   A3           INC     DPTR
   \   00006A   A3           INC     DPTR
   \   00006B   F0           MOVX    @DPTR,A
    893          
    894              *pBuf++ = pSimpleDesc->EndPoint;
   \   00006C   8C82         MOV     DPL,R4
   \   00006E   8D83         MOV     DPH,R5
   \   000070   12....       LCALL   ??Subroutine123_0 & 0xFFFF
   \                     ??CrossCallReturnLabel_190:
   \   000073   12....       LCALL   ?Subroutine36 & 0xFFFF
    895              *pBuf++ = LO_UINT16( pSimpleDesc->AppProfId );
   \                     ??CrossCallReturnLabel_200:
   \   000076   A882         MOV     R0,DPL
   \   000078   A983         MOV     R1,DPH
   \   00007A   12....       LCALL   ?Subroutine106 & 0xFFFF
   \                     ??CrossCallReturnLabel_197:
   \   00007D   12....       LCALL   ?Subroutine11 & 0xFFFF
    896              *pBuf++ = HI_UINT16( pSimpleDesc->AppProfId );
   \                     ??CrossCallReturnLabel_4:
   \   000080   F0           MOVX    @DPTR,A
    897              *pBuf++ = LO_UINT16( pSimpleDesc->AppDeviceId );
   \   000081   EC           MOV     A,R4
   \   000082   2403         ADD     A,#0x3
   \   000084   12....       LCALL   ?Subroutine44 & 0xFFFF
   \                     ??CrossCallReturnLabel_191:
   \   000087   12....       LCALL   ?Subroutine11 & 0xFFFF
    898              *pBuf++ = HI_UINT16( pSimpleDesc->AppDeviceId );
   \                     ??CrossCallReturnLabel_5:
   \   00008A   12....       LCALL   ?Subroutine36 & 0xFFFF
    899          
    900              *pBuf++ = (byte)(pSimpleDesc->AppDevVer & 0x0F);
   \                     ??CrossCallReturnLabel_201:
   \   00008D   A3           INC     DPTR
   \   00008E   A3           INC     DPTR
   \   00008F   A3           INC     DPTR
   \   000090   A3           INC     DPTR
   \   000091   E0           MOVX    A,@DPTR
   \   000092   540F         ANL     A,#0xf
   \   000094   85..82       MOV     DPL,?V0
   \   000097   85..83       MOV     DPH,?V1
   \   00009A   A3           INC     DPTR
   \   00009B   A3           INC     DPTR
   \   00009C   A3           INC     DPTR
   \   00009D   A3           INC     DPTR
   \   00009E   A3           INC     DPTR
   \   00009F   A3           INC     DPTR
   \   0000A0   A3           INC     DPTR
   \   0000A1   A3           INC     DPTR
   \   0000A2   A3           INC     DPTR
   \   0000A3   F0           MOVX    @DPTR,A
    901          
    902              *pBuf++ = pSimpleDesc->AppNumInClusters;
   \   0000A4   EC           MOV     A,R4
   \   0000A5   2406         ADD     A,#0x6
   \   0000A7   12....       LCALL   ?Subroutine44 & 0xFFFF
   \                     ??CrossCallReturnLabel_192:
   \   0000AA   A3           INC     DPTR
   \   0000AB   A3           INC     DPTR
   \   0000AC   A3           INC     DPTR
   \   0000AD   A3           INC     DPTR
   \   0000AE   A3           INC     DPTR
   \   0000AF   A3           INC     DPTR
   \   0000B0   A3           INC     DPTR
   \   0000B1   A3           INC     DPTR
   \   0000B2   F0           MOVX    @DPTR,A
   \   0000B3   E5..         MOV     A,?V0
   \   0000B5   240B         ADD     A,#0xb
   \   0000B7   F5..         MOV     ?V0,A
   \   0000B9   5002         JNC     ??ZDP_SimpleDescMsg_4
   \   0000BB   05..         INC     ?V1
    903              if ( pSimpleDesc->AppNumInClusters )
   \                     ??ZDP_SimpleDescMsg_4:
   \   0000BD   8882         MOV     DPL,R0
   \   0000BF   8983         MOV     DPH,R1
   \   0000C1   E0           MOVX    A,@DPTR
   \   0000C2   6022         JZ      ??ZDP_SimpleDescMsg_5
    904              {
    905                for (i=0; i<pSimpleDesc->AppNumInClusters; ++i)
   \   0000C4   7B00         MOV     R3,#0x0
   \   0000C6   800D         SJMP    ??ZDP_SimpleDescMsg_6
    906                {
    907                  *pBuf++ = LO_UINT16( pSimpleDesc->pAppInClusterList[i] );
   \                     ??ZDP_SimpleDescMsg_7:
   \   0000C8   12....       LCALL   ?Subroutine74 & 0xFFFF
    908                  *pBuf++ = HI_UINT16( pSimpleDesc->pAppInClusterList[i] );
    909                }
   \                     ??CrossCallReturnLabel_187:
   \   0000CB   2407         ADD     A,#0x7
   \   0000CD   12....       LCALL   ?Subroutine9 & 0xFFFF
   \                     ??CrossCallReturnLabel_0:
   \   0000D0   5002         JNC     ??ZDP_SimpleDescMsg_8
   \   0000D2   05..         INC     ?V1
   \                     ??ZDP_SimpleDescMsg_8:
   \   0000D4   0B           INC     R3
   \                     ??ZDP_SimpleDescMsg_6:
   \   0000D5   8C82         MOV     DPL,R4
   \   0000D7   8D83         MOV     DPH,R5
   \   0000D9   A3           INC     DPTR
   \   0000DA   A3           INC     DPTR
   \   0000DB   A3           INC     DPTR
   \   0000DC   A3           INC     DPTR
   \   0000DD   A3           INC     DPTR
   \   0000DE   A3           INC     DPTR
   \   0000DF   E0           MOVX    A,@DPTR
   \   0000E0   F8           MOV     R0,A
   \   0000E1   EB           MOV     A,R3
   \   0000E2   C3           CLR     C
   \   0000E3   98           SUBB    A,R0
   \   0000E4   40E2         JC      ??ZDP_SimpleDescMsg_7
    910              }
    911          
    912              *pBuf++ = pSimpleDesc->AppNumOutClusters;
   \                     ??ZDP_SimpleDescMsg_5:
   \   0000E6   EC           MOV     A,R4
   \   0000E7   2409         ADD     A,#0x9
   \   0000E9   F8           MOV     R0,A
   \   0000EA   E4           CLR     A
   \   0000EB   3D           ADDC    A,R5
   \   0000EC   F9           MOV     R1,A
   \   0000ED   8882         MOV     DPL,R0
   \   0000EF   8983         MOV     DPH,R1
   \   0000F1   12....       LCALL   ?Subroutine88 & 0xFFFF
   \                     ??CrossCallReturnLabel_141:
   \   0000F4   A3           INC     DPTR
   \   0000F5   8582..       MOV     ?V0,DPL
   \   0000F8   8583..       MOV     ?V1,DPH
    913              if ( pSimpleDesc->AppNumOutClusters )
   \   0000FB   8882         MOV     DPL,R0
   \   0000FD   8983         MOV     DPH,R1
   \   0000FF   E0           MOVX    A,@DPTR
   \   000100   6030         JZ      ??ZDP_SimpleDescMsg_9
    914              {
    915                for (i=0; i<pSimpleDesc->AppNumOutClusters; ++i)
   \   000102   7B00         MOV     R3,#0x0
   \                     ??ZDP_SimpleDescMsg_10:
   \   000104   8C82         MOV     DPL,R4
   \   000106   8D83         MOV     DPH,R5
   \   000108   A3           INC     DPTR
   \   000109   A3           INC     DPTR
   \   00010A   A3           INC     DPTR
   \   00010B   A3           INC     DPTR
   \   00010C   A3           INC     DPTR
   \   00010D   A3           INC     DPTR
   \   00010E   A3           INC     DPTR
   \   00010F   A3           INC     DPTR
   \   000110   A3           INC     DPTR
   \   000111   E0           MOVX    A,@DPTR
   \   000112   F8           MOV     R0,A
   \   000113   EB           MOV     A,R3
   \   000114   C3           CLR     C
   \   000115   98           SUBB    A,R0
   \   000116   501A         JNC     ??ZDP_SimpleDescMsg_9
    916                {
    917                  *pBuf++ = LO_UINT16( pSimpleDesc->pAppOutClusterList[i] );
   \   000118   12....       LCALL   ?Subroutine74 & 0xFFFF
    918                  *pBuf++ = HI_UINT16( pSimpleDesc->pAppOutClusterList[i] );
    919                }
   \                     ??CrossCallReturnLabel_188:
   \   00011B   240A         ADD     A,#0xa
   \   00011D   12....       LCALL   ?Subroutine9 & 0xFFFF
   \                     ??CrossCallReturnLabel_1:
   \   000120   5002         JNC     ??ZDP_SimpleDescMsg_11
   \   000122   05..         INC     ?V1
   \                     ??ZDP_SimpleDescMsg_11:
   \   000124   0B           INC     R3
   \   000125   80DD         SJMP    ??ZDP_SimpleDescMsg_10
    920              }
    921            }
    922          
    923            else
    924            {
    925              *pBuf = 0; // Description Length = 0;
   \                     ??ZDP_SimpleDescMsg_3:
   \   000127   85..82       MOV     DPL,?V0
   \   00012A   85..83       MOV     DPH,?V1
   \   00012D   A3           INC     DPTR
   \   00012E   A3           INC     DPTR
   \   00012F   A3           INC     DPTR
   \   000130   E4           CLR     A
   \   000131   F0           MOVX    @DPTR,A
    926            }
    927          
    928            return fillAndSend( &(inMsg->TransSeq), &(inMsg->srcAddr), Simple_Desc_rsp, len );
   \                     ??ZDP_SimpleDescMsg_9:
   \   000132                ; Setup parameters for call to function fillAndSend
   \   000132   75..04       MOV     ?V0,#0x4
   \   000135   75..80       MOV     ?V1,#-0x80
   \   000138   78..         MOV     R0,#?V0
   \   00013A   12....       LCALL   ?PUSH_XSTACK_I_TWO
   \   00013D   EA           MOV     A,R2
   \   00013E   F9           MOV     R1,A
   \   00013F   E5..         MOV     A,?V2
   \   000141   2402         ADD     A,#0x2
   \   000143   FC           MOV     R4,A
   \   000144   E4           CLR     A
   \   000145   35..         ADDC    A,?V3
   \   000147   FD           MOV     R5,A
   \   000148   E5..         MOV     A,?V2
   \   00014A   240F         ADD     A,#0xf
   \   00014C   FA           MOV     R2,A
   \   00014D   E4           CLR     A
   \   00014E   35..         ADDC    A,?V3
   \   000150   FB           MOV     R3,A
   \   000151   12....       LCALL   `??fillAndSend::?relay`; Banked call to: fillAndSend
   \   000154   7402         MOV     A,#0x2
   \   000156   12....       LCALL   ?DEALLOC_XSTACK8
   \                     ??ZDP_SimpleDescMsg_2:
   \   000159                REQUIRE ?Subroutine5
   \   000159                ; // Fall through to label ?Subroutine5
    929          }

   \                                 In  segment BANKED_CODE, align 1, keep-with-next
   \                     ?Subroutine5:
   \   000000   7F08         MOV     R7,#0x8
   \   000002   02....       LJMP    ?BANKED_LEAVE_XDATA

   \                                 In  segment BANKED_CODE, align 1, keep-with-next
   \                     ?Subroutine74:
   \   000000   EB           MOV     A,R3
   \   000001                REQUIRE ??Subroutine122_0
   \   000001                ; // Fall through to label ??Subroutine122_0

   \                                 In  segment BANKED_CODE, align 1, keep-with-next
   \                     ?Subroutine44:
   \   000000   F8           MOV     R0,A
   \   000001   E4           CLR     A
   \   000002   3D           ADDC    A,R5
   \   000003   F9           MOV     R1,A
   \   000004   8882         MOV     DPL,R0
   \   000006   8983         MOV     DPH,R1
   \   000008                REQUIRE ??Subroutine123_0
   \   000008                ; // Fall through to label ??Subroutine123_0

   \                                 In  segment BANKED_CODE, align 1, keep-with-next
   \                     ??Subroutine123_0:
   \   000000   12....       LCALL   ?Subroutine87 & 0xFFFF
   \                     ??CrossCallReturnLabel_194:
   \   000003   22           RET

   \                                 In  segment BANKED_CODE, align 1, keep-with-next
   \                     ?Subroutine87:
   \   000000   12....       LCALL   ?Subroutine104 & 0xFFFF
   \                     ??CrossCallReturnLabel_196:
   \   000003   A3           INC     DPTR
   \   000004   22           RET

   \                                 In  segment BANKED_CODE, align 1, keep-with-next
   \                     ?Subroutine36:
   \   000000   A3           INC     DPTR
   \   000001   A3           INC     DPTR
   \   000002                REQUIRE ??Subroutine124_0
   \   000002                ; // Fall through to label ??Subroutine124_0

   \                                 In  segment BANKED_CODE, align 1, keep-with-next
   \                     ?Subroutine11:
   \   000000   A3           INC     DPTR
   \   000001   A3           INC     DPTR
   \   000002   A3           INC     DPTR
   \   000003   A3           INC     DPTR
   \   000004   A3           INC     DPTR
   \   000005   12....       LCALL   ?Subroutine94 & 0xFFFF
   \                     ??CrossCallReturnLabel_245:
   \   000008   12....       LCALL   ?Subroutine87 & 0xFFFF
   \                     ??CrossCallReturnLabel_193:
   \   00000B   A3           INC     DPTR
   \   00000C   A3           INC     DPTR
   \   00000D   A3           INC     DPTR
   \   00000E   A3           INC     DPTR
   \   00000F   22           RET

   \                                 In  segment BANKED_CODE, align 1, keep-with-next
   \                     ?Subroutine9:
   \   000000   F5..         MOV     ?V4,A
   \   000002   E4           CLR     A
   \   000003   3D           ADDC    A,R5
   \   000004   F5..         MOV     ?V5,A
   \   000006   85..82       MOV     DPL,?V4
   \   000009   F583         MOV     DPH,A
   \   00000B   12....       LCALL   ?Subroutine80 & 0xFFFF
   \                     ??CrossCallReturnLabel_129:
   \   00000E   12....       LCALL   ?Subroutine88 & 0xFFFF
   \                     ??CrossCallReturnLabel_142:
   \   000011   85..82       MOV     DPL,?V4
   \   000014   85..83       MOV     DPH,?V5
   \   000017   12....       LCALL   ?Subroutine80 & 0xFFFF
   \                     ??CrossCallReturnLabel_130:
   \   00001A   A3           INC     DPTR
   \   00001B   12....       LCALL   ?Subroutine89 & 0xFFFF
   \                     ??CrossCallReturnLabel_143:
   \   00001E   F0           MOVX    @DPTR,A
   \   00001F   E5..         MOV     A,?V0
   \   000021   2402         ADD     A,#0x2
   \   000023   F5..         MOV     ?V0,A
   \   000025   22           RET

   \                                 In  segment BANKED_CODE, align 1, keep-with-next
   \                     ?Subroutine88:
   \   000000   12....       LCALL   ?Subroutine106 & 0xFFFF
   \                     ??CrossCallReturnLabel_198:
   \   000003   F0           MOVX    @DPTR,A
   \   000004   22           RET

   \                                 In  segment BANKED_CODE, align 1, keep-with-next
   \                     ?Subroutine106:
   \   000000   E0           MOVX    A,@DPTR
   \   000001   85..82       MOV     DPL,?V0
   \   000004   85..83       MOV     DPH,?V1
   \   000007   22           RET

   \                                 In  segment BANKED_CODE, align 1, keep-with-next
   \                     ?Subroutine80:
   \   000000   E0           MOVX    A,@DPTR
   \   000001   28           ADD     A,R0
   \   000002   FF           MOV     R7,A
   \   000003   A3           INC     DPTR
   \   000004   E0           MOVX    A,@DPTR
   \   000005   39           ADDC    A,R1
   \   000006   8F82         MOV     DPL,R7
   \   000008   F583         MOV     DPH,A
   \   00000A   22           RET

   \                                 In  segment BANKED_CODE, align 1, keep-with-next
   \                     ?Subroutine65:
   \   000000   12....       LCALL   ?Subroutine89 & 0xFFFF
   \                     ??CrossCallReturnLabel_144:
   \   000003   22           RET

   \                                 In  segment BANKED_CODE, align 1, keep-with-next
   \                     ?Subroutine89:
   \   000000   12....       LCALL   ?Subroutine104 & 0xFFFF
   \                     ??CrossCallReturnLabel_195:
   \   000003   22           RET

   \                                 In  segment BANKED_CODE, align 1, keep-with-next
   \                     ?Subroutine104:
   \   000000   12....       LCALL   ?Subroutine106 & 0xFFFF
   \                     ??CrossCallReturnLabel_199:
   \   000003   A3           INC     DPTR
   \   000004   22           RET
    930          
    931          /*********************************************************************
    932           * @fn          ZDP_EPRsp
    933           *
    934           * @brief       This builds and send an endpoint list. Used in
    935           *              Active_EP_rsp and Match_Desc_Rsp
    936           *              message.  This function sends unicast message to the
    937           *              requesting device.
    938           *
    939           * @param       MsgType - either Active_EP_rsp or Match_Desc_Rsp
    940           * @param       dstAddr - destination address
    941           * @param       Status - message status (ZDP_SUCCESS or other)
    942           * @param       nwkAddr - Device's short address that this response describes
    943           * @param       Count - number of endpoint/interfaces in list
    944           * @param       pEPIntfList - Array of Endpoint/Interfaces
    945           * @param       SecurityEnable - Security Options
    946           *
    947           * @return      afStatus_t
    948           */

   \                                 In  segment BANKED_CODE, align 1, keep-with-next
    949          afStatus_t ZDP_EPRsp( uint16 MsgType, byte TransSeq, zAddrType_t *dstAddr,
   \                     ZDP_EPRsp:
    950                                  byte Status, uint16 nwkAddr, byte Count,
    951                                  uint8 *pEPList,
    952                                  byte SecurityEnable )
    953          {
   \   000000                REQUIRE ?V0
   \   000000                REQUIRE ?V1
   \   000000                REQUIRE ?V2
   \   000000                REQUIRE ?V3
   \   000000                REQUIRE ?V4
   \   000000                REQUIRE ?V5
   \   000000                REQUIRE ?V6
   \   000000   74F1         MOV     A,#-0xf
   \   000002   12....       LCALL   ?BANKED_ENTER_XDATA
   \   000005                ; Saved register size: 15
   \   000005                ; Auto size: 1
   \   000005   74FF         MOV     A,#-0x1
   \   000007   12....       LCALL   ?ALLOC_XSTACK8
   \   00000A   E9           MOV     A,R1
   \   00000B   85..82       MOV     DPL,?XSP + 0
   \   00000E   85..83       MOV     DPH,?XSP + 1
   \   000011   F0           MOVX    @DPTR,A
   \   000012   8A..         MOV     ?V2,R2
   \   000014   8B..         MOV     ?V3,R3
   \   000016   EC           MOV     A,R4
   \   000017   FE           MOV     R6,A
   \   000018   ED           MOV     A,R5
   \   000019   FF           MOV     R7,A
    954            uint8 *pBuf = ZDP_TmpBuf;
   \   00001A   90....       MOV     DPTR,#ZDP_TmpBuf
   \   00001D   12....       LCALL   ?Subroutine46 & 0xFFFF
    955            byte len = 1 + 2 + 1;  // Status + nwkAddr + endpoint/interface count.
   \                     ??CrossCallReturnLabel_65:
   \   000020   75..04       MOV     ?V0,#0x4
    956            byte txOptions;
    957          
    958            (void)SecurityEnable;  // Intentionally unreferenced parameter
    959          
    960            if ( MsgType == Match_Desc_rsp )
   \   000023   7406         MOV     A,#0x6
   \   000025   65..         XRL     A,?V2
   \   000027   7004         JNZ     ??ZDP_EPRsp_0
   \   000029   7480         MOV     A,#-0x80
   \   00002B   65..         XRL     A,?V3
   \                     ??ZDP_EPRsp_0:
   \   00002D   7005         JNZ     ??ZDP_EPRsp_1
    961              txOptions = AF_MSG_ACK_REQUEST;
   \   00002F   75..10       MOV     ?V1,#0x10
   \   000032   8003         SJMP    ??ZDP_EPRsp_2
    962            else
    963              txOptions = 0;
   \                     ??ZDP_EPRsp_1:
   \   000034   75..00       MOV     ?V1,#0x0
    964          
    965              *pBuf++ = Status;
   \                     ??ZDP_EPRsp_2:
   \   000037   7410         MOV     A,#0x10
   \   000039   12....       LCALL   ?XSTACK_DISP0_8
   \   00003C   12....       LCALL   ?Subroutine61 & 0xFFFF
   \                     ??CrossCallReturnLabel_95:
   \   00003F   F0           MOVX    @DPTR,A
   \   000040   7411         MOV     A,#0x11
   \   000042   12....       LCALL   ?XSTACK_DISP0_8
   \   000045   12....       LCALL   ?Subroutine16 & 0xFFFF
    966            *pBuf++ = LO_UINT16( nwkAddr );
    967            *pBuf++ = HI_UINT16( nwkAddr );
   \                     ??CrossCallReturnLabel_14:
   \   000048   7413         MOV     A,#0x13
   \   00004A   12....       LCALL   ?XSTACK_DISP0_8
   \   00004D   E0           MOVX    A,@DPTR
   \   00004E   FC           MOV     R4,A
    968          
    969            *pBuf++ = Count;   // Endpoint/Interface count
   \   00004F   8A82         MOV     DPL,R2
   \   000051   8B83         MOV     DPH,R3
   \   000053   A3           INC     DPTR
   \   000054   A3           INC     DPTR
   \   000055   A3           INC     DPTR
   \   000056   F0           MOVX    @DPTR,A
    970          
    971            if ( Count )
   \   000057   6021         JZ      ??ZDP_EPRsp_3
    972            {
    973              len += Count;
   \   000059   7404         MOV     A,#0x4
   \   00005B   2C           ADD     A,R4
   \   00005C   F5..         MOV     ?V0,A
    974              osal_memcpy( pBuf, pEPList, Count );
   \   00005E                ; Setup parameters for call to function osal_memcpy
   \   00005E   7414         MOV     A,#0x14
   \   000060   12....       LCALL   ?XSTACK_DISP0_8
   \   000063   12....       LCALL   ?Subroutine51 & 0xFFFF
    975            }
   \                     ??CrossCallReturnLabel_72:
   \   000066   12....       LCALL   ?PUSH_XSTACK_I_THREE
   \   000069   7D00         MOV     R5,#0x0
   \   00006B   EA           MOV     A,R2
   \   00006C   2404         ADD     A,#0x4
   \   00006E   FA           MOV     R2,A
   \   00006F   5001         JNC     ??ZDP_EPRsp_4
   \   000071   0B           INC     R3
   \                     ??ZDP_EPRsp_4:
   \   000072   12....       LCALL   `??osal_memcpy::?relay`; Banked call to: osal_memcpy
   \   000075   7403         MOV     A,#0x3
   \   000077   12....       LCALL   ?DEALLOC_XSTACK8
    976          
    977            FillAndSendTxOptions( &TransSeq, dstAddr, MsgType, len, txOptions );
   \                     ??ZDP_EPRsp_3:
   \   00007A   E5..         MOV     A,?V1
   \   00007C   90....       MOV     DPTR,#ZDP_TxOptions
   \   00007F   F0           MOVX    @DPTR,A
   \   000080                ; Setup parameters for call to function fillAndSend
   \   000080   78..         MOV     R0,#?V2
   \   000082   12....       LCALL   ?PUSH_XSTACK_I_TWO
   \   000085   A9..         MOV     R1,?V0
   \   000087   EE           MOV     A,R6
   \   000088   FC           MOV     R4,A
   \   000089   EF           MOV     A,R7
   \   00008A   FD           MOV     R5,A
   \   00008B   7402         MOV     A,#0x2
   \   00008D   12....       LCALL   ?XSTACK_DISP101_8
   \   000090   12....       LCALL   `??fillAndSend::?relay`; Banked call to: fillAndSend
   \   000093   7402         MOV     A,#0x2
   \   000095   12....       LCALL   ?DEALLOC_XSTACK8
   \   000098   E9           MOV     A,R1
   \   000099   F9           MOV     R1,A
   \   00009A   90....       MOV     DPTR,#ZDP_TxOptions
   \   00009D   E4           CLR     A
   \   00009E   F0           MOVX    @DPTR,A
   \   00009F   04           INC     A
   \   0000A0   02....       LJMP    ?Subroutine3 & 0xFFFF
    978          }

   \                                 In  segment BANKED_CODE, align 1, keep-with-next
   \                     ?Subroutine46:
   \   000000   12....       LCALL   ?Subroutine81 & 0xFFFF
   \                     ??CrossCallReturnLabel_273:
   \   000003   FA           MOV     R2,A
   \   000004   E9           MOV     A,R1
   \   000005   FB           MOV     R3,A
   \   000006   22           RET

   \                                 In  segment BANKED_CODE, align 1, keep-with-next
   \                     ?Subroutine16:
   \   000000   12....       LCALL   ?Subroutine78 & 0xFFFF
   \                     ??CrossCallReturnLabel_124:
   \   000003   12....       LCALL   ?Subroutine96 & 0xFFFF
   \                     ??CrossCallReturnLabel_153:
   \   000006   F0           MOVX    @DPTR,A
   \   000007   22           RET

   \                                 In  segment BANKED_CODE, align 1, keep-with-next
   \                     ?Subroutine61:
   \   000000   12....       LCALL   ?Subroutine101 & 0xFFFF
   \                     ??CrossCallReturnLabel_260:
   \   000003   22           RET

   \                                 In  segment BANKED_CODE, align 1, keep-with-next
   \                     ?Subroutine51:
   \   000000   E0           MOVX    A,@DPTR
   \   000001   F5..         MOV     ?V4,A
   \   000003   A3           INC     DPTR
   \   000004   E0           MOVX    A,@DPTR
   \   000005   F5..         MOV     ?V5,A
   \   000007   75..00       MOV     ?V6,#0x0
   \   00000A   78..         MOV     R0,#?V4
   \   00000C   22           RET

   \                                 In  segment BANKED_CODE, align 1, keep-with-next
   \                     ?Subroutine96:
   \   000000   F0           MOVX    @DPTR,A
   \   000001   E9           MOV     A,R1
   \   000002   8A82         MOV     DPL,R2
   \   000004   8B83         MOV     DPH,R3
   \   000006   A3           INC     DPTR
   \   000007   A3           INC     DPTR
   \   000008   22           RET

   \                                 In  segment BANKED_CODE, align 1, keep-with-next
   \                     ?Subroutine78:
   \   000000   12....       LCALL   ??Subroutine141_0 & 0xFFFF
   \                     ??CrossCallReturnLabel_300:
   \   000003   F9           MOV     R1,A
   \   000004   E8           MOV     A,R0
   \   000005   8A82         MOV     DPL,R2
   \   000007   8B83         MOV     DPH,R3
   \   000009   A3           INC     DPTR
   \   00000A   22           RET
    979          
    980          /*********************************************************************
    981           * @fn          ZDP_UserDescRsp
    982           *
    983           * @brief       Build and send the User Decriptor Response.
    984           *
    985           *
    986           * @param       dstAddr - destination address
    987           * @param       nwkAddrOfInterest -
    988           * @param       userDesc -
    989           * @param       SecurityEnable - Security Options
    990           *
    991           * @return      ZStatus_t
    992           */

   \                                 In  segment BANKED_CODE, align 1, keep-with-next
    993          ZStatus_t ZDP_UserDescRsp( byte TransSeq, zAddrType_t *dstAddr,
   \                     ZDP_UserDescRsp:
    994                          uint16 nwkAddrOfInterest, UserDescriptorFormat_t *userDesc,
    995                          byte SecurityEnable )
    996          {
   \   000000                REQUIRE ?V0
   \   000000                REQUIRE ?V1
   \   000000                REQUIRE ?V2
   \   000000                REQUIRE ?V4
   \   000000                REQUIRE ?V5
   \   000000                REQUIRE ?V6
   \   000000                REQUIRE ?V8
   \   000000                REQUIRE ?V9
   \   000000   74EE         MOV     A,#-0x12
   \   000002   12....       LCALL   ?BANKED_ENTER_XDATA
   \   000005                ; Saved register size: 18
   \   000005                ; Auto size: 1
   \   000005   74FF         MOV     A,#-0x1
   \   000007   12....       LCALL   ?ALLOC_XSTACK8
   \   00000A   E9           MOV     A,R1
   \   00000B   85..82       MOV     DPL,?XSP + 0
   \   00000E   85..83       MOV     DPH,?XSP + 1
   \   000011   F0           MOVX    @DPTR,A
   \   000012   12....       LCALL   ?Subroutine55 & 0xFFFF
    997            uint8 *pBuf = ZDP_TmpBuf;
   \                     ??CrossCallReturnLabel_84:
   \   000015   7413         MOV     A,#0x13
   \   000017   12....       LCALL   ?XSTACK_DISP0_8
   \   00001A   12....       LCALL   ??Subroutine140_0 & 0xFFFF
   \                     ??CrossCallReturnLabel_287:
   \   00001D   88..         MOV     ?V8,R0
   \   00001F   89..         MOV     ?V9,R1
    998            byte len = 1 + 2 + 1;  // Status + nwkAddr + descriptor length.
    999          
   1000            (void)SecurityEnable;  // Intentionally unreferenced parameter
   1001          
   1002            len += userDesc->len;
   \   000021   8882         MOV     DPL,R0
   \   000023   F583         MOV     DPH,A
   \   000025   E0           MOVX    A,@DPTR
   \   000026   2404         ADD     A,#0x4
   \   000028   F5..         MOV     ?V2,A
   1003          
   1004            *pBuf++ = ZSUCCESS;
   \   00002A   85..82       MOV     DPL,?V0
   \   00002D   85..83       MOV     DPH,?V1
   \   000030   E4           CLR     A
   \   000031   F0           MOVX    @DPTR,A
   1005          
   1006            *pBuf++ = LO_UINT16( nwkAddrOfInterest );
   \   000032   EC           MOV     A,R4
   \   000033   A3           INC     DPTR
   \   000034   F0           MOVX    @DPTR,A
   1007            *pBuf++ = HI_UINT16( nwkAddrOfInterest );
   \   000035   ED           MOV     A,R5
   \   000036   85..82       MOV     DPL,?V0
   \   000039   85..83       MOV     DPH,?V1
   \   00003C   12....       LCALL   ?Subroutine33 & 0xFFFF
   1008          
   1009            *pBuf++ = userDesc->len;
   \                     ??CrossCallReturnLabel_184:
   \   00003F   85..82       MOV     DPL,?V0
   \   000042   85..83       MOV     DPH,?V1
   \   000045   A3           INC     DPTR
   \   000046   A3           INC     DPTR
   \   000047   A3           INC     DPTR
   \   000048   12....       LCALL   ?Subroutine10 & 0xFFFF
   1010            osal_memcpy( pBuf, userDesc->desc, userDesc->len );
   \                     ??CrossCallReturnLabel_3:
   \   00004B   12....       LCALL   ?PUSH_XSTACK_I_THREE
   \   00004E   85..82       MOV     DPL,?V8
   \   000051   85..83       MOV     DPH,?V9
   \   000054   E0           MOVX    A,@DPTR
   \   000055   FC           MOV     R4,A
   \   000056   7D00         MOV     R5,#0x0
   \   000058   E5..         MOV     A,?V0
   \   00005A   2404         ADD     A,#0x4
   \   00005C   FA           MOV     R2,A
   \   00005D   E4           CLR     A
   \   00005E   35..         ADDC    A,?V1
   \   000060   FB           MOV     R3,A
   \   000061   12....       LCALL   `??osal_memcpy::?relay`; Banked call to: osal_memcpy
   \   000064   7403         MOV     A,#0x3
   \   000066   12....       LCALL   ?DEALLOC_XSTACK8
   1011          
   1012            return (ZStatus_t)fillAndSend( &TransSeq, dstAddr, User_Desc_rsp, len );
   \   000069                ; Setup parameters for call to function fillAndSend
   \   000069   75..11       MOV     ?V0,#0x11
   \   00006C   75..80       MOV     ?V1,#-0x80
   \   00006F   78..         MOV     R0,#?V0
   \   000071   12....       LCALL   ?PUSH_XSTACK_I_TWO
   \   000074   A9..         MOV     R1,?V2
   \   000076   EE           MOV     A,R6
   \   000077   FC           MOV     R4,A
   \   000078   EF           MOV     A,R7
   \   000079   FD           MOV     R5,A
   \   00007A   7402         MOV     A,#0x2
   \   00007C   12....       LCALL   ?XSTACK_DISP101_8
   \   00007F   12....       LCALL   `??fillAndSend::?relay`; Banked call to: fillAndSend
   \   000082   7402         MOV     A,#0x2
   \   000084   12....       LCALL   ?DEALLOC_XSTACK8
   \   000087   02....       LJMP    ?Subroutine4 & 0xFFFF
   1013          }

   \                                 In  segment BANKED_CODE, align 1, keep-with-next
   \                     ?Subroutine4:
   \   000000   7401         MOV     A,#0x1
   \   000002                REQUIRE ??Subroutine134_0
   \   000002                ; // Fall through to label ??Subroutine134_0
   1014          
   1015          /*********************************************************************
   1016           * @fn          ZDP_ServerDiscRsp
   1017           *
   1018           * @brief       Build and send the Server_Discovery_rsp response.
   1019           *
   1020           * @param       transID - Transaction sequence number of request.
   1021           * @param       dstAddr - Network Destination Address.
   1022           * @param       status - Status of response to request.
   1023           * @param       aoi - Network Address of Interest of request.
   1024           * @param       serverMask - Bit map of service(s) being sought.
   1025           * @param       SecurityEnable - Security Options
   1026           *
   1027           * @return      ZStatus_t
   1028           */

   \                                 In  segment BANKED_CODE, align 1, keep-with-next
   1029          ZStatus_t ZDP_ServerDiscRsp( byte transID, zAddrType_t *dstAddr, byte status,
   \                     ZDP_ServerDiscRsp:
   1030                                     uint16 aoi, uint16 serverMask, byte SecurityEnable )
   1031          {
   \   000000                REQUIRE ?V0
   \   000000                REQUIRE ?V1
   \   000000   74F6         MOV     A,#-0xa
   \   000002   12....       LCALL   ?BANKED_ENTER_XDATA
   \   000005                ; Saved register size: 10
   \   000005                ; Auto size: 1
   \   000005   74FF         MOV     A,#-0x1
   \   000007   12....       LCALL   ?ALLOC_XSTACK8
   \   00000A   E9           MOV     A,R1
   \   00000B   85..82       MOV     DPL,?XSP + 0
   \   00000E   85..83       MOV     DPH,?XSP + 1
   \   000011   F0           MOVX    @DPTR,A
   \   000012   EC           MOV     A,R4
   \   000013   FE           MOV     R6,A
   1032            const byte len = 1  + 2;  // status + aoi + mask.
   1033            uint8 *pBuf = ZDP_TmpBuf;
   \   000014   12....       LCALL   ?Subroutine50 & 0xFFFF
   \                     ??CrossCallReturnLabel_271:
   \   000017   FC           MOV     R4,A
   \   000018   E9           MOV     A,R1
   \   000019   FD           MOV     R5,A
   1034            ZStatus_t stat;
   1035          
   1036            // Intentionally unreferenced parameters
   1037            (void)aoi;
   1038            (void)SecurityEnable;
   1039          
   1040            *pBuf++ = status;
   \   00001A   EE           MOV     A,R6
   \   00001B   8C82         MOV     DPL,R4
   \   00001D   8D83         MOV     DPH,R5
   \   00001F   F0           MOVX    @DPTR,A
   \   000020   740D         MOV     A,#0xd
   \   000022   12....       LCALL   ?XSTACK_DISP0_8
   \   000025   12....       LCALL   ??Subroutine137_0 & 0xFFFF
   1041          
   1042            *pBuf++ = LO_UINT16( serverMask );
   \                     ??CrossCallReturnLabel_268:
   \   000028   8C82         MOV     DPL,R4
   \   00002A   8D83         MOV     DPH,R5
   \   00002C   A3           INC     DPTR
   \   00002D   F0           MOVX    @DPTR,A
   1043            *pBuf++ = HI_UINT16( serverMask );
   \   00002E   E9           MOV     A,R1
   \   00002F   8C82         MOV     DPL,R4
   \   000031   8D83         MOV     DPH,R5
   \   000033   A3           INC     DPTR
   \   000034   A3           INC     DPTR
   \   000035   F0           MOVX    @DPTR,A
   1044          
   1045            ZDP_TxOptions = AF_MSG_ACK_REQUEST;
   \   000036   90....       MOV     DPTR,#ZDP_TxOptions
   \   000039   7410         MOV     A,#0x10
   \   00003B   F0           MOVX    @DPTR,A
   1046            stat = fillAndSend( &transID, dstAddr, Server_Discovery_rsp, len );
   \   00003C                ; Setup parameters for call to function fillAndSend
   \   00003C   75..15       MOV     ?V0,#0x15
   \   00003F   75..80       MOV     ?V1,#-0x80
   \   000042   78..         MOV     R0,#?V0
   \   000044   12....       LCALL   ?PUSH_XSTACK_I_TWO
   \   000047   7903         MOV     R1,#0x3
   \   000049   EA           MOV     A,R2
   \   00004A   FC           MOV     R4,A
   \   00004B   EB           MOV     A,R3
   \   00004C   FD           MOV     R5,A
   \   00004D   7402         MOV     A,#0x2
   \   00004F   12....       LCALL   ?XSTACK_DISP101_8
   \   000052   12....       LCALL   `??fillAndSend::?relay`; Banked call to: fillAndSend
   \   000055   7402         MOV     A,#0x2
   \   000057   12....       LCALL   ?DEALLOC_XSTACK8
   \   00005A   E9           MOV     A,R1
   \   00005B   F9           MOV     R1,A
   1047            ZDP_TxOptions = AF_TX_OPTIONS_NONE;
   \   00005C   90....       MOV     DPTR,#ZDP_TxOptions
   \   00005F   E4           CLR     A
   \   000060   F0           MOVX    @DPTR,A
   1048          
   1049            return ( stat );
   \   000061   04           INC     A
   \   000062   02....       LJMP    ??Subroutine113_0 & 0xFFFF
   1050          }
   1051          
   1052          /*********************************************************************
   1053           * @fn          ZDP_GenericRsp
   1054           *
   1055           * @brief       Sends a response message with only the parameter status
   1056           *              byte and the addr of interest for data.
   1057           *              This function sends unicast message to the
   1058           *              requesting device.
   1059           *
   1060           * @param       dstAddr - destination address
   1061           * @param       status  - generic status for response
   1062           * @param       aoi     - address of interest
   1063           * @param       dstAddr - destination address
   1064           * @param       rspId   - response cluster ID
   1065           * @param       SecurityEnable - Security Options
   1066           *
   1067           * @return      afStatus_t
   1068           */

   \                                 In  segment BANKED_CODE, align 1, keep-with-next
   1069          afStatus_t ZDP_GenericRsp( byte TransSeq, zAddrType_t *dstAddr,
   \                     ZDP_GenericRsp:
   1070                               byte status, uint16 aoi, uint16 rspID, byte SecurityEnable )
   1071          {
   \   000000   74F7         MOV     A,#-0x9
   \   000002   12....       LCALL   ?BANKED_ENTER_XDATA
   \   000005                ; Saved register size: 9
   \   000005                ; Auto size: 1
   \   000005   74FF         MOV     A,#-0x1
   \   000007   12....       LCALL   ?ALLOC_XSTACK8
   \   00000A   E9           MOV     A,R1
   \   00000B   85..82       MOV     DPL,?XSP + 0
   \   00000E   85..83       MOV     DPH,?XSP + 1
   \   000011   F0           MOVX    @DPTR,A
   1072            uint8 len;
   1073          
   1074            (void)SecurityEnable;  // Intentionally unreferenced parameter
   1075          
   1076            ZDP_TmpBuf[0] = status;
   \   000012   12....       LCALL   ?Subroutine48 & 0xFFFF
   \                     ??CrossCallReturnLabel_205:
   \   000015   EC           MOV     A,R4
   \   000016   F0           MOVX    @DPTR,A
   \   000017   740A         MOV     A,#0xa
   \   000019   12....       LCALL   ?XSTACK_DISP0_8
   \   00001C   12....       LCALL   ??Subroutine140_0 & 0xFFFF
   1077            ZDP_TmpBuf[1] = LO_UINT16( aoi );
   \                     ??CrossCallReturnLabel_288:
   \   00001F   90....       MOV     DPTR,#ZDP_TmpBuf
   \   000022   E0           MOVX    A,@DPTR
   \   000023   FC           MOV     R4,A
   \   000024   A3           INC     DPTR
   \   000025   E0           MOVX    A,@DPTR
   \   000026   F583         MOV     DPH,A
   \   000028   8C82         MOV     DPL,R4
   \   00002A   A3           INC     DPTR
   \   00002B   E8           MOV     A,R0
   \   00002C   12....       LCALL   ?Subroutine15 & 0xFFFF
   1078            ZDP_TmpBuf[2] = HI_UINT16( aoi );
   1079          
   1080            // Length byte
   1081            ZDP_TmpBuf[3] = 0;
   \                     ??CrossCallReturnLabel_13:
   \   00002F   12....       LCALL   ?Subroutine48 & 0xFFFF
   \                     ??CrossCallReturnLabel_206:
   \   000032   A3           INC     DPTR
   \   000033   A3           INC     DPTR
   \   000034   A3           INC     DPTR
   \   000035   E4           CLR     A
   \   000036   F0           MOVX    @DPTR,A
   1082            len = 4;
   1083          
   1084            return fillAndSend( &TransSeq, dstAddr, rspID, len );
   \   000037                ; Setup parameters for call to function fillAndSend
   \   000037   740C         MOV     A,#0xc
   \   000039   12....       LCALL   ?XSTACK_DISP0_8
   \   00003C   12....       LCALL   ?PUSH_XSTACK8_X_TWO
   \   00003F   7904         MOV     R1,#0x4
   \   000041   EA           MOV     A,R2
   \   000042   FC           MOV     R4,A
   \   000043   EB           MOV     A,R3
   \   000044   FD           MOV     R5,A
   \   000045   7402         MOV     A,#0x2
   \   000047   12....       LCALL   ?XSTACK_DISP101_8
   \   00004A   12....       LCALL   `??fillAndSend::?relay`; Banked call to: fillAndSend
   \   00004D   7402         MOV     A,#0x2
   \   00004F   12....       LCALL   ?DEALLOC_XSTACK8
   \   000052   7401         MOV     A,#0x1
   \   000054   12....       LCALL   ?DEALLOC_XSTACK8
   \   000057                REQUIRE ?Subroutine6
   \   000057                ; // Fall through to label ?Subroutine6
   1085          }

   \                                 In  segment BANKED_CODE, align 1, keep-with-next
   \                     ?Subroutine6:
   \   000000   7F01         MOV     R7,#0x1
   \   000002   02....       LJMP    ?BANKED_LEAVE_XDATA
   1086          
   1087          /*********************************************************************
   1088           * Binding
   1089           */
   1090          /*********************************************************************
   1091           * @fn          ZDP_EndDeviceBindReq
   1092           *
   1093           * @brief       This builds and sends a End_Device_Bind_req message.
   1094           *              This function sends a unicast message.
   1095           *
   1096           * @param       dstAddr - destination address
   1097           * @param       LocalCoordinator - short address of local coordinator
   1098           * @param       epIntf - Endpoint/Interface of Simple Desc
   1099           * @param       ProfileID - Profile ID
   1100           *
   1101           *   The Input cluster list is the opposite of what you would think.
   1102           *   This is the output cluster list of this device
   1103           * @param       NumInClusters - number of input clusters
   1104           * @param       InClusterList - input cluster ID list
   1105           *
   1106           *   The Output cluster list is the opposite of what you would think.
   1107           *   This is the input cluster list of this device
   1108           * @param       NumOutClusters - number of output clusters
   1109           * @param       OutClusterList - output cluster ID list
   1110           *
   1111           * @param       SecurityEnable - Security Options
   1112           *
   1113           * @return      afStatus_t
   1114           */

   \                                 In  segment BANKED_CODE, align 1, keep-with-next
   1115          afStatus_t ZDP_EndDeviceBindReq( zAddrType_t *dstAddr,
   \                     ZDP_EndDeviceBindReq:
   1116                                           uint16 LocalCoordinator,
   1117                                           byte endPoint,
   1118                                           uint16 ProfileID,
   1119                                           byte NumInClusters, cId_t *InClusterList,
   1120                                           byte NumOutClusters, cId_t *OutClusterList,
   1121                                           byte SecurityEnable )
   1122          {
   \   000000                REQUIRE ?V0
   \   000000                REQUIRE ?V1
   \   000000                REQUIRE ?V2
   \   000000                REQUIRE ?V3
   \   000000                REQUIRE ?V4
   \   000000                REQUIRE ?V5
   \   000000                REQUIRE ?V6
   \   000000                REQUIRE ?V7
   \   000000                REQUIRE ?V8
   \   000000                REQUIRE ?V9
   \   000000   74EE         MOV     A,#-0x12
   \   000002   12....       LCALL   ?BANKED_ENTER_XDATA
   \   000005                ; Saved register size: 18
   \   000005                ; Auto size: 0
   \   000005   8A..         MOV     ?V6,R2
   \   000007   8B..         MOV     ?V7,R3
   \   000009   8C..         MOV     ?V4,R4
   \   00000B   8D..         MOV     ?V5,R5
   \   00000D   89..         MOV     ?V3,R1
   1123            uint8 *pBuf = ZDP_TmpBuf;
   \   00000F   90....       MOV     DPTR,#ZDP_TmpBuf
   \   000012   12....       LCALL   ?Subroutine54 & 0xFFFF
   \                     ??CrossCallReturnLabel_79:
   \   000015   7414         MOV     A,#0x14
   \   000017   12....       LCALL   ?XSTACK_DISP0_8
   \   00001A   E0           MOVX    A,@DPTR
   \   00001B   F5..         MOV     ?V2,A
   \   00001D   7417         MOV     A,#0x17
   \   00001F   12....       LCALL   ?XSTACK_DISP0_8
   \   000022   E0           MOVX    A,@DPTR
   \   000023   F5..         MOV     ?V1,A
   1124            uint8 i, len;
   1125            uint8 *ieeeAddr;
   1126          
   1127            (void)SecurityEnable;  // Intentionally unreferenced parameter
   1128          
   1129            // LocalCoordinator + SrcExtAddr + ep + ProfileID +  NumInClusters + NumOutClusters.
   1130            len = 2 + Z_EXTADDR_LEN + 1 + 2 + 1 + 1;
   1131            len += (NumInClusters + NumOutClusters) * sizeof ( uint16 );
   \   000025   E5..         MOV     A,?V2
   \   000027   25..         ADD     A,?V1
   \   000029   C3           CLR     C
   \   00002A   33           RLC     A
   \   00002B   240F         ADD     A,#0xf
   \   00002D   F5..         MOV     ?V0,A
   1132          
   1133            if ( len >= ZDP_BUF_SZ-1 )
   \   00002F   C3           CLR     C
   \   000030   944F         SUBB    A,#0x4f
   \   000032   4005         JC      ??ZDP_EndDeviceBindReq_0
   1134            {
   1135              return afStatus_MEM_FAIL;
   \   000034   7910         MOV     R1,#0x10
   \   000036   02....       LJMP    ??ZDP_EndDeviceBindReq_1 & 0xFFFF
   1136            }
   1137          
   1138            if ( LocalCoordinator != NLME_GetShortAddr() )
   \                     ??ZDP_EndDeviceBindReq_0:
   \   000039                ; Setup parameters for call to function NLME_GetShortAddr
   \   000039   12....       LCALL   `??NLME_GetShortAddr::?relay`; Banked call to: NLME_GetShortAddr
   \   00003C   EA           MOV     A,R2
   \   00003D   65..         XRL     A,?V4
   \   00003F   7003         JNZ     ??ZDP_EndDeviceBindReq_2
   \   000041   EB           MOV     A,R3
   \   000042   65..         XRL     A,?V5
   \                     ??ZDP_EndDeviceBindReq_2:
   \   000044   6005         JZ      ??ZDP_EndDeviceBindReq_3
   1139            {
   1140              return afStatus_INVALID_PARAMETER;
   \   000046   7902         MOV     R1,#0x2
   \   000048   02....       LJMP    ??ZDP_EndDeviceBindReq_1 & 0xFFFF
   1141            }
   1142          
   1143            *pBuf++ = LO_UINT16( LocalCoordinator );
   \                     ??ZDP_EndDeviceBindReq_3:
   \   00004B   8E82         MOV     DPL,R6
   \   00004D   8F83         MOV     DPH,R7
   \   00004F   E5..         MOV     A,?V4
   \   000051   F0           MOVX    @DPTR,A
   1144            *pBuf++ = HI_UINT16( LocalCoordinator );
   \   000052   E5..         MOV     A,?V5
   \   000054   A3           INC     DPTR
   \   000055   F0           MOVX    @DPTR,A
   1145          
   1146            ieeeAddr = NLME_GetExtAddr();
   \   000056                ; Setup parameters for call to function NLME_GetExtAddr
   \   000056   12....       LCALL   `??NLME_GetExtAddr::?relay`; Banked call to: NLME_GetExtAddr
   \   000059   8A..         MOV     ?V4,R2
   \   00005B   8B..         MOV     ?V5,R3
   \   00005D   AC..         MOV     R4,?V4
   \   00005F   AD..         MOV     R5,?V5
   1147            pBuf = osal_cpyExtAddr( pBuf, ieeeAddr );
   \   000061                ; Setup parameters for call to function sAddrExtCpy
   \   000061   EE           MOV     A,R6
   \   000062   2402         ADD     A,#0x2
   \   000064   FA           MOV     R2,A
   \   000065   E4           CLR     A
   \   000066   3F           ADDC    A,R7
   \   000067   FB           MOV     R3,A
   \   000068   12....       LCALL   `??sAddrExtCpy::?relay`; Banked call to: sAddrExtCpy
   1148          
   1149            *pBuf++ = endPoint;
   \   00006B   8A82         MOV     DPL,R2
   \   00006D   8B83         MOV     DPH,R3
   \   00006F   E5..         MOV     A,?V3
   \   000071   F0           MOVX    @DPTR,A
   \   000072   7412         MOV     A,#0x12
   \   000074   12....       LCALL   ?XSTACK_DISP0_8
   \   000077   12....       LCALL   ?Subroutine16 & 0xFFFF
   1150          
   1151            *pBuf++ = LO_UINT16( ProfileID );   // Profile ID
   1152            *pBuf++ = HI_UINT16( ProfileID );
   1153          
   1154            *pBuf++ = NumInClusters; // Input cluster list
   \                     ??CrossCallReturnLabel_15:
   \   00007A   8A82         MOV     DPL,R2
   \   00007C   8B83         MOV     DPH,R3
   \   00007E   A3           INC     DPTR
   \   00007F   A3           INC     DPTR
   \   000080   A3           INC     DPTR
   \   000081   E5..         MOV     A,?V2
   \   000083   F0           MOVX    @DPTR,A
   \   000084   EA           MOV     A,R2
   \   000085   2404         ADD     A,#0x4
   \   000087   FE           MOV     R6,A
   \   000088   E4           CLR     A
   \   000089   3B           ADDC    A,R3
   \   00008A   FF           MOV     R7,A
   1155            for ( i = 0; i < NumInClusters; ++i )
   \   00008B   7C00         MOV     R4,#0x0
   \   00008D   7415         MOV     A,#0x15
   \   00008F   12....       LCALL   ?XSTACK_DISP0_8
   \   000092   12....       LCALL   ?Subroutine46 & 0xFFFF
   \                     ??CrossCallReturnLabel_66:
   \   000095   8007         SJMP    ??ZDP_EndDeviceBindReq_4
   1156            {
   1157              *pBuf++ = LO_UINT16(InClusterList[i]);
   \                     ??ZDP_EndDeviceBindReq_5:
   \   000097   12....       LCALL   ?Subroutine13 & 0xFFFF
   1158              *pBuf++ = HI_UINT16(InClusterList[i]);
   1159            }
   \                     ??CrossCallReturnLabel_8:
   \   00009A   5001         JNC     ??ZDP_EndDeviceBindReq_6
   \   00009C   0F           INC     R7
   \                     ??ZDP_EndDeviceBindReq_6:
   \   00009D   0C           INC     R4
   \                     ??ZDP_EndDeviceBindReq_4:
   \   00009E   EC           MOV     A,R4
   \   00009F   C3           CLR     C
   \   0000A0   95..         SUBB    A,?V2
   \   0000A2   40F3         JC      ??ZDP_EndDeviceBindReq_5
   1160          
   1161            *pBuf++ = NumOutClusters; // Output cluster list
   \   0000A4   8E82         MOV     DPL,R6
   \   0000A6   8F83         MOV     DPH,R7
   \   0000A8   E5..         MOV     A,?V1
   \   0000AA   F0           MOVX    @DPTR,A
   \   0000AB   A3           INC     DPTR
   \   0000AC   AE82         MOV     R6,DPL
   \   0000AE   AF83         MOV     R7,DPH
   1162            for ( i = 0; i < NumOutClusters; ++i )
   \   0000B0   7C00         MOV     R4,#0x0
   \   0000B2   7418         MOV     A,#0x18
   \   0000B4   12....       LCALL   ?XSTACK_DISP0_8
   \   0000B7   12....       LCALL   ?Subroutine46 & 0xFFFF
   \                     ??CrossCallReturnLabel_67:
   \   0000BA   8007         SJMP    ??ZDP_EndDeviceBindReq_7
   1163            {
   1164              *pBuf++ = LO_UINT16(OutClusterList[i]);
   \                     ??ZDP_EndDeviceBindReq_8:
   \   0000BC   12....       LCALL   ?Subroutine13 & 0xFFFF
   1165              *pBuf++ = HI_UINT16(OutClusterList[i]);
   1166            }
   \                     ??CrossCallReturnLabel_9:
   \   0000BF   5001         JNC     ??ZDP_EndDeviceBindReq_9
   \   0000C1   0F           INC     R7
   \                     ??ZDP_EndDeviceBindReq_9:
   \   0000C2   0C           INC     R4
   \                     ??ZDP_EndDeviceBindReq_7:
   \   0000C3   EC           MOV     A,R4
   \   0000C4   C3           CLR     C
   \   0000C5   95..         SUBB    A,?V1
   \   0000C7   40F3         JC      ??ZDP_EndDeviceBindReq_8
   1167          
   1168            return fillAndSend( &ZDP_TransID, dstAddr, End_Device_Bind_req, len );
   \   0000C9                ; Setup parameters for call to function fillAndSend
   \   0000C9   75..20       MOV     ?V4,#0x20
   \   0000CC   75..00       MOV     ?V5,#0x0
   \   0000CF   78..         MOV     R0,#?V4
   \   0000D1   12....       LCALL   ?PUSH_XSTACK_I_TWO
   \   0000D4   A9..         MOV     R1,?V0
   \   0000D6   AC..         MOV     R4,?V6
   \   0000D8   AD..         MOV     R5,?V7
   \   0000DA   7A..         MOV     R2,#ZDP_TransID & 0xff
   \   0000DC   7B..         MOV     R3,#(ZDP_TransID >> 8) & 0xff
   \   0000DE   12....       LCALL   `??fillAndSend::?relay`; Banked call to: fillAndSend
   \   0000E1   7402         MOV     A,#0x2
   \   0000E3   12....       LCALL   ?DEALLOC_XSTACK8
   \                     ??ZDP_EndDeviceBindReq_1:
   \   0000E6   02....       LJMP    ??Subroutine135_0 & 0xFFFF
   1169          }

   \                                 In  segment BANKED_CODE, align 1, keep-with-next
   \                     ?Subroutine13:
   \   000000   EC           MOV     A,R4
   \   000001   25E0         ADD     A,0xE0 /* A   */
   \   000003   F8           MOV     R0,A
   \   000004   E4           CLR     A
   \   000005   33           RLC     A
   \   000006   F9           MOV     R1,A
   \   000007   EA           MOV     A,R2
   \   000008   28           ADD     A,R0
   \   000009   F8           MOV     R0,A
   \   00000A   EB           MOV     A,R3
   \   00000B   39           ADDC    A,R1
   \   00000C   F9           MOV     R1,A
   \   00000D   8882         MOV     DPL,R0
   \   00000F   8983         MOV     DPH,R1
   \   000011   12....       LCALL   ?Subroutine100 & 0xFFFF
   \                     ??CrossCallReturnLabel_162:
   \   000014   12....       LCALL   ?Subroutine94 & 0xFFFF
   \                     ??CrossCallReturnLabel_247:
   \   000017   12....       LCALL   ?Subroutine86 & 0xFFFF
   \                     ??CrossCallReturnLabel_139:
   \   00001A   F0           MOVX    @DPTR,A
   \   00001B   EE           MOV     A,R6
   \   00001C   2402         ADD     A,#0x2
   \   00001E   FE           MOV     R6,A
   \   00001F   22           RET
   1170          
   1171          /*********************************************************************
   1172           * @fn          ZDP_BindUnbindReq
   1173           *
   1174           * @brief       This builds and send a Bind_req or Unbind_req message
   1175           *              Depending on the ClusterID. This function
   1176           *              sends a unicast message to the local coordinator.
   1177           *
   1178           * @param       BindOrUnbind - either Bind_req or Unbind_req
   1179           * @param       dstAddr - destination address of the message
   1180           * @param       SourceAddr - source 64 bit address of the binding
   1181           * @param       SrcEPIntf - Source endpoint/interface
   1182           * @param       ClusterID - Binding cluster ID
   1183           * @param       DestinationAddr - destination 64 bit addr of binding
   1184           * @param       DstEPIntf - destination endpoint/interface
   1185           * @param       SecurityEnable - Security Options
   1186           *
   1187           * @return      afStatus_t
   1188           */

   \                                 In  segment BANKED_CODE, align 1, keep-with-next
   1189          afStatus_t ZDP_BindUnbindReq( uint16 BindOrUnbind, zAddrType_t *dstAddr,
   \                     ZDP_BindUnbindReq:
   1190                                        uint8 *SourceAddr, byte SrcEndPoint,
   1191                                        cId_t ClusterID,
   1192                                        zAddrType_t *destinationAddr, byte DstEndPoint,
   1193                                        byte SecurityEnable )
   1194          {
   \   000000                REQUIRE ?V0
   \   000000                REQUIRE ?V1
   \   000000                REQUIRE ?V2
   \   000000                REQUIRE ?V3
   \   000000                REQUIRE ?V4
   \   000000                REQUIRE ?V5
   \   000000                REQUIRE ?V6
   \   000000                REQUIRE ?V7
   \   000000   74F0         MOV     A,#-0x10
   \   000002   12....       LCALL   ?BANKED_ENTER_XDATA
   \   000005                ; Saved register size: 16
   \   000005                ; Auto size: 0
   \   000005   8A..         MOV     ?V4,R2
   \   000007   8B..         MOV     ?V5,R3
   \   000009   8C..         MOV     ?V2,R4
   \   00000B   8D..         MOV     ?V3,R5
   \   00000D   E9           MOV     A,R1
   \   00000E   FF           MOV     R7,A
   1195            uint8 *pBuf = ZDP_TmpBuf;
   \   00000F   12....       LCALL   ??Subroutine126_0 & 0xFFFF
   1196            byte len;
   1197          
   1198            (void)SecurityEnable;  // Intentionally unreferenced parameter
   1199          
   1200            // SourceAddr + SrcEPIntf + ClusterID +  addrMode.
   1201            len = Z_EXTADDR_LEN + 1 + sizeof( cId_t ) + sizeof( uint8 );
   \                     ??CrossCallReturnLabel_216:
   \   000012   7E0C         MOV     R6,#0xc
   \   000014   7414         MOV     A,#0x14
   \   000016   12....       LCALL   ?XSTACK_DISP0_8
   \   000019   12....       LCALL   ?Subroutine79 & 0xFFFF
   1202            if ( destinationAddr->addrMode == Addr64Bit )
   \                     ??CrossCallReturnLabel_126:
   \   00001C   85..82       MOV     DPL,?V0
   \   00001F   F583         MOV     DPH,A
   \   000021   A3           INC     DPTR
   \   000022   A3           INC     DPTR
   \   000023   A3           INC     DPTR
   \   000024   A3           INC     DPTR
   \   000025   A3           INC     DPTR
   \   000026   A3           INC     DPTR
   \   000027   A3           INC     DPTR
   \   000028   A3           INC     DPTR
   \   000029   E0           MOVX    A,@DPTR
   \   00002A   6403         XRL     A,#0x3
   \   00002C   7004         JNZ     ??ZDP_BindUnbindReq_0
   1203              len += Z_EXTADDR_LEN + 1;     // +1 for DstEPIntf
   \   00002E   7E15         MOV     R6,#0x15
   \   000030   8015         SJMP    ??ZDP_BindUnbindReq_1
   1204            else if ( destinationAddr->addrMode == AddrGroup )
   \                     ??ZDP_BindUnbindReq_0:
   \   000032   85..82       MOV     DPL,?V0
   \   000035   85..83       MOV     DPH,?V1
   \   000038   A3           INC     DPTR
   \   000039   A3           INC     DPTR
   \   00003A   A3           INC     DPTR
   \   00003B   A3           INC     DPTR
   \   00003C   A3           INC     DPTR
   \   00003D   A3           INC     DPTR
   \   00003E   A3           INC     DPTR
   \   00003F   A3           INC     DPTR
   \   000040   E0           MOVX    A,@DPTR
   \   000041   6401         XRL     A,#0x1
   \   000043   7002         JNZ     ??ZDP_BindUnbindReq_1
   1205              len += sizeof ( uint16 );
   \   000045   7E0E         MOV     R6,#0xe
   1206          
   1207            pBuf = osal_cpyExtAddr( pBuf, SourceAddr );
   \                     ??ZDP_BindUnbindReq_1:
   \   000047                ; Setup parameters for call to function sAddrExtCpy
   \   000047   7410         MOV     A,#0x10
   \   000049   12....       LCALL   ?XSTACK_DISP0_8
   \   00004C   12....       LCALL   ?Subroutine83 & 0xFFFF
   \                     ??CrossCallReturnLabel_132:
   \   00004F   12....       LCALL   `??sAddrExtCpy::?relay`; Banked call to: sAddrExtCpy
   1208            *pBuf++ = SrcEndPoint;
   \   000052   EF           MOV     A,R7
   \   000053   8A82         MOV     DPL,R2
   \   000055   8B83         MOV     DPH,R3
   \   000057   F0           MOVX    @DPTR,A
   \   000058   7412         MOV     A,#0x12
   \   00005A   12....       LCALL   ?XSTACK_DISP0_8
   \   00005D   12....       LCALL   ?Subroutine16 & 0xFFFF
   1209          
   1210            *pBuf++ = LO_UINT16( ClusterID );
   1211          
   1212            *pBuf++ = HI_UINT16( ClusterID );
   1213            *pBuf++ = destinationAddr->addrMode;
   \                     ??CrossCallReturnLabel_16:
   \   000060   E5..         MOV     A,?V0
   \   000062   2408         ADD     A,#0x8
   \   000064   F8           MOV     R0,A
   \   000065   E4           CLR     A
   \   000066   35..         ADDC    A,?V1
   \   000068   12....       LCALL   ?Subroutine49 & 0xFFFF
   \                     ??CrossCallReturnLabel_70:
   \   00006B   5001         JNC     ??ZDP_BindUnbindReq_2
   \   00006D   0B           INC     R3
   1214            if ( destinationAddr->addrMode == Addr64Bit )
   \                     ??ZDP_BindUnbindReq_2:
   \   00006E   8882         MOV     DPL,R0
   \   000070   8983         MOV     DPH,R1
   \   000072   E0           MOVX    A,@DPTR
   \   000073   6403         XRL     A,#0x3
   \   000075   7017         JNZ     ??ZDP_BindUnbindReq_3
   1215            {
   1216              pBuf = osal_cpyExtAddr( pBuf, destinationAddr->addr.extAddr );
   1217              *pBuf = DstEndPoint;
   \   000077   7416         MOV     A,#0x16
   \   000079   12....       LCALL   ?XSTACK_DISP0_8
   \   00007C   E0           MOVX    A,@DPTR
   \   00007D   C0E0         PUSH    A
   \   00007F                ; Setup parameters for call to function sAddrExtCpy
   \   00007F   AC..         MOV     R4,?V0
   \   000081   AD..         MOV     R5,?V1
   \   000083   12....       LCALL   `??sAddrExtCpy::?relay`; Banked call to: sAddrExtCpy
   \   000086   8A82         MOV     DPL,R2
   \   000088   8B83         MOV     DPH,R3
   \   00008A   D0E0         POP     A
   \   00008C   8022         SJMP    ??CrossCallReturnLabel_91
   1218            }
   1219            else if ( destinationAddr->addrMode == AddrGroup )
   \                     ??ZDP_BindUnbindReq_3:
   \   00008E   85..82       MOV     DPL,?V0
   \   000091   85..83       MOV     DPH,?V1
   \   000094   A3           INC     DPTR
   \   000095   A3           INC     DPTR
   \   000096   A3           INC     DPTR
   \   000097   A3           INC     DPTR
   \   000098   A3           INC     DPTR
   \   000099   A3           INC     DPTR
   \   00009A   A3           INC     DPTR
   \   00009B   A3           INC     DPTR
   \   00009C   E0           MOVX    A,@DPTR
   \   00009D   6401         XRL     A,#0x1
   \   00009F   7010         JNZ     ??ZDP_BindUnbindReq_4
   1220            {
   1221              *pBuf++ = LO_UINT16( destinationAddr->addr.shortAddr );
   \   0000A1   85..82       MOV     DPL,?V0
   \   0000A4   85..83       MOV     DPH,?V1
   \   0000A7   12....       LCALL   ?Subroutine61 & 0xFFFF
   1222              *pBuf++ = HI_UINT16( destinationAddr->addr.shortAddr );
   1223            }
   \                     ??CrossCallReturnLabel_96:
   \   0000AA   12....       LCALL   ?Subroutine97 & 0xFFFF
   \                     ??CrossCallReturnLabel_155:
   \   0000AD   12....       LCALL   ?Subroutine60 & 0xFFFF
   \                     ??CrossCallReturnLabel_91:
   \   0000B0   F0           MOVX    @DPTR,A
   1224          
   1225            FillAndSendTxOptions( &ZDP_TransID, dstAddr, BindOrUnbind, len, AF_MSG_ACK_REQUEST );
   \                     ??ZDP_BindUnbindReq_4:
   \   0000B1   90....       MOV     DPTR,#ZDP_TxOptions
   \   0000B4   7410         MOV     A,#0x10
   \   0000B6   F0           MOVX    @DPTR,A
   \   0000B7                ; Setup parameters for call to function fillAndSend
   \   0000B7   78..         MOV     R0,#?V4
   \   0000B9   12....       LCALL   ?PUSH_XSTACK_I_TWO
   \   0000BC   EE           MOV     A,R6
   \   0000BD   F9           MOV     R1,A
   \   0000BE   AC..         MOV     R4,?V2
   \   0000C0   AD..         MOV     R5,?V3
   \   0000C2   7A..         MOV     R2,#ZDP_TransID & 0xff
   \   0000C4   7B..         MOV     R3,#(ZDP_TransID >> 8) & 0xff
   \   0000C6   12....       LCALL   `??fillAndSend::?relay`; Banked call to: fillAndSend
   \   0000C9   7402         MOV     A,#0x2
   \   0000CB   12....       LCALL   ?DEALLOC_XSTACK8
   \   0000CE   E9           MOV     A,R1
   \   0000CF   F9           MOV     R1,A
   \   0000D0   90....       MOV     DPTR,#ZDP_TxOptions
   \   0000D3   E4           CLR     A
   \   0000D4   F0           MOVX    @DPTR,A
   \   0000D5   02....       LJMP    ?Subroutine5 & 0xFFFF
   1226          }

   \                                 In  segment BANKED_CODE, align 1, keep-with-next
   \                     ?Subroutine60:
   \   000000   12....       LCALL   ??Subroutine133_0 & 0xFFFF
   \                     ??CrossCallReturnLabel_258:
   \   000003   22           RET

   \                                 In  segment BANKED_CODE, align 1, keep-with-next
   \                     ?Subroutine49:
   \   000000   F9           MOV     R1,A
   \   000001   8882         MOV     DPL,R0
   \   000003   8983         MOV     DPH,R1
   \   000005   12....       LCALL   ?Subroutine90 & 0xFFFF
   \                     ??CrossCallReturnLabel_145:
   \   000008   F0           MOVX    @DPTR,A
   \   000009   EA           MOV     A,R2
   \   00000A   2404         ADD     A,#0x4
   \   00000C   FA           MOV     R2,A
   \   00000D   22           RET

   \                                 In  segment BANKED_CODE, align 1, keep-with-next
   \                     ?Subroutine90:
   \   000000   12....       LCALL   ?Subroutine101 & 0xFFFF
   \                     ??CrossCallReturnLabel_261:
   \   000003   A3           INC     DPTR
   \   000004   A3           INC     DPTR
   \   000005   A3           INC     DPTR
   \   000006   22           RET
   1227          
   1228          /*********************************************************************
   1229           * Network Management
   1230           */
   1231          
   1232          /*********************************************************************
   1233           * @fn          ZDP_MgmtNwkDiscReq
   1234           *
   1235           * @brief       This builds and send a Mgmt_NWK_Disc_req message. This
   1236           *              function sends a unicast message.
   1237           *
   1238           * @param       dstAddr - destination address of the message
   1239           * @param       ScanChannels - 32 bit address bit map
   1240           * @param       StartIndex - Starting index within the reporting network
   1241           *                           list
   1242           * @param       SecurityEnable - Security Options
   1243           *
   1244           * @return      afStatus_t
   1245           */

   \                                 In  segment BANKED_CODE, align 1, keep-with-next
   \                     ??Subroutine108_0:
   \   000000   EE           MOV     A,R6
   \   000001   FC           MOV     R4,A
   \   000002   EF           MOV     A,R7
   \   000003   FD           MOV     R5,A
   \   000004   7A..         MOV     R2,#ZDP_TransID & 0xff
   \   000006   7B..         MOV     R3,#(ZDP_TransID >> 8) & 0xff
   \   000008   12....       LCALL   `??fillAndSend::?relay`; Banked call to: fillAndSend
   \   00000B   7402         MOV     A,#0x2
   \   00000D                REQUIRE ??Subroutine109_0
   \   00000D                ; // Fall through to label ??Subroutine109_0

   \                                 In  segment BANKED_CODE, align 1, keep-with-next
   1246          afStatus_t ZDP_MgmtNwkDiscReq( zAddrType_t *dstAddr,
   \                     ZDP_MgmtNwkDiscReq:
   1247                                         uint32 ScanChannels,
   1248                                         byte ScanDuration,
   1249                                         byte StartIndex,
   1250                                         byte SecurityEnable )
   1251          {
   \   000000                REQUIRE ?V0
   \   000000                REQUIRE ?V1
   \   000000                REQUIRE ?V2
   \   000000                REQUIRE ?V3
   \   000000   74F4         MOV     A,#-0xc
   \   000002   12....       LCALL   ?BANKED_ENTER_XDATA
   \   000005                ; Saved register size: 12
   \   000005                ; Auto size: 0
   \   000005   EA           MOV     A,R2
   \   000006   FE           MOV     R6,A
   \   000007   EB           MOV     A,R3
   \   000008   FF           MOV     R7,A
   \   000009   89..         MOV     ?V0,R1
   \   00000B   8C..         MOV     ?V1,R4
   1252            uint8 *pBuf = ZDP_TmpBuf;
   1253            byte len = sizeof( uint32 )+1+1;  // ScanChannels + ScanDuration + StartIndex.
   1254          
   1255            (void)SecurityEnable;  // Intentionally unreferenced parameter
   1256          
   1257            pBuf = osal_buffer_uint32( pBuf, ScanChannels );
   \   00000D                ; Setup parameters for call to function osal_buffer_uint32
   \   00000D   740C         MOV     A,#0xc
   \   00000F   12....       LCALL   ?XSTACK_DISP0_8
   \   000012   12....       LCALL   ?PUSH_XSTACK8_X_FOUR
   \   000015   12....       LCALL   ??Subroutine126_0 & 0xFFFF
   \                     ??CrossCallReturnLabel_217:
   \   000018   12....       LCALL   `??osal_buffer_uint32::?relay`; Banked call to: osal_buffer_uint32
   \   00001B   7404         MOV     A,#0x4
   \   00001D   12....       LCALL   ?DEALLOC_XSTACK8
   \   000020   8A82         MOV     DPL,R2
   \   000022   8B83         MOV     DPH,R3
   1258          
   1259            *pBuf++ = ScanDuration;
   \   000024   E5..         MOV     A,?V0
   \   000026   F0           MOVX    @DPTR,A
   1260            *pBuf = StartIndex;
   \   000027   A3           INC     DPTR
   \   000028   E5..         MOV     A,?V1
   \   00002A   F0           MOVX    @DPTR,A
   1261          
   1262            return fillAndSend( &ZDP_TransID, dstAddr, Mgmt_NWK_Disc_req, len );
   \   00002B                ; Setup parameters for call to function fillAndSend
   \   00002B   75..30       MOV     ?V2,#0x30
   \   00002E   75..00       MOV     ?V3,#0x0
   \   000031   78..         MOV     R0,#?V2
   \   000033   12....       LCALL   ?PUSH_XSTACK_I_TWO
   \   000036   7906         MOV     R1,#0x6
   \   000038   02....       LJMP    ??Subroutine108_0 & 0xFFFF
   1263          }
   1264          
   1265          /*********************************************************************
   1266           * @fn          ZDP_MgmtDirectJoinReq
   1267           *
   1268           * @brief       This builds and send a Mgmt_Direct_Join_req message. This
   1269           *              function sends a unicast message.
   1270           *
   1271           * @param       dstAddr - destination address of the message
   1272           * @param       deviceAddr - 64 bit IEEE Address
   1273           * @param       SecurityEnable - Security Options
   1274           *
   1275           * @return      afStatus_t
   1276           */

   \                                 In  segment BANKED_CODE, align 1, keep-with-next
   \                     ?Subroutine1:
   \   000000   75..00       MOV     ?V3,#0x0
   \   000003   78..         MOV     R0,#?V2
   \   000005   12....       LCALL   ?PUSH_XSTACK_I_TWO
   \   000008   7909         MOV     R1,#0x9
   \   00000A                REQUIRE ??Subroutine108_0
   \   00000A                ; // Fall through to label ??Subroutine108_0

   \                                 In  segment BANKED_CODE, align 1, keep-with-next
   \                     ?Subroutine43:
   \   000000   EA           MOV     A,R2
   \   000001   FE           MOV     R6,A
   \   000002   EB           MOV     A,R3
   \   000003   FF           MOV     R7,A
   \   000004   89..         MOV     ?V0,R1
   \   000006                ; Setup parameters for call to function sAddrExtCpy
   \   000006                ; Setup parameters for call to function sAddrExtCpy
   \   000006                REQUIRE ??Subroutine126_0
   \   000006                ; // Fall through to label ??Subroutine126_0

   \                                 In  segment BANKED_CODE, align 1, keep-with-next
   1277          afStatus_t ZDP_MgmtDirectJoinReq( zAddrType_t *dstAddr,
   \                     ZDP_MgmtDirectJoinReq:
   1278                                         uint8 *deviceAddr,
   1279                                         byte capInfo,
   1280                                         byte SecurityEnable )
   1281          {
   \   000000                REQUIRE ?V0
   \   000000                REQUIRE ?V2
   \   000000                REQUIRE ?V3
   \   000000   74F4         MOV     A,#-0xc
   \   000002   12....       LCALL   ?BANKED_ENTER_XDATA
   \   000005                ; Saved register size: 12
   \   000005                ; Auto size: 0
   \   000005   12....       LCALL   ?Subroutine43 & 0xFFFF
   1282            (void)SecurityEnable;  // Intentionally unreferenced parameter
   1283          
   1284            osal_cpyExtAddr( ZDP_TmpBuf, deviceAddr );
   \                     ??CrossCallReturnLabel_209:
   \   000008   12....       LCALL   `??sAddrExtCpy::?relay`; Banked call to: sAddrExtCpy
   1285            ZDP_TmpBuf[Z_EXTADDR_LEN] = capInfo;
   \   00000B   12....       LCALL   ?Subroutine40 & 0xFFFF
   \                     ??CrossCallReturnLabel_57:
   \   00000E   E5..         MOV     A,?V0
   \   000010   F0           MOVX    @DPTR,A
   1286          
   1287            return fillAndSend( &ZDP_TransID, dstAddr, Mgmt_Direct_Join_req, (Z_EXTADDR_LEN + 1) );
   \   000011                ; Setup parameters for call to function fillAndSend
   \   000011   75..35       MOV     ?V2,#0x35
   \   000014   02....       LJMP    ?Subroutine1 & 0xFFFF
   1288          }

   \                                 In  segment BANKED_CODE, align 1, keep-with-next
   \                     ?Subroutine40:
   \   000000   12....       LCALL   ?Subroutine103 & 0xFFFF
   \                     ??CrossCallReturnLabel_302:
   \   000003   C8           XCH     A,R0
   \   000004   2408         ADD     A,#0x8
   \   000006   F582         MOV     DPL,A
   \   000008   E4           CLR     A
   \   000009   38           ADDC    A,R0
   \   00000A   F583         MOV     DPH,A
   \   00000C   22           RET
   1289          
   1290          /*********************************************************************
   1291           * @fn          ZDP_MgmtPermitJoinReq
   1292           *
   1293           * @brief       This builds and send a Mgmt_Permit_Join_req message.
   1294           *
   1295           * @param       dstAddr - destination address of the message
   1296           * @param       duration - Permit duration
   1297           * @param       TcSignificance - Trust Center Significance
   1298           *
   1299           * @return      afStatus_t
   1300           */

   \                                 In  segment BANKED_CODE, align 1, keep-with-next
   1301          afStatus_t ZDP_MgmtPermitJoinReq( zAddrType_t *dstAddr, byte duration,
   \                     ZDP_MgmtPermitJoinReq:
   1302                                            byte TcSignificance, byte SecurityEnable )
   1303          {
   \   000000                REQUIRE ?V0
   \   000000                REQUIRE ?V1
   \   000000   74F6         MOV     A,#-0xa
   \   000002   12....       LCALL   ?BANKED_ENTER_XDATA
   \   000005                ; Saved register size: 10
   \   000005                ; Auto size: 0
   1304            (void)SecurityEnable;  // Intentionally unreferenced parameter
   1305          
   1306            // Build buffer
   1307            ZDP_TmpBuf[ZDP_MGMT_PERMIT_JOIN_REQ_DURATION] = duration;
   \   000005   12....       LCALL   ?Subroutine48 & 0xFFFF
   \                     ??CrossCallReturnLabel_207:
   \   000008   E9           MOV     A,R1
   \   000009   12....       LCALL   ?Subroutine22 & 0xFFFF
   1308            ZDP_TmpBuf[ZDP_MGMT_PERMIT_JOIN_REQ_TC_SIG]   = TcSignificance;
   \                     ??CrossCallReturnLabel_26:
   \   00000C   EC           MOV     A,R4
   \   00000D   F0           MOVX    @DPTR,A
   1309          
   1310            // Send the message
   1311            return fillAndSend( &ZDP_TransID, dstAddr, Mgmt_Permit_Join_req,
   1312                                ZDP_MGMT_PERMIT_JOIN_REQ_SIZE );
   \   00000E                ; Setup parameters for call to function fillAndSend
   \   00000E   75..36       MOV     ?V0,#0x36
   \   000011   02....       LJMP    ?Subroutine2 & 0xFFFF
   1313          }
   1314          
   1315          /*********************************************************************
   1316           * @fn          ZDP_MgmtLeaveReq
   1317           *
   1318           * @brief       This builds and send a Mgmt_Leave_req message.
   1319           *
   1320           * @param       dstAddr - destination address of the message
   1321           *              IEEEAddr - IEEE adddress of device that is removed
   1322           *              RemoveChildren - set to 1 to remove the children of the
   1323           *                                device as well. 0 otherwise.
   1324           *              Rejoin - set to 1 if the removed device should rejoin
   1325                                   afterwards. 0 otherwise.
   1326           *
   1327           * @return      afStatus_t
   1328           */

   \                                 In  segment BANKED_CODE, align 1, keep-with-next
   1329          afStatus_t ZDP_MgmtLeaveReq( zAddrType_t *dstAddr, uint8 *IEEEAddr, uint8 RemoveChildren,
   \                     ZDP_MgmtLeaveReq:
   1330                           uint8 Rejoin, uint8 SecurityEnable )
   1331          
   1332          {
   \   000000                REQUIRE ?V0
   \   000000                REQUIRE ?V2
   \   000000                REQUIRE ?V3
   \   000000   74F4         MOV     A,#-0xc
   \   000002   12....       LCALL   ?BANKED_ENTER_XDATA
   \   000005                ; Saved register size: 12
   \   000005                ; Auto size: 0
   \   000005   12....       LCALL   ?Subroutine43 & 0xFFFF
   1333            (void)SecurityEnable;  // Intentionally unreferenced parameter
   1334          
   1335            osal_cpyExtAddr( ZDP_TmpBuf, IEEEAddr );
   \                     ??CrossCallReturnLabel_210:
   \   000008   12....       LCALL   `??sAddrExtCpy::?relay`; Banked call to: sAddrExtCpy
   1336            ZDP_TmpBuf[Z_EXTADDR_LEN] = 0;
   \   00000B   12....       LCALL   ?Subroutine40 & 0xFFFF
   \                     ??CrossCallReturnLabel_58:
   \   00000E   E4           CLR     A
   \   00000F   F0           MOVX    @DPTR,A
   1337          
   1338            if ( RemoveChildren == TRUE )
   \   000010   04           INC     A
   \   000011   65..         XRL     A,?V0
   \   000013   7006         JNZ     ??ZDP_MgmtLeaveReq_0
   1339            {
   1340              ZDP_TmpBuf[Z_EXTADDR_LEN] |= ZDP_MGMT_LEAVE_REQ_RC;
   \   000015   12....       LCALL   ?Subroutine40 & 0xFFFF
   1341            }
   \                     ??CrossCallReturnLabel_59:
   \   000018   7440         MOV     A,#0x40
   \   00001A   F0           MOVX    @DPTR,A
   1342            if ( Rejoin == TRUE )
   \                     ??ZDP_MgmtLeaveReq_0:
   \   00001B   740C         MOV     A,#0xc
   \   00001D   12....       LCALL   ?XSTACK_DISP0_8
   \   000020   E0           MOVX    A,@DPTR
   \   000021   6401         XRL     A,#0x1
   \   000023   7007         JNZ     ??ZDP_MgmtLeaveReq_1
   1343            {
   1344              ZDP_TmpBuf[Z_EXTADDR_LEN] |= ZDP_MGMT_LEAVE_REQ_REJOIN;
   \   000025   12....       LCALL   ?Subroutine40 & 0xFFFF
   1345            }
   \                     ??CrossCallReturnLabel_60:
   \   000028   E0           MOVX    A,@DPTR
   \   000029   D2E7         SETB    0xE0 /* A   */.7
   \   00002B   F0           MOVX    @DPTR,A
   1346          
   1347            return fillAndSend( &ZDP_TransID, dstAddr, Mgmt_Leave_req, (Z_EXTADDR_LEN + 1) );
   \                     ??ZDP_MgmtLeaveReq_1:
   \   00002C                ; Setup parameters for call to function fillAndSend
   \   00002C   75..34       MOV     ?V2,#0x34
   \   00002F   02....       LJMP    ?Subroutine1 & 0xFFFF
   1348          }
   1349          
   1350          /*********************************************************************
   1351           * @fn          ZDP_MgmtNwkUpdateReq
   1352           *
   1353           * @brief       This builds and send a Mgmt_NWK_Update_req message. This
   1354           *              function sends a unicast or broadcast message.
   1355           *
   1356           * @param       dstAddr - destination address of the message
   1357           * @param       ChannelMask - 32 bit address bit map
   1358           * @param       ScanDuration - length of time to spend scanning each channel
   1359           * @param       ScanCount - number of energy scans to be conducted
   1360           * @param       NwkUpdateId - NWk Update Id value
   1361           * @param       NwkManagerAddr - NWK address for device with Network Manager
   1362           *                               bit set in its Node Descriptor
   1363           *
   1364           * @return      afStatus_t
   1365           */

   \                                 In  segment BANKED_CODE, align 1, keep-with-next
   1366          afStatus_t ZDP_MgmtNwkUpdateReq( zAddrType_t *dstAddr,
   \                     ZDP_MgmtNwkUpdateReq:
   1367                                           uint32 ChannelMask,
   1368                                           uint8 ScanDuration,
   1369                                           uint8 ScanCount,
   1370                                           uint8 NwkUpdateId,
   1371                                           uint16 NwkManagerAddr )
   1372          {
   \   000000                REQUIRE ?V0
   \   000000                REQUIRE ?V1
   \   000000                REQUIRE ?V2
   \   000000                REQUIRE ?V3
   \   000000                REQUIRE ?V4
   \   000000                REQUIRE ?V5
   \   000000   74F2         MOV     A,#-0xe
   \   000002   12....       LCALL   ?BANKED_ENTER_XDATA
   \   000005                ; Saved register size: 14
   \   000005                ; Auto size: 0
   \   000005   8A..         MOV     ?V0,R2
   \   000007   8B..         MOV     ?V1,R3
   \   000009   E9           MOV     A,R1
   \   00000A   FF           MOV     R7,A
   \   00000B   8C..         MOV     ?V2,R4
   \   00000D   8D..         MOV     ?V3,R5
   1373            uint8 *pBuf = ZDP_TmpBuf;
   1374            byte len = sizeof( uint32 ) + 1;  // ChannelMask + ScanDuration
   \   00000F   7E05         MOV     R6,#0x5
   1375          
   1376            pBuf = osal_buffer_uint32( pBuf, ChannelMask );
   \   000011                ; Setup parameters for call to function osal_buffer_uint32
   \   000011   740E         MOV     A,#0xe
   \   000013   12....       LCALL   ?XSTACK_DISP0_8
   \   000016   12....       LCALL   ?PUSH_XSTACK8_X_FOUR
   \   000019   12....       LCALL   ??Subroutine126_0 & 0xFFFF
   \                     ??CrossCallReturnLabel_218:
   \   00001C   12....       LCALL   `??osal_buffer_uint32::?relay`; Banked call to: osal_buffer_uint32
   \   00001F   7404         MOV     A,#0x4
   \   000021   12....       LCALL   ?DEALLOC_XSTACK8
   1377          
   1378            *pBuf++ = ScanDuration;
   \   000024   EF           MOV     A,R7
   \   000025   8A82         MOV     DPL,R2
   \   000027   8B83         MOV     DPH,R3
   \   000029   F0           MOVX    @DPTR,A
   1379          
   1380            if ( ScanDuration <= 0x05 )
   \   00002A   C3           CLR     C
   \   00002B   9406         SUBB    A,#0x6
   \   00002D   500D         JNC     ??ZDP_MgmtNwkUpdateReq_0
   1381            {
   1382              // Request is to scan over channelMask
   1383              len += sizeof( uint8 );
   \   00002F   7E06         MOV     R6,#0x6
   1384          
   1385              *pBuf++ = ScanCount;
   \   000031   A3           INC     DPTR
   \   000032   E5..         MOV     A,?V2
   \   000034   F0           MOVX    @DPTR,A
   \   000035   EA           MOV     A,R2
   \   000036   2402         ADD     A,#0x2
   \   000038   5024         JNC     ??ZDP_MgmtNwkUpdateReq_1
   \   00003A   8022         SJMP    ??ZDP_MgmtNwkUpdateReq_1
   1386            }
   1387            else if ( ( ScanDuration == 0xFE ) || ( ScanDuration == 0xFF ) )
   \                     ??ZDP_MgmtNwkUpdateReq_0:
   \   00003C   74FE         MOV     A,#-0x2
   \   00003E   6F           XRL     A,R7
   \   00003F   6005         JZ      ??ZDP_MgmtNwkUpdateReq_2
   \   000041   74FF         MOV     A,#-0x1
   \   000043   6F           XRL     A,R7
   \   000044   7018         JNZ     ??ZDP_MgmtNwkUpdateReq_1
   1388            {
   1389              // Request is to change Channel (0xFE) or apsChannelMask and NwkManagerAddr (0xFF)
   1390              len += sizeof( uint8 );
   \                     ??ZDP_MgmtNwkUpdateReq_2:
   \   000046   7E06         MOV     R6,#0x6
   1391          
   1392              *pBuf++ = NwkUpdateId;
   \   000048   A3           INC     DPTR
   \   000049   E5..         MOV     A,?V3
   \   00004B   F0           MOVX    @DPTR,A
   1393          
   1394              if ( ScanDuration == 0xFF )
   \   00004C   74FF         MOV     A,#-0x1
   \   00004E   6F           XRL     A,R7
   \   00004F   700D         JNZ     ??ZDP_MgmtNwkUpdateReq_1
   1395              {
   1396                len += sizeof( uint16 );
   \   000051   7E08         MOV     R6,#0x8
   \   000053   7412         MOV     A,#0x12
   \   000055   12....       LCALL   ?XSTACK_DISP0_8
   \   000058   12....       LCALL   ?Subroutine30 & 0xFFFF
   1397          
   1398                *pBuf++  = LO_UINT16( NwkManagerAddr );
   1399                *pBuf++  = HI_UINT16( NwkManagerAddr );
   1400              }
   1401            }
   \                     ??CrossCallReturnLabel_40:
   \   00005B   EA           MOV     A,R2
   \   00005C   2404         ADD     A,#0x4
   1402          
   1403            return fillAndSend( &ZDP_TransID, dstAddr, Mgmt_NWK_Update_req, len );
   \                     ??ZDP_MgmtNwkUpdateReq_1:
   \   00005E                ; Setup parameters for call to function fillAndSend
   \   00005E   75..38       MOV     ?V4,#0x38
   \   000061   75..00       MOV     ?V5,#0x0
   \   000064   78..         MOV     R0,#?V4
   \   000066   12....       LCALL   ?PUSH_XSTACK_I_TWO
   \   000069   EE           MOV     A,R6
   \   00006A   F9           MOV     R1,A
   \   00006B   AC..         MOV     R4,?V0
   \   00006D   AD..         MOV     R5,?V1
   \   00006F   7A..         MOV     R2,#ZDP_TransID & 0xff
   \   000071   7B..         MOV     R3,#(ZDP_TransID >> 8) & 0xff
   \   000073   12....       LCALL   `??fillAndSend::?relay`; Banked call to: fillAndSend
   \   000076   7402         MOV     A,#0x2
   \   000078   02....       LJMP    ?Subroutine0 & 0xFFFF
   1404          }

   \                                 In  segment BANKED_CODE, align 1, keep-with-next
   \                     ?Subroutine30:
   \   000000   12....       LCALL   ?Subroutine78 & 0xFFFF
   \                     ??CrossCallReturnLabel_125:
   \   000003   A3           INC     DPTR
   \   000004   12....       LCALL   ?Subroutine96 & 0xFFFF
   \                     ??CrossCallReturnLabel_154:
   \   000007   A3           INC     DPTR
   \   000008   F0           MOVX    @DPTR,A
   \   000009   22           RET
   1405          
   1406          
   1407          /*********************************************************************
   1408           * Network Management Responses
   1409           */
   1410          
   1411          /*********************************************************************
   1412           * @fn          ZDP_MgmtNwkDiscRsp
   1413           *
   1414           * @brief       This builds and send a Mgmt_NWK_Disc_rsp message. This
   1415           *              function sends a unicast message.
   1416           *
   1417           * @param       dstAddr - destination address of the message
   1418           * @param       Status - message status (ZDP_SUCCESS or other)
   1419           * @param       NetworkCount - Total number of networks found
   1420           * @param       StartIndex - Starting index within the reporting network
   1421           *                           list
   1422           * @param       NetworkListCount - number of network lists included
   1423           *                                 in this message
   1424           * @param       NetworkList - List of network descriptors
   1425           * @param       SecurityEnable - Security Options
   1426           *
   1427           * @return      afStatus_t
   1428           */

   \                                 In  segment BANKED_CODE, align 1, keep-with-next
   1429          afStatus_t ZDP_MgmtNwkDiscRsp( byte TransSeq, zAddrType_t *dstAddr,
   \                     ZDP_MgmtNwkDiscRsp:
   1430                                      byte Status,
   1431                                      byte NetworkCount,
   1432                                      byte StartIndex,
   1433                                      byte NetworkListCount,
   1434                                      networkDesc_t *NetworkList,
   1435                                      byte SecurityEnable )
   1436          {
   \   000000                REQUIRE ?V0
   \   000000                REQUIRE ?V1
   \   000000                REQUIRE ?V2
   \   000000                REQUIRE ?V3
   \   000000                REQUIRE ?V4
   \   000000                REQUIRE ?V5
   \   000000                REQUIRE ?V6
   \   000000                REQUIRE ?V7
   \   000000                REQUIRE ?V8
   \   000000                REQUIRE ?V10
   \   000000                REQUIRE ?V11
   \   000000   74EC         MOV     A,#-0x14
   \   000002   12....       LCALL   ?BANKED_ENTER_XDATA
   \   000005                ; Saved register size: 20
   \   000005                ; Auto size: 1
   \   000005   74FF         MOV     A,#-0x1
   \   000007   12....       LCALL   ?ALLOC_XSTACK8
   \   00000A   E9           MOV     A,R1
   \   00000B   85..82       MOV     DPL,?XSP + 0
   \   00000E   85..83       MOV     DPH,?XSP + 1
   \   000011   F0           MOVX    @DPTR,A
   \   000012   8A..         MOV     ?V10,R2
   \   000014   8B..         MOV     ?V11,R3
   \   000016   8C..         MOV     ?V8,R4
   \   000018   8D..         MOV     ?V6,R5
   \   00001A   7416         MOV     A,#0x16
   \   00001C   12....       LCALL   ?XSTACK_DISP0_8
   \   00001F   E0           MOVX    A,@DPTR
   \   000020   F5..         MOV     ?V4,A
   1437            uint8 *buf;
   1438            uint8 *pBuf;
   1439            byte len = 1+1+1+1;  // Status + NetworkCount + StartIndex + NetworkCountList.
   1440            byte idx;
   1441          
   1442            (void)SecurityEnable;  // Intentionally unreferenced parameter
   1443          
   1444            len += (NetworkListCount * ( ZDP_NETWORK_EXTENDED_DISCRIPTOR_SIZE - 2 ));
   \   000022   75F00C       MOV     B,#0xc
   \   000025   12....       LCALL   ?Subroutine68 & 0xFFFF
   1445          
   1446            buf = osal_mem_alloc( len+1 );
   \                     ??CrossCallReturnLabel_263:
   \   000028   12....       LCALL   `??osal_mem_alloc::?relay`; Banked call to: osal_mem_alloc
   \   00002B   8A..         MOV     ?V0,R2
   \   00002D   8B..         MOV     ?V1,R3
   1447            if ( buf == NULL )
   \   00002F   EA           MOV     A,R2
   \   000030   45..         ORL     A,?V1
   \   000032   7005         JNZ     ??ZDP_MgmtNwkDiscRsp_0
   1448            {
   1449              return afStatus_MEM_FAIL;
   \   000034   7910         MOV     R1,#0x10
   \   000036   02....       LJMP    ??CrossCallReturnLabel_35 & 0xFFFF
   1450            }
   1451          
   1452            pBuf = buf+1;
   \                     ??ZDP_MgmtNwkDiscRsp_0:
   \   000039   8A82         MOV     DPL,R2
   \   00003B   8B83         MOV     DPH,R3
   \   00003D   A3           INC     DPTR
   \   00003E   AE82         MOV     R6,DPL
   \   000040   AF83         MOV     R7,DPH
   1453          
   1454            *pBuf++ = Status;
   \   000042   E5..         MOV     A,?V8
   \   000044   F0           MOVX    @DPTR,A
   1455            *pBuf++ = NetworkCount;
   \   000045   A3           INC     DPTR
   \   000046   E5..         MOV     A,?V6
   \   000048   F0           MOVX    @DPTR,A
   1456            *pBuf++ = StartIndex;
   \   000049   7415         MOV     A,#0x15
   \   00004B   12....       LCALL   ?XSTACK_DISP0_8
   \   00004E   12....       LCALL   ?Subroutine64 & 0xFFFF
   1457            *pBuf++ = NetworkListCount;
   \                     ??CrossCallReturnLabel_105:
   \   000051   8E82         MOV     DPL,R6
   \   000053   8F83         MOV     DPH,R7
   \   000055   A3           INC     DPTR
   \   000056   A3           INC     DPTR
   \   000057   A3           INC     DPTR
   \   000058   E5..         MOV     A,?V4
   \   00005A   F0           MOVX    @DPTR,A
   \   00005B   EE           MOV     A,R6
   \   00005C   2404         ADD     A,#0x4
   \   00005E   FE           MOV     R6,A
   \   00005F   5001         JNC     ??ZDP_MgmtNwkDiscRsp_1
   \   000061   0F           INC     R7
   1458          
   1459            for ( idx = 0; idx < NetworkListCount; idx++ )
   \                     ??ZDP_MgmtNwkDiscRsp_1:
   \   000062   75..00       MOV     ?V7,#0x0
   \   000065   7417         MOV     A,#0x17
   \   000067   12....       LCALL   ?XSTACK_DISP0_8
   \   00006A   12....       LCALL   ??Subroutine120_0 & 0xFFFF
   \                     ??CrossCallReturnLabel_179:
   \   00006D   801C         SJMP    ??ZDP_MgmtNwkDiscRsp_2
   1460            {
   1461              osal_cpyExtAddr( pBuf, NetworkList->extendedPANID);
   1462              pBuf += Z_EXTADDR_LEN;
   1463          
   1464              *pBuf++  = NetworkList->logicalChannel;                // LogicalChannel
   1465              *pBuf    = NetworkList->stackProfile;                  // Stack profile
   1466              *pBuf++ |= (byte)(NetworkList->version << 4);          // ZigBee Version
   1467              *pBuf    = BEACON_ORDER_NO_BEACONS;                    // Beacon Order
   1468              *pBuf++ |= (uint8)(BEACON_ORDER_NO_BEACONS << 4);      // Superframe Order
   1469          
   1470              if ( NetworkList->chosenRouter != INVALID_NODE_ADDR )
   1471              {
   1472                *pBuf++ = TRUE;                         // Permit Joining
   1473              }
   1474              else
   1475              {
   1476                *pBuf++ = FALSE;
   \                     ??ZDP_MgmtNwkDiscRsp_3:
   \   00006F   12....       LCALL   ?Subroutine71 & 0xFFFF
   1477              }
   \                     ??CrossCallReturnLabel_113:
   \   000072   E4           CLR     A
   \   000073   F0           MOVX    @DPTR,A
   \   000074   EE           MOV     A,R6
   \   000075   240C         ADD     A,#0xc
   \   000077   FE           MOV     R6,A
   \   000078   5001         JNC     ??ZDP_MgmtNwkDiscRsp_4
   \   00007A   0F           INC     R7
   1478          
   1479              NetworkList = NetworkList->nextDesc;    // Move to next list entry
   \                     ??ZDP_MgmtNwkDiscRsp_4:
   \   00007B   E5..         MOV     A,?V2
   \   00007D   2414         ADD     A,#0x14
   \   00007F   F582         MOV     DPL,A
   \   000081   E4           CLR     A
   \   000082   35..         ADDC    A,?V3
   \   000084   F583         MOV     DPH,A
   \   000086   12....       LCALL   ??Subroutine120_0 & 0xFFFF
   \                     ??CrossCallReturnLabel_180:
   \   000089   05..         INC     ?V7
   \                     ??ZDP_MgmtNwkDiscRsp_2:
   \   00008B   E5..         MOV     A,?V7
   \   00008D   C3           CLR     C
   \   00008E   95..         SUBB    A,?V4
   \   000090   5062         JNC     ??ZDP_MgmtNwkDiscRsp_5
   \   000092                ; Setup parameters for call to function sAddrExtCpy
   \   000092   E5..         MOV     A,?V2
   \   000094   240B         ADD     A,#0xb
   \   000096   FC           MOV     R4,A
   \   000097   E4           CLR     A
   \   000098   35..         ADDC    A,?V3
   \   00009A   FD           MOV     R5,A
   \   00009B   EE           MOV     A,R6
   \   00009C   FA           MOV     R2,A
   \   00009D   EF           MOV     A,R7
   \   00009E   FB           MOV     R3,A
   \   00009F   12....       LCALL   `??sAddrExtCpy::?relay`; Banked call to: sAddrExtCpy
   \   0000A2   85..82       MOV     DPL,?V2
   \   0000A5   85..83       MOV     DPH,?V3
   \   0000A8   A3           INC     DPTR
   \   0000A9   12....       LCALL   ?Subroutine58 & 0xFFFF
   \                     ??CrossCallReturnLabel_88:
   \   0000AC   A3           INC     DPTR
   \   0000AD   A3           INC     DPTR
   \   0000AE   A3           INC     DPTR
   \   0000AF   A3           INC     DPTR
   \   0000B0   12....       LCALL   ?Subroutine39 & 0xFFFF
   \                     ??CrossCallReturnLabel_55:
   \   0000B3   85..82       MOV     DPL,?V2
   \   0000B6   85..83       MOV     DPH,?V3
   \   0000B9   A3           INC     DPTR
   \   0000BA   A3           INC     DPTR
   \   0000BB   A3           INC     DPTR
   \   0000BC   A3           INC     DPTR
   \   0000BD   A3           INC     DPTR
   \   0000BE   12....       LCALL   ?Subroutine67 & 0xFFFF
   \                     ??CrossCallReturnLabel_234:
   \   0000C1   12....       LCALL   ?Subroutine26 & 0xFFFF
   \                     ??CrossCallReturnLabel_33:
   \   0000C4   E0           MOVX    A,@DPTR
   \   0000C5   C4           SWAP    A
   \   0000C6   54F0         ANL     A,#0xf0
   \   0000C8   FA           MOV     R2,A
   \   0000C9   8882         MOV     DPL,R0
   \   0000CB   8983         MOV     DPH,R1
   \   0000CD   E0           MOVX    A,@DPTR
   \   0000CE   4A           ORL     A,R2
   \   0000CF   12....       LCALL   ?Subroutine21 & 0xFFFF
   \                     ??CrossCallReturnLabel_24:
   \   0000D2   A3           INC     DPTR
   \   0000D3   A3           INC     DPTR
   \   0000D4   74FF         MOV     A,#-0x1
   \   0000D6   12....       LCALL   ?Subroutine26 & 0xFFFF
   \                     ??CrossCallReturnLabel_34:
   \   0000D9   A3           INC     DPTR
   \   0000DA   A3           INC     DPTR
   \   0000DB   E0           MOVX    A,@DPTR
   \   0000DC   64FE         XRL     A,#0xfe
   \   0000DE   7003         JNZ     ??ZDP_MgmtNwkDiscRsp_6
   \   0000E0   A3           INC     DPTR
   \   0000E1   E0           MOVX    A,@DPTR
   \   0000E2   F4           CPL     A
   \                     ??ZDP_MgmtNwkDiscRsp_6:
   \   0000E3   608A         JZ      ??ZDP_MgmtNwkDiscRsp_3
   \   0000E5   12....       LCALL   ?Subroutine71 & 0xFFFF
   1480            }
   \                     ??CrossCallReturnLabel_114:
   \   0000E8   7401         MOV     A,#0x1
   \   0000EA   F0           MOVX    @DPTR,A
   \   0000EB   EE           MOV     A,R6
   \   0000EC   240C         ADD     A,#0xc
   \   0000EE   FE           MOV     R6,A
   \   0000EF   508A         JNC     ??ZDP_MgmtNwkDiscRsp_4
   \   0000F1   0F           INC     R7
   \                     ??ZDP_MgmtNwkDiscRsp_7:
   \   0000F2   8087         SJMP    ??ZDP_MgmtNwkDiscRsp_4
   1481          
   1482            FillAndSendBuffer( &TransSeq, dstAddr, Mgmt_NWK_Disc_rsp, len, buf );
   \                     ??ZDP_MgmtNwkDiscRsp_5:
   \   0000F4   85..82       MOV     DPL,?V0
   \   0000F7   85..83       MOV     DPH,?V1
   \   0000FA   12....       LCALL   ??Subroutine128_0 & 0xFFFF
   \                     ??CrossCallReturnLabel_226:
   \   0000FD                ; Setup parameters for call to function fillAndSend
   \   0000FD   75..30       MOV     ?V2,#0x30
   \   000100   75..80       MOV     ?V3,#-0x80
   \   000103   78..         MOV     R0,#?V2
   \   000105   12....       LCALL   ?PUSH_XSTACK_I_TWO
   \   000108   A9..         MOV     R1,?V5
   \   00010A   AC..         MOV     R4,?V10
   \   00010C   AD..         MOV     R5,?V11
   \   00010E   7402         MOV     A,#0x2
   \   000110   12....       LCALL   ?XSTACK_DISP101_8
   \   000113   12....       LCALL   `??fillAndSend::?relay`; Banked call to: fillAndSend
   \   000116   7402         MOV     A,#0x2
   \   000118   12....       LCALL   ?DEALLOC_XSTACK8
   \   00011B   E9           MOV     A,R1
   \   00011C   FE           MOV     R6,A
   \   00011D                ; Setup parameters for call to function osal_mem_free
   \   00011D   AA..         MOV     R2,?V0
   \   00011F   AB..         MOV     R3,?V1
   \   000121   12....       LCALL   `??osal_mem_free::?relay`; Banked call to: osal_mem_free
   \   000124   12....       LCALL   ?Subroutine27 & 0xFFFF
   \                     ??CrossCallReturnLabel_35:
   \   000127                REQUIRE ?Subroutine7
   \   000127                ; // Fall through to label ?Subroutine7
   1483          }

   \                                 In  segment BANKED_CODE, align 1, keep-with-next
   \                     ?Subroutine7:
   \   000000   7401         MOV     A,#0x1
   \   000002   12....       LCALL   ?DEALLOC_XSTACK8
   \   000005   7F0C         MOV     R7,#0xc
   \   000007   02....       LJMP    ?BANKED_LEAVE_XDATA

   \                                 In  segment BANKED_CODE, align 1, keep-with-next
   \                     ?Subroutine26:
   \   000000   F0           MOVX    @DPTR,A
   \   000001   85..82       MOV     DPL,?V2
   \   000004   85..83       MOV     DPH,?V3
   \   000007   A3           INC     DPTR
   \   000008   A3           INC     DPTR
   \   000009   A3           INC     DPTR
   \   00000A   A3           INC     DPTR
   \   00000B   A3           INC     DPTR
   \   00000C   22           RET

   \                                 In  segment BANKED_CODE, align 1, keep-with-next
   \                     ??Subroutine128_0:
   \   000000   A3           INC     DPTR
   \   000001   A882         MOV     R0,DPL
   \   000003   A983         MOV     R1,DPH
   \   000005   90....       MOV     DPTR,#ZDP_TmpBuf
   \   000008                REQUIRE ??Subroutine129_0
   \   000008                ; // Fall through to label ??Subroutine129_0

   \                                 In  segment BANKED_CODE, align 1, keep-with-next
   \                     ?Subroutine27:
   \   000000   90....       MOV     DPTR,#ZDP_TmpBuf
   \   000003   74..         MOV     A,#(ZDP_Buf + 1) & 0xff
   \   000005   F0           MOVX    @DPTR,A
   \   000006   A3           INC     DPTR
   \   000007   74..         MOV     A,#((ZDP_Buf + 1) >> 8) & 0xff
   \   000009   F0           MOVX    @DPTR,A
   \   00000A   EE           MOV     A,R6
   \   00000B   F9           MOV     R1,A
   \   00000C   22           RET

   \                                 In  segment BANKED_CODE, align 1, keep-with-next
   \                     ?Subroutine67:
   \   000000   A3           INC     DPTR
   \   000001                REQUIRE ??Subroutine130_0
   \   000001                ; // Fall through to label ??Subroutine130_0

   \                                 In  segment BANKED_CODE, align 1, keep-with-next
   \                     ??Subroutine130_0:
   \   000000   12....       LCALL   ?Subroutine84 & 0xFFFF
   \                     ??CrossCallReturnLabel_239:
   \   000003   22           RET

   \                                 In  segment BANKED_CODE, align 1, keep-with-next
   \                     ?Subroutine39:
   \   000000   F0           MOVX    @DPTR,A
   \   000001   EE           MOV     A,R6
   \   000002   2409         ADD     A,#0x9
   \   000004   F8           MOV     R0,A
   \   000005   E4           CLR     A
   \   000006   3F           ADDC    A,R7
   \   000007   F9           MOV     R1,A
   \   000008   22           RET

   \                                 In  segment BANKED_CODE, align 1, keep-with-next
   \                     ?Subroutine68:
   \   000000   A4           MUL     AB
   \   000001   2404         ADD     A,#0x4
   \   000003   F5..         MOV     ?V5,A
   \   000005                ; Setup parameters for call to function osal_mem_alloc
   \   000005                ; Setup parameters for call to function osal_mem_alloc
   \   000005                REQUIRE ??Subroutine136_0
   \   000005                ; // Fall through to label ??Subroutine136_0

   \                                 In  segment BANKED_CODE, align 1, keep-with-next
   \                     ??Subroutine136_0:
   \   000000   2401         ADD     A,#0x1
   \   000002   FA           MOV     R2,A
   \   000003   E4           CLR     A
   \   000004   3400         ADDC    A,#0x0
   \   000006   FB           MOV     R3,A
   \   000007   22           RET
   1484          
   1485          /*********************************************************************
   1486           * @fn          ZDP_MgmtLqiRsp
   1487           *
   1488           * @brief       This builds and send a Mgmt_Lqi_rsp message. This
   1489           *              function sends a unicast message.
   1490           *
   1491           * @param       dstAddr - destination address of the message
   1492           * @param       Status - message status (ZDP_SUCCESS or other)
   1493           * @param       NeighborLqiEntries - Total number of entries found
   1494           * @param       StartIndex - Starting index within the reporting list
   1495           * @param       NeighborLqiCount - number of lists included
   1496           *                                 in this message
   1497           * @param       NeighborLqiList - List of NeighborLqiItems.  This list
   1498           *                is the list to be sent, not the entire list
   1499           * @param       SecurityEnable - true if secure
   1500           *
   1501           * @return      ZStatus_t
   1502           */

   \                                 In  segment BANKED_CODE, align 1, keep-with-next
   \                     ?Subroutine17:
   \   000000   85..82       MOV     DPL,?V2
   \   000003   85..83       MOV     DPH,?V3
   \   000006                REQUIRE ??Subroutine128_0
   \   000006                ; // Fall through to label ??Subroutine128_0

   \                                 In  segment BANKED_CODE, align 1, keep-with-next
   1503          ZStatus_t ZDP_MgmtLqiRsp( byte TransSeq, zAddrType_t *dstAddr,
   \                     ZDP_MgmtLqiRsp:
   1504                                    byte Status,
   1505                                    byte NeighborLqiEntries,
   1506                                    byte StartIndex,
   1507                                    byte NeighborLqiCount,
   1508                                    ZDP_MgmtLqiItem_t* NeighborList,
   1509                                    byte SecurityEnable )
   1510          {
   \   000000                REQUIRE ?V0
   \   000000                REQUIRE ?V1
   \   000000                REQUIRE ?V2
   \   000000                REQUIRE ?V3
   \   000000                REQUIRE ?V4
   \   000000                REQUIRE ?V5
   \   000000                REQUIRE ?V6
   \   000000                REQUIRE ?V7
   \   000000                REQUIRE ?V8
   \   000000                REQUIRE ?V9
   \   000000                REQUIRE ?V10
   \   000000   74ED         MOV     A,#-0x13
   \   000002   12....       LCALL   ?BANKED_ENTER_XDATA
   \   000005                ; Saved register size: 19
   \   000005                ; Auto size: 1
   \   000005   74FF         MOV     A,#-0x1
   \   000007   12....       LCALL   ?ALLOC_XSTACK8
   \   00000A   E9           MOV     A,R1
   \   00000B   85..82       MOV     DPL,?XSP + 0
   \   00000E   85..83       MOV     DPH,?XSP + 1
   \   000011   F0           MOVX    @DPTR,A
   \   000012   8A..         MOV     ?V8,R2
   \   000014   8B..         MOV     ?V9,R3
   \   000016   8D..         MOV     ?V10,R5
   1511            ZDP_MgmtLqiItem_t* list = NeighborList;
   \   000018   7416         MOV     A,#0x16
   \   00001A   12....       LCALL   ?XSTACK_DISP0_8
   \   00001D   12....       LCALL   ?Subroutine54 & 0xFFFF
   1512            uint8 *buf, *pBuf;
   1513            byte len, x;
   1514          
   1515            (void)SecurityEnable;  // Intentionally unreferenced parameter
   1516          
   1517            if ( ZSuccess != Status )
   \                     ??CrossCallReturnLabel_80:
   \   000020   EC           MOV     A,R4
   \   000021   6026         JZ      ??ZDP_MgmtLqiRsp_0
   1518            {
   1519              ZDP_TmpBuf[0] = Status;
   \   000023   12....       LCALL   ?Subroutine48 & 0xFFFF
   \                     ??CrossCallReturnLabel_208:
   \   000026   EC           MOV     A,R4
   \   000027   F0           MOVX    @DPTR,A
   1520              return fillAndSend( &TransSeq, dstAddr, Mgmt_Lqi_rsp, 1 );
   \   000028                ; Setup parameters for call to function fillAndSend
   \   000028   75..31       MOV     ?V0,#0x31
   \   00002B   75..80       MOV     ?V1,#-0x80
   \   00002E   78..         MOV     R0,#?V0
   \   000030   12....       LCALL   ?PUSH_XSTACK_I_TWO
   \   000033   7901         MOV     R1,#0x1
   \   000035   AC..         MOV     R4,?V8
   \   000037   AD..         MOV     R5,?V9
   \   000039   7402         MOV     A,#0x2
   \   00003B   12....       LCALL   ?XSTACK_DISP101_8
   \   00003E   12....       LCALL   `??fillAndSend::?relay`; Banked call to: fillAndSend
   \   000041   7402         MOV     A,#0x2
   \   000043   12....       LCALL   ?DEALLOC_XSTACK8
   \   000046   02....       LJMP    ??CrossCallReturnLabel_36 & 0xFFFF
   1521            }
   \                     ??ZDP_MgmtLqiRsp_0:
   \   000049   7415         MOV     A,#0x15
   \   00004B   12....       LCALL   ?XSTACK_DISP0_8
   \   00004E   E0           MOVX    A,@DPTR
   \   00004F   F5..         MOV     ?V5,A
   1522          
   1523            // (Status + NeighborLqiEntries + StartIndex + NeighborLqiCount) +
   1524            //  neighbor LQI data.
   1525            len = (1 + 1 + 1 + 1) + (NeighborLqiCount * ZDP_MGMTLQI_EXTENDED_SIZE);
   \   000051   75F016       MOV     B,#0x16
   \   000054   A4           MUL     AB
   \   000055   2404         ADD     A,#0x4
   \   000057   F5..         MOV     ?V6,A
   1526          
   1527            buf = osal_mem_alloc( len+1 );
   \   000059                ; Setup parameters for call to function osal_mem_alloc
   \   000059   12....       LCALL   ??Subroutine136_0 & 0xFFFF
   \                     ??CrossCallReturnLabel_265:
   \   00005C   12....       LCALL   `??osal_mem_alloc::?relay`; Banked call to: osal_mem_alloc
   \   00005F   8A..         MOV     ?V2,R2
   \   000061   8B..         MOV     ?V3,R3
   1528            if ( buf == NULL )
   \   000063   EA           MOV     A,R2
   \   000064   45..         ORL     A,?V3
   \   000066   7005         JNZ     ??ZDP_MgmtLqiRsp_1
   1529            {
   1530              return afStatus_MEM_FAIL;
   \   000068   7910         MOV     R1,#0x10
   \   00006A   02....       LJMP    ??CrossCallReturnLabel_36 & 0xFFFF
   1531            }
   1532          
   1533            pBuf = buf+1;
   \                     ??ZDP_MgmtLqiRsp_1:
   \   00006D   8A82         MOV     DPL,R2
   \   00006F   8B83         MOV     DPH,R3
   \   000071   A3           INC     DPTR
   \   000072   8582..       MOV     ?V0,DPL
   \   000075   8583..       MOV     ?V1,DPH
   1534          
   1535            *pBuf++ = Status;
   \   000078   E4           CLR     A
   \   000079   F0           MOVX    @DPTR,A
   1536            *pBuf++ = NeighborLqiEntries;
   \   00007A   A3           INC     DPTR
   \   00007B   E5..         MOV     A,?V10
   \   00007D   F0           MOVX    @DPTR,A
   1537            *pBuf++ = StartIndex;
   \   00007E   7414         MOV     A,#0x14
   \   000080   12....       LCALL   ?XSTACK_DISP0_8
   \   000083   12....       LCALL   ?Subroutine65 & 0xFFFF
   \                     ??CrossCallReturnLabel_107:
   \   000086   12....       LCALL   ?Subroutine35 & 0xFFFF
   1538            *pBuf++ = NeighborLqiCount;
   \                     ??CrossCallReturnLabel_50:
   \   000089   A3           INC     DPTR
   \   00008A   E5..         MOV     A,?V5
   \   00008C   F0           MOVX    @DPTR,A
   \   00008D   E5..         MOV     A,?V0
   \   00008F   2404         ADD     A,#0x4
   \   000091   F5..         MOV     ?V0,A
   \   000093   5002         JNC     ??ZDP_MgmtLqiRsp_2
   \   000095   05..         INC     ?V1
   1539          
   1540            for ( x = 0; x < NeighborLqiCount; x++ )
   \                     ??ZDP_MgmtLqiRsp_2:
   \   000097   75..00       MOV     ?V4,#0x0
   \   00009A   02....       LJMP    ??ZDP_MgmtLqiRsp_3 & 0xFFFF
   1541            {
   1542              osal_cpyExtAddr( pBuf, list->extPanID);         // Extended PanID
   \                     ??ZDP_MgmtLqiRsp_4:
   \   00009D                ; Setup parameters for call to function sAddrExtCpy
   \   00009D   EE           MOV     A,R6
   \   00009E   2402         ADD     A,#0x2
   \   0000A0   FC           MOV     R4,A
   \   0000A1   E4           CLR     A
   \   0000A2   3F           ADDC    A,R7
   \   0000A3   FD           MOV     R5,A
   \   0000A4   AA..         MOV     R2,?V0
   \   0000A6   AB..         MOV     R3,?V1
   \   0000A8   12....       LCALL   `??sAddrExtCpy::?relay`; Banked call to: sAddrExtCpy
   1543              pBuf += Z_EXTADDR_LEN;
   1544          
   1545              // EXTADDR
   1546              pBuf = osal_cpyExtAddr( pBuf, list->extAddr );
   \   0000AB                ; Setup parameters for call to function sAddrExtCpy
   \   0000AB   EE           MOV     A,R6
   \   0000AC   240A         ADD     A,#0xa
   \   0000AE   FC           MOV     R4,A
   \   0000AF   E4           CLR     A
   \   0000B0   3F           ADDC    A,R7
   \   0000B1   FD           MOV     R5,A
   \   0000B2   E5..         MOV     A,?V0
   \   0000B4   2408         ADD     A,#0x8
   \   0000B6   FA           MOV     R2,A
   \   0000B7   E4           CLR     A
   \   0000B8   35..         ADDC    A,?V1
   \   0000BA   FB           MOV     R3,A
   \   0000BB   12....       LCALL   `??sAddrExtCpy::?relay`; Banked call to: sAddrExtCpy
   1547          
   1548              // NWKADDR
   1549              *pBuf++ = LO_UINT16( list->nwkAddr );
   \   0000BE   EE           MOV     A,R6
   \   0000BF   2412         ADD     A,#0x12
   \   0000C1   F8           MOV     R0,A
   \   0000C2   E4           CLR     A
   \   0000C3   3F           ADDC    A,R7
   \   0000C4   F9           MOV     R1,A
   \   0000C5   8882         MOV     DPL,R0
   \   0000C7   8983         MOV     DPH,R1
   \   0000C9   12....       LCALL   ?Subroutine61 & 0xFFFF
   \                     ??CrossCallReturnLabel_97:
   \   0000CC   12....       LCALL   ?Subroutine24 & 0xFFFF
   1550              *pBuf++ = HI_UINT16( list->nwkAddr );
   \                     ??CrossCallReturnLabel_29:
   \   0000CF   F0           MOVX    @DPTR,A
   1551          
   1552              // DEVICETYPE
   1553              *pBuf = list->devType;
   \   0000D0   EA           MOV     A,R2
   \   0000D1   2402         ADD     A,#0x2
   \   0000D3   F8           MOV     R0,A
   \   0000D4   E4           CLR     A
   \   0000D5   3B           ADDC    A,R3
   \   0000D6   F9           MOV     R1,A
   \   0000D7   12....       LCALL   ?Subroutine76 & 0xFFFF
   \                     ??CrossCallReturnLabel_119:
   \   0000DA   12....       LCALL   ??Subroutine130_0 & 0xFFFF
   \                     ??CrossCallReturnLabel_231:
   \   0000DD   F0           MOVX    @DPTR,A
   1554          
   1555              // RXONIDLE
   1556              *pBuf |= (uint8)(list->rxOnIdle << 2);
   \   0000DE   EE           MOV     A,R6
   \   0000DF   2415         ADD     A,#0x15
   \   0000E1   12....       LCALL   ??Subroutine138_0 & 0xFFFF
   \                     ??CrossCallReturnLabel_275:
   \   0000E4   33           RLC     A
   \   0000E5   33           RLC     A
   \   0000E6   54FC         ANL     A,#0xfc
   \   0000E8   FC           MOV     R4,A
   \   0000E9   8882         MOV     DPL,R0
   \   0000EB   8983         MOV     DPH,R1
   \   0000ED   E0           MOVX    A,@DPTR
   \   0000EE   4C           ORL     A,R4
   \   0000EF   F0           MOVX    @DPTR,A
   1557          
   1558              // RELATIONSHIP
   1559              *pBuf++ |= (uint8)(list->relation << 4);
   \   0000F0   EE           MOV     A,R6
   \   0000F1   2416         ADD     A,#0x16
   \   0000F3   12....       LCALL   ??Subroutine138_0 & 0xFFFF
   \                     ??CrossCallReturnLabel_276:
   \   0000F6   C4           SWAP    A
   \   0000F7   54F0         ANL     A,#0xf0
   \   0000F9   FC           MOV     R4,A
   \   0000FA   8882         MOV     DPL,R0
   \   0000FC   8983         MOV     DPH,R1
   \   0000FE   E0           MOVX    A,@DPTR
   \   0000FF   4C           ORL     A,R4
   \   000100   F0           MOVX    @DPTR,A
   1560          
   1561              // PERMITJOINING
   1562              *pBuf++ = (uint8)(list->permit);
   \   000101   EE           MOV     A,R6
   \   000102   2417         ADD     A,#0x17
   \   000104   F582         MOV     DPL,A
   \   000106   E4           CLR     A
   \   000107   3F           ADDC    A,R7
   \   000108   F583         MOV     DPH,A
   \   00010A   12....       LCALL   ?Subroutine60 & 0xFFFF
   \                     ??CrossCallReturnLabel_92:
   \   00010D   A3           INC     DPTR
   \   00010E   A3           INC     DPTR
   \   00010F   F0           MOVX    @DPTR,A
   1563          
   1564              // DEPTH
   1565              *pBuf++ = list->depth;
   \   000110   EE           MOV     A,R6
   \   000111   2418         ADD     A,#0x18
   \   000113   12....       LCALL   ?Subroutine59 & 0xFFFF
   \                     ??CrossCallReturnLabel_89:
   \   000116   F0           MOVX    @DPTR,A
   1566          
   1567              // LQI
   1568              *pBuf++ = list->lqi;
   \   000117   EE           MOV     A,R6
   \   000118   2419         ADD     A,#0x19
   \   00011A   12....       LCALL   ?Subroutine59 & 0xFFFF
   \                     ??CrossCallReturnLabel_90:
   \   00011D   A3           INC     DPTR
   \   00011E   F0           MOVX    @DPTR,A
   \   00011F   EA           MOV     A,R2
   \   000120   2406         ADD     A,#0x6
   \   000122   F5..         MOV     ?V0,A
   \   000124   E4           CLR     A
   \   000125   3B           ADDC    A,R3
   \   000126   F5..         MOV     ?V1,A
   1569          
   1570              list++; // next list entry
   \   000128   EE           MOV     A,R6
   \   000129   241A         ADD     A,#0x1a
   \   00012B   FE           MOV     R6,A
   \   00012C   5001         JNC     ??ZDP_MgmtLqiRsp_5
   \   00012E   0F           INC     R7
   1571            }
   \                     ??ZDP_MgmtLqiRsp_5:
   \   00012F   05..         INC     ?V4
   \                     ??ZDP_MgmtLqiRsp_3:
   \   000131   E5..         MOV     A,?V4
   \   000133   C3           CLR     C
   \   000134   95..         SUBB    A,?V5
   \   000136   5003         JNC     $+5
   \   000138   02....       LJMP    ??ZDP_MgmtLqiRsp_4 & 0xFFFF
   1572          
   1573            FillAndSendBuffer( &TransSeq, dstAddr, Mgmt_Lqi_rsp, len, buf );
   \   00013B   12....       LCALL   ?Subroutine17 & 0xFFFF
   \                     ??CrossCallReturnLabel_229:
   \   00013E                ; Setup parameters for call to function fillAndSend
   \   00013E   75..31       MOV     ?V0,#0x31
   \   000141   75..80       MOV     ?V1,#-0x80
   \   000144   78..         MOV     R0,#?V0
   \   000146   12....       LCALL   ?PUSH_XSTACK_I_TWO
   \   000149   A9..         MOV     R1,?V6
   \   00014B   AC..         MOV     R4,?V8
   \   00014D   AD..         MOV     R5,?V9
   \   00014F   7402         MOV     A,#0x2
   \   000151   12....       LCALL   ?XSTACK_DISP101_8
   \   000154   12....       LCALL   `??fillAndSend::?relay`; Banked call to: fillAndSend
   \   000157   7402         MOV     A,#0x2
   \   000159   12....       LCALL   ?DEALLOC_XSTACK8
   \   00015C   E9           MOV     A,R1
   \   00015D   FE           MOV     R6,A
   \   00015E                ; Setup parameters for call to function osal_mem_free
   \   00015E   AA..         MOV     R2,?V2
   \   000160   AB..         MOV     R3,?V3
   \   000162   12....       LCALL   `??osal_mem_free::?relay`; Banked call to: osal_mem_free
   \   000165   12....       LCALL   ?Subroutine27 & 0xFFFF
   \                     ??CrossCallReturnLabel_36:
   \   000168   7401         MOV     A,#0x1
   \   00016A   12....       LCALL   ?DEALLOC_XSTACK8
   \   00016D   7F0B         MOV     R7,#0xb
   \   00016F   02....       LJMP    ?BANKED_LEAVE_XDATA
   1574          }

   \                                 In  segment BANKED_CODE, align 1, keep-with-next
   \                     ?Subroutine59:
   \   000000   F582         MOV     DPL,A
   \   000002   E4           CLR     A
   \   000003   3F           ADDC    A,R7
   \   000004   F583         MOV     DPH,A
   \   000006   12....       LCALL   ?Subroutine90 & 0xFFFF
   \                     ??CrossCallReturnLabel_146:
   \   000009   A3           INC     DPTR
   \   00000A   22           RET

   \                                 In  segment BANKED_CODE, align 1, keep-with-next
   \                     ?Subroutine76:
   \   000000   EE           MOV     A,R6
   \   000001   2414         ADD     A,#0x14
   \   000003   F582         MOV     DPL,A
   \   000005   E4           CLR     A
   \   000006   3F           ADDC    A,R7
   \   000007   F583         MOV     DPH,A
   \   000009   22           RET

   \                                 In  segment BANKED_CODE, align 1, keep-with-next
   \                     ?Subroutine24:
   \   000000   12....       LCALL   ?Subroutine91 & 0xFFFF
   \                     ??CrossCallReturnLabel_256:
   \   000003   22           RET

   \                                 In  segment BANKED_CODE, align 1, keep-with-next
   \                     ??Subroutine138_0:
   \   000000   F582         MOV     DPL,A
   \   000002   E4           CLR     A
   \   000003   3F           ADDC    A,R7
   \   000004   F583         MOV     DPH,A
   \   000006   E0           MOVX    A,@DPTR
   \   000007   22           RET
   1575          
   1576          /*********************************************************************
   1577           * @fn          ZDP_MgmtRtgRsp
   1578           *
   1579           * @brief       This builds and send a Mgmt_Rtg_rsp message. This
   1580           *              function sends a unicast message.
   1581           *
   1582           * @param       dstAddr - destination address of the message
   1583           * @param       Status - message status (ZDP_SUCCESS or other)
   1584           * @param       RoutingTableEntries - Total number of entries
   1585           * @param       StartIndex - Starting index within the reporting list
   1586           * @param       RoutingTableListCount - number of entries included
   1587           *                                      in this message
   1588           * @param       RoutingTableList - List of Routing Table entries
   1589           * @param       SecurityEnable - true to enable security for this message
   1590           *
   1591           * @return      ZStatus_t
   1592           */

   \                                 In  segment BANKED_CODE, align 1, keep-with-next
   1593          ZStatus_t ZDP_MgmtRtgRsp( byte TransSeq, zAddrType_t *dstAddr,
   \                     ZDP_MgmtRtgRsp:
   1594                                      byte Status,
   1595                                      byte RoutingTableEntries,
   1596                                      byte StartIndex,
   1597                                      byte RoutingListCount,
   1598                                      rtgItem_t *RoutingTableList,
   1599                                      byte SecurityEnable )
   1600          {
   \   000000                REQUIRE ?V0
   \   000000                REQUIRE ?V1
   \   000000                REQUIRE ?V2
   \   000000                REQUIRE ?V3
   \   000000                REQUIRE ?V4
   \   000000                REQUIRE ?V5
   \   000000                REQUIRE ?V6
   \   000000                REQUIRE ?V7
   \   000000                REQUIRE ?V8
   \   000000                REQUIRE ?V9
   \   000000   74EE         MOV     A,#-0x12
   \   000002   12....       LCALL   ?BANKED_ENTER_XDATA
   \   000005                ; Saved register size: 18
   \   000005                ; Auto size: 1
   \   000005   74FF         MOV     A,#-0x1
   \   000007   12....       LCALL   ?ALLOC_XSTACK8
   \   00000A   E9           MOV     A,R1
   \   00000B   85..82       MOV     DPL,?XSP + 0
   \   00000E   85..83       MOV     DPH,?XSP + 1
   \   000011   F0           MOVX    @DPTR,A
   \   000012   8A..         MOV     ?V2,R2
   \   000014   8B..         MOV     ?V3,R3
   \   000016   8C..         MOV     ?V1,R4
   \   000018   8D..         MOV     ?V0,R5
   \   00001A   7414         MOV     A,#0x14
   \   00001C   12....       LCALL   ?XSTACK_DISP0_8
   \   00001F   E0           MOVX    A,@DPTR
   \   000020   F5..         MOV     ?V4,A
   1601            uint8 *buf;
   1602            uint8 *pBuf;
   1603            // Status + RoutingTableEntries + StartIndex + RoutingListCount.
   1604            byte len = 1 + 1 + 1 + 1;
   1605            byte x;
   1606          
   1607            (void)SecurityEnable;  // Intentionally unreferenced parameter
   1608          
   1609            // Add an array for Routing List data
   1610            len += (RoutingListCount * ZDP_ROUTINGENTRY_SIZE);
   \   000022   75F005       MOV     B,#0x5
   \   000025   12....       LCALL   ?Subroutine68 & 0xFFFF
   1611          
   1612            buf = osal_mem_alloc( (short)(len+1) );
   \                     ??CrossCallReturnLabel_264:
   \   000028   12....       LCALL   `??osal_mem_alloc::?relay`; Banked call to: osal_mem_alloc
   \   00002B   8A..         MOV     ?V6,R2
   \   00002D   8B..         MOV     ?V7,R3
   \   00002F   AE..         MOV     R6,?V6
   \   000031   AF..         MOV     R7,?V7
   1613            if ( buf == NULL )
   \   000033   EE           MOV     A,R6
   \   000034   4F           ORL     A,R7
   \   000035   7005         JNZ     ??ZDP_MgmtRtgRsp_0
   1614            {
   1615              return afStatus_MEM_FAIL;
   \   000037   7910         MOV     R1,#0x10
   \   000039   02....       LJMP    ??ZDP_MgmtRtgRsp_1 & 0xFFFF
   1616            }
   1617          
   1618            pBuf = buf+1;
   \                     ??ZDP_MgmtRtgRsp_0:
   \   00003C   8E82         MOV     DPL,R6
   \   00003E   8F83         MOV     DPH,R7
   \   000040   A3           INC     DPTR
   \   000041   A882         MOV     R0,DPL
   \   000043   A983         MOV     R1,DPH
   1619          
   1620            *pBuf++ = Status;
   \   000045   E5..         MOV     A,?V1
   \   000047   F0           MOVX    @DPTR,A
   1621            *pBuf++ = RoutingTableEntries;
   \   000048   A3           INC     DPTR
   \   000049   E5..         MOV     A,?V0
   \   00004B   F0           MOVX    @DPTR,A
   1622            *pBuf++ = StartIndex;
   \   00004C   7413         MOV     A,#0x13
   \   00004E   12....       LCALL   ?XSTACK_DISP0_8
   \   000051   12....       LCALL   ??Subroutine130_0 & 0xFFFF
   \                     ??CrossCallReturnLabel_232:
   \   000054   12....       LCALL   ??Subroutine131_0 & 0xFFFF
   1623            *pBuf++ = RoutingListCount;
   \                     ??CrossCallReturnLabel_242:
   \   000057   E5..         MOV     A,?V4
   \   000059   F0           MOVX    @DPTR,A
   \   00005A   E8           MOV     A,R0
   \   00005B   2404         ADD     A,#0x4
   \   00005D   F8           MOV     R0,A
   \   00005E   5001         JNC     ??ZDP_MgmtRtgRsp_2
   \   000060   09           INC     R1
   1624          
   1625            for ( x = 0; x < RoutingListCount; x++ )
   \                     ??ZDP_MgmtRtgRsp_2:
   \   000061   7C00         MOV     R4,#0x0
   \   000063   7415         MOV     A,#0x15
   \   000065   12....       LCALL   ?XSTACK_DISP0_8
   \   000068   12....       LCALL   ??Subroutine127_0 & 0xFFFF
   \                     ??CrossCallReturnLabel_211:
   \   00006B   807C         SJMP    ??ZDP_MgmtRtgRsp_3
   1626            {
   1627              *pBuf++ = LO_UINT16( RoutingTableList->dstAddress );  // Destination Address
   \                     ??ZDP_MgmtRtgRsp_4:
   \   00006D   8A82         MOV     DPL,R2
   \   00006F   8B83         MOV     DPH,R3
   \   000071   12....       LCALL   ??Subroutine130_0 & 0xFFFF
   \                     ??CrossCallReturnLabel_233:
   \   000074   F0           MOVX    @DPTR,A
   1628              *pBuf++ = HI_UINT16( RoutingTableList->dstAddress );
   \   000075   8A82         MOV     DPL,R2
   \   000077   8B83         MOV     DPH,R3
   \   000079   12....       LCALL   ?Subroutine67 & 0xFFFF
   \                     ??CrossCallReturnLabel_235:
   \   00007C   12....       LCALL   ?Subroutine31 & 0xFFFF
   1629          
   1630              *pBuf = (RoutingTableList->status & 0x07);
   \                     ??CrossCallReturnLabel_42:
   \   00007F   E0           MOVX    A,@DPTR
   \   000080   5407         ANL     A,#0x7
   \   000082   8882         MOV     DPL,R0
   \   000084   8983         MOV     DPH,R1
   \   000086   A3           INC     DPTR
   \   000087   12....       LCALL   ?Subroutine31 & 0xFFFF
   1631              if ( RoutingTableList->options & (ZP_MTO_ROUTE_RC | ZP_MTO_ROUTE_NRC) )
   \                     ??CrossCallReturnLabel_43:
   \   00008A   A3           INC     DPTR
   \   00008B   E0           MOVX    A,@DPTR
   \   00008C   5418         ANL     A,#0x18
   \   00008E   602C         JZ      ??ZDP_MgmtRtgRsp_5
   1632              {
   1633                uint8 options = 0;
   1634                options |= ZDO_MGMT_RTG_ENTRY_MANYTOONE;
   \   000090   7D02         MOV     R5,#0x2
   1635          
   1636                if ( RoutingTableList->options & ZP_RTG_RECORD )
   \   000092   8A82         MOV     DPL,R2
   \   000094   8B83         MOV     DPH,R3
   \   000096   A3           INC     DPTR
   \   000097   A3           INC     DPTR
   \   000098   A3           INC     DPTR
   \   000099   A3           INC     DPTR
   \   00009A   A3           INC     DPTR
   \   00009B   A3           INC     DPTR
   \   00009C   E0           MOVX    A,@DPTR
   \   00009D   A2E2         MOV     C,0xE0 /* A   */.2
   \   00009F   5002         JNC     ??ZDP_MgmtRtgRsp_6
   1637                {
   1638                  options |= ZDO_MGMT_RTG_ENTRY_ROUTE_RECORD_REQUIRED;
   \   0000A1   7D06         MOV     R5,#0x6
   1639                }
   1640          
   1641                if ( RoutingTableList->options & ZP_MTO_ROUTE_NRC )
   \                     ??ZDP_MgmtRtgRsp_6:
   \   0000A3   A2E4         MOV     C,0xE0 /* A   */.4
   \   0000A5   5005         JNC     ??ZDP_MgmtRtgRsp_7
   1642                {
   1643                  options |= ZDO_MGMT_RTG_ENTRY_MEMORY_CONSTRAINED;
   \   0000A7   D3           SETB    C
   \   0000A8   ED           MOV     A,R5
   \   0000A9   D2E0         SETB    0xE0 /* A   */.0
   \   0000AB   FD           MOV     R5,A
   1644                }
   1645          
   1646                *pBuf |= (options << 3);
   \                     ??ZDP_MgmtRtgRsp_7:
   \   0000AC   ED           MOV     A,R5
   \   0000AD   33           RLC     A
   \   0000AE   33           RLC     A
   \   0000AF   33           RLC     A
   \   0000B0   54F8         ANL     A,#0xf8
   \   0000B2   FD           MOV     R5,A
   \   0000B3   8882         MOV     DPL,R0
   \   0000B5   8983         MOV     DPH,R1
   \   0000B7   A3           INC     DPTR
   \   0000B8   A3           INC     DPTR
   \   0000B9   E0           MOVX    A,@DPTR
   \   0000BA   4D           ORL     A,R5
   \   0000BB   F0           MOVX    @DPTR,A
   1647              }
   1648              pBuf++;
   1649          
   1650              *pBuf++ = LO_UINT16( RoutingTableList->nextHopAddress );  // Next hop
   \                     ??ZDP_MgmtRtgRsp_5:
   \   0000BC   EA           MOV     A,R2
   \   0000BD   2402         ADD     A,#0x2
   \   0000BF   F5..         MOV     ?V6,A
   \   0000C1   E4           CLR     A
   \   0000C2   3B           ADDC    A,R3
   \   0000C3   F5..         MOV     ?V7,A
   \   0000C5   85..82       MOV     DPL,?V6
   \   0000C8   F583         MOV     DPH,A
   \   0000CA   12....       LCALL   ?Subroutine66 & 0xFFFF
   \                     ??CrossCallReturnLabel_108:
   \   0000CD   F0           MOVX    @DPTR,A
   1651              *pBuf++ = HI_UINT16( RoutingTableList->nextHopAddress );
   \   0000CE   85..82       MOV     DPL,?V6
   \   0000D1   85..83       MOV     DPH,?V7
   \   0000D4   A3           INC     DPTR
   \   0000D5   12....       LCALL   ?Subroutine66 & 0xFFFF
   \                     ??CrossCallReturnLabel_109:
   \   0000D8   A3           INC     DPTR
   \   0000D9   F0           MOVX    @DPTR,A
   \   0000DA   E8           MOV     A,R0
   \   0000DB   2405         ADD     A,#0x5
   \   0000DD   F8           MOV     R0,A
   \   0000DE   5001         JNC     ??ZDP_MgmtRtgRsp_8
   \   0000E0   09           INC     R1
   1652              RoutingTableList++;    // Move to next list entry
   \                     ??ZDP_MgmtRtgRsp_8:
   \   0000E1   EA           MOV     A,R2
   \   0000E2   2407         ADD     A,#0x7
   \   0000E4   FA           MOV     R2,A
   \   0000E5   5001         JNC     ??ZDP_MgmtRtgRsp_9
   \   0000E7   0B           INC     R3
   1653            }
   \                     ??ZDP_MgmtRtgRsp_9:
   \   0000E8   0C           INC     R4
   \                     ??ZDP_MgmtRtgRsp_3:
   \   0000E9   EC           MOV     A,R4
   \   0000EA   C3           CLR     C
   \   0000EB   95..         SUBB    A,?V4
   \   0000ED   5003         JNC     $+5
   \   0000EF   02....       LJMP    ??ZDP_MgmtRtgRsp_4 & 0xFFFF
   1654          
   1655            FillAndSendBuffer( &TransSeq, dstAddr, Mgmt_Rtg_rsp, len, buf );
   \   0000F2   8E82         MOV     DPL,R6
   \   0000F4   8F83         MOV     DPH,R7
   \   0000F6   12....       LCALL   ??Subroutine128_0 & 0xFFFF
   \                     ??CrossCallReturnLabel_227:
   \   0000F9                ; Setup parameters for call to function fillAndSend
   \   0000F9   75..32       MOV     ?V6,#0x32
   \   0000FC   75..80       MOV     ?V7,#-0x80
   \   0000FF   78..         MOV     R0,#?V6
   \   000101   12....       LCALL   ?PUSH_XSTACK_I_TWO
   \   000104   A9..         MOV     R1,?V5
   \   000106   AC..         MOV     R4,?V2
   \   000108   AD..         MOV     R5,?V3
   \   00010A   7402         MOV     A,#0x2
   \   00010C   12....       LCALL   ?XSTACK_DISP101_8
   \   00010F   12....       LCALL   `??fillAndSend::?relay`; Banked call to: fillAndSend
   \   000112   7402         MOV     A,#0x2
   \   000114   12....       LCALL   ?DEALLOC_XSTACK8
   \   000117   E9           MOV     A,R1
   \   000118   F5..         MOV     ?V2,A
   \   00011A                ; Setup parameters for call to function osal_mem_free
   \   00011A   EE           MOV     A,R6
   \   00011B   FA           MOV     R2,A
   \   00011C   EF           MOV     A,R7
   \   00011D   FB           MOV     R3,A
   \   00011E   12....       LCALL   `??osal_mem_free::?relay`; Banked call to: osal_mem_free
   \   000121   90....       MOV     DPTR,#ZDP_TmpBuf
   \   000124   74..         MOV     A,#(ZDP_Buf + 1) & 0xff
   \   000126   F0           MOVX    @DPTR,A
   \   000127   A3           INC     DPTR
   \   000128   74..         MOV     A,#((ZDP_Buf + 1) >> 8) & 0xff
   \   00012A   F0           MOVX    @DPTR,A
   \   00012B   A9..         MOV     R1,?V2
   \                     ??ZDP_MgmtRtgRsp_1:
   \   00012D   02....       LJMP    ?Subroutine4 & 0xFFFF
   1656          }

   \                                 In  segment BANKED_CODE, align 1, keep-with-next
   \                     ?Subroutine66:
   \   000000   12....       LCALL   ?Subroutine84 & 0xFFFF
   \                     ??CrossCallReturnLabel_238:
   \   000003   A3           INC     DPTR
   \   000004   A3           INC     DPTR
   \   000005   A3           INC     DPTR
   \   000006   22           RET

   \                                 In  segment BANKED_CODE, align 1, keep-with-next
   \                     ?Subroutine31:
   \   000000   12....       LCALL   ?Subroutine98 & 0xFFFF
   \                     ??CrossCallReturnLabel_157:
   \   000003   A3           INC     DPTR
   \   000004   A3           INC     DPTR
   \   000005   22           RET

   \                                 In  segment BANKED_CODE, align 1, keep-with-next
   \                     ?Subroutine98:
   \   000000   A3           INC     DPTR
   \   000001   F0           MOVX    @DPTR,A
   \   000002   8A82         MOV     DPL,R2
   \   000004   8B83         MOV     DPH,R3
   \   000006   A3           INC     DPTR
   \   000007   A3           INC     DPTR
   \   000008   A3           INC     DPTR
   \   000009   22           RET
   1657          
   1658          /*********************************************************************
   1659           * @fn          ZDP_MgmtBindRsp
   1660           *
   1661           * @brief       This builds and send a Mgmt_Bind_rsp message. This
   1662           *              function sends a unicast message.
   1663           *
   1664           * @param       dstAddr - destination address of the message
   1665           * @param       Status - message status (ZDP_SUCCESS or other)
   1666           * @param       BindingTableEntries - Total number of entries
   1667           * @param       StartIndex - Starting index within the reporting list
   1668           * @param       BindingTableListCount - number of entries included
   1669           *                                 in this message
   1670           * @param       BindingTableList - List of Binding Table entries
   1671           * @param       SecurityEnable - Security Options
   1672           *
   1673           * @return      ZStatus_t
   1674           */

   \                                 In  segment BANKED_CODE, align 1, keep-with-next
   1675          ZStatus_t ZDP_MgmtBindRsp( byte TransSeq, zAddrType_t *dstAddr,
   \                     ZDP_MgmtBindRsp:
   1676                                      byte Status,
   1677                                      byte BindingTableEntries,
   1678                                      byte StartIndex,
   1679                                      byte BindingTableListCount,
   1680                                      apsBindingItem_t *BindingTableList,
   1681                                      byte SecurityEnable )
   1682          {
   \   000000                REQUIRE ?V0
   \   000000                REQUIRE ?V1
   \   000000                REQUIRE ?V2
   \   000000                REQUIRE ?V3
   \   000000                REQUIRE ?V4
   \   000000                REQUIRE ?V5
   \   000000                REQUIRE ?V6
   \   000000                REQUIRE ?V8
   \   000000                REQUIRE ?V9
   \   000000                REQUIRE ?V10
   \   000000                REQUIRE ?V11
   \   000000   74EC         MOV     A,#-0x14
   \   000002   12....       LCALL   ?BANKED_ENTER_XDATA
   \   000005                ; Saved register size: 20
   \   000005                ; Auto size: 1
   \   000005   74FF         MOV     A,#-0x1
   \   000007   12....       LCALL   ?ALLOC_XSTACK8
   \   00000A   E9           MOV     A,R1
   \   00000B   85..82       MOV     DPL,?XSP + 0
   \   00000E   85..83       MOV     DPH,?XSP + 1
   \   000011   F0           MOVX    @DPTR,A
   \   000012   8A..         MOV     ?V10,R2
   \   000014   8B..         MOV     ?V11,R3
   \   000016   8C..         MOV     ?V6,R4
   \   000018   8D..         MOV     ?V5,R5
   \   00001A   7416         MOV     A,#0x16
   \   00001C   12....       LCALL   ?XSTACK_DISP0_8
   \   00001F   E0           MOVX    A,@DPTR
   \   000020   F5..         MOV     ?V4,A
   1683            uint8 *buf;
   1684            uint8 *pBuf;
   1685            uint8 maxLen; // maxLen is the maximum packet length to allocate enough memory space
   1686            uint8 len;    // Actual length varies due to different addrMode
   1687            uint8 x;
   1688            byte extZdpBindEntrySize = ZDP_BINDINGENTRY_SIZE + 1 + 1; // One more byte for cluserID and DstAddrMode
   1689            byte shortZdpBindEntrySize = ZDP_BINDINGENTRY_SIZE + 1 + 1 + 2 - 8 - 1; // clusterID + DstAddrMode + shortAddr - ExtAddr - DstEndpoint
   1690          
   1691            (void)SecurityEnable;  // Intentionally unreferenced parameter
   1692          
   1693            // Status + BindingTableEntries + StartIndex + BindingTableListCount.
   1694            maxLen = 1 + 1 + 1 + 1;
   1695            maxLen += (BindingTableListCount * extZdpBindEntrySize );  //max length
   1696            buf = osal_mem_alloc( maxLen + 1 );  // +1 for transaction ID
   \   000022                ; Setup parameters for call to function osal_mem_alloc
   \   000022   75F015       MOV     B,#0x15
   \   000025   A4           MUL     AB
   \   000026   2404         ADD     A,#0x4
   \   000028   12....       LCALL   ??Subroutine136_0 & 0xFFFF
   \                     ??CrossCallReturnLabel_266:
   \   00002B   12....       LCALL   `??osal_mem_alloc::?relay`; Banked call to: osal_mem_alloc
   \   00002E   8A..         MOV     ?V2,R2
   \   000030   8B..         MOV     ?V3,R3
   1697          
   1698            if ( buf == NULL )
   \   000032   EA           MOV     A,R2
   \   000033   45..         ORL     A,?V3
   \   000035   7005         JNZ     ??ZDP_MgmtBindRsp_0
   1699            {
   1700              return afStatus_MEM_FAIL;
   \   000037   7910         MOV     R1,#0x10
   \   000039   02....       LJMP    ??CrossCallReturnLabel_37 & 0xFFFF
   1701            }
   1702          
   1703            pBuf = buf+1;
   \                     ??ZDP_MgmtBindRsp_0:
   \   00003C   8A82         MOV     DPL,R2
   \   00003E   8B83         MOV     DPH,R3
   \   000040   A3           INC     DPTR
   \   000041   AA82         MOV     R2,DPL
   \   000043   AB83         MOV     R3,DPH
   1704          
   1705            *pBuf++ = Status;
   \   000045   E5..         MOV     A,?V6
   \   000047   F0           MOVX    @DPTR,A
   1706            *pBuf++ = BindingTableEntries;
   \   000048   A3           INC     DPTR
   \   000049   E5..         MOV     A,?V5
   \   00004B   F0           MOVX    @DPTR,A
   1707            *pBuf++ = StartIndex;
   \   00004C   7415         MOV     A,#0x15
   \   00004E   12....       LCALL   ?XSTACK_DISP0_8
   \   000051   12....       LCALL   ?Subroutine60 & 0xFFFF
   \                     ??CrossCallReturnLabel_93:
   \   000054   12....       LCALL   ?Subroutine98 & 0xFFFF
   1708            *pBuf++ = BindingTableListCount;
   \                     ??CrossCallReturnLabel_158:
   \   000057   E5..         MOV     A,?V4
   \   000059   F0           MOVX    @DPTR,A
   \   00005A   EA           MOV     A,R2
   \   00005B   2404         ADD     A,#0x4
   \   00005D   FA           MOV     R2,A
   \   00005E   5001         JNC     ??ZDP_MgmtBindRsp_1
   \   000060   0B           INC     R3
   1709          
   1710            // Initial length = Status + BindingTableEntries + StartIndex + BindingTableListCount.
   1711            // length += ZDP_BINDINGENTRY_SIZE   -- Version 1.0
   1712            //           extZdpBindEntrySize     -- Version 1.1 extended address mode
   1713            //           shortZdpBindEntrySize   -- Version 1.1 group address mode
   1714          
   1715            len = 1 + 1 + 1 + 1;
   \                     ??ZDP_MgmtBindRsp_1:
   \   000061   75..04       MOV     ?V0,#0x4
   1716            for ( x = 0; x < BindingTableListCount; x++ )
   \   000064   75..00       MOV     ?V1,#0x0
   \   000067   7417         MOV     A,#0x17
   \   000069   12....       LCALL   ?XSTACK_DISP0_8
   \   00006C   12....       LCALL   ?Subroutine54 & 0xFFFF
   \                     ??CrossCallReturnLabel_81:
   \   00006F   801C         SJMP    ??ZDP_MgmtBindRsp_2
   1717            {
   1718              pBuf = osal_cpyExtAddr( pBuf, BindingTableList->srcAddr );
   1719              *pBuf++ = BindingTableList->srcEP;
   1720          
   1721              // Cluster ID
   1722              *pBuf++ = LO_UINT16( BindingTableList->clusterID );
   1723              *pBuf++ = HI_UINT16( BindingTableList->clusterID );
   1724          
   1725              *pBuf++ = BindingTableList->dstAddr.addrMode;
   1726              if ( BindingTableList->dstAddr.addrMode == Addr64Bit )
   1727              {
   1728                len += extZdpBindEntrySize;
   1729                pBuf = osal_cpyExtAddr( pBuf, BindingTableList->dstAddr.addr.extAddr );
   1730                *pBuf++ = BindingTableList->dstEP;
   1731              }
   1732              else
   1733              {
   1734                len += shortZdpBindEntrySize;
   \                     ??ZDP_MgmtBindRsp_3:
   \   000071   740E         MOV     A,#0xe
   \   000073   25..         ADD     A,?V0
   \   000075   F5..         MOV     ?V0,A
   1735                *pBuf++ = LO_UINT16( BindingTableList->dstAddr.addr.shortAddr );
   \   000077   EE           MOV     A,R6
   \   000078   240B         ADD     A,#0xb
   \   00007A   F8           MOV     R0,A
   \   00007B   E4           CLR     A
   \   00007C   3F           ADDC    A,R7
   \   00007D   F9           MOV     R1,A
   \   00007E   12....       LCALL   ?Subroutine12 & 0xFFFF
   1736                *pBuf++ = HI_UINT16( BindingTableList->dstAddr.addr.shortAddr );
   1737              }
   \                     ??CrossCallReturnLabel_7:
   \   000081   5001         JNC     ??ZDP_MgmtBindRsp_4
   \   000083   0B           INC     R3
   1738              BindingTableList++;    // Move to next list entry
   \                     ??ZDP_MgmtBindRsp_4:
   \   000084   EE           MOV     A,R6
   \   000085   2415         ADD     A,#0x15
   \   000087   FE           MOV     R6,A
   \   000088   5001         JNC     ??ZDP_MgmtBindRsp_5
   \   00008A   0F           INC     R7
   \                     ??ZDP_MgmtBindRsp_5:
   \   00008B   05..         INC     ?V1
   \                     ??ZDP_MgmtBindRsp_2:
   \   00008D   E5..         MOV     A,?V1
   \   00008F   C3           CLR     C
   \   000090   95..         SUBB    A,?V4
   \   000092   5055         JNC     ??ZDP_MgmtBindRsp_6
   \   000094                ; Setup parameters for call to function sAddrExtCpy
   \   000094   EE           MOV     A,R6
   \   000095   FC           MOV     R4,A
   \   000096   EF           MOV     A,R7
   \   000097   FD           MOV     R5,A
   \   000098   12....       LCALL   `??sAddrExtCpy::?relay`; Banked call to: sAddrExtCpy
   \   00009B   8E82         MOV     DPL,R6
   \   00009D   8F83         MOV     DPH,R7
   \   00009F   A3           INC     DPTR
   \   0000A0   A3           INC     DPTR
   \   0000A1   A3           INC     DPTR
   \   0000A2   A3           INC     DPTR
   \   0000A3   A3           INC     DPTR
   \   0000A4   A3           INC     DPTR
   \   0000A5   A3           INC     DPTR
   \   0000A6   A3           INC     DPTR
   \   0000A7   12....       LCALL   ?Subroutine61 & 0xFFFF
   \                     ??CrossCallReturnLabel_98:
   \   0000AA   12....       LCALL   ?Subroutine39 & 0xFFFF
   \                     ??CrossCallReturnLabel_56:
   \   0000AD   8882         MOV     DPL,R0
   \   0000AF   8983         MOV     DPH,R1
   \   0000B1   12....       LCALL   ?Subroutine60 & 0xFFFF
   \                     ??CrossCallReturnLabel_94:
   \   0000B4   12....       LCALL   ?Subroutine24 & 0xFFFF
   \                     ??CrossCallReturnLabel_30:
   \   0000B7   A3           INC     DPTR
   \   0000B8   F0           MOVX    @DPTR,A
   \   0000B9   EE           MOV     A,R6
   \   0000BA   2413         ADD     A,#0x13
   \   0000BC   F8           MOV     R0,A
   \   0000BD   E4           CLR     A
   \   0000BE   3F           ADDC    A,R7
   \   0000BF   12....       LCALL   ?Subroutine49 & 0xFFFF
   \                     ??CrossCallReturnLabel_71:
   \   0000C2   5001         JNC     ??ZDP_MgmtBindRsp_7
   \   0000C4   0B           INC     R3
   \                     ??ZDP_MgmtBindRsp_7:
   \   0000C5   8882         MOV     DPL,R0
   \   0000C7   8983         MOV     DPH,R1
   \   0000C9   E0           MOVX    A,@DPTR
   \   0000CA   6403         XRL     A,#0x3
   \   0000CC   70A3         JNZ     ??ZDP_MgmtBindRsp_3
   \   0000CE   7415         MOV     A,#0x15
   \   0000D0   25..         ADD     A,?V0
   \   0000D2   F5..         MOV     ?V0,A
   \   0000D4                ; Setup parameters for call to function sAddrExtCpy
   \   0000D4   EE           MOV     A,R6
   \   0000D5   240B         ADD     A,#0xb
   \   0000D7   FC           MOV     R4,A
   \   0000D8   E4           CLR     A
   \   0000D9   3F           ADDC    A,R7
   \   0000DA   FD           MOV     R5,A
   \   0000DB   12....       LCALL   `??sAddrExtCpy::?relay`; Banked call to: sAddrExtCpy
   \   0000DE   12....       LCALL   ?Subroutine76 & 0xFFFF
   1739            }
   \                     ??CrossCallReturnLabel_120:
   \   0000E1   12....       LCALL   ?Subroutine61 & 0xFFFF
   \                     ??CrossCallReturnLabel_99:
   \   0000E4   12....       LCALL   ?Subroutine34 & 0xFFFF
   \                     ??CrossCallReturnLabel_47:
   \   0000E7   809B         SJMP    ??ZDP_MgmtBindRsp_4
   1740          
   1741            FillAndSendBuffer( &TransSeq, dstAddr, Mgmt_Bind_rsp, len, buf );
   \                     ??ZDP_MgmtBindRsp_6:
   \   0000E9   12....       LCALL   ?Subroutine17 & 0xFFFF
   \                     ??CrossCallReturnLabel_230:
   \   0000EC                ; Setup parameters for call to function fillAndSend
   \   0000EC   75..33       MOV     ?V8,#0x33
   \   0000EF   75..80       MOV     ?V9,#-0x80
   \   0000F2   78..         MOV     R0,#?V8
   \   0000F4   12....       LCALL   ?PUSH_XSTACK_I_TWO
   \   0000F7   A9..         MOV     R1,?V0
   \   0000F9   AC..         MOV     R4,?V10
   \   0000FB   AD..         MOV     R5,?V11
   \   0000FD   7402         MOV     A,#0x2
   \   0000FF   12....       LCALL   ?XSTACK_DISP101_8
   \   000102   12....       LCALL   `??fillAndSend::?relay`; Banked call to: fillAndSend
   \   000105   7402         MOV     A,#0x2
   \   000107   12....       LCALL   ?DEALLOC_XSTACK8
   \   00010A   E9           MOV     A,R1
   \   00010B   FE           MOV     R6,A
   \   00010C                ; Setup parameters for call to function osal_mem_free
   \   00010C   AA..         MOV     R2,?V2
   \   00010E   AB..         MOV     R3,?V3
   \   000110   12....       LCALL   `??osal_mem_free::?relay`; Banked call to: osal_mem_free
   \   000113   12....       LCALL   ?Subroutine27 & 0xFFFF
   \                     ??CrossCallReturnLabel_37:
   \   000116   02....       LJMP    ?Subroutine7 & 0xFFFF
   1742          }
   1743          
   1744          /*********************************************************************
   1745           * @fn          ZDP_MgmtNwkUpdateNotify
   1746           *
   1747           * @brief       This builds and send a Mgmt_NWK_Update_notify message. This
   1748           *              function sends a unicast message.
   1749           *
   1750           * @param       dstAddr - destination address of the message
   1751           * @param       status - message status (ZDP_SUCCESS or other)
   1752           * @param       scannedChannels - List of channels scanned by the request
   1753           * @param       totalTransmissions - Total transmissions
   1754           * @param       transmissionFailures - Sum of transmission failures
   1755           * @param       listCount - Number of records contained in the energyValues list
   1756           * @param       energyValues - List of descriptors, one for each of ListCount,
   1757           *                             of the enegry detect descriptors
   1758           * @param       txOptions - Transmit options
   1759           * @param       securityEnable - Security options
   1760           *
   1761           * @return      afStatus_t
   1762           */

   \                                 In  segment BANKED_CODE, align 1, keep-with-next
   1763          afStatus_t ZDP_MgmtNwkUpdateNotify( uint8 TransSeq, zAddrType_t *dstAddr,
   \                     ZDP_MgmtNwkUpdateNotify:
   1764                                              uint8 status, uint32 scannedChannels,
   1765                                              uint16 totalTransmissions, uint16 transmissionFailures,
   1766                                              uint8 listCount, uint8 *energyValues, uint8 txOptions,
   1767                                              uint8 securityEnable )
   1768          {
   \   000000                REQUIRE ?V0
   \   000000                REQUIRE ?V1
   \   000000                REQUIRE ?V2
   \   000000                REQUIRE ?V4
   \   000000                REQUIRE ?V5
   \   000000                REQUIRE ?V6
   \   000000                REQUIRE ?V8
   \   000000                REQUIRE ?V9
   \   000000   74EE         MOV     A,#-0x12
   \   000002   12....       LCALL   ?BANKED_ENTER_XDATA
   \   000005                ; Saved register size: 18
   \   000005                ; Auto size: 1
   \   000005   74FF         MOV     A,#-0x1
   \   000007   12....       LCALL   ?ALLOC_XSTACK8
   \   00000A   E9           MOV     A,R1
   \   00000B   85..82       MOV     DPL,?XSP + 0
   \   00000E   85..83       MOV     DPH,?XSP + 1
   \   000011   F0           MOVX    @DPTR,A
   \   000012   8A..         MOV     ?V8,R2
   \   000014   8B..         MOV     ?V9,R3
   \   000016   8C..         MOV     ?V2,R4
   \   000018   8D..         MOV     ?V0,R5
   1769            uint8 *buf;
   1770            uint8 *pBuf;
   1771            uint8 len;
   1772          
   1773            (void)securityEnable;  // Intentionally unreferenced parameter
   1774          
   1775            // Status + ScannedChannels + totalTransmissions + transmissionFailures + ListCount + energyValues
   1776            len = 1 + 4 + 2 + 2 + 1 + listCount;
   \   00001A   740A         MOV     A,#0xa
   \   00001C   2D           ADD     A,R5
   \   00001D   F5..         MOV     ?V1,A
   1777          
   1778            buf = osal_mem_alloc( len+1 ); // +1 for transaction ID
   \   00001F                ; Setup parameters for call to function osal_mem_alloc
   \   00001F   12....       LCALL   ??Subroutine136_0 & 0xFFFF
   \                     ??CrossCallReturnLabel_267:
   \   000022   12....       LCALL   `??osal_mem_alloc::?relay`; Banked call to: osal_mem_alloc
   \   000025   8A..         MOV     ?V4,R2
   \   000027   8B..         MOV     ?V5,R3
   \   000029   AE..         MOV     R6,?V4
   \   00002B   AF..         MOV     R7,?V5
   1779            if ( buf == NULL )
   \   00002D   EE           MOV     A,R6
   \   00002E   4F           ORL     A,R7
   \   00002F   7005         JNZ     ??ZDP_MgmtNwkUpdateNotify_0
   1780            {
   1781              return afStatus_MEM_FAIL;
   \   000031   7910         MOV     R1,#0x10
   \   000033   02....       LJMP    ??ZDP_MgmtNwkUpdateNotify_1 & 0xFFFF
   1782            }
   1783          
   1784            pBuf = buf+1;
   \                     ??ZDP_MgmtNwkUpdateNotify_0:
   \   000036   8E82         MOV     DPL,R6
   \   000038   8F83         MOV     DPH,R7
   \   00003A   A3           INC     DPTR
   1785          
   1786            *pBuf++ = status;
   \   00003B   E5..         MOV     A,?V2
   \   00003D   12....       LCALL   ?Subroutine34 & 0xFFFF
   1787          
   1788            pBuf = osal_buffer_uint32( pBuf, scannedChannels );
   \                     ??CrossCallReturnLabel_48:
   \   000040                ; Setup parameters for call to function osal_buffer_uint32
   \   000040   7413         MOV     A,#0x13
   \   000042   12....       LCALL   ?XSTACK_DISP0_8
   \   000045   12....       LCALL   ?PUSH_XSTACK8_X_FOUR
   \   000048   12....       LCALL   `??osal_buffer_uint32::?relay`; Banked call to: osal_buffer_uint32
   \   00004B   7404         MOV     A,#0x4
   \   00004D   12....       LCALL   ?DEALLOC_XSTACK8
   \   000050   7417         MOV     A,#0x17
   \   000052   12....       LCALL   ?XSTACK_DISP0_8
   \   000055   12....       LCALL   ??Subroutine137_0 & 0xFFFF
   1789          
   1790            *pBuf++ = LO_UINT16( totalTransmissions );
   \                     ??CrossCallReturnLabel_269:
   \   000058   8A82         MOV     DPL,R2
   \   00005A   8B83         MOV     DPH,R3
   \   00005C   F0           MOVX    @DPTR,A
   1791            *pBuf++ = HI_UINT16( totalTransmissions );
   \   00005D   E9           MOV     A,R1
   \   00005E   A3           INC     DPTR
   \   00005F   F0           MOVX    @DPTR,A
   \   000060   7419         MOV     A,#0x19
   \   000062   12....       LCALL   ?XSTACK_DISP0_8
   \   000065   12....       LCALL   ?Subroutine30 & 0xFFFF
   1792          
   1793            *pBuf++ = LO_UINT16( transmissionFailures );
   1794            *pBuf++ = HI_UINT16( transmissionFailures );
   1795          
   1796            *pBuf++ = listCount;
   \                     ??CrossCallReturnLabel_41:
   \   000068   8A82         MOV     DPL,R2
   \   00006A   8B83         MOV     DPH,R3
   \   00006C   A3           INC     DPTR
   \   00006D   A3           INC     DPTR
   \   00006E   A3           INC     DPTR
   \   00006F   A3           INC     DPTR
   \   000070   E5..         MOV     A,?V0
   \   000072   F0           MOVX    @DPTR,A
   1797          
   1798            if ( listCount > 0 )
   \   000073   601E         JZ      ??ZDP_MgmtNwkUpdateNotify_2
   1799              osal_memcpy( pBuf, energyValues, listCount );
   \   000075                ; Setup parameters for call to function osal_memcpy
   \   000075   741B         MOV     A,#0x1b
   \   000077   12....       LCALL   ?XSTACK_DISP0_8
   \   00007A   12....       LCALL   ?Subroutine51 & 0xFFFF
   \                     ??CrossCallReturnLabel_73:
   \   00007D   12....       LCALL   ?PUSH_XSTACK_I_THREE
   \   000080   AC..         MOV     R4,?V0
   \   000082   7D00         MOV     R5,#0x0
   \   000084   EA           MOV     A,R2
   \   000085   2405         ADD     A,#0x5
   \   000087   FA           MOV     R2,A
   \   000088   5001         JNC     ??ZDP_MgmtNwkUpdateNotify_3
   \   00008A   0B           INC     R3
   \                     ??ZDP_MgmtNwkUpdateNotify_3:
   \   00008B   12....       LCALL   `??osal_memcpy::?relay`; Banked call to: osal_memcpy
   \   00008E   7403         MOV     A,#0x3
   \   000090   12....       LCALL   ?DEALLOC_XSTACK8
   1800          
   1801            FillAndSendBufferTxOptions( &TransSeq, dstAddr, Mgmt_NWK_Update_notify, len, buf, txOptions );
   \                     ??ZDP_MgmtNwkUpdateNotify_2:
   \   000093   8E82         MOV     DPL,R6
   \   000095   8F83         MOV     DPH,R7
   \   000097   12....       LCALL   ??Subroutine128_0 & 0xFFFF
   \                     ??CrossCallReturnLabel_228:
   \   00009A   741D         MOV     A,#0x1d
   \   00009C   12....       LCALL   ?XSTACK_DISP0_8
   \   00009F   E0           MOVX    A,@DPTR
   \   0000A0   90....       MOV     DPTR,#ZDP_TxOptions
   \   0000A3   F0           MOVX    @DPTR,A
   \   0000A4                ; Setup parameters for call to function fillAndSend
   \   0000A4   75..38       MOV     ?V4,#0x38
   \   0000A7   75..80       MOV     ?V5,#-0x80
   \   0000AA   78..         MOV     R0,#?V4
   \   0000AC   12....       LCALL   ?PUSH_XSTACK_I_TWO
   \   0000AF   A9..         MOV     R1,?V1
   \   0000B1   AC..         MOV     R4,?V8
   \   0000B3   AD..         MOV     R5,?V9
   \   0000B5   7402         MOV     A,#0x2
   \   0000B7   12....       LCALL   ?XSTACK_DISP101_8
   \   0000BA   12....       LCALL   `??fillAndSend::?relay`; Banked call to: fillAndSend
   \   0000BD   7402         MOV     A,#0x2
   \   0000BF   12....       LCALL   ?DEALLOC_XSTACK8
   \   0000C2   E9           MOV     A,R1
   \   0000C3   F5..         MOV     ?V1,A
   \   0000C5                ; Setup parameters for call to function osal_mem_free
   \   0000C5   EE           MOV     A,R6
   \   0000C6   FA           MOV     R2,A
   \   0000C7   EF           MOV     A,R7
   \   0000C8   FB           MOV     R3,A
   \   0000C9   12....       LCALL   `??osal_mem_free::?relay`; Banked call to: osal_mem_free
   \   0000CC   90....       MOV     DPTR,#ZDP_TmpBuf
   \   0000CF   74..         MOV     A,#(ZDP_Buf + 1) & 0xff
   \   0000D1   F0           MOVX    @DPTR,A
   \   0000D2   A3           INC     DPTR
   \   0000D3   74..         MOV     A,#((ZDP_Buf + 1) >> 8) & 0xff
   \   0000D5   F0           MOVX    @DPTR,A
   \   0000D6   90....       MOV     DPTR,#ZDP_TxOptions
   \   0000D9   E4           CLR     A
   \   0000DA   F0           MOVX    @DPTR,A
   \   0000DB   A9..         MOV     R1,?V1
   \                     ??ZDP_MgmtNwkUpdateNotify_1:
   \   0000DD                REQUIRE ?Subroutine4
   \   0000DD                ; // Fall through to label ?Subroutine4
   1802          }
   1803          
   1804          /*********************************************************************
   1805           * Functions to register for ZDO Over-the-air messages
   1806           */
   1807          
   1808          /*********************************************************************
   1809           * @fn          ZDO_RegisterForZDOMsg
   1810           *
   1811           * @brief       Call this function to register of an incoming over
   1812           *              the air ZDO message - probably a response message
   1813           *              but requests can also be received.
   1814           *              Messages are delivered to the task with ZDO_CB_MSG
   1815           *              as the message ID.
   1816           *
   1817           * @param       taskID - Where you would like the message delivered
   1818           * @param       clusterID - What message?
   1819           *                          ZDO_ALL_MSGS_CLUSTERID - all responses
   1820           *                          and device announce
   1821           *
   1822           * @return      ZSuccess - successful, ZMemError if not
   1823           */

   \                                 In  segment BANKED_CODE, align 1, keep-with-next
   1824          ZStatus_t ZDO_RegisterForZDOMsg( uint8 taskID, uint16 clusterID )
   \                     ZDO_RegisterForZDOMsg:
   1825          {
   \   000000                REQUIRE ?V0
   \   000000                REQUIRE ?V1
   \   000000                REQUIRE ?V2
   \   000000                REQUIRE ?V4
   \   000000                REQUIRE ?V5
   \   000000   74F2         MOV     A,#-0xe
   \   000002   12....       LCALL   ?BANKED_ENTER_XDATA
   \   000005                ; Saved register size: 14
   \   000005                ; Auto size: 0
   \   000005   89..         MOV     ?V2,R1
   \   000007   8A..         MOV     ?V0,R2
   \   000009   8B..         MOV     ?V1,R3
   1826            ZDO_MsgCB_t *pList;
   1827            ZDO_MsgCB_t *pLast;
   1828            ZDO_MsgCB_t *pNew;
   1829          
   1830            // Look for duplicate
   1831            pList = pLast = zdoMsgCBs;
   \   00000B   90....       MOV     DPTR,#zdoMsgCBs
   \   00000E   12....       LCALL   ?Subroutine54 & 0xFFFF
   \                     ??CrossCallReturnLabel_82:
   \   000011   EE           MOV     A,R6
   \   000012   F8           MOV     R0,A
   \   000013   EF           MOV     A,R7
   \   000014   8028         SJMP    ??CrossCallReturnLabel_299
   1832            while ( pList )
   1833            {
   1834              if ( pList->taskID == taskID && pList->clusterID == clusterID )
   \                     ??ZDO_RegisterForZDOMsg_0:
   \   000016   8882         MOV     DPL,R0
   \   000018   8983         MOV     DPH,R1
   \   00001A   A3           INC     DPTR
   \   00001B   A3           INC     DPTR
   \   00001C   E0           MOVX    A,@DPTR
   \   00001D   65..         XRL     A,?V2
   \   00001F   7012         JNZ     ??ZDO_RegisterForZDOMsg_1
   \   000021   8882         MOV     DPL,R0
   \   000023   8983         MOV     DPH,R1
   \   000025   A3           INC     DPTR
   \   000026   A3           INC     DPTR
   \   000027   A3           INC     DPTR
   \   000028   E0           MOVX    A,@DPTR
   \   000029   65..         XRL     A,?V0
   \   00002B   7004         JNZ     ??ZDO_RegisterForZDOMsg_2
   \   00002D   A3           INC     DPTR
   \   00002E   E0           MOVX    A,@DPTR
   \   00002F   65..         XRL     A,?V1
   \                     ??ZDO_RegisterForZDOMsg_2:
   \   000031   6051         JZ      ??CrossCallReturnLabel_221
   1835                return ( ZSuccess );
   1836              pLast = pList;
   \                     ??ZDO_RegisterForZDOMsg_1:
   \   000033   E8           MOV     A,R0
   \   000034   FE           MOV     R6,A
   \   000035   E9           MOV     A,R1
   \   000036   FF           MOV     R7,A
   1837              pList = (ZDO_MsgCB_t *)pList->next;
   \   000037   8882         MOV     DPL,R0
   \   000039   8983         MOV     DPH,R1
   \   00003B   12....       LCALL   ??Subroutine141_0 & 0xFFFF
   1838            }
   \                     ??CrossCallReturnLabel_299:
   \   00003E   F9           MOV     R1,A
   \   00003F   E8           MOV     A,R0
   \   000040   49           ORL     A,R1
   \   000041   70D3         JNZ     ??ZDO_RegisterForZDOMsg_0
   1839          
   1840            // Add to the list
   1841            pNew = (ZDO_MsgCB_t *)osal_mem_alloc( sizeof ( ZDO_MsgCB_t ) );
   \   000043                ; Setup parameters for call to function osal_mem_alloc
   \   000043   7A05         MOV     R2,#0x5
   \   000045   7B00         MOV     R3,#0x0
   \   000047   12....       LCALL   `??osal_mem_alloc::?relay`; Banked call to: osal_mem_alloc
   \   00004A   8A..         MOV     ?V4,R2
   \   00004C   8B..         MOV     ?V5,R3
   \   00004E   A8..         MOV     R0,?V4
   \   000050   A9..         MOV     R1,?V5
   1842            if ( pNew )
   \   000052   E8           MOV     A,R0
   \   000053   49           ORL     A,R1
   \   000054   6032         JZ      ??ZDO_RegisterForZDOMsg_3
   1843            {
   1844              pNew->taskID = taskID;
   \   000056   8882         MOV     DPL,R0
   \   000058   8983         MOV     DPH,R1
   \   00005A   A3           INC     DPTR
   \   00005B   A3           INC     DPTR
   \   00005C   E5..         MOV     A,?V2
   \   00005E   12....       LCALL   ??Subroutine132_0 & 0xFFFF
   1845              pNew->clusterID = clusterID;
   \                     ??CrossCallReturnLabel_243:
   \   000061   E5..         MOV     A,?V0
   \   000063   F0           MOVX    @DPTR,A
   \   000064   A3           INC     DPTR
   \   000065   E5..         MOV     A,?V1
   \   000067   12....       LCALL   ?Subroutine107 & 0xFFFF
   1846              pNew->next = NULL;
   \                     ??CrossCallReturnLabel_255:
   \   00006A   E4           CLR     A
   \   00006B   F0           MOVX    @DPTR,A
   \   00006C   A3           INC     DPTR
   \   00006D   F0           MOVX    @DPTR,A
   1847              if ( zdoMsgCBs )
   \   00006E   90....       MOV     DPTR,#zdoMsgCBs
   \   000071   12....       LCALL   ??Subroutine127_0 & 0xFFFF
   \                     ??CrossCallReturnLabel_212:
   \   000074   EA           MOV     A,R2
   \   000075   4B           ORL     A,R3
   \   000076   6006         JZ      ??ZDO_RegisterForZDOMsg_4
   1848              {
   1849                pLast->next = pNew;
   \   000078   8E82         MOV     DPL,R6
   \   00007A   8F83         MOV     DPH,R7
   \   00007C   8003         SJMP    ??ZDO_RegisterForZDOMsg_5
   1850              }
   1851              else
   1852                zdoMsgCBs = pNew;
   \                     ??ZDO_RegisterForZDOMsg_4:
   \   00007E   90....       MOV     DPTR,#zdoMsgCBs
   \                     ??ZDO_RegisterForZDOMsg_5:
   \   000081   12....       LCALL   ??Subroutine129_0 & 0xFFFF
   1853              return ( ZSuccess );
   \                     ??CrossCallReturnLabel_221:
   \   000084   7900         MOV     R1,#0x0
   \   000086   8002         SJMP    ??ZDO_RegisterForZDOMsg_6
   1854            }
   1855            else
   1856              return ( ZMemError );
   \                     ??ZDO_RegisterForZDOMsg_3:
   \   000088   7910         MOV     R1,#0x10
   \                     ??ZDO_RegisterForZDOMsg_6:
   \   00008A   02....       LJMP    ??Subroutine114_0 & 0xFFFF
   1857          }
   1858          
   1859          /*********************************************************************
   1860           * @fn          ZDO_RemoveRegisteredCB
   1861           *
   1862           * @brief       Call this function if you don't want to receive the
   1863           *              incoming message.
   1864           *
   1865           * @param       taskID - Where the messages are being delivered.
   1866           * @param       clusterID - What message?
   1867           *
   1868           * @return      ZSuccess - successful, ZFailure if not found
   1869           */

   \                                 In  segment BANKED_CODE, align 1, keep-with-next
   1870          ZStatus_t ZDO_RemoveRegisteredCB( uint8 taskID, uint16 clusterID )
   \                     ZDO_RemoveRegisteredCB:
   1871          {
   \   000000   74F7         MOV     A,#-0x9
   \   000002   12....       LCALL   ?BANKED_ENTER_XDATA
   \   000005                ; Saved register size: 9
   \   000005                ; Auto size: 0
   \   000005   E9           MOV     A,R1
   \   000006   FE           MOV     R6,A
   \   000007   EA           MOV     A,R2
   \   000008   FC           MOV     R4,A
   \   000009   EB           MOV     A,R3
   \   00000A   FD           MOV     R5,A
   1872            ZDO_MsgCB_t *pList;
   1873            ZDO_MsgCB_t *pLast = NULL;
   \   00000B   7800         MOV     R0,#0x0
   \   00000D   7900         MOV     R1,#0x0
   1874          
   1875            pList = zdoMsgCBs;
   \   00000F   90....       MOV     DPTR,#zdoMsgCBs
   \   000012   8008         SJMP    ??ZDO_RemoveRegisteredCB_0
   1876            while ( pList )
   1877            {
   1878              if ( pList->taskID == taskID && pList->clusterID == clusterID )
   1879              {
   1880                if ( pLast )
   1881                {
   1882                  // remove this one from the linked list
   1883                  pLast->next = pList->next;
   1884                }
   1885                else if ( pList->next )
   1886                {
   1887                  // remove the first one from the linked list
   1888                  zdoMsgCBs = pList->next;
   1889                }
   1890                else
   1891                {
   1892                  // remove the only item from the list
   1893                  zdoMsgCBs = (ZDO_MsgCB_t *)NULL;
   1894                }
   1895                osal_mem_free( pList );
   1896                return ( ZSuccess );
   1897              }
   1898              pLast = pList;
   \                     ??ZDO_RemoveRegisteredCB_1:
   \   000014   EA           MOV     A,R2
   \   000015   F8           MOV     R0,A
   \   000016   EB           MOV     A,R3
   \   000017   F9           MOV     R1,A
   1899              pList = pList->next;
   \   000018   8A82         MOV     DPL,R2
   \   00001A   8B83         MOV     DPH,R3
   \                     ??ZDO_RemoveRegisteredCB_0:
   \   00001C   12....       LCALL   ??Subroutine127_0 & 0xFFFF
   \                     ??CrossCallReturnLabel_213:
   \   00001F   EA           MOV     A,R2
   \   000020   4B           ORL     A,R3
   \   000021   6048         JZ      ??ZDO_RemoveRegisteredCB_2
   \   000023   8A82         MOV     DPL,R2
   \   000025   8B83         MOV     DPH,R3
   \   000027   A3           INC     DPTR
   \   000028   A3           INC     DPTR
   \   000029   E0           MOVX    A,@DPTR
   \   00002A   6E           XRL     A,R6
   \   00002B   70E7         JNZ     ??ZDO_RemoveRegisteredCB_1
   \   00002D   8A82         MOV     DPL,R2
   \   00002F   8B83         MOV     DPH,R3
   \   000031   A3           INC     DPTR
   \   000032   A3           INC     DPTR
   \   000033   A3           INC     DPTR
   \   000034   E0           MOVX    A,@DPTR
   \   000035   6C           XRL     A,R4
   \   000036   7003         JNZ     ??ZDO_RemoveRegisteredCB_3
   \   000038   A3           INC     DPTR
   \   000039   E0           MOVX    A,@DPTR
   \   00003A   6D           XRL     A,R5
   \                     ??ZDO_RemoveRegisteredCB_3:
   \   00003B   70D7         JNZ     ??ZDO_RemoveRegisteredCB_1
   \   00003D   E8           MOV     A,R0
   \   00003E   49           ORL     A,R1
   \   00003F   8A82         MOV     DPL,R2
   \   000041   8B83         MOV     DPH,R3
   \   000043   600D         JZ      ??ZDO_RemoveRegisteredCB_4
   \   000045   12....       LCALL   ?Subroutine83 & 0xFFFF
   \                     ??CrossCallReturnLabel_133:
   \   000048   8882         MOV     DPL,R0
   \   00004A   8983         MOV     DPH,R1
   \   00004C   EC           MOV     A,R4
   \   00004D   F0           MOVX    @DPTR,A
   \   00004E   A3           INC     DPTR
   \   00004F   ED           MOV     A,R5
   \   000050   8011         SJMP    ??ZDO_RemoveRegisteredCB_5
   \                     ??ZDO_RemoveRegisteredCB_4:
   \   000052   12....       LCALL   ??Subroutine119_0 & 0xFFFF
   \                     ??CrossCallReturnLabel_173:
   \   000055   90....       MOV     DPTR,#zdoMsgCBs
   \   000058   6006         JZ      ??ZDO_RemoveRegisteredCB_6
   \   00005A   E8           MOV     A,R0
   \   00005B   F0           MOVX    @DPTR,A
   \   00005C   A3           INC     DPTR
   \   00005D   E9           MOV     A,R1
   \   00005E   8003         SJMP    ??ZDO_RemoveRegisteredCB_5
   \                     ??ZDO_RemoveRegisteredCB_6:
   \   000060   E4           CLR     A
   \   000061   F0           MOVX    @DPTR,A
   \   000062   A3           INC     DPTR
   \                     ??ZDO_RemoveRegisteredCB_5:
   \   000063   F0           MOVX    @DPTR,A
   \   000064                ; Setup parameters for call to function osal_mem_free
   \   000064   12....       LCALL   `??osal_mem_free::?relay`; Banked call to: osal_mem_free
   \   000067   7900         MOV     R1,#0x0
   \   000069   8002         SJMP    ??ZDO_RemoveRegisteredCB_7
   1900            }
   1901          
   1902            return ( ZFailure );
   \                     ??ZDO_RemoveRegisteredCB_2:
   \   00006B   7901         MOV     R1,#0x1
   \                     ??ZDO_RemoveRegisteredCB_7:
   \   00006D   02....       LJMP    ?Subroutine6 & 0xFFFF
   1903          }
   1904          
   1905          /*********************************************************************
   1906           * @fn          ZDO_SendMsgCBs
   1907           *
   1908           * @brief       This function sends messages to registered tasks.
   1909           *              Local to ZDO and shouldn't be called outside of ZDO.
   1910           *
   1911           * @param       inMsg - incoming message
   1912           *
   1913           * @return      TRUE if sent to at least 1 task, FALSE if not
   1914           */

   \                                 In  segment BANKED_CODE, align 1, keep-with-next
   1915          uint8 ZDO_SendMsgCBs( zdoIncomingMsg_t *inMsg )
   \                     ZDO_SendMsgCBs:
   1916          {
   \   000000                REQUIRE ?V0
   \   000000                REQUIRE ?V1
   \   000000                REQUIRE ?V2
   \   000000                REQUIRE ?V3
   \   000000                REQUIRE ?V4
   \   000000                REQUIRE ?V5
   \   000000                REQUIRE ?V6
   \   000000                REQUIRE ?V7
   \   000000   74F0         MOV     A,#-0x10
   \   000002   12....       LCALL   ?BANKED_ENTER_XDATA
   \   000005                ; Saved register size: 16
   \   000005                ; Auto size: 0
   \   000005   EA           MOV     A,R2
   \   000006   FE           MOV     R6,A
   \   000007   EB           MOV     A,R3
   \   000008   FF           MOV     R7,A
   1917            uint8 ret = FALSE;
   \   000009   75..00       MOV     ?V4,#0x0
   1918            ZDO_MsgCB_t *pList = zdoMsgCBs;
   \   00000C   90....       MOV     DPTR,#zdoMsgCBs
   \   00000F   02....       LJMP    ??ZDO_SendMsgCBs_0 & 0xFFFF
   1919            while ( pList )
   1920            {
   1921              if ( (pList->clusterID == inMsg->clusterID)
   1922                 || ((pList->clusterID == ZDO_ALL_MSGS_CLUSTERID)
   1923                     && ((inMsg->clusterID & ZDO_RESPONSE_BIT) || (inMsg->clusterID == Device_annce))) )
   \                     ??ZDO_SendMsgCBs_1:
   \   000012   85..82       MOV     DPL,?V0
   \   000015   85..83       MOV     DPH,?V1
   \   000018   A3           INC     DPTR
   \   000019   A3           INC     DPTR
   \   00001A   A3           INC     DPTR
   \   00001B   12....       LCALL   ??Subroutine140_0 & 0xFFFF
   \                     ??CrossCallReturnLabel_289:
   \   00001E   12....       LCALL   ?Subroutine72 & 0xFFFF
   \                     ??CrossCallReturnLabel_115:
   \   000021   68           XRL     A,R0
   \   000022   7003         JNZ     ??ZDO_SendMsgCBs_2
   \   000024   A3           INC     DPTR
   \   000025   E0           MOVX    A,@DPTR
   \   000026   69           XRL     A,R1
   \                     ??ZDO_SendMsgCBs_2:
   \   000027   602C         JZ      ??ZDO_SendMsgCBs_3
   \   000029   85..82       MOV     DPL,?V0
   \   00002C   85..83       MOV     DPH,?V1
   \   00002F   A3           INC     DPTR
   \   000030   A3           INC     DPTR
   \   000031   A3           INC     DPTR
   \   000032   E0           MOVX    A,@DPTR
   \   000033   F4           CPL     A
   \   000034   7003         JNZ     ??ZDO_SendMsgCBs_4
   \   000036   A3           INC     DPTR
   \   000037   E0           MOVX    A,@DPTR
   \   000038   F4           CPL     A
   \                     ??ZDO_SendMsgCBs_4:
   \   000039   6003         JZ      $+5
   \   00003B   02....       LJMP    ??ZDO_SendMsgCBs_5 & 0xFFFF
   \   00003E   12....       LCALL   ?Subroutine73 & 0xFFFF
   \                     ??CrossCallReturnLabel_118:
   \   000041   A3           INC     DPTR
   \   000042   E0           MOVX    A,@DPTR
   \   000043   5480         ANL     A,#0x80
   \   000045   700E         JNZ     ??ZDO_SendMsgCBs_3
   \   000047   12....       LCALL   ?Subroutine72 & 0xFFFF
   \                     ??CrossCallReturnLabel_116:
   \   00004A   6413         XRL     A,#0x13
   \   00004C   7002         JNZ     ??ZDO_SendMsgCBs_6
   \   00004E   A3           INC     DPTR
   \   00004F   E0           MOVX    A,@DPTR
   \                     ??ZDO_SendMsgCBs_6:
   \   000050   6003         JZ      $+5
   \   000052   02....       LJMP    ??ZDO_SendMsgCBs_5 & 0xFFFF
   1924              {
   1925                zdoIncomingMsg_t *msgPtr;
   1926          
   1927                // Send the address to the task
   1928                msgPtr = (zdoIncomingMsg_t *)osal_msg_allocate( sizeof( zdoIncomingMsg_t ) + inMsg->asduLen );
   \                     ??ZDO_SendMsgCBs_3:
   \   000055                ; Setup parameters for call to function osal_msg_allocate
   \   000055   12....       LCALL   ?Subroutine75 & 0xFFFF
   \                     ??CrossCallReturnLabel_281:
   \   000058   2417         ADD     A,#0x17
   \   00005A   FA           MOV     R2,A
   \   00005B   E4           CLR     A
   \   00005C   3400         ADDC    A,#0x0
   \   00005E   FB           MOV     R3,A
   \   00005F   12....       LCALL   `??osal_msg_allocate::?relay`; Banked call to: osal_msg_allocate
   \   000062   8A..         MOV     ?V2,R2
   \   000064   8B..         MOV     ?V3,R3
   1929                if ( msgPtr )
   \   000066   EA           MOV     A,R2
   \   000067   45..         ORL     A,?V3
   \   000069   6072         JZ      ??ZDO_SendMsgCBs_5
   1930                {
   1931                  // copy struct
   1932                  osal_memcpy( msgPtr, inMsg, sizeof( zdoIncomingMsg_t ));
   \   00006B                ; Setup parameters for call to function osal_memcpy
   \   00006B   8E..         MOV     ?V4,R6
   \   00006D   8F..         MOV     ?V5,R7
   \   00006F   75..00       MOV     ?V6,#0x0
   \   000072   78..         MOV     R0,#?V4
   \   000074   12....       LCALL   ?PUSH_XSTACK_I_THREE
   \   000077   7C17         MOV     R4,#0x17
   \   000079   7D00         MOV     R5,#0x0
   \   00007B   12....       LCALL   `??osal_memcpy::?relay`; Banked call to: osal_memcpy
   \   00007E   7403         MOV     A,#0x3
   \   000080   12....       LCALL   ?DEALLOC_XSTACK8
   1933          
   1934                  if ( inMsg->asduLen )
   \   000083   12....       LCALL   ?Subroutine75 & 0xFFFF
   \                     ??CrossCallReturnLabel_282:
   \   000086   6038         JZ      ??ZDO_SendMsgCBs_7
   1935                  {
   1936                    msgPtr->asdu = (byte*)(((byte*)msgPtr) + sizeof( zdoIncomingMsg_t ));
   \   000088   E5..         MOV     A,?V2
   \   00008A   2417         ADD     A,#0x17
   \   00008C   FA           MOV     R2,A
   \   00008D   E4           CLR     A
   \   00008E   35..         ADDC    A,?V3
   \   000090   FB           MOV     R3,A
   \   000091   E5..         MOV     A,?V2
   \   000093   2413         ADD     A,#0x13
   \   000095   F582         MOV     DPL,A
   \   000097   E4           CLR     A
   \   000098   35..         ADDC    A,?V3
   \   00009A   F583         MOV     DPH,A
   \   00009C   EA           MOV     A,R2
   \   00009D   F0           MOVX    @DPTR,A
   \   00009E   A3           INC     DPTR
   \   00009F   EB           MOV     A,R3
   \   0000A0   F0           MOVX    @DPTR,A
   1937                    osal_memcpy( msgPtr->asdu, inMsg->asdu, inMsg->asduLen );
   \   0000A1                ; Setup parameters for call to function osal_memcpy
   \   0000A1   EE           MOV     A,R6
   \   0000A2   2413         ADD     A,#0x13
   \   0000A4   12....       LCALL   ??Subroutine138_0 & 0xFFFF
   1938                  }
   \                     ??CrossCallReturnLabel_277:
   \   0000A7   F5..         MOV     ?V4,A
   \   0000A9   A3           INC     DPTR
   \   0000AA   E0           MOVX    A,@DPTR
   \   0000AB   F5..         MOV     ?V5,A
   \   0000AD   78..         MOV     R0,#?V4
   \   0000AF   12....       LCALL   ?PUSH_XSTACK_I_THREE
   \   0000B2   12....       LCALL   ?Subroutine75 & 0xFFFF
   \                     ??CrossCallReturnLabel_283:
   \   0000B5   FC           MOV     R4,A
   \   0000B6   7D00         MOV     R5,#0x0
   \   0000B8   12....       LCALL   `??osal_memcpy::?relay`; Banked call to: osal_memcpy
   \   0000BB   7403         MOV     A,#0x3
   \   0000BD   12....       LCALL   ?DEALLOC_XSTACK8
   1939          
   1940                  msgPtr->hdr.event = ZDO_CB_MSG;
   \                     ??ZDO_SendMsgCBs_7:
   \   0000C0   85..82       MOV     DPL,?V2
   \   0000C3   85..83       MOV     DPH,?V3
   \   0000C6   74D3         MOV     A,#-0x2d
   \   0000C8   F0           MOVX    @DPTR,A
   1941                  osal_msg_send( pList->taskID, (uint8 *)msgPtr );
   \   0000C9                ; Setup parameters for call to function osal_msg_send
   \   0000C9   AA..         MOV     R2,?V2
   \   0000CB   AB..         MOV     R3,?V3
   \   0000CD   85..82       MOV     DPL,?V0
   \   0000D0   85..83       MOV     DPH,?V1
   \   0000D3   A3           INC     DPTR
   \   0000D4   A3           INC     DPTR
   \   0000D5   E0           MOVX    A,@DPTR
   \   0000D6   F9           MOV     R1,A
   \   0000D7   12....       LCALL   `??osal_msg_send::?relay`; Banked call to: osal_msg_send
   1942                  ret = TRUE;
   \   0000DA   75..01       MOV     ?V4,#0x1
   1943                }
   1944              }
   1945              pList = (ZDO_MsgCB_t *)pList->next;
   \                     ??ZDO_SendMsgCBs_5:
   \   0000DD   85..82       MOV     DPL,?V0
   \   0000E0   85..83       MOV     DPH,?V1
   1946            }
   \                     ??ZDO_SendMsgCBs_0:
   \   0000E3   12....       LCALL   ?Subroutine79 & 0xFFFF
   \                     ??CrossCallReturnLabel_127:
   \   0000E6   E5..         MOV     A,?V0
   \   0000E8   45..         ORL     A,?V1
   \   0000EA   6003         JZ      $+5
   \   0000EC   02....       LJMP    ??ZDO_SendMsgCBs_1 & 0xFFFF
   1947            return ( ret );
   \   0000EF   A9..         MOV     R1,?V4
   \   0000F1   02....       LJMP    ?Subroutine5 & 0xFFFF
   1948          }

   \                                 In  segment BANKED_CODE, align 1, keep-with-next
   \                     ?Subroutine75:
   \   000000   EE           MOV     A,R6
   \   000001   2410         ADD     A,#0x10
   \   000003                REQUIRE ??Subroutine138_0
   \   000003                ; // Fall through to label ??Subroutine138_0

   \                                 In  segment BANKED_CODE, align 1, keep-with-next
   \                     ?Subroutine72:
   \   000000   12....       LCALL   ?Subroutine99 & 0xFFFF
   \                     ??CrossCallReturnLabel_159:
   \   000003   E0           MOVX    A,@DPTR
   \   000004   22           RET
   1949          
   1950          /*********************************************************************
   1951           * Incoming message processor
   1952           */
   1953          
   1954          /*********************************************************************
   1955           * @fn          ZDP_IncomingData
   1956           *
   1957           * @brief       This function indicates the transfer of a data PDU (ASDU)
   1958           *              from the APS sub-layer to the ZDO.
   1959           *
   1960           * @param       pData - Incoming Message
   1961           *
   1962           * @return      none
   1963           */

   \                                 In  segment BANKED_CODE, align 1, keep-with-next
   1964          void ZDP_IncomingData( afIncomingMSGPacket_t *pData )
   \                     ZDP_IncomingData:
   1965          {
   \   000000                REQUIRE ?V0
   \   000000                REQUIRE ?V1
   \   000000                REQUIRE ?V2
   \   000000                REQUIRE ?V3
   \   000000   74F4         MOV     A,#-0xc
   \   000002   12....       LCALL   ?BANKED_ENTER_XDATA
   \   000005                ; Saved register size: 12
   \   000005                ; Auto size: 23
   \   000005   74E9         MOV     A,#-0x17
   \   000007   12....       LCALL   ?ALLOC_XSTACK8
   \   00000A   EA           MOV     A,R2
   \   00000B   FE           MOV     R6,A
   \   00000C   EB           MOV     A,R3
   \   00000D   FF           MOV     R7,A
   1966            uint8 x = 0;
   \   00000E   75..00       MOV     ?V0,#0x0
   1967            uint8 handled;
   1968            zdoIncomingMsg_t inMsg;
   1969          
   1970            inMsg.srcAddr.addrMode = Addr16Bit;
   \   000011   740A         MOV     A,#0xa
   \   000013   12....       LCALL   ?XSTACK_DISP0_8
   \   000016   7402         MOV     A,#0x2
   \   000018   12....       LCALL   ?Subroutine32 & 0xFFFF
   1971            inMsg.srcAddr.addr.shortAddr = pData->srcAddr.addr.shortAddr;
   \                     ??CrossCallReturnLabel_44:
   \   00001B   A3           INC     DPTR
   \   00001C   A3           INC     DPTR
   \   00001D   12....       LCALL   ??Subroutine140_0 & 0xFFFF
   \                     ??CrossCallReturnLabel_290:
   \   000020   7402         MOV     A,#0x2
   \   000022   12....       LCALL   ?XSTACK_DISP0_8
   \   000025   12....       LCALL   ??Subroutine129_0 & 0xFFFF
   1972            inMsg.wasBroadcast = pData->wasBroadcast;
   \                     ??CrossCallReturnLabel_222:
   \   000028   EE           MOV     A,R6
   \   000029   2415         ADD     A,#0x15
   \   00002B   12....       LCALL   ??Subroutine138_0 & 0xFFFF
   \                     ??CrossCallReturnLabel_278:
   \   00002E   C0E0         PUSH    A
   \   000030   740B         MOV     A,#0xb
   \   000032   12....       LCALL   ?XSTACK_DISP0_8
   \   000035   D0E0         POP     A
   \   000037   12....       LCALL   ?Subroutine32 & 0xFFFF
   1973            inMsg.clusterID = pData->clusterId;
   \                     ??CrossCallReturnLabel_45:
   \   00003A   12....       LCALL   ??Subroutine140_0 & 0xFFFF
   \                     ??CrossCallReturnLabel_291:
   \   00003D   740C         MOV     A,#0xc
   \   00003F   12....       LCALL   ?XSTACK_DISP0_8
   \   000042   12....       LCALL   ??Subroutine129_0 & 0xFFFF
   1974            inMsg.SecurityUse = pData->SecurityUse;
   \                     ??CrossCallReturnLabel_223:
   \   000045   EE           MOV     A,R6
   \   000046   2419         ADD     A,#0x19
   \   000048   12....       LCALL   ??Subroutine138_0 & 0xFFFF
   \                     ??CrossCallReturnLabel_279:
   \   00004B   C0E0         PUSH    A
   \   00004D   740E         MOV     A,#0xe
   \   00004F   12....       LCALL   ?XSTACK_DISP0_8
   \   000052   D0E0         POP     A
   \   000054   F0           MOVX    @DPTR,A
   1975          
   1976            inMsg.asduLen = pData->cmd.DataLength-1;
   \   000055   EE           MOV     A,R6
   \   000056   2420         ADD     A,#0x20
   \   000058   12....       LCALL   ??Subroutine138_0 & 0xFFFF
   \                     ??CrossCallReturnLabel_280:
   \   00005B   14           DEC     A
   \   00005C   C0E0         PUSH    A
   \   00005E   7410         MOV     A,#0x10
   \   000060   12....       LCALL   ?XSTACK_DISP0_8
   \   000063   D0E0         POP     A
   \   000065   F0           MOVX    @DPTR,A
   1977            inMsg.asdu = pData->cmd.Data+1;
   \   000066   EE           MOV     A,R6
   \   000067   2422         ADD     A,#0x22
   \   000069   F8           MOV     R0,A
   \   00006A   E4           CLR     A
   \   00006B   3F           ADDC    A,R7
   \   00006C   F9           MOV     R1,A
   \   00006D   8882         MOV     DPL,R0
   \   00006F   8983         MOV     DPH,R1
   \   000071   E0           MOVX    A,@DPTR
   \   000072   2401         ADD     A,#0x1
   \   000074   FA           MOV     R2,A
   \   000075   A3           INC     DPTR
   \   000076   E0           MOVX    A,@DPTR
   \   000077   3400         ADDC    A,#0x0
   \   000079   FB           MOV     R3,A
   \   00007A   7413         MOV     A,#0x13
   \   00007C   12....       LCALL   ?XSTACK_DISP0_8
   \   00007F   EA           MOV     A,R2
   \   000080   F0           MOVX    @DPTR,A
   \   000081   A3           INC     DPTR
   \   000082   EB           MOV     A,R3
   \   000083   12....       LCALL   ??Subroutine121_0 & 0xFFFF
   1978            inMsg.TransSeq = pData->cmd.Data[0];
   \                     ??CrossCallReturnLabel_185:
   \   000086   12....       LCALL   ??Subroutine125_0 & 0xFFFF
   \                     ??CrossCallReturnLabel_203:
   \   000089   E0           MOVX    A,@DPTR
   \   00008A   C0E0         PUSH    A
   \   00008C   740F         MOV     A,#0xf
   \   00008E   12....       LCALL   ?XSTACK_DISP0_8
   \   000091   D0E0         POP     A
   \   000093   F0           MOVX    @DPTR,A
   1979            inMsg.macDestAddr = pData->macDestAddr;
   \   000094   EE           MOV     A,R6
   \   000095   2412         ADD     A,#0x12
   \   000097   F582         MOV     DPL,A
   \   000099   E4           CLR     A
   \   00009A   3F           ADDC    A,R7
   \   00009B   F583         MOV     DPH,A
   \   00009D   12....       LCALL   ??Subroutine140_0 & 0xFFFF
   \                     ??CrossCallReturnLabel_292:
   \   0000A0   7411         MOV     A,#0x11
   \   0000A2   12....       LCALL   ?XSTACK_DISP0_8
   \   0000A5   12....       LCALL   ??Subroutine129_0 & 0xFFFF
   1980            inMsg.macSrcAddr = pData->macSrcAddr;
   \                     ??CrossCallReturnLabel_224:
   \   0000A8   EE           MOV     A,R6
   \   0000A9   2424         ADD     A,#0x24
   \   0000AB   F582         MOV     DPL,A
   \   0000AD   E4           CLR     A
   \   0000AE   3F           ADDC    A,R7
   \   0000AF   F583         MOV     DPH,A
   \   0000B1   12....       LCALL   ??Subroutine140_0 & 0xFFFF
   \                     ??CrossCallReturnLabel_293:
   \   0000B4   7415         MOV     A,#0x15
   \   0000B6   12....       LCALL   ?XSTACK_DISP0_8
   \   0000B9   12....       LCALL   ??Subroutine129_0 & 0xFFFF
   1981          
   1982            handled = ZDO_SendMsgCBs( &inMsg );
   \                     ??CrossCallReturnLabel_225:
   \   0000BC                ; Setup parameters for call to function ZDO_SendMsgCBs
   \   0000BC   AA..         MOV     R2,?XSP + 0
   \   0000BE   AB..         MOV     R3,?XSP + 1
   \   0000C0   12....       LCALL   `??ZDO_SendMsgCBs::?relay`; Banked call to: ZDO_SendMsgCBs
   \   0000C3   E9           MOV     A,R1
   \   0000C4   F5..         MOV     ?V1,A
   1983          
   1984          #if (defined MT_ZDO_CB_FUNC)
   1985          #if !defined MT_TASK
   1986            if (zgZdoDirectCB)
   \   0000C6   90....       MOV     DPTR,#zgZdoDirectCB
   \   0000C9   E0           MOVX    A,@DPTR
   \   0000CA   600F         JZ      ??ZDP_IncomingData_0
   1987          #endif
   1988            {
   1989              MT_ZdoDirectCB( pData, &inMsg );
   \   0000CC                ; Setup parameters for call to function MT_ZdoDirectCB
   \   0000CC   AC..         MOV     R4,?XSP + 0
   \   0000CE   AD..         MOV     R5,?XSP + 1
   \   0000D0   EE           MOV     A,R6
   \   0000D1   FA           MOV     R2,A
   \   0000D2   EF           MOV     A,R7
   \   0000D3   FB           MOV     R3,A
   \   0000D4   12....       LCALL   `??MT_ZdoDirectCB::?relay`; Banked call to: MT_ZdoDirectCB
   \   0000D7   8002         SJMP    ??ZDP_IncomingData_0
   1990            }
   1991          #endif
   1992          
   1993            while ( zdpMsgProcs[x].clusterID != 0xFFFF )
   1994            {
   1995              if ( zdpMsgProcs[x].clusterID == inMsg.clusterID )
   1996              {
   1997                zdpMsgProcs[x].pFn( &inMsg );
   1998                return;
   1999              }
   2000              x++;
   \                     ??ZDP_IncomingData_1:
   \   0000D9   05..         INC     ?V0
   \                     ??ZDP_IncomingData_0:
   \   0000DB   85....       MOV     ?V2,?V0
   \   0000DE   75..00       MOV     ?V3,#0x0
   \   0000E1   7402         MOV     A,#0x2
   \   0000E3   78..         MOV     R0,#?V2
   \   0000E5   12....       LCALL   ?S_SHL
   \   0000E8   74..         MOV     A,#zdpMsgProcs & 0xff
   \   0000EA   25..         ADD     A,?V2
   \   0000EC   F582         MOV     DPL,A
   \   0000EE   74..         MOV     A,#(zdpMsgProcs >> 8) & 0xff
   \   0000F0   35..         ADDC    A,?V3
   \   0000F2   F583         MOV     DPH,A
   \   0000F4   E4           CLR     A
   \   0000F5   93           MOVC    A,@A+DPTR
   \   0000F6   F8           MOV     R0,A
   \   0000F7   7401         MOV     A,#0x1
   \   0000F9   93           MOVC    A,@A+DPTR
   \   0000FA   F9           MOV     R1,A
   \   0000FB   74FF         MOV     A,#-0x1
   \   0000FD   68           XRL     A,R0
   \   0000FE   7003         JNZ     ??ZDP_IncomingData_2
   \   000100   74FF         MOV     A,#-0x1
   \   000102   69           XRL     A,R1
   \                     ??ZDP_IncomingData_2:
   \   000103   603E         JZ      ??ZDP_IncomingData_3
   \   000105   E4           CLR     A
   \   000106   93           MOVC    A,@A+DPTR
   \   000107   F8           MOV     R0,A
   \   000108   7401         MOV     A,#0x1
   \   00010A   93           MOVC    A,@A+DPTR
   \   00010B   F9           MOV     R1,A
   \   00010C   740C         MOV     A,#0xc
   \   00010E   12....       LCALL   ?XSTACK_DISP0_8
   \   000111   E0           MOVX    A,@DPTR
   \   000112   68           XRL     A,R0
   \   000113   7003         JNZ     ??ZDP_IncomingData_4
   \   000115   A3           INC     DPTR
   \   000116   E0           MOVX    A,@DPTR
   \   000117   69           XRL     A,R1
   \                     ??ZDP_IncomingData_4:
   \   000118   70BF         JNZ     ??ZDP_IncomingData_1
   \   00011A                ; Setup parameters for indirect call
   \   00011A   AA..         MOV     R2,?XSP + 0
   \   00011C   AB..         MOV     R3,?XSP + 1
   \   00011E   75..00       MOV     ?V1,#0x0
   \   000121   7402         MOV     A,#0x2
   \   000123   78..         MOV     R0,#?V0
   \   000125   12....       LCALL   ?S_SHL
   \   000128   74..         MOV     A,#(zdpMsgProcs + 2) & 0xff
   \   00012A   25..         ADD     A,?V0
   \   00012C   F582         MOV     DPL,A
   \   00012E   74..         MOV     A,#((zdpMsgProcs + 2) >> 8) & 0xff
   \   000130   12....       LCALL   ??Subroutine117_0 & 0xFFFF
   \                     ??CrossCallReturnLabel_167:
   \   000133   E4           CLR     A
   \   000134   93           MOVC    A,@A+DPTR
   \   000135   C0E0         PUSH    A
   \   000137   7401         MOV     A,#0x1
   \   000139   93           MOVC    A,@A+DPTR
   \   00013A   F583         MOV     DPH,A
   \   00013C   D082         POP     DPL
   \   00013E   12....       LCALL   ?CALL_IND
   \   000141   800B         SJMP    ??ZDP_IncomingData_5
   2001            }
   2002          
   2003            // Handle unhandled messages
   2004            if ( !handled )
   \                     ??ZDP_IncomingData_3:
   \   000143   E5..         MOV     A,?V1
   \   000145   7007         JNZ     ??ZDP_IncomingData_5
   2005              ZDApp_InMsgCB( &inMsg );
   \   000147                ; Setup parameters for call to function ZDApp_InMsgCB
   \   000147   AA..         MOV     R2,?XSP + 0
   \   000149   AB..         MOV     R3,?XSP + 1
   \   00014B   12....       LCALL   `??ZDApp_InMsgCB::?relay`; Banked call to: ZDApp_InMsgCB
   2006          }
   \                     ??ZDP_IncomingData_5:
   \   00014E   7417         MOV     A,#0x17
   \   000150   02....       LJMP    ??Subroutine109_0 & 0xFFFF

   \                                 In  segment BANKED_CODE, align 1, keep-with-next
   \                     ?Subroutine32:
   \   000000   12....       LCALL   ?Subroutine95 & 0xFFFF
   \                     ??CrossCallReturnLabel_152:
   \   000003   22           RET

   \                                 In  segment XDATA_ID, align 1, keep-with-next
   \                     `?<Initializer for ZDP_TmpBuf>`:
   \   000000   ....         DW ZDP_Buf + 1H

   \                                 In  segment BANK_RELAYS, align 1
   \                     `??fillAndSend::?relay`:
   \   000000   12....       LCALL   ?BDISPATCH
   \   000003   ......       DC24    fillAndSend

   \                                 In  segment BANK_RELAYS, align 1
   \                     `??ZDP_SendData::?relay`:
   \   000000   12....       LCALL   ?BDISPATCH
   \   000003   ......       DC24    ZDP_SendData

   \                                 In  segment BANK_RELAYS, align 1
   \                     `??ZDP_NWKAddrOfInterestReq::?relay`:
   \   000000   12....       LCALL   ?BDISPATCH
   \   000003   ......       DC24    ZDP_NWKAddrOfInterestReq

   \                                 In  segment BANK_RELAYS, align 1
   \                     `??ZDP_NwkAddrReq::?relay`:
   \   000000   12....       LCALL   ?BDISPATCH
   \   000003   ......       DC24    ZDP_NwkAddrReq

   \                                 In  segment BANK_RELAYS, align 1
   \                     `??ZDP_IEEEAddrReq::?relay`:
   \   000000   12....       LCALL   ?BDISPATCH
   \   000003   ......       DC24    ZDP_IEEEAddrReq

   \                                 In  segment BANK_RELAYS, align 1
   \                     `??ZDP_MatchDescReq::?relay`:
   \   000000   12....       LCALL   ?BDISPATCH
   \   000003   ......       DC24    ZDP_MatchDescReq

   \                                 In  segment BANK_RELAYS, align 1
   \                     `??ZDP_SimpleDescReq::?relay`:
   \   000000   12....       LCALL   ?BDISPATCH
   \   000003   ......       DC24    ZDP_SimpleDescReq

   \                                 In  segment BANK_RELAYS, align 1
   \                     `??ZDP_UserDescSet::?relay`:
   \   000000   12....       LCALL   ?BDISPATCH
   \   000003   ......       DC24    ZDP_UserDescSet

   \                                 In  segment BANK_RELAYS, align 1
   \                     `??ZDP_ServerDiscReq::?relay`:
   \   000000   12....       LCALL   ?BDISPATCH
   \   000003   ......       DC24    ZDP_ServerDiscReq

   \                                 In  segment BANK_RELAYS, align 1
   \                     `??ZDP_DeviceAnnce::?relay`:
   \   000000   12....       LCALL   ?BDISPATCH
   \   000003   ......       DC24    ZDP_DeviceAnnce

   \                                 In  segment BANK_RELAYS, align 1
   \                     `??ZDP_EndDeviceTimeoutReq::?relay`:
   \   000000   12....       LCALL   ?BDISPATCH
   \   000003   ......       DC24    ZDP_EndDeviceTimeoutReq

   \                                 In  segment BANK_RELAYS, align 1
   \                     `??zdpProcessAddrReq::?relay`:
   \   000000   12....       LCALL   ?BDISPATCH
   \   000003   ......       DC24    zdpProcessAddrReq

   \                                 In  segment BANK_RELAYS, align 1
   \                     `??ZDP_NodeDescMsg::?relay`:
   \   000000   12....       LCALL   ?BDISPATCH
   \   000003   ......       DC24    ZDP_NodeDescMsg

   \                                 In  segment BANK_RELAYS, align 1
   \                     `??ZDP_PowerDescMsg::?relay`:
   \   000000   12....       LCALL   ?BDISPATCH
   \   000003   ......       DC24    ZDP_PowerDescMsg

   \                                 In  segment BANK_RELAYS, align 1
   \                     `??ZDP_SimpleDescMsg::?relay`:
   \   000000   12....       LCALL   ?BDISPATCH
   \   000003   ......       DC24    ZDP_SimpleDescMsg

   \                                 In  segment BANK_RELAYS, align 1
   \                     `??ZDP_EPRsp::?relay`:
   \   000000   12....       LCALL   ?BDISPATCH
   \   000003   ......       DC24    ZDP_EPRsp

   \                                 In  segment BANK_RELAYS, align 1
   \                     `??ZDP_UserDescRsp::?relay`:
   \   000000   12....       LCALL   ?BDISPATCH
   \   000003   ......       DC24    ZDP_UserDescRsp

   \                                 In  segment BANK_RELAYS, align 1
   \                     `??ZDP_ServerDiscRsp::?relay`:
   \   000000   12....       LCALL   ?BDISPATCH
   \   000003   ......       DC24    ZDP_ServerDiscRsp

   \                                 In  segment BANK_RELAYS, align 1
   \                     `??ZDP_GenericRsp::?relay`:
   \   000000   12....       LCALL   ?BDISPATCH
   \   000003   ......       DC24    ZDP_GenericRsp

   \                                 In  segment BANK_RELAYS, align 1
   \                     `??ZDP_EndDeviceBindReq::?relay`:
   \   000000   12....       LCALL   ?BDISPATCH
   \   000003   ......       DC24    ZDP_EndDeviceBindReq

   \                                 In  segment BANK_RELAYS, align 1
   \                     `??ZDP_BindUnbindReq::?relay`:
   \   000000   12....       LCALL   ?BDISPATCH
   \   000003   ......       DC24    ZDP_BindUnbindReq

   \                                 In  segment BANK_RELAYS, align 1
   \                     `??ZDP_MgmtNwkDiscReq::?relay`:
   \   000000   12....       LCALL   ?BDISPATCH
   \   000003   ......       DC24    ZDP_MgmtNwkDiscReq

   \                                 In  segment BANK_RELAYS, align 1
   \                     `??ZDP_MgmtDirectJoinReq::?relay`:
   \   000000   12....       LCALL   ?BDISPATCH
   \   000003   ......       DC24    ZDP_MgmtDirectJoinReq

   \                                 In  segment BANK_RELAYS, align 1
   \                     `??ZDP_MgmtPermitJoinReq::?relay`:
   \   000000   12....       LCALL   ?BDISPATCH
   \   000003   ......       DC24    ZDP_MgmtPermitJoinReq

   \                                 In  segment BANK_RELAYS, align 1
   \                     `??ZDP_MgmtLeaveReq::?relay`:
   \   000000   12....       LCALL   ?BDISPATCH
   \   000003   ......       DC24    ZDP_MgmtLeaveReq

   \                                 In  segment BANK_RELAYS, align 1
   \                     `??ZDP_MgmtNwkUpdateReq::?relay`:
   \   000000   12....       LCALL   ?BDISPATCH
   \   000003   ......       DC24    ZDP_MgmtNwkUpdateReq

   \                                 In  segment BANK_RELAYS, align 1
   \                     `??ZDP_MgmtNwkDiscRsp::?relay`:
   \   000000   12....       LCALL   ?BDISPATCH
   \   000003   ......       DC24    ZDP_MgmtNwkDiscRsp

   \                                 In  segment BANK_RELAYS, align 1
   \                     `??ZDP_MgmtLqiRsp::?relay`:
   \   000000   12....       LCALL   ?BDISPATCH
   \   000003   ......       DC24    ZDP_MgmtLqiRsp

   \                                 In  segment BANK_RELAYS, align 1
   \                     `??ZDP_MgmtRtgRsp::?relay`:
   \   000000   12....       LCALL   ?BDISPATCH
   \   000003   ......       DC24    ZDP_MgmtRtgRsp

   \                                 In  segment BANK_RELAYS, align 1
   \                     `??ZDP_MgmtBindRsp::?relay`:
   \   000000   12....       LCALL   ?BDISPATCH
   \   000003   ......       DC24    ZDP_MgmtBindRsp

   \                                 In  segment BANK_RELAYS, align 1
   \                     `??ZDP_MgmtNwkUpdateNotify::?relay`:
   \   000000   12....       LCALL   ?BDISPATCH
   \   000003   ......       DC24    ZDP_MgmtNwkUpdateNotify

   \                                 In  segment BANK_RELAYS, align 1
   \                     `??ZDO_RegisterForZDOMsg::?relay`:
   \   000000   12....       LCALL   ?BDISPATCH
   \   000003   ......       DC24    ZDO_RegisterForZDOMsg

   \                                 In  segment BANK_RELAYS, align 1
   \                     `??ZDO_RemoveRegisteredCB::?relay`:
   \   000000   12....       LCALL   ?BDISPATCH
   \   000003   ......       DC24    ZDO_RemoveRegisteredCB

   \                                 In  segment BANK_RELAYS, align 1
   \                     `??ZDO_SendMsgCBs::?relay`:
   \   000000   12....       LCALL   ?BDISPATCH
   \   000003   ......       DC24    ZDO_SendMsgCBs

   \                                 In  segment BANK_RELAYS, align 1
   \                     `??ZDP_IncomingData::?relay`:
   \   000000   12....       LCALL   ?BDISPATCH
   \   000003   ......       DC24    ZDP_IncomingData
   2007          
   2008          /*********************************************************************
   2009          *********************************************************************/
   2010          

   Maximum stack usage in bytes:

   ISTACK XSTACK Function
   ------ ------ --------
      1     14   ZDO_RegisterForZDOMsg
        0     14   -> osal_mem_alloc
      0      9   ZDO_RemoveRegisteredCB
        0      9   -> osal_mem_free
      0     54   ZDO_SendMsgCBs
        0     19   -> osal_memcpy
        0     16   -> osal_msg_allocate
        0     16   -> osal_msg_send
      1     26   ZDP_BindUnbindReq
        0     18   -> fillAndSend
        0     16   -> sAddrExtCpy
        1     16   -> sAddrExtCpy
      1     22   ZDP_DeviceAnnce
        0     21   -> fillAndSend
        0     19   -> sAddrExtCpy
      1     26   ZDP_EPRsp
        0     18   -> fillAndSend
        0     19   -> osal_memcpy
      1     29   ZDP_EndDeviceBindReq
        0     18   -> NLME_GetExtAddr
        0     18   -> NLME_GetShortAddr
        0     20   -> fillAndSend
        0     18   -> sAddrExtCpy
      1     21   ZDP_EndDeviceTimeoutReq
        0     21   -> fillAndSend
        0     19   -> sAddrExtCpy
      1     16   ZDP_GenericRsp
        0     12   -> fillAndSend
      1     21   ZDP_IEEEAddrReq
        0     21   -> fillAndSend
      1     35   ZDP_IncomingData
        0     35   -> MT_ZdoDirectCB
        0     35   -> ZDApp_InMsgCB
        0     35   -> ZDO_SendMsgCBs
      1     24   ZDP_MatchDescReq
        0     16   -> fillAndSend
      1     28   ZDP_MgmtBindRsp
        0     23   -> fillAndSend
        0     21   -> osal_mem_alloc
        0     21   -> osal_mem_free
        0     21   -> sAddrExtCpy
      1     15   ZDP_MgmtDirectJoinReq
        0     14   -> fillAndSend
        0     12   -> sAddrExtCpy
      0     16   ZDP_MgmtLeaveReq
        0     14   -> fillAndSend
        0     12   -> sAddrExtCpy
      1     27   ZDP_MgmtLqiRsp
        0     22   -> fillAndSend
        0     20   -> osal_mem_alloc
        0     20   -> osal_mem_free
        0     20   -> sAddrExtCpy
      1     20   ZDP_MgmtNwkDiscReq
        0     14   -> fillAndSend
        0     16   -> osal_buffer_uint32
      1     28   ZDP_MgmtNwkDiscRsp
        0     23   -> fillAndSend
        0     21   -> osal_mem_alloc
        0     21   -> osal_mem_free
        0     21   -> sAddrExtCpy
      1     35   ZDP_MgmtNwkUpdateNotify
        0     21   -> fillAndSend
        0     23   -> osal_buffer_uint32
        0     19   -> osal_mem_alloc
        0     19   -> osal_mem_free
        0     22   -> osal_memcpy
      1     24   ZDP_MgmtNwkUpdateReq
        0     16   -> fillAndSend
        0     18   -> osal_buffer_uint32
      1     12   ZDP_MgmtPermitJoinReq
        0     12   -> fillAndSend
      1     26   ZDP_MgmtRtgRsp
        0     21   -> fillAndSend
        0     19   -> osal_mem_alloc
        0     19   -> osal_mem_free
      1     13   ZDP_NWKAddrOfInterestReq
        0     12   -> fillAndSend
      1     14   ZDP_NodeDescMsg
        0     12   -> fillAndSend
      1     23   ZDP_NwkAddrReq
        0     23   -> fillAndSend
        0     21   -> sAddrExtCmp
        0     21   -> sAddrExtCpy
      1     14   ZDP_PowerDescMsg
        0     12   -> fillAndSend
      1     19   ZDP_SendData
        0     14   -> fillAndSend
      1     21   ZDP_ServerDiscReq
        0     21   -> fillAndSend
      1     17   ZDP_ServerDiscRsp
        0     13   -> fillAndSend
      1     18   ZDP_SimpleDescMsg
        0     18   -> fillAndSend
      1     13   ZDP_SimpleDescReq
        0     12   -> fillAndSend
      1     25   ZDP_UserDescRsp
        0     21   -> fillAndSend
        0     22   -> osal_memcpy
      1     20   ZDP_UserDescSet
        0     17   -> fillAndSend
        0     18   -> osal_memcpy
        0     15   -> osal_memset
      1     69   fillAndSend
        0     35   -> AF_DataRequest
        0     26   -> osal_memset
      1     34   zdpProcessAddrReq
        0     32   -> AddrMgrEntryGet
        0     32   -> AssocGetWithExt
        0     32   -> AssocGetWithShort
        0     32   -> AssocMakeList
        0     34   -> fillAndSend
        0     32   -> osal_mem_free
        0     32   -> sAddrExtCmp
        0     32   -> sAddrExtCpy


   Segment part sizes:

   Bytes  Function/Label
   -----  --------------
       2  ?<Initializer for ZDP_TmpBuf>
      13  ??Subroutine108_0
       3  ??Subroutine109_0
       5  ??Subroutine110_0
       8  ??Subroutine111_0
       5  ??Subroutine112_0
       8  ??Subroutine113_0
       5  ??Subroutine114_0
       5  ??Subroutine115_0
       3  ??Subroutine116_0
       5  ??Subroutine117_0
       9  ??Subroutine118_0
       5  ??Subroutine119_0
       8  ??Subroutine120_0
       5  ??Subroutine121_0
       8  ??Subroutine122_0
       4  ??Subroutine123_0
       7  ??Subroutine124_0
       8  ??Subroutine125_0
       3  ??Subroutine126_0
       6  ??Subroutine127_0
       8  ??Subroutine128_0
       6  ??Subroutine129_0
       4  ??Subroutine130_0
       2  ??Subroutine131_0
       6  ??Subroutine132_0
       5  ??Subroutine133_0
       3  ??Subroutine134_0
       5  ??Subroutine135_0
       8  ??Subroutine136_0
       4  ??Subroutine137_0
       8  ??Subroutine138_0
       3  ??Subroutine139_0
       4  ??Subroutine140_0
       5  ??Subroutine141_0
       3  ?Subroutine0
      10  ?Subroutine1
      17  ?Subroutine10
       6  ?Subroutine100
       6  ?Subroutine101
      12  ?Subroutine102
       3  ?Subroutine103
       5  ?Subroutine104
       5  ?Subroutine105
       8  ?Subroutine106
       6  ?Subroutine107
      16  ?Subroutine11
      16  ?Subroutine12
      32  ?Subroutine13
      39  ?Subroutine14
       7  ?Subroutine15
       8  ?Subroutine16
       6  ?Subroutine17
       9  ?Subroutine18
       5  ?Subroutine19
      10  ?Subroutine2
      21  ?Subroutine20
       8  ?Subroutine21
       4  ?Subroutine22
       6  ?Subroutine23
       4  ?Subroutine24
      15  ?Subroutine25
      13  ?Subroutine26
      13  ?Subroutine27
      11  ?Subroutine28
       3  ?Subroutine29
       8  ?Subroutine3
      10  ?Subroutine30
       6  ?Subroutine31
       4  ?Subroutine32
       2  ?Subroutine33
       7  ?Subroutine34
       6  ?Subroutine35
       2  ?Subroutine36
       6  ?Subroutine37
      10  ?Subroutine38
       9  ?Subroutine39
       2  ?Subroutine4
      13  ?Subroutine40
       9  ?Subroutine41
       3  ?Subroutine42
       6  ?Subroutine43
       8  ?Subroutine44
       2  ?Subroutine45
       7  ?Subroutine46
       9  ?Subroutine47
       4  ?Subroutine48
      14  ?Subroutine49
       5  ?Subroutine5
       3  ?Subroutine50
      13  ?Subroutine51
      10  ?Subroutine52
      21  ?Subroutine53
       6  ?Subroutine54
      15  ?Subroutine55
       2  ?Subroutine56
       8  ?Subroutine57
       5  ?Subroutine58
      11  ?Subroutine59
       5  ?Subroutine6
       4  ?Subroutine60
       4  ?Subroutine61
       9  ?Subroutine62
       8  ?Subroutine63
       6  ?Subroutine64
       4  ?Subroutine65
       7  ?Subroutine66
       1  ?Subroutine67
       5  ?Subroutine68
      12  ?Subroutine69
      10  ?Subroutine7
       4  ?Subroutine70
      10  ?Subroutine71
       5  ?Subroutine72
       4  ?Subroutine73
       1  ?Subroutine74
       3  ?Subroutine75
      10  ?Subroutine76
       6  ?Subroutine77
      11  ?Subroutine78
       8  ?Subroutine79
      17  ?Subroutine8
      11  ?Subroutine80
       6  ?Subroutine81
       5  ?Subroutine82
       6  ?Subroutine83
       6  ?Subroutine84
       8  ?Subroutine85
       5  ?Subroutine86
       5  ?Subroutine87
       5  ?Subroutine88
       4  ?Subroutine89
      38  ?Subroutine9
       7  ?Subroutine90
       3  ?Subroutine91
      16  ?Subroutine92
       8  ?Subroutine93
       4  ?Subroutine94
      10  ?Subroutine95
       9  ?Subroutine96
       9  ?Subroutine97
      10  ?Subroutine98
      10  ?Subroutine99
     141  ZDO_RegisterForZDOMsg
       6  ZDO_RegisterForZDOMsg::?relay
     112  ZDO_RemoveRegisteredCB
       6  ZDO_RemoveRegisteredCB::?relay
     244  ZDO_SendMsgCBs
       6  ZDO_SendMsgCBs::?relay
       1  ZDP_AF_ENDPOINT
     216  ZDP_BindUnbindReq
       6  ZDP_BindUnbindReq::?relay
      80  ZDP_Buf
      73  ZDP_DeviceAnnce
       6  ZDP_DeviceAnnce::?relay
     163  ZDP_EPRsp
       6  ZDP_EPRsp::?relay
     233  ZDP_EndDeviceBindReq
       6  ZDP_EndDeviceBindReq::?relay
      54  ZDP_EndDeviceTimeoutReq
       6  ZDP_EndDeviceTimeoutReq::?relay
      87  ZDP_GenericRsp
       6  ZDP_GenericRsp::?relay
      61  ZDP_IEEEAddrReq
       6  ZDP_IEEEAddrReq::?relay
     339  ZDP_IncomingData
       6  ZDP_IncomingData::?relay
     250  ZDP_MatchDescReq
       6  ZDP_MatchDescReq::?relay
     281  ZDP_MgmtBindRsp
       6  ZDP_MgmtBindRsp::?relay
      23  ZDP_MgmtDirectJoinReq
       6  ZDP_MgmtDirectJoinReq::?relay
      50  ZDP_MgmtLeaveReq
       6  ZDP_MgmtLeaveReq::?relay
     370  ZDP_MgmtLqiRsp
       6  ZDP_MgmtLqiRsp::?relay
      59  ZDP_MgmtNwkDiscReq
       6  ZDP_MgmtNwkDiscReq::?relay
     295  ZDP_MgmtNwkDiscRsp
       6  ZDP_MgmtNwkDiscRsp::?relay
     221  ZDP_MgmtNwkUpdateNotify
       6  ZDP_MgmtNwkUpdateNotify::?relay
     123  ZDP_MgmtNwkUpdateReq
       6  ZDP_MgmtNwkUpdateReq::?relay
      20  ZDP_MgmtPermitJoinReq
       6  ZDP_MgmtPermitJoinReq::?relay
     304  ZDP_MgmtRtgRsp
       6  ZDP_MgmtRtgRsp::?relay
      16  ZDP_NWKAddrOfInterestReq
       6  ZDP_NWKAddrOfInterestReq::?relay
     198  ZDP_NodeDescMsg
       6  ZDP_NodeDescMsg::?relay
     118  ZDP_NwkAddrReq
       6  ZDP_NwkAddrReq::?relay
      78  ZDP_PowerDescMsg
       6  ZDP_PowerDescMsg::?relay
     106  ZDP_SendData
       6  ZDP_SendData::?relay
      81  ZDP_ServerDiscReq
       6  ZDP_ServerDiscReq::?relay
     101  ZDP_ServerDiscRsp
       6  ZDP_ServerDiscRsp::?relay
     345  ZDP_SimpleDescMsg
       6  ZDP_SimpleDescMsg::?relay
      27  ZDP_SimpleDescReq
       6  ZDP_SimpleDescReq::?relay
       2  ZDP_TmpBuf
       1  ZDP_TransID
       1  ZDP_TxOptions
     138  ZDP_UserDescRsp
       6  ZDP_UserDescRsp::?relay
     111  ZDP_UserDescSet
       6  ZDP_UserDescSet::?relay
     155  fillAndSend
       6  fillAndSend::?relay
       2  zdoMsgCBs
      80  zdpMsgProcs
     665  zdpProcessAddrReq
       6  zdpProcessAddrReq::?relay

 
 6 964 bytes in segment BANKED_CODE
   210 bytes in segment BANK_RELAYS
    81 bytes in segment CODE_C
     2 bytes in segment XDATA_I
     2 bytes in segment XDATA_ID
    84 bytes in segment XDATA_Z
 
 7 257 bytes of CODE  memory
    86 bytes of XDATA memory

Errors: none
Warnings: none
