///////////////////////////////////////////////////////////////////////////////
//
// IAR C/C++ Compiler V9.30.1.3056 for 8051               21/Nov/2018  13:52:22
// Copyright 2004-2015 IAR Systems AB.
// Standalone license - IAR Embedded Workbench for 8051
//
//    Core               =  plain
//    Code model         =  banked
//    Data model         =  large
//    Calling convention =  xdata reentrant
//    Constant location  =  data_rom
//    Dptr setup         =  1,16
//                          
//    Source file        =  
//        D:\1.embedded\kit\cc2530\Reference\Z-Stack Mesh
//        1.0.0\Components\stack\sys\ZGlobals.c
//    Command line       =  
//        -f "D:\1.embedded\kit\cc2530\Reference\Z-Stack Mesh
//        1.0.0\Projects\zstack\ZNP\CC253x\..\Source\znp.cfg"
//        (-DMAC_CFG_APP_PENDING_QUEUE=TRUE
//        "-DZSTACK_DEVICE_BUILD=(DEVICE_BUILD_COORDINATOR |
//        DEVICE_BUILD_ROUTER | DEVICE_BUILD_ENDDEVICE)" -DNWK_AUTO_POLL
//        -DZNP_RUN_WDOG=FALSE -DZNP_UART_BAUD=HAL_UART_BR_115200 -DZIGBEEPRO
//        -DZIGBEE_FRAGMENTATION -DINTER_PAN -DOSAL_CLOCK -DOSAL_SAPI=FALSE
//        -DSAPI_CB_FUNC=FALSE -DHOLD_AUTO_START -DNV_RESTORE -DNV_INIT
//        -DNUM_DISC_ATTEMPTS=0 -DMT_UTIL_FUNC -DMT_SYS_FUNC -DMT_AF_FUNC
//        -DMT_SAPI_FUNC -DMT_SAPI_CB_FUNC -DMT_ZDO_CB_FUNC -DMT_ZDO_FUNC
//        -DMT_ZDO_MGMT -DMT_ZDO_EXTENSIONS -DMT_APP_FUNC) -f
//        "D:\1.embedded\kit\cc2530\Reference\Z-Stack Mesh
//        1.0.0\Projects\zstack\ZNP\CC253x\..\..\Tools\CC2530DB\f8wConfig.cfg"
//        (-DZIGBEEPRO -DSECURE=1 -DZG_SECURE_DYNAMIC=0 -DREFLECTOR
//        -DDEFAULT_CHANLIST=0x00000800 -DZDAPP_CONFIG_PAN_ID=0xFFFF
//        -DNWK_START_DELAY=100 -DEXTENDED_JOINING_RANDOM_MASK=0x007F
//        -DBEACON_REQUEST_DELAY=100 -DBEACON_REQ_DELAY_MASK=0x00FF
//        -DLINK_STATUS_JITTER_MASK=0x007F -DROUTE_EXPIRY_TIME=30
//        -DAPSC_ACK_WAIT_DURATION_POLLED=3000 -DNWK_INDIRECT_MSG_TIMEOUT=7
//        -DMAX_RREQ_ENTRIES=8 -DAPSC_MAX_FRAME_RETRIES=3
//        -DNWK_MAX_DATA_RETRIES=2 -DMAX_POLL_FAILURE_RETRIES=2 -DMAX_BCAST=9
//        -DAPS_MAX_GROUPS=16 -DMAX_RTG_ENTRIES=40 -DNWK_MAX_BINDING_ENTRIES=4
//        -DMAX_BINDING_CLUSTER_IDS=4 "-DDEFAULT_KEY={0x01, 0x03, 0x05, 0x07,
//        0x09, 0x0B, 0x0D, 0x0F, 0x00, 0x02, 0x04, 0x06, 0x08, 0x0A, 0x0C,
//        0x0D}" -DMAC_MAX_FRAME_SIZE=116 -DZDNWKMGR_MIN_TRANSMISSIONS=20
//        "-DCONST=const __code" -DGENERIC=__generic -DRFD_RCVC_ALWAYS_ON=FALSE
//        -DPOLL_RATE=1000 -DQUEUED_POLL_RATE=100 -DRESPONSE_POLL_RATE=100
//        -DREJOIN_POLL_RATE=440) -f
//        "D:\1.embedded\kit\cc2530\Reference\Z-Stack Mesh
//        1.0.0\Projects\zstack\ZNP\CC253x\..\..\Tools\CC2530DB\f8wZCL.cfg"
//        "D:\1.embedded\kit\cc2530\Reference\Z-Stack Mesh
//        1.0.0\Components\stack\sys\ZGlobals.c" -D FEATURE_SYSTEM_STATS -D
//        POWER_SAVING -lC "D:\1.embedded\kit\cc2530\Reference\Z-Stack Mesh
//        1.0.0\Projects\zstack\ZNP\CC253x\CC2530-Debug\List" -lA
//        "D:\1.embedded\kit\cc2530\Reference\Z-Stack Mesh
//        1.0.0\Projects\zstack\ZNP\CC253x\CC2530-Debug\List" --diag_suppress
//        Pe001,Pa010 -o "D:\1.embedded\kit\cc2530\Reference\Z-Stack Mesh
//        1.0.0\Projects\zstack\ZNP\CC253x\CC2530-Debug\Obj" -e
//        --no_code_motion --debug --core=plain --dptr=16,1 --data_model=large
//        --code_model=banked --calling_convention=xdata_reentrant
//        --place_constants=data_rom --nr_virtual_regs 16 -I
//        "D:\1.embedded\kit\cc2530\Reference\Z-Stack Mesh
//        1.0.0\Projects\zstack\ZNP\CC253x\" -I
//        "D:\1.embedded\kit\cc2530\Reference\Z-Stack Mesh
//        1.0.0\Projects\zstack\ZNP\CC253x\Source\" -I
//        "D:\1.embedded\kit\cc2530\Reference\Z-Stack Mesh
//        1.0.0\Projects\zstack\ZNP\CC253x\..\Source\" -I
//        "D:\1.embedded\kit\cc2530\Reference\Z-Stack Mesh
//        1.0.0\Projects\zstack\ZNP\CC253x\..\..\SE\Source\" -I
//        "D:\1.embedded\kit\cc2530\Reference\Z-Stack Mesh
//        1.0.0\Projects\zstack\ZNP\CC253x\..\..\ZMain\TI2530ZNP\" -I
//        "D:\1.embedded\kit\cc2530\Reference\Z-Stack Mesh
//        1.0.0\Projects\zstack\ZNP\CC253x\..\..\..\..\Components\hal\include\"
//        -I "D:\1.embedded\kit\cc2530\Reference\Z-Stack Mesh
//        1.0.0\Projects\zstack\ZNP\CC253x\..\..\..\..\Components\hal\target\CC2530ZNP\"
//        -I "D:\1.embedded\kit\cc2530\Reference\Z-Stack Mesh
//        1.0.0\Projects\zstack\ZNP\CC253x\..\..\..\..\Components\mac\include\"
//        -I "D:\1.embedded\kit\cc2530\Reference\Z-Stack Mesh
//        1.0.0\Projects\zstack\ZNP\CC253x\..\..\..\..\Components\mac\high_level\"
//        -I "D:\1.embedded\kit\cc2530\Reference\Z-Stack Mesh
//        1.0.0\Projects\zstack\ZNP\CC253x\..\..\..\..\Components\mac\low_level\srf04\"
//        -I "D:\1.embedded\kit\cc2530\Reference\Z-Stack Mesh
//        1.0.0\Projects\zstack\ZNP\CC253x\..\..\..\..\Components\mac\low_level\srf04\single_chip\"
//        -I "D:\1.embedded\kit\cc2530\Reference\Z-Stack Mesh
//        1.0.0\Projects\zstack\ZNP\CC253x\..\..\..\..\Components\mt\" -I
//        "D:\1.embedded\kit\cc2530\Reference\Z-Stack Mesh
//        1.0.0\Projects\zstack\ZNP\CC253x\..\..\..\..\Components\osal\include\"
//        -I "D:\1.embedded\kit\cc2530\Reference\Z-Stack Mesh
//        1.0.0\Projects\zstack\ZNP\CC253x\..\..\..\..\Components\services\saddr\"
//        -I "D:\1.embedded\kit\cc2530\Reference\Z-Stack Mesh
//        1.0.0\Projects\zstack\ZNP\CC253x\..\..\..\..\Components\services\sdata\"
//        -I "D:\1.embedded\kit\cc2530\Reference\Z-Stack Mesh
//        1.0.0\Projects\zstack\ZNP\CC253x\..\..\..\..\Components\stack\af\" -I
//        "D:\1.embedded\kit\cc2530\Reference\Z-Stack Mesh
//        1.0.0\Projects\zstack\ZNP\CC253x\..\..\..\..\Components\stack\nwk\"
//        -I "D:\1.embedded\kit\cc2530\Reference\Z-Stack Mesh
//        1.0.0\Projects\zstack\ZNP\CC253x\..\..\..\..\Components\stack\sapi\"
//        -I "D:\1.embedded\kit\cc2530\Reference\Z-Stack Mesh
//        1.0.0\Projects\zstack\ZNP\CC253x\..\..\..\..\Components\stack\sec\"
//        -I "D:\1.embedded\kit\cc2530\Reference\Z-Stack Mesh
//        1.0.0\Projects\zstack\ZNP\CC253x\..\..\..\..\Components\stack\sys\"
//        -I "D:\1.embedded\kit\cc2530\Reference\Z-Stack Mesh
//        1.0.0\Projects\zstack\ZNP\CC253x\..\..\..\..\Components\stack\zcl\"
//        -I "D:\1.embedded\kit\cc2530\Reference\Z-Stack Mesh
//        1.0.0\Projects\zstack\ZNP\CC253x\..\..\..\..\Components\stack\zdo\"
//        -I "D:\1.embedded\kit\cc2530\Reference\Z-Stack Mesh
//        1.0.0\Projects\zstack\ZNP\CC253x\..\..\..\..\Components\zmac\" -I
//        "D:\1.embedded\kit\cc2530\Reference\Z-Stack Mesh
//        1.0.0\Projects\zstack\ZNP\CC253x\..\..\..\..\Components\zmac\f8w\"
//        -Ohz --require_prototypes
//    List file          =  
//        D:\1.embedded\kit\cc2530\Reference\Z-Stack Mesh
//        1.0.0\Projects\zstack\ZNP\CC253x\CC2530-Debug\List\ZGlobals.s51
//
///////////////////////////////////////////////////////////////////////////////

        NAME ZGlobals

        RTMODEL "__SystemLibrary", "CLib"
        RTMODEL "__calling_convention", "xdata_reentrant"
        RTMODEL "__code_model", "banked"
        RTMODEL "__core", "plain"
        RTMODEL "__data_model", "large"
        RTMODEL "__dptr_size", "16"
        RTMODEL "__extended_stack", "disabled"
        RTMODEL "__location_for_constants", "data"
        RTMODEL "__number_of_dptrs", "1"
        RTMODEL "__rt_version", "1"

        RSEG DOVERLAY:DATA:NOROOT(0)
        RSEG IOVERLAY:IDATA:NOROOT(0)
        RSEG ISTACK:IDATA:NOROOT(0)
        RSEG PSTACK:XDATA:NOROOT(0)
        RSEG XSTACK:XDATA:NOROOT(0)

        EXTERN ?V0
        EXTERN ?V1
        EXTERN ?V2
        EXTERN ?V3
        EXTERN ?V4
        EXTERN ?V5
        EXTERN ?ALLOC_XSTACK8
        EXTERN ?BANKED_ENTER_XDATA
        EXTERN ?BANKED_LEAVE_XDATA
        EXTERN ?BDISPATCH
        EXTERN ?DEALLOC_XSTACK8
        EXTERN ?PUSH_XSTACK_I_THREE
        EXTERN ?PUSH_XSTACK_I_TWO
        EXTERN ?XSP
        EXTERN ?XSTACK_DISP0_8
        EXTERN ?XSTACK_DISP100_8
        EXTERN ?XSTACK_DISP101_8
        EXTERN __INIT_XDATA_I
        EXTERN __INIT_XDATA_Z

        PUBLIC `??zgInit::?relay`
        FUNCTION `??zgInit::?relay`,0203H
        PUBLIC `??zgInitItems::?relay`
        FUNCTION `??zgInitItems::?relay`,0203H
        PUBLIC `??zgReadStartupOptions::?relay`
        FUNCTION `??zgReadStartupOptions::?relay`,0203H
        PUBLIC `??zgSetItem::?relay`
        FUNCTION `??zgSetItem::?relay`,0203H
        PUBLIC `??zgWriteStartupOptions::?relay`
        FUNCTION `??zgWriteStartupOptions::?relay`,0203H
        PUBLIC zgApsAckWaitMultiplier
        PUBLIC zgApsAllowR19Sec
        PUBLIC zgApsDefaultMaxBindingTime
        PUBLIC zgApsLinkKeyType
        PUBLIC zgApsMinDupRejTableSize
        PUBLIC zgApsNonMemberRadius
        PUBLIC zgApsTrustCenterAddr
        PUBLIC zgApsUseExtendedPANID
        PUBLIC zgApsUseInsecureJoin
        PUBLIC zgApscAckWaitDurationPolled
        PUBLIC zgApscDupRejTimeoutCount
        PUBLIC zgApscDupRejTimeoutInc
        PUBLIC zgApscMaxFrameRetries
        PUBLIC zgBcastDeliveryTime
        PUBLIC zgChildAgingEnable
        PUBLIC zgConcentratorDiscoveryTime
        PUBLIC zgConcentratorEnable
        PUBLIC zgConcentratorRC
        PUBLIC zgConcentratorRadius
        PUBLIC zgConfigPANID
        PUBLIC zgDefaultChannelList
        PUBLIC zgDefaultStartingScanDuration
        PUBLIC zgDeviceLogicalType
        PUBLIC zgExtendedPANID
        PUBLIC zgIndirectMsgTimeout
        PUBLIC zgInit
        FUNCTION zgInit,0a1203H
        ARGFRAME XSTACK, 0, STACK
        LOCFRAME XSTACK, 33, STACK
        PUBLIC zgInitItems
        FUNCTION zgInitItems,0a1203H
        ARGFRAME XSTACK, 29, STACK
        ARGFRAME IOVERLAY, 0, STATIC
        ARGFRAME DOVERLAY, 0, STATIC
        LOCFRAME XSTACK, 18, STACK
        PUBLIC zgMaxBcastRetires
        PUBLIC zgMaxDataRetries
        PUBLIC zgMaxPollFailureRetries
        PUBLIC zgNwkCommissionedNwkAddr
        PUBLIC zgNwkLeaveRequestAllowed
        PUBLIC zgNwkMgrMinTransmissions
        PUBLIC zgNwkMgrMode
        PUBLIC zgNwkMode
        PUBLIC zgNwkSrcRtgExpiryTime
        PUBLIC zgPassiveAckTimeout
        PUBLIC zgPollRate
        PUBLIC zgPreConfigKeys
        PUBLIC zgQueuedPollRate
        PUBLIC zgReadStartupOptions
        FUNCTION zgReadStartupOptions,0a1203H
        ARGFRAME XSTACK, 29, STACK
        ARGFRAME IOVERLAY, 0, STATIC
        ARGFRAME DOVERLAY, 0, STATIC
        LOCFRAME XSTACK, 15, STACK
        PUBLIC zgRejoinPollRate
        PUBLIC zgResponsePollRate
        PUBLIC zgRouteDiscoveryTime
        PUBLIC zgRouteExpiryTime
        PUBLIC zgRouterOffAssocCleanup
        PUBLIC zgSapiEndpoint
        PUBLIC zgSecurePermitJoin
        PUBLIC zgSecurityMode
        PUBLIC zgSetItem
        FUNCTION zgSetItem,0a1203H
        ARGFRAME XSTACK, 2, STACK
        LOCFRAME XSTACK, 14, STACK
        PUBLIC zgStackProfile
        PUBLIC zgStartDelay
        PUBLIC zgUseDefaultTCLK
        PUBLIC zgWriteStartupOptions
        FUNCTION zgWriteStartupOptions,0a1203H
        ARGFRAME XSTACK, 29, STACK
        ARGFRAME IOVERLAY, 0, STATIC
        ARGFRAME DOVERLAY, 0, STATIC
        LOCFRAME XSTACK, 15, STACK
        PUBLIC zgZdoDirectCB
        
          CFI Names cfiNames0
          CFI StackFrame CFA_SP SP IDATA
          CFI StackFrame CFA_PSP16 PSP16 XDATA
          CFI StackFrame CFA_XSP16 XSP16 XDATA
          CFI StaticOverlayFrame CFA_IOVERLAY IOVERLAY
          CFI StaticOverlayFrame CFA_DOVERLAY DOVERLAY
          CFI Resource `PSW.CY`:1, `B.BR0`:1, `B.BR1`:1, `B.BR2`:1, `B.BR3`:1
          CFI Resource `B.BR4`:1, `B.BR5`:1, `B.BR6`:1, `B.BR7`:1, `VB.BR8`:1
          CFI Resource `VB.BR9`:1, `VB.BR10`:1, `VB.BR11`:1, `VB.BR12`:1
          CFI Resource `VB.BR13`:1, `VB.BR14`:1, `VB.BR15`:1, VB:8, B:8, A:8
          CFI Resource PSW:8, DPL0:8, DPH0:8, R0:8, R1:8, R2:8, R3:8, R4:8, R5:8
          CFI Resource R6:8, R7:8, V0:8, V1:8, V2:8, V3:8, V4:8, V5:8, V6:8, V7:8
          CFI Resource V8:8, V9:8, V10:8, V11:8, V12:8, V13:8, V14:8, V15:8, SP:8
          CFI Resource PSPH:8, PSPL:8, PSP16:16, XSPH:8, XSPL:8, XSP16:16
          CFI VirtualResource ?RET:24
          CFI Resource ?BRET_EXT:8
          CFI VirtualResource ?RET_HIGH:8, ?RET_LOW:8
          CFI ResourceParts PSP16 PSPH, PSPL
          CFI ResourceParts XSP16 XSPH, XSPL
          CFI ResourceParts ?RET ?BRET_EXT, ?RET_HIGH, ?RET_LOW
          CFI EndNames cfiNames0
        
          CFI Common cfiCommon0 Using cfiNames0
          CFI CodeAlign 1
          CFI DataAlign -1
          CFI ReturnAddress ?RET CODE
          CFI CFA_DOVERLAY Used
          CFI CFA_IOVERLAY Used
          CFI CFA_SP SP+-3
          CFI CFA_PSP16 PSP16+0
          CFI CFA_XSP16 XSP16+0
          CFI `PSW.CY` SameValue
          CFI `B.BR0` SameValue
          CFI `B.BR1` SameValue
          CFI `B.BR2` SameValue
          CFI `B.BR3` SameValue
          CFI `B.BR4` SameValue
          CFI `B.BR5` SameValue
          CFI `B.BR6` SameValue
          CFI `B.BR7` SameValue
          CFI `VB.BR8` SameValue
          CFI `VB.BR9` SameValue
          CFI `VB.BR10` SameValue
          CFI `VB.BR11` SameValue
          CFI `VB.BR12` SameValue
          CFI `VB.BR13` SameValue
          CFI `VB.BR14` SameValue
          CFI `VB.BR15` SameValue
          CFI VB SameValue
          CFI B Undefined
          CFI A Undefined
          CFI PSW SameValue
          CFI DPL0 SameValue
          CFI DPH0 SameValue
          CFI R0 Undefined
          CFI R1 Undefined
          CFI R2 Undefined
          CFI R3 Undefined
          CFI R4 Undefined
          CFI R5 Undefined
          CFI R6 SameValue
          CFI R7 SameValue
          CFI V0 SameValue
          CFI V1 SameValue
          CFI V2 SameValue
          CFI V3 SameValue
          CFI V4 SameValue
          CFI V5 SameValue
          CFI V6 SameValue
          CFI V7 SameValue
          CFI V8 SameValue
          CFI V9 SameValue
          CFI V10 SameValue
          CFI V11 SameValue
          CFI V12 SameValue
          CFI V13 SameValue
          CFI V14 SameValue
          CFI V15 SameValue
          CFI PSPH Undefined
          CFI PSPL Undefined
          CFI XSPH Undefined
          CFI XSPL Undefined
          CFI ?RET Concat
          CFI ?BRET_EXT Frame(CFA_SP, 3)
          CFI ?RET_HIGH Frame(CFA_SP, 2)
          CFI ?RET_LOW Frame(CFA_SP, 1)
          CFI EndCommon cfiCommon0
        
        
          CFI Common cfiCommon1 Using cfiNames0
          CFI CodeAlign 1
          CFI DataAlign -1
          CFI ReturnAddress ?RET CODE
          CFI CFA_DOVERLAY Used
          CFI CFA_IOVERLAY Used
          CFI CFA_SP SP+-2
          CFI CFA_PSP16 PSP16+0
          CFI CFA_XSP16 XSP16+0
          CFI `PSW.CY` SameValue
          CFI `B.BR0` SameValue
          CFI `B.BR1` SameValue
          CFI `B.BR2` SameValue
          CFI `B.BR3` SameValue
          CFI `B.BR4` SameValue
          CFI `B.BR5` SameValue
          CFI `B.BR6` SameValue
          CFI `B.BR7` SameValue
          CFI `VB.BR8` SameValue
          CFI `VB.BR9` SameValue
          CFI `VB.BR10` SameValue
          CFI `VB.BR11` SameValue
          CFI `VB.BR12` SameValue
          CFI `VB.BR13` SameValue
          CFI `VB.BR14` SameValue
          CFI `VB.BR15` SameValue
          CFI VB SameValue
          CFI B SameValue
          CFI A SameValue
          CFI PSW SameValue
          CFI DPL0 SameValue
          CFI DPH0 SameValue
          CFI R0 SameValue
          CFI R1 SameValue
          CFI R2 SameValue
          CFI R3 SameValue
          CFI R4 SameValue
          CFI R5 SameValue
          CFI R6 SameValue
          CFI R7 SameValue
          CFI V0 SameValue
          CFI V1 SameValue
          CFI V2 SameValue
          CFI V3 SameValue
          CFI V4 SameValue
          CFI V5 SameValue
          CFI V6 SameValue
          CFI V7 SameValue
          CFI V8 SameValue
          CFI V9 SameValue
          CFI V10 SameValue
          CFI V11 SameValue
          CFI V12 SameValue
          CFI V13 SameValue
          CFI V14 SameValue
          CFI V15 SameValue
          CFI PSPH Undefined
          CFI PSPL Undefined
          CFI XSPH Undefined
          CFI XSPL Undefined
          CFI ?RET Concat
          CFI ?BRET_EXT SameValue
          CFI ?RET_HIGH Frame(CFA_SP, 2)
          CFI ?RET_LOW Frame(CFA_SP, 1)
          CFI EndCommon cfiCommon1
        
ZDSecMgrInitNVKeyTables SYMBOL "ZDSecMgrInitNVKeyTables"
`??ZDSecMgrInitNVKeyTables::?relay` SYMBOL "?relay", ZDSecMgrInitNVKeyTables
ZMacGetReq          SYMBOL "ZMacGetReq"
`??ZMacGetReq::?relay` SYMBOL "?relay", ZMacGetReq
osal_memcpy         SYMBOL "osal_memcpy"
`??osal_memcpy::?relay` SYMBOL "?relay", osal_memcpy
osal_memset         SYMBOL "osal_memset"
`??osal_memset::?relay` SYMBOL "?relay", osal_memset
osal_nv_item_init   SYMBOL "osal_nv_item_init"
`??osal_nv_item_init::?relay` SYMBOL "?relay", osal_nv_item_init
osal_nv_read        SYMBOL "osal_nv_read"
`??osal_nv_read::?relay` SYMBOL "?relay", osal_nv_read
osal_nv_write       SYMBOL "osal_nv_write"
`??osal_nv_write::?relay` SYMBOL "?relay", osal_nv_write
zgInit              SYMBOL "zgInit"
`??zgInit::?relay`  SYMBOL "?relay", zgInit
zgInitItems         SYMBOL "zgInitItems"
`??zgInitItems::?relay` SYMBOL "?relay", zgInitItems
zgReadStartupOptions SYMBOL "zgReadStartupOptions"
`??zgReadStartupOptions::?relay` SYMBOL "?relay", zgReadStartupOptions
zgSetItem           SYMBOL "zgSetItem"
`??zgSetItem::?relay` SYMBOL "?relay", zgSetItem
zgWriteStartupOptions SYMBOL "zgWriteStartupOptions"
`??zgWriteStartupOptions::?relay` SYMBOL "?relay", zgWriteStartupOptions

        EXTERN `??ZDSecMgrInitNVKeyTables::?relay`
        FUNCTION `??ZDSecMgrInitNVKeyTables::?relay`,00H
        EXTERN `??ZMacGetReq::?relay`
        FUNCTION `??ZMacGetReq::?relay`,00H
        EXTERN `??osal_memcpy::?relay`
        FUNCTION `??osal_memcpy::?relay`,00H
        EXTERN `??osal_memset::?relay`
        FUNCTION `??osal_memset::?relay`,00H
        EXTERN `??osal_nv_item_init::?relay`
        FUNCTION `??osal_nv_item_init::?relay`,00H
        EXTERN `??osal_nv_read::?relay`
        FUNCTION `??osal_nv_read::?relay`,00H
        EXTERN `??osal_nv_write::?relay`
        FUNCTION `??osal_nv_write::?relay`,00H
        EXTERN ZDSecMgrInitNVKeyTables
        FUNCTION ZDSecMgrInitNVKeyTables,0202H
        ARGFRAME ISTACK, 0, STACK
        ARGFRAME PSTACK, 0, STACK
        ARGFRAME XSTACK, 29, STACK
        ARGFRAME IOVERLAY, 0, STATIC
        ARGFRAME DOVERLAY, 0, STATIC
        EXTERN ZMacGetReq
        FUNCTION ZMacGetReq,0202H
        ARGFRAME ISTACK, 0, STACK
        ARGFRAME PSTACK, 0, STACK
        ARGFRAME XSTACK, 29, STACK
        ARGFRAME IOVERLAY, 0, STATIC
        ARGFRAME DOVERLAY, 0, STATIC
        EXTERN defaultKey
        EXTERN osal_memcpy
        FUNCTION osal_memcpy,0202H
        ARGFRAME ISTACK, 0, STACK
        ARGFRAME PSTACK, 0, STACK
        ARGFRAME XSTACK, 32, STACK
        ARGFRAME IOVERLAY, 0, STATIC
        ARGFRAME DOVERLAY, 0, STATIC
        EXTERN osal_memset
        FUNCTION osal_memset,0202H
        ARGFRAME ISTACK, 0, STACK
        ARGFRAME PSTACK, 0, STACK
        ARGFRAME XSTACK, 29, STACK
        ARGFRAME IOVERLAY, 0, STATIC
        ARGFRAME DOVERLAY, 0, STATIC
        EXTERN osal_nv_item_init
        FUNCTION osal_nv_item_init,0202H
        ARGFRAME ISTACK, 0, STACK
        ARGFRAME PSTACK, 0, STACK
        ARGFRAME XSTACK, 31, STACK
        ARGFRAME IOVERLAY, 0, STATIC
        ARGFRAME DOVERLAY, 0, STATIC
        EXTERN osal_nv_read
        FUNCTION osal_nv_read,0202H
        ARGFRAME ISTACK, 0, STACK
        ARGFRAME PSTACK, 0, STACK
        ARGFRAME XSTACK, 33, STACK
        ARGFRAME IOVERLAY, 0, STATIC
        ARGFRAME DOVERLAY, 0, STATIC
        EXTERN osal_nv_write
        FUNCTION osal_nv_write,0202H
        ARGFRAME ISTACK, 0, STACK
        ARGFRAME PSTACK, 0, STACK
        ARGFRAME XSTACK, 33, STACK
        ARGFRAME IOVERLAY, 0, STATIC
        ARGFRAME DOVERLAY, 0, STATIC

// D:\1.embedded\kit\cc2530\Reference\Z-Stack Mesh 1.0.0\Components\stack\sys\ZGlobals.c
//    1 /**************************************************************************************************
//    2   Filename:       ZGlobals.c
//    3   Revised:        $Date: 2014-03-13 10:55:58 -0700 (Thu, 13 Mar 2014) $
//    4   Revision:       $Revision: 37665 $
//    5 
//    6   Description:    User definable Z-Stack parameters.
//    7 
//    8 
//    9   Copyright 2007-2014 Texas Instruments Incorporated. All rights reserved.
//   10 
//   11   IMPORTANT: Your use of this Software is limited to those specific rights
//   12   granted under the terms of a software license agreement between the user
//   13   who downloaded the software, his/her employer (which must be your employer)
//   14   and Texas Instruments Incorporated (the "License").  You may not use this
//   15   Software unless you agree to abide by the terms of the License. The License
//   16   limits your use, and you acknowledge, that the Software may not be modified,
//   17   copied or distributed unless embedded on a Texas Instruments microcontroller
//   18   or used solely and exclusively in conjunction with a Texas Instruments radio
//   19   frequency transceiver, which is integrated into your product. Other than for
//   20   the foregoing purpose, you may not use, reproduce, copy, prepare derivative
//   21   works of, modify, distribute, perform, display or sell this Software and/or
//   22   its documentation for any purpose.
//   23 
//   24   YOU FURTHER ACKNOWLEDGE AND AGREE THAT THE SOFTWARE AND DOCUMENTATION ARE
//   25   PROVIDED "AS IS" WITHOUT WARRANTY OF ANY KIND, EITHER EXPRESS OR IMPLIED,
//   26   INCLUDING WITHOUT LIMITATION, ANY WARRANTY OF MERCHANTABILITY, TITLE,
//   27   NON-INFRINGEMENT AND FITNESS FOR A PARTICULAR PURPOSE. IN NO EVENT SHALL
//   28   TEXAS INSTRUMENTS OR ITS LICENSORS BE LIABLE OR OBLIGATED UNDER CONTRACT,
//   29   NEGLIGENCE, STRICT LIABILITY, CONTRIBUTION, BREACH OF WARRANTY, OR OTHER
//   30   LEGAL EQUITABLE THEORY ANY DIRECT OR INDIRECT DAMAGES OR EXPENSES
//   31   INCLUDING BUT NOT LIMITED TO ANY INCIDENTAL, SPECIAL, INDIRECT, PUNITIVE
//   32   OR CONSEQUENTIAL DAMAGES, LOST PROFITS OR LOST DATA, COST OF PROCUREMENT
//   33   OF SUBSTITUTE GOODS, TECHNOLOGY, SERVICES, OR ANY CLAIMS BY THIRD PARTIES
//   34   (INCLUDING BUT NOT LIMITED TO ANY DEFENSE THEREOF), OR OTHER SIMILAR COSTS.
//   35 
//   36   Should you have any questions regarding your right to use this Software,
//   37   contact Texas Instruments Incorporated at www.TI.com.
//   38 **************************************************************************************************/
//   39 
//   40 /*********************************************************************
//   41  * INCLUDES
//   42  */
//   43 
//   44 #include "ZComDef.h"
//   45 #include "OSAL_Nv.h"
//   46 #include "ZDObject.h"
//   47 #include "ZGlobals.h"
//   48 #include "ZDNwkMgr.h"
//   49 #include "OnBoard.h"
//   50 #include "ZDSecMgr.h"
//   51 
//   52 /*********************************************************************
//   53  * MACROS
//   54  */
//   55 
//   56 /*********************************************************************
//   57  * CONSTANTS
//   58  */
//   59 
//   60 /*********************************************************************
//   61  * TYPEDEFS
//   62  */
//   63 
//   64 typedef struct zgItem
//   65 {
//   66   uint16 id;
//   67   uint16 len;
//   68   void *buf;
//   69 } zgItem_t;
//   70 
//   71 /*********************************************************************
//   72  * NWK GLOBAL VARIABLES
//   73  */
//   74 
//   75 // Polling values

        RSEG XDATA_I:XDATA:NOROOT(0)
//   76 uint16 zgPollRate = POLL_RATE;
zgPollRate:
        DATA16
        DS 2
        REQUIRE `?<Initializer for zgPollRate>`
        REQUIRE __INIT_XDATA_I

        RSEG XDATA_I:XDATA:NOROOT(0)
//   77 uint16 zgQueuedPollRate = QUEUED_POLL_RATE;
zgQueuedPollRate:
        DATA16
        DS 2
        REQUIRE `?<Initializer for zgQueuedPollRate>`
        REQUIRE __INIT_XDATA_I

        RSEG XDATA_I:XDATA:NOROOT(0)
//   78 uint16 zgResponsePollRate = RESPONSE_POLL_RATE;
zgResponsePollRate:
        DATA16
        DS 2
        REQUIRE `?<Initializer for zgResponsePollRate>`
        REQUIRE __INIT_XDATA_I

        RSEG XDATA_I:XDATA:NOROOT(0)
//   79 uint16 zgRejoinPollRate = REJOIN_POLL_RATE;
zgRejoinPollRate:
        DATA16
        DS 2
        REQUIRE `?<Initializer for zgRejoinPollRate>`
        REQUIRE __INIT_XDATA_I
//   80 
//   81 // Transmission retries numbers

        RSEG XDATA_I:XDATA:NOROOT(0)
//   82 uint8 zgMaxDataRetries = NWK_MAX_DATA_RETRIES;
zgMaxDataRetries:
        DATA8
        DS 1
        REQUIRE `?<Initializer for zgMaxDataRetries>`
        REQUIRE __INIT_XDATA_I

        RSEG XDATA_I:XDATA:NOROOT(0)
//   83 uint8 zgMaxPollFailureRetries = MAX_POLL_FAILURE_RETRIES;
zgMaxPollFailureRetries:
        DATA8
        DS 1
        REQUIRE `?<Initializer for zgMaxPollFailureRetries>`
        REQUIRE __INIT_XDATA_I
//   84 
//   85 // Default channel list

        RSEG XDATA_I:XDATA:NOROOT(0)
//   86 uint32 zgDefaultChannelList = DEFAULT_CHANLIST;
zgDefaultChannelList:
        DATA32
        DS 4
        REQUIRE `?<Initializer for zgDefaultChannelList>`
        REQUIRE __INIT_XDATA_I
//   87 
//   88 // Default starting scan duration

        RSEG XDATA_I:XDATA:NOROOT(0)
//   89 uint8 zgDefaultStartingScanDuration = STARTING_SCAN_DURATION;
zgDefaultStartingScanDuration:
        DATA8
        DS 1
        REQUIRE `?<Initializer for zgDefaultStartingScanDuratio`
        REQUIRE __INIT_XDATA_I
//   90 
//   91 // Stack profile Id

        RSEG XDATA_I:XDATA:NOROOT(0)
//   92 uint8 zgStackProfile = STACK_PROFILE_ID;
zgStackProfile:
        DATA8
        DS 1
        REQUIRE `?<Initializer for zgStackProfile>`
        REQUIRE __INIT_XDATA_I
//   93 
//   94 // Default indirect message holding timeout

        RSEG XDATA_I:XDATA:NOROOT(0)
//   95 uint8 zgIndirectMsgTimeout = NWK_INDIRECT_MSG_TIMEOUT;
zgIndirectMsgTimeout:
        DATA8
        DS 1
        REQUIRE `?<Initializer for zgIndirectMsgTimeout>`
        REQUIRE __INIT_XDATA_I
//   96 
//   97 // Security mode

        RSEG XDATA_I:XDATA:NOROOT(0)
//   98 uint8 zgSecurityMode = ZG_SECURITY_MODE;
zgSecurityMode:
        DATA8
        DS 1
        REQUIRE `?<Initializer for zgSecurityMode>`
        REQUIRE __INIT_XDATA_I
//   99 
//  100 // Secure permit join

        RSEG XDATA_I:XDATA:NOROOT(0)
//  101 uint8 zgSecurePermitJoin = TRUE;
zgSecurePermitJoin:
        DATA8
        DS 1
        REQUIRE `?<Initializer for zgSecurePermitJoin>`
        REQUIRE __INIT_XDATA_I
//  102 
//  103 // Trust center address

        RSEG XDATA_Z:XDATA:NOROOT(0)
        DATA8
//  104 uint8 zgApsTrustCenterAddr[Z_EXTADDR_LEN] = { 0 };
zgApsTrustCenterAddr:
        DS 8
        REQUIRE __INIT_XDATA_Z
//  105 
//  106 // Route Discovery Time - amount of time that a route request lasts

        RSEG XDATA_I:XDATA:NOROOT(0)
//  107 uint8 zgRouteDiscoveryTime = ROUTE_DISCOVERY_TIME;
zgRouteDiscoveryTime:
        DATA8
        DS 1
        REQUIRE `?<Initializer for zgRouteDiscoveryTime>`
        REQUIRE __INIT_XDATA_I
//  108 
//  109 // Route expiry

        RSEG XDATA_I:XDATA:NOROOT(0)
//  110 uint8 zgRouteExpiryTime = ROUTE_EXPIRY_TIME;
zgRouteExpiryTime:
        DATA8
        DS 1
        REQUIRE `?<Initializer for zgRouteExpiryTime>`
        REQUIRE __INIT_XDATA_I
//  111 
//  112 // Extended PAN Id

        RSEG XDATA_Z:XDATA:NOROOT(0)
        DATA8
//  113 uint8 zgExtendedPANID[Z_EXTADDR_LEN];
zgExtendedPANID:
        DS 8
        REQUIRE __INIT_XDATA_Z
//  114 
//  115 // Broadcast parameters

        RSEG XDATA_I:XDATA:NOROOT(0)
//  116 uint8 zgMaxBcastRetires   = MAX_BCAST_RETRIES;
zgMaxBcastRetires:
        DATA8
        DS 1
        REQUIRE `?<Initializer for zgMaxBcastRetires>`
        REQUIRE __INIT_XDATA_I

        RSEG XDATA_I:XDATA:NOROOT(0)
//  117 uint8 zgPassiveAckTimeout = PASSIVE_ACK_TIMEOUT;
zgPassiveAckTimeout:
        DATA8
        DS 1
        REQUIRE `?<Initializer for zgPassiveAckTimeout>`
        REQUIRE __INIT_XDATA_I

        RSEG XDATA_I:XDATA:NOROOT(0)
//  118 uint8 zgBcastDeliveryTime = BCAST_DELIVERY_TIME;
zgBcastDeliveryTime:
        DATA8
        DS 1
        REQUIRE `?<Initializer for zgBcastDeliveryTime>`
        REQUIRE __INIT_XDATA_I
//  119 
//  120 // Network mode

        RSEG XDATA_I:XDATA:NOROOT(0)
//  121 uint8 zgNwkMode = NWK_MODE;
zgNwkMode:
        DATA8
        DS 1
        REQUIRE `?<Initializer for zgNwkMode>`
        REQUIRE __INIT_XDATA_I
//  122 
//  123 // Many-to-one values

        RSEG XDATA_Z:XDATA:NOROOT(0)
        DATA8
//  124 uint8 zgConcentratorEnable = CONCENTRATOR_ENABLE;
zgConcentratorEnable:
        DS 1
        REQUIRE __INIT_XDATA_Z

        RSEG XDATA_Z:XDATA:NOROOT(0)
        DATA8
//  125 uint8 zgConcentratorDiscoveryTime = CONCENTRATOR_DISCOVERY_TIME;
zgConcentratorDiscoveryTime:
        DS 1
        REQUIRE __INIT_XDATA_Z

        RSEG XDATA_I:XDATA:NOROOT(0)
//  126 uint8 zgConcentratorRadius = CONCENTRATOR_RADIUS;
zgConcentratorRadius:
        DATA8
        DS 1
        REQUIRE `?<Initializer for zgConcentratorRadius>`
        REQUIRE __INIT_XDATA_I

        RSEG XDATA_Z:XDATA:NOROOT(0)
        DATA8
//  127 uint8 zgConcentratorRC = CONCENTRATOR_ROUTE_CACHE;   // concentrator with route cache (no memory constraints)
zgConcentratorRC:
        DS 1
        REQUIRE __INIT_XDATA_Z

        RSEG XDATA_I:XDATA:NOROOT(0)
//  128 uint8 zgNwkSrcRtgExpiryTime = SRC_RTG_EXPIRY_TIME;
zgNwkSrcRtgExpiryTime:
        DATA8
        DS 1
        REQUIRE `?<Initializer for zgNwkSrcRtgExpiryTime>`
        REQUIRE __INIT_XDATA_I
//  129 
//  130 // Cleanup Child Table according to routing traffic

        RSEG XDATA_Z:XDATA:NOROOT(0)
        DATA8
//  131 uint8 zgRouterOffAssocCleanup = FALSE;
zgRouterOffAssocCleanup:
        DS 1
        REQUIRE __INIT_XDATA_Z
//  132 
//  133 // Determines whether or not a remote NWK leave request command frame received
//  134 // by the local device is accepted .

        RSEG XDATA_I:XDATA:NOROOT(0)
//  135 uint8 zgNwkLeaveRequestAllowed = TRUE;
zgNwkLeaveRequestAllowed:
        DATA8
        DS 1
        REQUIRE `?<Initializer for zgNwkLeaveRequestAllowed>`
        REQUIRE __INIT_XDATA_I
//  136 
//  137 // Determines if the Child Aging Table Management process is active or not.
//  138 // This feature is optional and it is disabled by default.

        RSEG XDATA_Z:XDATA:NOROOT(0)
        DATA8
//  139 uint8 zgChildAgingEnable = FALSE;
zgChildAgingEnable:
        DS 1
        REQUIRE __INIT_XDATA_Z
//  140 
//  141 /*********************************************************************
//  142  * APS GLOBAL VARIABLES
//  143  */
//  144 
//  145 // The maximum number of retries allowed after a transmission failure

        RSEG XDATA_I:XDATA:NOROOT(0)
//  146 uint8 zgApscMaxFrameRetries = APSC_MAX_FRAME_RETRIES;
zgApscMaxFrameRetries:
        DATA8
        DS 1
        REQUIRE `?<Initializer for zgApscMaxFrameRetries>`
        REQUIRE __INIT_XDATA_I
//  147 
//  148 // The maximum number of seconds (milliseconds) to wait for an
//  149 // acknowledgement to a transmitted frame.
//  150 
//  151 // This number is used by polled devices.

        RSEG XDATA_I:XDATA:NOROOT(0)
//  152 uint16 zgApscAckWaitDurationPolled = APSC_ACK_WAIT_DURATION_POLLED;
zgApscAckWaitDurationPolled:
        DATA16
        DS 2
        REQUIRE `?<Initializer for zgApscAckWaitDurationPolled>`
        REQUIRE __INIT_XDATA_I
//  153 
//  154 // This number is used by non-polled devices in the following formula:
//  155 //   (100 mSec) * (_NIB.MaxDepth * zgApsAckWaitMultiplier)

        RSEG XDATA_I:XDATA:NOROOT(0)
//  156 uint8 zgApsAckWaitMultiplier = 2;
zgApsAckWaitMultiplier:
        DATA8
        DS 1
        REQUIRE `?<Initializer for zgApsAckWaitMultiplier>`
        REQUIRE __INIT_XDATA_I
//  157 
//  158 // The maximum number of milliseconds for the end device binding

        RSEG XDATA_I:XDATA:NOROOT(0)
//  159 uint16 zgApsDefaultMaxBindingTime = APS_DEFAULT_MAXBINDING_TIME;
zgApsDefaultMaxBindingTime:
        DATA16
        DS 2
        REQUIRE `?<Initializer for zgApsDefaultMaxBindingTime>`
        REQUIRE __INIT_XDATA_I
//  160 
//  161 // The 64-big identifier of the network to join or form.
//  162 // Default set to all zeros

        RSEG XDATA_Z:XDATA:NOROOT(0)
        DATA8
//  163 uint8 zgApsUseExtendedPANID[Z_EXTADDR_LEN] = {00,00,00,00,00,00,00,00};
zgApsUseExtendedPANID:
        DS 8
        REQUIRE __INIT_XDATA_Z
//  164 
//  165 // A boolean flag that indicates whether it is OK to use insecure join
//  166 // on startup. Default set to TRUE

        RSEG XDATA_I:XDATA:NOROOT(0)
//  167 uint8 zgApsUseInsecureJoin = TRUE;
zgApsUseInsecureJoin:
        DATA8
        DS 1
        REQUIRE `?<Initializer for zgApsUseInsecureJoin>`
        REQUIRE __INIT_XDATA_I
//  168 
//  169 // The radius of broadcast multicast transmissions

        RSEG XDATA_I:XDATA:NOROOT(0)
//  170 uint8 zgApsNonMemberRadius = APS_DEFAULT_NONMEMBER_RADIUS;
zgApsNonMemberRadius:
        DATA8
        DS 1
        REQUIRE `?<Initializer for zgApsNonMemberRadius>`
        REQUIRE __INIT_XDATA_I
//  171 
//  172 // Commissioned Network Address

        RSEG XDATA_I:XDATA:NOROOT(0)
//  173 uint16 zgNwkCommissionedNwkAddr = INVALID_NODE_ADDR;
zgNwkCommissionedNwkAddr:
        DATA16
        DS 2
        REQUIRE `?<Initializer for zgNwkCommissionedNwkAddr>`
        REQUIRE __INIT_XDATA_I
//  174 
//  175 // APS Duplication Rejection table variables

        RSEG XDATA_I:XDATA:NOROOT(0)
//  176 uint16 zgApscDupRejTimeoutInc = DEFAULT_APS_DUP_REJ_TIMEOUT_INCREMENT;
zgApscDupRejTimeoutInc:
        DATA16
        DS 2
        REQUIRE `?<Initializer for zgApscDupRejTimeoutInc>`
        REQUIRE __INIT_XDATA_I

        RSEG XDATA_I:XDATA:NOROOT(0)
//  177 uint8  zgApscDupRejTimeoutCount = DEFAULT_APS_DUP_REJ_TIMEOUT;
zgApscDupRejTimeoutCount:
        DATA8
        DS 1
        REQUIRE `?<Initializer for zgApscDupRejTimeoutCount>`
        REQUIRE __INIT_XDATA_I

        RSEG XDATA_I:XDATA:NOROOT(0)
//  178 uint16 zgApsMinDupRejTableSize = APS_DUP_REJ_ENTRIES;
zgApsMinDupRejTableSize:
        DATA16
        DS 2
        REQUIRE `?<Initializer for zgApsMinDupRejTableSize>`
        REQUIRE __INIT_XDATA_I
//  179 
//  180 
//  181 
//  182 /*********************************************************************
//  183  * SECURITY GLOBAL VARIABLES
//  184  */
//  185 
//  186 // If TRUE, preConfigKey should be configured on all devices on the network
//  187 // If false, it is configured only on the coordinator and sent to other
//  188 // devices upon joining.

        RSEG XDATA_Z:XDATA:NOROOT(0)
        DATA8
//  189 uint8 zgPreConfigKeys = FALSE;
zgPreConfigKeys:
        DS 1
        REQUIRE __INIT_XDATA_Z
//  190 
//  191 // The type of link key in use.  This will determine the security
//  192 // policies associated with sending and receiving APS messages.
//  193 // If ZG_GLOBAL_LINK_KEY APS TCLK security may be used for specific APS commands
//  194 // If ZG_UNIQUE_LINK_KEY APS TCLK security is required for specific APS commands

        RSEG XDATA_I:XDATA:NOROOT(0)
//  195 uint8 zgApsLinkKeyType = ZG_GLOBAL_LINK_KEY;
zgApsLinkKeyType:
        DATA8
        DS 1
        REQUIRE `?<Initializer for zgApsLinkKeyType>`
        REQUIRE __INIT_XDATA_I
//  196 
//  197 // With changes introduced in R20 of the ZigBee specification,
//  198 // boolean value of zgUseDefaultTCLK is set depending on zgApsLinkKeyType value.
//  199 //
//  200 // For zgApsLinkKeyType = ZG_GLOBAL_LINK_KEY, zgUseDefaultTCLK = TRUE
//  201 // For zgApsLinkKeyType = ZG_UNIQUE_LINK_KEY, different devices have
//  202 // different value:
//  203 //      ZC should have             zgUseDefaultTCLK = FALSE
//  204 //      Other devices should have  zgUseDefaultTCLK = TRUE
//  205 // This is initialized in zgInitItems()
//  206 // If ZG_UNIQUE_LINK_KEY, individual trust center link key between each device
//  207 // and the trust center should be manually configured via MT_SYS_OSAL_NV_WRITE

        RSEG XDATA_Z:XDATA:NOROOT(0)
        DATA8
//  208 uint8 zgUseDefaultTCLK;
zgUseDefaultTCLK:
        DS 1
        REQUIRE __INIT_XDATA_Z
//  209 
//  210 #if defined ( APP_TP2_TEST_MODE )
//  211 uint8 guTxApsSecON = FALSE;
//  212 uint8 guEnforceRxApsSec = TP_GU_ALL;
//  213 #endif
//  214 

        RSEG XDATA_Z:XDATA:NOROOT(0)
        DATA8
//  215 uint8 zgApsAllowR19Sec = FALSE;
zgApsAllowR19Sec:
        DS 1
        REQUIRE __INIT_XDATA_Z
//  216 
//  217 /*********************************************************************
//  218  * ZDO GLOBAL VARIABLES
//  219  */
//  220 
//  221 // Configured PAN ID

        RSEG XDATA_I:XDATA:NOROOT(0)
//  222 uint16 zgConfigPANID = ZDAPP_CONFIG_PAN_ID;
zgConfigPANID:
        DATA16
        DS 2
        REQUIRE `?<Initializer for zgConfigPANID>`
        REQUIRE __INIT_XDATA_I
//  223 
//  224 // Device Logical Type

        RSEG XDATA_Z:XDATA:NOROOT(0)
        DATA8
//  225 uint8 zgDeviceLogicalType = DEVICE_LOGICAL_TYPE;
zgDeviceLogicalType:
        DS 1
        REQUIRE __INIT_XDATA_Z
//  226 
//  227 // Startup Delay

        RSEG XDATA_I:XDATA:NOROOT(0)
//  228 uint8 zgStartDelay = START_DELAY;
zgStartDelay:
        DATA8
        DS 1
        REQUIRE `?<Initializer for zgStartDelay>`
        REQUIRE __INIT_XDATA_I
//  229 
//  230 #if !defined MT_TASK
//  231 // Flag to use verbose (i.e. "cc2480-style") direct MT callbacks in ZDProfile.c, ZDP_IncomingData().

        RSEG XDATA_Z:XDATA:NOROOT(0)
        DATA8
//  232 uint8 zgZdoDirectCB = FALSE;
zgZdoDirectCB:
        DS 1
        REQUIRE __INIT_XDATA_Z
//  233 #endif
//  234 
//  235 // Min number of attempted transmissions for Channel Interference detection

        RSEG XDATA_I:XDATA:NOROOT(0)
//  236 uint8 zgNwkMgrMinTransmissions = ZDNWKMGR_MIN_TRANSMISSIONS;
zgNwkMgrMinTransmissions:
        DATA8
        DS 1
        REQUIRE `?<Initializer for zgNwkMgrMinTransmissions>`
        REQUIRE __INIT_XDATA_I
//  237 
//  238 /*********************************************************************
//  239  * APPLICATION GLOBAL VARIABLES
//  240  */
//  241 
//  242 // Network Manager Mode

        RSEG XDATA_I:XDATA:NOROOT(0)
//  243 uint8 zgNwkMgrMode = ZDNWKMGR_ENABLE;
zgNwkMgrMode:
        DATA8
        DS 1
        REQUIRE `?<Initializer for zgNwkMgrMode>`
        REQUIRE __INIT_XDATA_I
//  244 
//  245 /*********************************************************************
//  246  * NON-STANDARD GLOBAL VARIABLES
//  247  */
//  248 
//  249 // Simple API Endpoint

        RSEG XDATA_I:XDATA:NOROOT(0)
//  250 uint8 zgSapiEndpoint = SAPI_ENDPOINT;
zgSapiEndpoint:
        DATA8
        DS 1
        REQUIRE `?<Initializer for zgSapiEndpoint>`
        REQUIRE __INIT_XDATA_I
//  251 
//  252 /*********************************************************************
//  253  * LOCAL VARIABLES
//  254  */
//  255 
//  256 /*********************************************************************
//  257  * ZGlobal Item Table
//  258  */

        RSEG CODE_C:CODE:REORDER:NOROOT(0)
        DATA8
//  259 static CONST zgItem_t zgItemTable[] =
zgItemTable:
        DATA16
        DW 143
        DW 1
        DW zgZdoDirectCB
        DW 135
        DW 1
        DW zgDeviceLogicalType
        DW 36
        DW 2
        DW zgPollRate
        DW 37
        DW 2
        DW zgQueuedPollRate
        DW 38
        DW 2
        DW zgResponsePollRate
        DW 39
        DW 2
        DW zgRejoinPollRate
        DW 40
        DW 1
        DW zgMaxDataRetries
        DW 41
        DW 1
        DW zgMaxPollFailureRetries
        DW 132
        DW 4
        DW zgDefaultChannelList
        DW 134
        DW 1
        DW zgDefaultStartingScanDuration
        DW 42
        DW 1
        DW zgStackProfile
        DW 43
        DW 1
        DW zgIndirectMsgTimeout
        DW 44
        DW 1
        DW zgRouteExpiryTime
        DW 45
        DW 8
        DW zgExtendedPANID
        DW 46
        DW 1
        DW zgMaxBcastRetires
        DW 47
        DW 1
        DW zgPassiveAckTimeout
        DW 48
        DW 1
        DW zgBcastDeliveryTime
        DW 49
        DW 1
        DW zgNwkMode
        DW 50
        DW 1
        DW zgConcentratorEnable
        DW 51
        DW 1
        DW zgConcentratorDiscoveryTime
        DW 52
        DW 1
        DW zgConcentratorRadius
        DW 54
        DW 1
        DW zgConcentratorRC
        DW 56
        DW 1
        DW zgNwkSrcRtgExpiryTime
        DW 57
        DW 1
        DW zgRouteDiscoveryTime
        DW 131
        DW 2
        DW zgConfigPANID
        DW 99
        DW 1
        DW zgPreConfigKeys
        DW 100
        DW 1
        DW zgSecurityMode
        DW 101
        DW 1
        DW zgSecurePermitJoin
        DW 109
        DW 1
        DW zgUseDefaultTCLK
        DW 113
        DW 8
        DW zgApsTrustCenterAddr
        DW 102
        DW 1
        DW zgApsLinkKeyType
        DW 67
        DW 1
        DW zgApscMaxFrameRetries
        DW 68
        DW 2
        DW zgApscAckWaitDurationPolled
        DW 69
        DW 1
        DW zgApsAckWaitMultiplier
        DW 70
        DW 2
        DW zgApsDefaultMaxBindingTime
        DW 71
        DW 8
        DW zgApsUseExtendedPANID
        DW 72
        DW 1
        DW zgApsUseInsecureJoin
        DW 75
        DW 1
        DW zgApsNonMemberRadius
        DW 4
        DW 1
        DW zgStartDelay
        DW 161
        DW 1
        DW zgSapiEndpoint
        DW 55
        DW 1
        DW zgNwkMgrMode
        DW 136
        DW 1
        DW zgNwkMgrMinTransmissions
        DW 60
        DW 1
        DW zgRouterOffAssocCleanup
        DW 61
        DW 1
        DW zgNwkLeaveRequestAllowed
        DW 73
        DW 2
        DW zgNwkCommissionedNwkAddr
        DW 103
        DW 1
        DW zgApsAllowR19Sec
        DW 77
        DW 2
        DW zgApscDupRejTimeoutInc
        DW 78
        DW 1
        DW zgApscDupRejTimeoutCount
        DW 79
        DW 2
        DW zgApsMinDupRejTableSize
        DW 62
        DW 1
        DW zgChildAgingEnable
        DW 0
        DW 0
        DW 0H
//  260 {
//  261 #if defined ( NV_INIT )
//  262 #if !defined MT_TASK
//  263   {
//  264     ZCD_NV_ZDO_DIRECT_CB, sizeof(zgZdoDirectCB), &zgZdoDirectCB
//  265   },
//  266 #endif
//  267   {
//  268     ZCD_NV_LOGICAL_TYPE, sizeof(zgDeviceLogicalType), &zgDeviceLogicalType
//  269   },
//  270   {
//  271     ZCD_NV_POLL_RATE, sizeof(zgPollRate), &zgPollRate
//  272   },
//  273   {
//  274     ZCD_NV_QUEUED_POLL_RATE, sizeof(zgQueuedPollRate), &zgQueuedPollRate
//  275   },
//  276   {
//  277     ZCD_NV_RESPONSE_POLL_RATE, sizeof(zgResponsePollRate), &zgResponsePollRate
//  278   },
//  279   {
//  280     ZCD_NV_REJOIN_POLL_RATE, sizeof(zgRejoinPollRate), &zgRejoinPollRate
//  281   },
//  282   {
//  283     ZCD_NV_DATA_RETRIES, sizeof(zgMaxDataRetries), &zgMaxDataRetries
//  284   },
//  285   {
//  286     ZCD_NV_POLL_FAILURE_RETRIES, sizeof(zgMaxPollFailureRetries), &zgMaxPollFailureRetries
//  287   },
//  288   {
//  289     ZCD_NV_CHANLIST, sizeof(zgDefaultChannelList), &zgDefaultChannelList
//  290   },
//  291   {
//  292     ZCD_NV_SCAN_DURATION, sizeof(zgDefaultStartingScanDuration), &zgDefaultStartingScanDuration
//  293   },
//  294   {
//  295     ZCD_NV_STACK_PROFILE, sizeof(zgStackProfile), &zgStackProfile
//  296   },
//  297   {
//  298     ZCD_NV_INDIRECT_MSG_TIMEOUT, sizeof(zgIndirectMsgTimeout), &zgIndirectMsgTimeout
//  299   },
//  300   {
//  301     ZCD_NV_ROUTE_EXPIRY_TIME, sizeof(zgRouteExpiryTime), &zgRouteExpiryTime
//  302   },
//  303   {
//  304     ZCD_NV_EXTENDED_PAN_ID, Z_EXTADDR_LEN, zgExtendedPANID
//  305   },
//  306   {
//  307     ZCD_NV_BCAST_RETRIES, sizeof(zgMaxBcastRetires), &zgMaxBcastRetires
//  308   },
//  309   {
//  310     ZCD_NV_PASSIVE_ACK_TIMEOUT, sizeof(zgPassiveAckTimeout), &zgPassiveAckTimeout
//  311   },
//  312   {
//  313     ZCD_NV_BCAST_DELIVERY_TIME, sizeof(zgBcastDeliveryTime), &zgBcastDeliveryTime
//  314   },
//  315   {
//  316     ZCD_NV_NWK_MODE, sizeof(zgNwkMode), &zgNwkMode
//  317   },
//  318   {
//  319     ZCD_NV_CONCENTRATOR_ENABLE, sizeof(zgConcentratorEnable), &zgConcentratorEnable
//  320   },
//  321   {
//  322     ZCD_NV_CONCENTRATOR_DISCOVERY, sizeof(zgConcentratorDiscoveryTime), &zgConcentratorDiscoveryTime
//  323   },
//  324   {
//  325     ZCD_NV_CONCENTRATOR_RADIUS, sizeof(zgConcentratorRadius), &zgConcentratorRadius
//  326   },
//  327   {
//  328     ZCD_NV_CONCENTRATOR_RC, sizeof(zgConcentratorRC), &zgConcentratorRC
//  329   },
//  330   {
//  331     ZCD_NV_SRC_RTG_EXPIRY_TIME, sizeof(zgNwkSrcRtgExpiryTime), &zgNwkSrcRtgExpiryTime
//  332   },
//  333   {
//  334     ZCD_NV_ROUTE_DISCOVERY_TIME, sizeof(zgRouteDiscoveryTime), &zgRouteDiscoveryTime
//  335   },
//  336 #ifndef NONWK
//  337   {
//  338     ZCD_NV_PANID, sizeof(zgConfigPANID), &zgConfigPANID
//  339   },
//  340   {
//  341     ZCD_NV_PRECFGKEYS_ENABLE, sizeof(zgPreConfigKeys), &zgPreConfigKeys
//  342   },
//  343   {
//  344     ZCD_NV_SECURITY_MODE, sizeof(zgSecurityMode), &zgSecurityMode
//  345   },
//  346   {
//  347     ZCD_NV_SECURE_PERMIT_JOIN, sizeof(zgSecurePermitJoin), &zgSecurePermitJoin
//  348   },
//  349   {
//  350     ZCD_NV_USE_DEFAULT_TCLK, sizeof(zgUseDefaultTCLK), &zgUseDefaultTCLK
//  351   },
//  352   {
//  353     ZCD_NV_TRUSTCENTER_ADDR, Z_EXTADDR_LEN, zgApsTrustCenterAddr
//  354   },
//  355   {
//  356     ZCD_NV_APS_LINK_KEY_TYPE, sizeof(zgApsLinkKeyType), &zgApsLinkKeyType
//  357   },
//  358 #endif // NONWK
//  359   {
//  360     ZCD_NV_APS_FRAME_RETRIES, sizeof(zgApscMaxFrameRetries), &zgApscMaxFrameRetries
//  361   },
//  362   {
//  363     ZCD_NV_APS_ACK_WAIT_DURATION, sizeof(zgApscAckWaitDurationPolled), &zgApscAckWaitDurationPolled
//  364   },
//  365   {
//  366     ZCD_NV_APS_ACK_WAIT_MULTIPLIER, sizeof(zgApsAckWaitMultiplier), &zgApsAckWaitMultiplier
//  367   },
//  368   {
//  369     ZCD_NV_BINDING_TIME, sizeof(zgApsDefaultMaxBindingTime), &zgApsDefaultMaxBindingTime
//  370   },
//  371   {
//  372     ZCD_NV_APS_USE_EXT_PANID, Z_EXTADDR_LEN, zgApsUseExtendedPANID
//  373   },
//  374   {
//  375     ZCD_NV_APS_USE_INSECURE_JOIN, sizeof(zgApsUseInsecureJoin), &zgApsUseInsecureJoin
//  376   },
//  377   {
//  378     ZCD_NV_APS_NONMEMBER_RADIUS, sizeof(zgApsNonMemberRadius), &zgApsNonMemberRadius
//  379   },
//  380   {
//  381     ZCD_NV_START_DELAY, sizeof(zgStartDelay), &zgStartDelay
//  382   },
//  383   {
//  384     ZCD_NV_SAPI_ENDPOINT, sizeof(zgSapiEndpoint), &zgSapiEndpoint
//  385   },
//  386   {
//  387     ZCD_NV_NWK_MGR_MODE, sizeof(zgNwkMgrMode), &zgNwkMgrMode
//  388   },
//  389   {
//  390     ZCD_NV_NWKMGR_MIN_TX, sizeof(zgNwkMgrMinTransmissions), &zgNwkMgrMinTransmissions
//  391   },
//  392   {
//  393     ZCD_NV_ROUTER_OFF_ASSOC_CLEANUP, sizeof(zgRouterOffAssocCleanup), &zgRouterOffAssocCleanup
//  394   },
//  395   {
//  396     ZCD_NV_NWK_LEAVE_REQ_ALLOWED, sizeof(zgNwkLeaveRequestAllowed), &zgNwkLeaveRequestAllowed
//  397   },
//  398   {
//  399     ZCD_NV_COMMISSIONED_NWK_ADDR, sizeof(zgNwkCommissionedNwkAddr), &zgNwkCommissionedNwkAddr
//  400   },
//  401   {
//  402     ZCD_NV_APS_ALLOW_R19_SECURITY, sizeof(zgApsAllowR19Sec), &zgApsAllowR19Sec
//  403   },
//  404   {
//  405     ZCD_NV_APS_DUPREJ_TIMEOUT_INC, sizeof(zgApscDupRejTimeoutInc), &zgApscDupRejTimeoutInc
//  406   },
//  407   {
//  408     ZCD_NV_APS_DUPREJ_TIMEOUT_COUNT, sizeof(zgApscDupRejTimeoutCount), &zgApscDupRejTimeoutCount
//  409   },
//  410   {
//  411     ZCD_NV_APS_DUPREJ_TABLE_SIZE, sizeof(zgApsMinDupRejTableSize), &zgApsMinDupRejTableSize
//  412   },
//  413 #if defined ( ZIGBEE_CHILD_AGING )
//  414   {
//  415     ZCD_NV_NWK_CHILD_AGE_ENABLE, sizeof(zgChildAgingEnable), &zgChildAgingEnable
//  416   },
//  417 #endif // ZIGBEE_CHILD_AGING
//  418 #endif // NV_INIT
//  419   // Last item -- DO NOT MOVE IT!
//  420   {
//  421     0x00, 0, NULL
//  422   }
//  423 };
//  424 
//  425 /*********************************************************************
//  426  * LOCAL FUNCTIONS
//  427  */
//  428 
//  429 static uint8 zgItemInit( uint16 id, uint16 len, void *buf, uint8 setDefault );
//  430 
//  431 #ifndef NONWK
//  432 static uint8 zgPreconfigKeyInit( uint8 setDefault );
//  433 #endif
//  434 
//  435 /*********************************************************************
//  436  * @fn       zgItemInit()
//  437  *
//  438  * @brief
//  439  *
//  440  *   Initialize a global item. If the item doesn't exist in NV memory,
//  441  *   write the system default (value passed in) into NV memory. But if
//  442  *   it exists, set the item to the value stored in NV memory.
//  443  *
//  444  *   Also, if setDefault is TRUE and the item exists, we will write
//  445  *   the default value to NV space.
//  446  *
//  447  * @param   id - item id
//  448  * @param   len - item len
//  449  * @param   buf - pointer to the item
//  450  * @param   setDefault - TRUE to set default, not read
//  451  *
//  452  * @return  ZSUCCESS if successful, NV_ITEM_UNINIT if item did not
//  453  *          exist in NV, NV_OPER_FAILED if failure.
//  454  */
//  455 static uint8 zgItemInit( uint16 id, uint16 len, void *buf, uint8 setDefault )
//  456 {
//  457   uint8 status;
//  458 
//  459   // If the item doesn't exist in NV memory, create and initialize
//  460   // it with the value passed in.
//  461   status = osal_nv_item_init( id, len, buf );
//  462   if ( status == ZSUCCESS )
//  463   {
//  464     if ( setDefault )
//  465     {
//  466       // Write the default value back to NV
//  467       status = osal_nv_write( id, 0, len, buf );
//  468     }
//  469     else
//  470     {
//  471       // The item exists in NV memory, read it from NV memory
//  472       status = osal_nv_read( id, 0, len, buf );
//  473     }
//  474   }
//  475 
//  476   return (status);
//  477 }
//  478 
//  479 /*********************************************************************
//  480  * API FUNCTIONS
//  481  */
//  482 
//  483 /*********************************************************************
//  484  * @fn          zgInit
//  485  *
//  486  * @brief
//  487  *
//  488  *   Initialize the Z-Stack Globals. If an item doesn't exist in
//  489  *   NV memory, write the system default into NV memory. But if
//  490  *   it exists, set the item to the value stored in NV memory.
//  491  *
//  492  * NOTE: The Startup Options (ZCD_NV_STARTUP_OPTION) indicate
//  493  *       that the Config state items (zgItemTable) need to be
//  494  *       set to defaults (ZCD_STARTOPT_DEFAULT_CONFIG_STATE). The
//  495  *
//  496  * @param       none
//  497  *
//  498  * @return      ZSUCCESS if successful, NV_ITEM_UNINIT if item did not
//  499  *              exist in NV, NV_OPER_FAILED if failure.
//  500  */

        RSEG BANKED_CODE:CODE:NOROOT(0)
//  501 uint8 zgInit( void )
zgInit:
          CFI Block cfiBlock0 Using cfiCommon0
          CFI Function zgInit
        CODE
//  502 {
        FUNCALL zgInit, zgReadStartupOptions
        LOCFRAME ISTACK, 0, STACK
        LOCFRAME PSTACK, 0, STACK
        LOCFRAME XSTACK, 29, STACK
        LOCFRAME IOVERLAY, 0, STATIC
        LOCFRAME DOVERLAY, 0, STATIC
        ARGFRAME ISTACK, 0, STACK
        ARGFRAME PSTACK, 0, STACK
        ARGFRAME XSTACK, 29, STACK
        ARGFRAME IOVERLAY, 0, STATIC
        ARGFRAME DOVERLAY, 0, STATIC
        FUNCALL zgInit, osal_nv_item_init
        LOCFRAME ISTACK, 0, STACK
        LOCFRAME PSTACK, 0, STACK
        LOCFRAME XSTACK, 31, STACK
        LOCFRAME IOVERLAY, 0, STATIC
        LOCFRAME DOVERLAY, 0, STATIC
        ARGFRAME ISTACK, 0, STACK
        ARGFRAME PSTACK, 0, STACK
        ARGFRAME XSTACK, 31, STACK
        ARGFRAME IOVERLAY, 0, STATIC
        ARGFRAME DOVERLAY, 0, STATIC
        FUNCALL zgInit, osal_nv_read
        LOCFRAME ISTACK, 0, STACK
        LOCFRAME PSTACK, 0, STACK
        LOCFRAME XSTACK, 33, STACK
        LOCFRAME IOVERLAY, 0, STATIC
        LOCFRAME DOVERLAY, 0, STATIC
        ARGFRAME ISTACK, 0, STACK
        ARGFRAME PSTACK, 0, STACK
        ARGFRAME XSTACK, 33, STACK
        ARGFRAME IOVERLAY, 0, STATIC
        ARGFRAME DOVERLAY, 0, STATIC
        FUNCALL zgInit, osal_nv_write
        LOCFRAME ISTACK, 0, STACK
        LOCFRAME PSTACK, 0, STACK
        LOCFRAME XSTACK, 33, STACK
        LOCFRAME IOVERLAY, 0, STATIC
        LOCFRAME DOVERLAY, 0, STATIC
        ARGFRAME ISTACK, 0, STACK
        ARGFRAME PSTACK, 0, STACK
        ARGFRAME XSTACK, 33, STACK
        ARGFRAME IOVERLAY, 0, STATIC
        ARGFRAME DOVERLAY, 0, STATIC
        FUNCALL zgInit, ZMacGetReq
        LOCFRAME ISTACK, 0, STACK
        LOCFRAME PSTACK, 0, STACK
        LOCFRAME XSTACK, 29, STACK
        LOCFRAME IOVERLAY, 0, STATIC
        LOCFRAME DOVERLAY, 0, STATIC
        ARGFRAME ISTACK, 0, STACK
        ARGFRAME PSTACK, 0, STACK
        ARGFRAME XSTACK, 29, STACK
        ARGFRAME IOVERLAY, 0, STATIC
        ARGFRAME DOVERLAY, 0, STATIC
        FUNCALL zgInit, zgInitItems
        LOCFRAME ISTACK, 0, STACK
        LOCFRAME PSTACK, 0, STACK
        LOCFRAME XSTACK, 29, STACK
        LOCFRAME IOVERLAY, 0, STATIC
        LOCFRAME DOVERLAY, 0, STATIC
        ARGFRAME ISTACK, 0, STACK
        ARGFRAME PSTACK, 0, STACK
        ARGFRAME XSTACK, 29, STACK
        ARGFRAME IOVERLAY, 0, STATIC
        ARGFRAME DOVERLAY, 0, STATIC
        FUNCALL zgInit, osal_memcpy
        LOCFRAME ISTACK, 0, STACK
        LOCFRAME PSTACK, 0, STACK
        LOCFRAME XSTACK, 32, STACK
        LOCFRAME IOVERLAY, 0, STATIC
        LOCFRAME DOVERLAY, 0, STATIC
        ARGFRAME ISTACK, 0, STACK
        ARGFRAME PSTACK, 0, STACK
        ARGFRAME XSTACK, 32, STACK
        ARGFRAME IOVERLAY, 0, STATIC
        ARGFRAME DOVERLAY, 0, STATIC
        FUNCALL zgInit, osal_nv_item_init
        LOCFRAME ISTACK, 0, STACK
        LOCFRAME PSTACK, 0, STACK
        LOCFRAME XSTACK, 31, STACK
        LOCFRAME IOVERLAY, 0, STATIC
        LOCFRAME DOVERLAY, 0, STATIC
        ARGFRAME ISTACK, 0, STACK
        ARGFRAME PSTACK, 0, STACK
        ARGFRAME XSTACK, 31, STACK
        ARGFRAME IOVERLAY, 0, STATIC
        ARGFRAME DOVERLAY, 0, STATIC
        FUNCALL zgInit, osal_nv_write
        LOCFRAME ISTACK, 0, STACK
        LOCFRAME PSTACK, 0, STACK
        LOCFRAME XSTACK, 33, STACK
        LOCFRAME IOVERLAY, 0, STATIC
        LOCFRAME DOVERLAY, 0, STATIC
        ARGFRAME ISTACK, 0, STACK
        ARGFRAME PSTACK, 0, STACK
        ARGFRAME XSTACK, 33, STACK
        ARGFRAME IOVERLAY, 0, STATIC
        ARGFRAME DOVERLAY, 0, STATIC
        FUNCALL zgInit, osal_memset
        LOCFRAME ISTACK, 0, STACK
        LOCFRAME PSTACK, 0, STACK
        LOCFRAME XSTACK, 29, STACK
        LOCFRAME IOVERLAY, 0, STATIC
        LOCFRAME DOVERLAY, 0, STATIC
        ARGFRAME ISTACK, 0, STACK
        ARGFRAME PSTACK, 0, STACK
        ARGFRAME XSTACK, 29, STACK
        ARGFRAME IOVERLAY, 0, STATIC
        ARGFRAME DOVERLAY, 0, STATIC
        FUNCALL zgInit, ZDSecMgrInitNVKeyTables
        LOCFRAME ISTACK, 0, STACK
        LOCFRAME PSTACK, 0, STACK
        LOCFRAME XSTACK, 29, STACK
        LOCFRAME IOVERLAY, 0, STATIC
        LOCFRAME DOVERLAY, 0, STATIC
        ARGFRAME ISTACK, 0, STACK
        ARGFRAME PSTACK, 0, STACK
        ARGFRAME XSTACK, 29, STACK
        ARGFRAME IOVERLAY, 0, STATIC
        ARGFRAME DOVERLAY, 0, STATIC
        FUNCALL zgInit, zgWriteStartupOptions
        LOCFRAME ISTACK, 0, STACK
        LOCFRAME PSTACK, 0, STACK
        LOCFRAME XSTACK, 29, STACK
        LOCFRAME IOVERLAY, 0, STATIC
        LOCFRAME DOVERLAY, 0, STATIC
        ARGFRAME ISTACK, 0, STACK
        ARGFRAME PSTACK, 0, STACK
        ARGFRAME XSTACK, 29, STACK
        ARGFRAME IOVERLAY, 0, STATIC
        ARGFRAME DOVERLAY, 0, STATIC
        REQUIRE ?V0
        REQUIRE ?V1
        REQUIRE ?V2
        MOV     A,#-0xb
        LCALL   ?BANKED_ENTER_XDATA
          CFI DPH0 load(1, XDATA, add(CFA_XSP16, literal(-1)))
          CFI DPL0 load(1, XDATA, add(CFA_XSP16, literal(-2)))
          CFI ?BRET_EXT load(1, XDATA, add(CFA_XSP16, literal(-3)))
          CFI ?RET_HIGH load(1, XDATA, add(CFA_XSP16, literal(-4)))
          CFI ?RET_LOW load(1, XDATA, add(CFA_XSP16, literal(-5)))
          CFI R7 load(1, XDATA, add(CFA_XSP16, literal(-6)))
          CFI V2 load(1, XDATA, add(CFA_XSP16, literal(-7)))
          CFI V1 load(1, XDATA, add(CFA_XSP16, literal(-8)))
          CFI V0 load(1, XDATA, add(CFA_XSP16, literal(-9)))
          CFI VB load(1, XDATA, add(CFA_XSP16, literal(-10)))
          CFI R6 load(1, XDATA, add(CFA_XSP16, literal(-11)))
          CFI CFA_SP SP+0
          CFI CFA_XSP16 add(XSP16, 11)
        ; Saved register size: 11
        ; Auto size: 18
        MOV     A,#-0x12
        LCALL   ?ALLOC_XSTACK8
          CFI CFA_XSP16 add(XSP16, 29)
//  503   uint8  setDefault = FALSE;
        MOV     R6,#0x0
//  504 
//  505   // Do we want to default the Config state values
//  506   if ( zgReadStartupOptions() & ZCD_STARTOPT_DEFAULT_CONFIG_STATE )
        ; Setup parameters for call to function zgReadStartupOptions
        LCALL   `??zgReadStartupOptions::?relay`; Banked call to: zgReadStartupOptions
        MOV     A,R1
        MOV     R0,A
        MOV     C,0xE0 /* A   */.0
        JNC     ??zgInit_0
//  507   {
//  508     setDefault = TRUE;
        MOV     R6,#0x1
//  509   }
//  510 
//  511 #if defined ( FEATURE_SYSTEM_STATS )
//  512   // This sections tracks the number of resets
//  513   uint16 bootCnt = 0;
??zgInit_0:
        MOV     DPL,?XSP + 0
        MOV     DPH,?XSP + 1
        CLR     A
        MOVX    @DPTR,A
        INC     DPTR
        LCALL   ??Subroutine5_0 & 0xFFFF
//  514 
//  515   // Update the Boot Counter
//  516   if ( osal_nv_item_init( ZCD_NV_BOOTCOUNTER, sizeof(bootCnt), &bootCnt ) == ZSUCCESS )
??CrossCallReturnLabel_6:
        LCALL   ?PUSH_XSTACK_I_TWO
          CFI CFA_XSP16 add(XSP16, 31)
        MOV     R4,#0x2
        MOV     R5,#0x0
        MOV     R2,#0x2
        MOV     R3,#0x0
        LCALL   `??osal_nv_item_init::?relay`; Banked call to: osal_nv_item_init
        MOV     A,#0x2
        LCALL   ?DEALLOC_XSTACK8
          CFI CFA_XSP16 add(XSP16, 29)
        MOV     A,R1
        JNZ     ??zgInit_1
//  517   {
//  518     // Get the old value from NV memory
//  519     osal_nv_read( ZCD_NV_BOOTCOUNTER, 0, sizeof(bootCnt), &bootCnt );
        ; Setup parameters for call to function osal_nv_read
        MOV     R0,#?V0
        LCALL   ?PUSH_XSTACK_I_TWO
          CFI CFA_XSP16 add(XSP16, 31)
        MOV     ?V0,#0x2
        MOV     ?V1,#0x0
        MOV     R0,#?V0
        LCALL   ?PUSH_XSTACK_I_TWO
          CFI CFA_XSP16 add(XSP16, 33)
        MOV     R4,#0x0
        MOV     R5,#0x0
        MOV     R2,#0x2
        MOV     R3,#0x0
        LCALL   `??osal_nv_read::?relay`; Banked call to: osal_nv_read
        MOV     A,#0x4
        LCALL   ?DEALLOC_XSTACK8
          CFI CFA_XSP16 add(XSP16, 29)
//  520   }
//  521 
//  522   // Increment the Boot Counter and store it into NV memory
//  523   if ( setDefault )
??zgInit_1:
        MOV     A,R6
        MOV     C,0xE0 /* A   */.0
        MOV     DPL,?XSP + 0
        MOV     DPH,?XSP + 1
        JNC     ??zgInit_2
//  524   {
//  525     bootCnt = 0;
        CLR     A
        MOVX    @DPTR,A
        INC     DPTR
        SJMP    ??zgInit_3
//  526   }
//  527   else
//  528   {
//  529     bootCnt++;
??zgInit_2:
        MOVX    A,@DPTR
        ADD     A,#0x1
        MOVX    @DPTR,A
        INC     DPTR
        MOVX    A,@DPTR
        ADDC    A,#0x0
//  530   }
??zgInit_3:
        LCALL   ??Subroutine5_0 & 0xFFFF
//  531 
//  532   osal_nv_write( ZCD_NV_BOOTCOUNTER, 0, sizeof(bootCnt), &bootCnt );
??CrossCallReturnLabel_7:
        LCALL   ?PUSH_XSTACK_I_TWO
          CFI CFA_XSP16 add(XSP16, 31)
        MOV     ?V0,#0x2
        MOV     ?V1,#0x0
        MOV     R0,#?V0
        LCALL   ?PUSH_XSTACK_I_TWO
          CFI CFA_XSP16 add(XSP16, 33)
        MOV     R4,#0x0
        MOV     R5,#0x0
        MOV     R2,#0x2
        MOV     R3,#0x0
        LCALL   `??osal_nv_write::?relay`; Banked call to: osal_nv_write
        MOV     A,#0x4
        LCALL   ?DEALLOC_XSTACK8
          CFI CFA_XSP16 add(XSP16, 29)
//  533 #endif  // FEATURE_SYSTEM_STATS
//  534 
//  535   // Initialize the Extended PAN ID as my own extended address
//  536   ZMacGetReq( ZMacExtAddr, zgExtendedPANID );
        ; Setup parameters for call to function ZMacGetReq
        MOV     R2,#zgExtendedPANID & 0xff
        MOV     R3,#(zgExtendedPANID >> 8) & 0xff
        MOV     R1,#-0x1e
        LCALL   `??ZMacGetReq::?relay`; Banked call to: ZMacGetReq
//  537 
//  538   // Initialize the items table
//  539   zgInitItems( setDefault );
        ; Setup parameters for call to function zgInitItems
        MOV     A,R6
        MOV     R1,A
        LCALL   `??zgInitItems::?relay`; Banked call to: zgInitItems
//  540 
//  541 #ifndef NONWK
//  542   if ( ZG_SECURE_ENABLED )
//  543   {
//  544     // Initialize the Pre-Configured Key to the default key
//  545     zgPreconfigKeyInit( setDefault );
        ; Setup parameters for call to function osal_memcpy
        MOV     ?V0,#defaultKey & 0xff
        MOV     ?V1,#(defaultKey >> 8) & 0xff
        MOV     ?V2,#-0x80
        MOV     R0,#?V0
        LCALL   ?PUSH_XSTACK_I_THREE
          CFI CFA_XSP16 add(XSP16, 32)
        MOV     R4,#0x10
        MOV     R5,#0x0
        MOV     A,#0x5
        LCALL   ?XSTACK_DISP101_8
        LCALL   `??osal_memcpy::?relay`; Banked call to: osal_memcpy
        MOV     A,#0x3
        LCALL   ?DEALLOC_XSTACK8
          CFI CFA_XSP16 add(XSP16, 29)
        ; Setup parameters for call to function osal_nv_item_init
        MOV     A,#0x2
        LCALL   ?XSTACK_DISP100_8
        MOV     ?V0,R0
        MOV     ?V1,R1
        MOV     R0,#?V0
        LCALL   ?PUSH_XSTACK_I_TWO
          CFI CFA_XSP16 add(XSP16, 31)
        MOV     R4,#0x10
        MOV     R5,#0x0
        MOV     R2,#0x62
        MOV     R3,#0x0
        LCALL   `??osal_nv_item_init::?relay`; Banked call to: osal_nv_item_init
        MOV     A,#0x2
        LCALL   ?DEALLOC_XSTACK8
          CFI CFA_XSP16 add(XSP16, 29)
        MOV     A,R1
        JNZ     ??zgInit_4
        MOV     A,R6
        MOV     C,0xE0 /* A   */.0
        JNC     ??zgInit_4
        ; Setup parameters for call to function osal_nv_write
        MOV     R0,#?V0
        LCALL   ?PUSH_XSTACK_I_TWO
          CFI CFA_XSP16 add(XSP16, 31)
        MOV     ?V0,#0x10
        MOV     ?V1,#0x0
        MOV     R0,#?V0
        LCALL   ?PUSH_XSTACK_I_TWO
          CFI CFA_XSP16 add(XSP16, 33)
        MOV     R4,#0x0
        MOV     R5,#0x0
        MOV     R2,#0x62
        MOV     R3,#0x0
        LCALL   `??osal_nv_write::?relay`; Banked call to: osal_nv_write
        MOV     A,#0x4
        LCALL   ?DEALLOC_XSTACK8
          CFI CFA_XSP16 add(XSP16, 29)
??zgInit_4:
        ; Setup parameters for call to function osal_memset
        MOV     R4,#0x10
        MOV     R5,#0x0
        MOV     R1,#0x0
        MOV     A,#0x2
        LCALL   ?XSTACK_DISP101_8
        LCALL   `??osal_memset::?relay`; Banked call to: osal_memset
//  546 
//  547     // Initialize NV items for all Keys: NWK, APS, TCLK and Master
//  548     ZDSecMgrInitNVKeyTables( setDefault );
        ; Setup parameters for call to function ZDSecMgrInitNVKeyTables
        MOV     A,R6
        MOV     R1,A
        LCALL   `??ZDSecMgrInitNVKeyTables::?relay`; Banked call to: ZDSecMgrInitNVKeyTables
//  549   }
//  550 #endif // NONWK
//  551 
//  552   // Clear the Config State default
//  553   if ( setDefault )
        MOV     A,R6
        MOV     C,0xE0 /* A   */.0
        JNC     ??zgInit_5
//  554   {
//  555     zgWriteStartupOptions( ZG_STARTUP_CLEAR, ZCD_STARTOPT_DEFAULT_CONFIG_STATE );
        ; Setup parameters for call to function zgWriteStartupOptions
        MOV     R2,#0x1
        MOV     R1,#0x0
        LCALL   `??zgWriteStartupOptions::?relay`; Banked call to: zgWriteStartupOptions
//  556   }
//  557 
//  558   return ( ZSUCCESS );
??zgInit_5:
        MOV     R1,#0x0
        MOV     A,#0x12
        LCALL   ?DEALLOC_XSTACK8
          CFI EndBlock cfiBlock0
        REQUIRE ?Subroutine0
        ; // Fall through to label ?Subroutine0
//  559 }

        RSEG BANKED_CODE:CODE:NOROOT(0)
?Subroutine0:
          CFI Block cfiBlock1 Using cfiCommon0
          CFI NoFunction
          CFI CFA_SP SP+0
          CFI CFA_XSP16 add(XSP16, 11)
          CFI VB load(1, XDATA, add(CFA_XSP16, literal(-10)))
          CFI DPL0 load(1, XDATA, add(CFA_XSP16, literal(-2)))
          CFI DPH0 load(1, XDATA, add(CFA_XSP16, literal(-1)))
          CFI R6 load(1, XDATA, add(CFA_XSP16, literal(-11)))
          CFI R7 load(1, XDATA, add(CFA_XSP16, literal(-6)))
          CFI V0 load(1, XDATA, add(CFA_XSP16, literal(-9)))
          CFI V1 load(1, XDATA, add(CFA_XSP16, literal(-8)))
          CFI V2 load(1, XDATA, add(CFA_XSP16, literal(-7)))
          CFI ?BRET_EXT load(1, XDATA, add(CFA_XSP16, literal(-3)))
          CFI ?RET_HIGH load(1, XDATA, add(CFA_XSP16, literal(-4)))
          CFI ?RET_LOW load(1, XDATA, add(CFA_XSP16, literal(-5)))
        MOV     R7,#0x3
        LJMP    ?BANKED_LEAVE_XDATA
          CFI EndBlock cfiBlock1
//  560 
//  561 /*********************************************************************
//  562  * @fn          zgInitItems
//  563  *
//  564  * @brief       Initializes RAM variables from NV.  If NV items don't
//  565  *              exist, then the NV is initialize with what is in RAM
//  566  *              variables.
//  567  *
//  568  * @param       none
//  569  *
//  570  * @return      none
//  571  */

        RSEG BANKED_CODE:CODE:NOROOT(0)
//  572 void zgInitItems( uint8 setDefault )
zgInitItems:
          CFI Block cfiBlock2 Using cfiCommon0
          CFI Function zgInitItems
        CODE
//  573 {
        FUNCALL zgInitItems, osal_nv_read
        LOCFRAME ISTACK, 0, STACK
        LOCFRAME PSTACK, 0, STACK
        LOCFRAME XSTACK, 18, STACK
        LOCFRAME IOVERLAY, 0, STATIC
        LOCFRAME DOVERLAY, 0, STATIC
        ARGFRAME ISTACK, 0, STACK
        ARGFRAME PSTACK, 0, STACK
        ARGFRAME XSTACK, 18, STACK
        ARGFRAME IOVERLAY, 0, STATIC
        ARGFRAME DOVERLAY, 0, STATIC
        FUNCALL zgInitItems, osal_nv_item_init
        LOCFRAME ISTACK, 0, STACK
        LOCFRAME PSTACK, 0, STACK
        LOCFRAME XSTACK, 16, STACK
        LOCFRAME IOVERLAY, 0, STATIC
        LOCFRAME DOVERLAY, 0, STATIC
        ARGFRAME ISTACK, 0, STACK
        ARGFRAME PSTACK, 0, STACK
        ARGFRAME XSTACK, 16, STACK
        ARGFRAME IOVERLAY, 0, STATIC
        ARGFRAME DOVERLAY, 0, STATIC
        FUNCALL zgInitItems, osal_nv_write
        LOCFRAME ISTACK, 0, STACK
        LOCFRAME PSTACK, 0, STACK
        LOCFRAME XSTACK, 18, STACK
        LOCFRAME IOVERLAY, 0, STATIC
        LOCFRAME DOVERLAY, 0, STATIC
        ARGFRAME ISTACK, 0, STACK
        ARGFRAME PSTACK, 0, STACK
        ARGFRAME XSTACK, 18, STACK
        ARGFRAME IOVERLAY, 0, STATIC
        ARGFRAME DOVERLAY, 0, STATIC
        REQUIRE ?V0
        REQUIRE ?V1
        REQUIRE ?V2
        REQUIRE ?V3
        REQUIRE ?V4
        REQUIRE ?V5
        MOV     A,#-0xe
        LCALL   ?BANKED_ENTER_XDATA
          CFI DPH0 load(1, XDATA, add(CFA_XSP16, literal(-1)))
          CFI DPL0 load(1, XDATA, add(CFA_XSP16, literal(-2)))
          CFI ?BRET_EXT load(1, XDATA, add(CFA_XSP16, literal(-3)))
          CFI ?RET_HIGH load(1, XDATA, add(CFA_XSP16, literal(-4)))
          CFI ?RET_LOW load(1, XDATA, add(CFA_XSP16, literal(-5)))
          CFI R7 load(1, XDATA, add(CFA_XSP16, literal(-6)))
          CFI V5 load(1, XDATA, add(CFA_XSP16, literal(-7)))
          CFI V4 load(1, XDATA, add(CFA_XSP16, literal(-8)))
          CFI V3 load(1, XDATA, add(CFA_XSP16, literal(-9)))
          CFI V2 load(1, XDATA, add(CFA_XSP16, literal(-10)))
          CFI V1 load(1, XDATA, add(CFA_XSP16, literal(-11)))
          CFI V0 load(1, XDATA, add(CFA_XSP16, literal(-12)))
          CFI VB load(1, XDATA, add(CFA_XSP16, literal(-13)))
          CFI R6 load(1, XDATA, add(CFA_XSP16, literal(-14)))
          CFI CFA_SP SP+0
          CFI CFA_XSP16 add(XSP16, 14)
        ; Saved register size: 14
        ; Auto size: 0
        MOV     ?V3,R1
//  574   uint8  i = 0;
        MOV     ?V2,#0x0
//  575 
//  576   if ( ZG_BUILD_COORDINATOR_TYPE && ( zgApsLinkKeyType == ZG_UNIQUE_LINK_KEY ) )
        MOV     DPTR,#zgApsLinkKeyType
        MOVX    A,@DPTR
        MOV     DPTR,#zgUseDefaultTCLK
        JNZ     ??zgInitItems_0
//  577   {
//  578     zgUseDefaultTCLK = FALSE;
        CLR     A
        SJMP    ??zgInitItems_1
//  579   }
//  580   else
//  581   {
//  582     // Most of the time default TCLK will be used
//  583     zgUseDefaultTCLK = TRUE;
??zgInitItems_0:
        MOV     A,#0x1
??zgInitItems_1:
        MOVX    @DPTR,A
        SJMP    ??zgInitItems_2
//  584   }
//  585 
//  586   while ( zgItemTable[i].id != 0x00 )
//  587   {
??zgInitItems_3:
        ; Setup parameters for call to function osal_nv_read
        LCALL   ?PUSH_XSTACK_I_TWO
          CFI CFA_XSP16 add(XSP16, 16)
        MOV     R0,#?V0
        LCALL   ?PUSH_XSTACK_I_TWO
          CFI CFA_XSP16 add(XSP16, 18)
        MOV     R4,#0x0
        MOV     R5,#0x0
        MOV     A,R6
        MOV     R2,A
        MOV     A,R7
        MOV     R3,A
        LCALL   `??osal_nv_read::?relay`; Banked call to: osal_nv_read
??zgInitItems_4:
        MOV     A,#0x4
        LCALL   ?DEALLOC_XSTACK8
          CFI CFA_XSP16 add(XSP16, 14)
//  588     // Initialize the item
//  589     zgItemInit( zgItemTable[i].id, zgItemTable[i].len, zgItemTable[i].buf, setDefault  );
//  590 
//  591     // Move on to the next item
//  592     i++;
??zgInitItems_5:
        INC     ?V2
??zgInitItems_2:
        MOV     A,?V2
        MOV     B,#0x6
        MUL     AB
        MOV     R0,A
        MOV     R2,B
        MOV     A,R2
        LCALL   ?Subroutine3 & 0xFFFF
??CrossCallReturnLabel_0:
        JZ      ??zgInitItems_6
        MOV     A,?V2
        MOV     B,#0x6
        MUL     AB
        MOV     R0,A
        MOV     A,R2
        MOV     R1,A
        MOV     A,#zgItemTable & 0xff
        ADD     A,R0
        MOV     R0,A
        MOV     A,#(zgItemTable >> 8) & 0xff
        ADDC    A,R1
        MOV     R1,A
        INC     DPTR
        INC     DPTR
        INC     DPTR
        INC     DPTR
        CLR     A
        MOVC    A,@A+DPTR
        MOV     ?V4,A
        MOV     A,#0x1
        MOVC    A,@A+DPTR
        MOV     ?V5,A
        MOV     DPL,R0
        MOV     DPH,R1
        INC     DPTR
        INC     DPTR
        CLR     A
        MOVC    A,@A+DPTR
        PUSH    A
          CFI CFA_SP SP+-1
        MOV     A,#0x1
        MOVC    A,@A+DPTR
        MOV     DPH,A
        POP     DPL
          CFI CFA_SP SP+0
        MOV     ?V0,DPL
        MOV     ?V1,DPH
        MOV     DPL,R0
        MOV     DPH,R1
        CLR     A
        MOVC    A,@A+DPTR
        PUSH    A
          CFI CFA_SP SP+-1
        MOV     A,#0x1
        MOVC    A,@A+DPTR
        MOV     DPH,A
        POP     DPL
          CFI CFA_SP SP+0
        MOV     R6,DPL
        MOV     R7,DPH
        ; Setup parameters for call to function osal_nv_item_init
        MOV     R0,#?V4
        LCALL   ?PUSH_XSTACK_I_TWO
          CFI CFA_XSP16 add(XSP16, 16)
        MOV     R4,?V0
        MOV     R5,?V1
        MOV     A,R6
        MOV     R2,A
        MOV     A,R7
        MOV     R3,A
        LCALL   `??osal_nv_item_init::?relay`; Banked call to: osal_nv_item_init
        MOV     A,#0x2
        LCALL   ?DEALLOC_XSTACK8
          CFI CFA_XSP16 add(XSP16, 14)
        MOV     A,R1
        JNZ     ??zgInitItems_5
        MOV     A,?V3
        MOV     R0,#?V4
        JNZ     $+5
        LJMP    ??zgInitItems_3 & 0xFFFF
        ; Setup parameters for call to function osal_nv_write
        LCALL   ?PUSH_XSTACK_I_TWO
          CFI CFA_XSP16 add(XSP16, 16)
        MOV     R0,#?V0
        LCALL   ?PUSH_XSTACK_I_TWO
          CFI CFA_XSP16 add(XSP16, 18)
        MOV     R4,#0x0
        MOV     R5,#0x0
        MOV     A,R6
        MOV     R2,A
        MOV     A,R7
        MOV     R3,A
        LCALL   `??osal_nv_write::?relay`; Banked call to: osal_nv_write
        LJMP    ??zgInitItems_4 & 0xFFFF
          CFI CFA_XSP16 add(XSP16, 14)
//  593   }
//  594 }
??zgInitItems_6:
        MOV     R7,#0x6
        LJMP    ?BANKED_LEAVE_XDATA
          CFI EndBlock cfiBlock2
//  595 
//  596 /*********************************************************************
//  597  * @fn          zgReadStartupOptions
//  598  *
//  599  * @brief       Reads the ZCD_NV_STARTUP_OPTION NV Item.
//  600  *
//  601  * @param       none
//  602  *
//  603  * @return      the ZCD_NV_STARTUP_OPTION NV item
//  604  */

        RSEG BANKED_CODE:CODE:NOROOT(0)
//  605 uint8 zgReadStartupOptions( void )
zgReadStartupOptions:
          CFI Block cfiBlock3 Using cfiCommon0
          CFI Function zgReadStartupOptions
        CODE
//  606 {
        FUNCALL zgReadStartupOptions, osal_nv_item_init
        LOCFRAME ISTACK, 0, STACK
        LOCFRAME PSTACK, 0, STACK
        LOCFRAME XSTACK, 13, STACK
        LOCFRAME IOVERLAY, 0, STATIC
        LOCFRAME DOVERLAY, 0, STATIC
        ARGFRAME ISTACK, 0, STACK
        ARGFRAME PSTACK, 0, STACK
        ARGFRAME XSTACK, 13, STACK
        ARGFRAME IOVERLAY, 0, STATIC
        ARGFRAME DOVERLAY, 0, STATIC
        FUNCALL zgReadStartupOptions, osal_nv_read
        LOCFRAME ISTACK, 0, STACK
        LOCFRAME PSTACK, 0, STACK
        LOCFRAME XSTACK, 15, STACK
        LOCFRAME IOVERLAY, 0, STATIC
        LOCFRAME DOVERLAY, 0, STATIC
        ARGFRAME ISTACK, 0, STACK
        ARGFRAME PSTACK, 0, STACK
        ARGFRAME XSTACK, 15, STACK
        ARGFRAME IOVERLAY, 0, STATIC
        ARGFRAME DOVERLAY, 0, STATIC
        REQUIRE ?V0
        REQUIRE ?V1
        MOV     A,#-0xa
        LCALL   ?BANKED_ENTER_XDATA
          CFI DPH0 load(1, XDATA, add(CFA_XSP16, literal(-1)))
          CFI DPL0 load(1, XDATA, add(CFA_XSP16, literal(-2)))
          CFI ?BRET_EXT load(1, XDATA, add(CFA_XSP16, literal(-3)))
          CFI ?RET_HIGH load(1, XDATA, add(CFA_XSP16, literal(-4)))
          CFI ?RET_LOW load(1, XDATA, add(CFA_XSP16, literal(-5)))
          CFI R7 load(1, XDATA, add(CFA_XSP16, literal(-6)))
          CFI V1 load(1, XDATA, add(CFA_XSP16, literal(-7)))
          CFI V0 load(1, XDATA, add(CFA_XSP16, literal(-8)))
          CFI VB load(1, XDATA, add(CFA_XSP16, literal(-9)))
          CFI R6 load(1, XDATA, add(CFA_XSP16, literal(-10)))
          CFI CFA_SP SP+0
          CFI CFA_XSP16 add(XSP16, 10)
        ; Saved register size: 10
        ; Auto size: 1
        MOV     A,#-0x1
        LCALL   ?ALLOC_XSTACK8
          CFI CFA_XSP16 add(XSP16, 11)
//  607   // Default to Use Config State and Use Network State
//  608   uint8 startupOption = 0;
        LCALL   ?Subroutine2 & 0xFFFF
//  609 
//  610   // This should have been done in ZMain.c, but just in case.
//  611   if ( osal_nv_item_init( ZCD_NV_STARTUP_OPTION,
//  612                               sizeof(startupOption),
//  613                               &startupOption ) == ZSUCCESS )
??CrossCallReturnLabel_4:
        LCALL   ?PUSH_XSTACK_I_TWO
          CFI CFA_XSP16 add(XSP16, 13)
        MOV     R4,#0x1
        MOV     R5,#0x0
        MOV     R2,#0x3
        MOV     R3,#0x0
        LCALL   `??osal_nv_item_init::?relay`; Banked call to: osal_nv_item_init
        MOV     A,#0x2
        LCALL   ?DEALLOC_XSTACK8
          CFI CFA_XSP16 add(XSP16, 11)
        MOV     A,R1
        JNZ     ??zgReadStartupOptions_0
//  614   {
//  615     // Read saved startup control
//  616     osal_nv_read( ZCD_NV_STARTUP_OPTION,
//  617                   0,
//  618                   sizeof( startupOption ),
//  619                   &startupOption);
        ; Setup parameters for call to function osal_nv_read
        MOV     R0,#?V0
        LCALL   ?PUSH_XSTACK_I_TWO
          CFI CFA_XSP16 add(XSP16, 13)
        MOV     ?V0,#0x1
        MOV     ?V1,#0x0
        MOV     R0,#?V0
        LCALL   ?PUSH_XSTACK_I_TWO
          CFI CFA_XSP16 add(XSP16, 15)
        MOV     R4,#0x0
        MOV     R5,#0x0
        MOV     R2,#0x3
        MOV     R3,#0x0
        LCALL   `??osal_nv_read::?relay`; Banked call to: osal_nv_read
        MOV     A,#0x4
        LCALL   ?DEALLOC_XSTACK8
          CFI CFA_XSP16 add(XSP16, 11)
//  620   }
//  621   return ( startupOption );
??zgReadStartupOptions_0:
        MOV     DPL,?XSP + 0
        MOV     DPH,?XSP + 1
        MOVX    A,@DPTR
        MOV     R1,A
          CFI EndBlock cfiBlock3
        REQUIRE ?Subroutine1
        ; // Fall through to label ?Subroutine1
//  622 }

        RSEG BANKED_CODE:CODE:NOROOT(0)
?Subroutine1:
          CFI Block cfiBlock4 Using cfiCommon0
          CFI NoFunction
          CFI CFA_SP SP+0
          CFI CFA_XSP16 add(XSP16, 11)
          CFI VB load(1, XDATA, add(CFA_XSP16, literal(-9)))
          CFI DPL0 load(1, XDATA, add(CFA_XSP16, literal(-2)))
          CFI DPH0 load(1, XDATA, add(CFA_XSP16, literal(-1)))
          CFI R6 load(1, XDATA, add(CFA_XSP16, literal(-10)))
          CFI R7 load(1, XDATA, add(CFA_XSP16, literal(-6)))
          CFI V0 load(1, XDATA, add(CFA_XSP16, literal(-8)))
          CFI V1 load(1, XDATA, add(CFA_XSP16, literal(-7)))
          CFI ?BRET_EXT load(1, XDATA, add(CFA_XSP16, literal(-3)))
          CFI ?RET_HIGH load(1, XDATA, add(CFA_XSP16, literal(-4)))
          CFI ?RET_LOW load(1, XDATA, add(CFA_XSP16, literal(-5)))
        MOV     A,#0x1
        LCALL   ?DEALLOC_XSTACK8
          CFI CFA_XSP16 add(XSP16, 10)
        MOV     R7,#0x2
        LJMP    ?BANKED_LEAVE_XDATA
          CFI EndBlock cfiBlock4
//  623 
//  624 /*********************************************************************
//  625  * @fn          zgWriteStartupOptions
//  626  *
//  627  * @brief       Writes bits into the ZCD_NV_STARTUP_OPTION NV Item.
//  628  *
//  629  * @param       action - ZG_STARTUP_SET set bit, ZG_STARTUP_CLEAR to
//  630  *               clear bit. The set bit is an OR operation, and the
//  631  *               clear bit is an AND ~(bitOptions) operation.
//  632  *
//  633  * @param       bitOptions - which bits to perform action on:
//  634  *                      ZCD_STARTOPT_DEFAULT_CONFIG_STATE
//  635  *                      ZCD_STARTOPT_DEFAULT_NETWORK_STATE
//  636  *
//  637  * @return      ZSUCCESS if successful
//  638  */

        RSEG BANKED_CODE:CODE:NOROOT(0)
//  639 uint8 zgWriteStartupOptions( uint8 action, uint8 bitOptions )
zgWriteStartupOptions:
          CFI Block cfiBlock5 Using cfiCommon0
          CFI Function zgWriteStartupOptions
        CODE
//  640 {
        FUNCALL zgWriteStartupOptions, osal_nv_read
        LOCFRAME ISTACK, 0, STACK
        LOCFRAME PSTACK, 0, STACK
        LOCFRAME XSTACK, 15, STACK
        LOCFRAME IOVERLAY, 0, STATIC
        LOCFRAME DOVERLAY, 0, STATIC
        ARGFRAME ISTACK, 0, STACK
        ARGFRAME PSTACK, 0, STACK
        ARGFRAME XSTACK, 15, STACK
        ARGFRAME IOVERLAY, 0, STATIC
        ARGFRAME DOVERLAY, 0, STATIC
        FUNCALL zgWriteStartupOptions, osal_nv_write
        LOCFRAME ISTACK, 0, STACK
        LOCFRAME PSTACK, 0, STACK
        LOCFRAME XSTACK, 15, STACK
        LOCFRAME IOVERLAY, 0, STATIC
        LOCFRAME DOVERLAY, 0, STATIC
        ARGFRAME ISTACK, 0, STACK
        ARGFRAME PSTACK, 0, STACK
        ARGFRAME XSTACK, 15, STACK
        ARGFRAME IOVERLAY, 0, STATIC
        ARGFRAME DOVERLAY, 0, STATIC
        REQUIRE ?V0
        REQUIRE ?V1
        MOV     A,#-0xa
        LCALL   ?BANKED_ENTER_XDATA
          CFI DPH0 load(1, XDATA, add(CFA_XSP16, literal(-1)))
          CFI DPL0 load(1, XDATA, add(CFA_XSP16, literal(-2)))
          CFI ?BRET_EXT load(1, XDATA, add(CFA_XSP16, literal(-3)))
          CFI ?RET_HIGH load(1, XDATA, add(CFA_XSP16, literal(-4)))
          CFI ?RET_LOW load(1, XDATA, add(CFA_XSP16, literal(-5)))
          CFI R7 load(1, XDATA, add(CFA_XSP16, literal(-6)))
          CFI V1 load(1, XDATA, add(CFA_XSP16, literal(-7)))
          CFI V0 load(1, XDATA, add(CFA_XSP16, literal(-8)))
          CFI VB load(1, XDATA, add(CFA_XSP16, literal(-9)))
          CFI R6 load(1, XDATA, add(CFA_XSP16, literal(-10)))
          CFI CFA_SP SP+0
          CFI CFA_XSP16 add(XSP16, 10)
        ; Saved register size: 10
        ; Auto size: 1
        MOV     A,#-0x1
        LCALL   ?ALLOC_XSTACK8
          CFI CFA_XSP16 add(XSP16, 11)
        MOV     A,R1
        MOV     R6,A
        MOV     A,R2
        MOV     R7,A
//  641   uint8 status;
//  642   uint8 startupOptions = 0;
        LCALL   ?Subroutine2 & 0xFFFF
//  643 
//  644   status = osal_nv_read( ZCD_NV_STARTUP_OPTION,
//  645                 0,
//  646                 sizeof( startupOptions ),
//  647                 &startupOptions );
??CrossCallReturnLabel_5:
        LCALL   ?PUSH_XSTACK_I_TWO
          CFI CFA_XSP16 add(XSP16, 13)
        MOV     ?V0,#0x1
        MOV     ?V1,#0x0
        MOV     R0,#?V0
        LCALL   ?PUSH_XSTACK_I_TWO
          CFI CFA_XSP16 add(XSP16, 15)
        MOV     R4,#0x0
        MOV     R5,#0x0
        MOV     R2,#0x3
        MOV     R3,#0x0
        LCALL   `??osal_nv_read::?relay`; Banked call to: osal_nv_read
        MOV     A,#0x4
        LCALL   ?DEALLOC_XSTACK8
          CFI CFA_XSP16 add(XSP16, 11)
        MOV     A,R1
        MOV     R1,A
//  648 
//  649   if ( status == ZSUCCESS )
        JNZ     ??zgWriteStartupOptions_0
//  650   {
//  651     if ( action == ZG_STARTUP_SET )
        MOV     A,#-0x1
        XRL     A,R6
        JNZ     ??zgWriteStartupOptions_1
//  652     {
//  653       // Set bits
//  654       startupOptions |= bitOptions;
        MOV     DPL,?XSP + 0
        MOV     DPH,?XSP + 1
        MOVX    A,@DPTR
        ORL     A,R7
        SJMP    ??zgWriteStartupOptions_2
//  655     }
//  656     else
//  657     {
//  658       // Clear bits
//  659       startupOptions &= (bitOptions ^ 0xFF);
??zgWriteStartupOptions_1:
        MOV     A,#-0x1
        XRL     A,R7
        MOV     R0,A
        MOV     DPL,?XSP + 0
        MOV     DPH,?XSP + 1
        MOVX    A,@DPTR
        ANL     A,R0
//  660     }
//  661 
//  662     // Changed?
//  663     status = osal_nv_write( ZCD_NV_STARTUP_OPTION,
//  664                  0,
//  665                  sizeof( startupOptions ),
//  666                  &startupOptions );
//  667   }
??zgWriteStartupOptions_2:
        LCALL   ??Subroutine5_0 & 0xFFFF
??CrossCallReturnLabel_8:
        LCALL   ?PUSH_XSTACK_I_TWO
          CFI CFA_XSP16 add(XSP16, 13)
        MOV     ?V0,#0x1
        MOV     ?V1,#0x0
        MOV     R0,#?V0
        LCALL   ?PUSH_XSTACK_I_TWO
          CFI CFA_XSP16 add(XSP16, 15)
        MOV     R4,#0x0
        MOV     R5,#0x0
        MOV     R2,#0x3
        MOV     R3,#0x0
        LCALL   `??osal_nv_write::?relay`; Banked call to: osal_nv_write
        MOV     A,#0x4
        LCALL   ?DEALLOC_XSTACK8
          CFI CFA_XSP16 add(XSP16, 11)
        MOV     A,R1
        MOV     R1,A
//  668 
//  669   return ( status );
??zgWriteStartupOptions_0:
        SJMP    ?Subroutine1
//  670 }
          CFI EndBlock cfiBlock5

        RSEG BANKED_CODE:CODE:NOROOT(0)
?Subroutine2:
          CFI Block cfiCond6 Using cfiCommon0
          CFI Function zgReadStartupOptions
          CFI Conditional ??CrossCallReturnLabel_4
          CFI R6 load(1, XDATA, add(CFA_XSP16, literal(-10)))
          CFI VB load(1, XDATA, add(CFA_XSP16, literal(-9)))
          CFI V0 load(1, XDATA, add(CFA_XSP16, literal(-8)))
          CFI V1 load(1, XDATA, add(CFA_XSP16, literal(-7)))
          CFI R7 load(1, XDATA, add(CFA_XSP16, literal(-6)))
          CFI ?RET_LOW load(1, XDATA, add(CFA_XSP16, literal(-5)))
          CFI ?RET_HIGH load(1, XDATA, add(CFA_XSP16, literal(-4)))
          CFI ?BRET_EXT load(1, XDATA, add(CFA_XSP16, literal(-3)))
          CFI DPL0 load(1, XDATA, add(CFA_XSP16, literal(-2)))
          CFI DPH0 load(1, XDATA, add(CFA_XSP16, literal(-1)))
          CFI CFA_SP SP+-2
          CFI CFA_XSP16 add(XSP16, 11)
          CFI Block cfiCond7 Using cfiCommon0
          CFI (cfiCond7) Function zgWriteStartupOptions
          CFI (cfiCond7) Conditional ??CrossCallReturnLabel_5
          CFI (cfiCond7) R6 load(1, XDATA, add(CFA_XSP16, literal(-10)))
          CFI (cfiCond7) VB load(1, XDATA, add(CFA_XSP16, literal(-9)))
          CFI (cfiCond7) V0 load(1, XDATA, add(CFA_XSP16, literal(-8)))
          CFI (cfiCond7) V1 load(1, XDATA, add(CFA_XSP16, literal(-7)))
          CFI (cfiCond7) R7 load(1, XDATA, add(CFA_XSP16, literal(-6)))
          CFI (cfiCond7) ?RET_LOW load(1, XDATA, add(CFA_XSP16, literal(-5)))
          CFI (cfiCond7) ?RET_HIGH load(1, XDATA, add(CFA_XSP16, literal(-4)))
          CFI (cfiCond7) ?BRET_EXT load(1, XDATA, add(CFA_XSP16, literal(-3)))
          CFI (cfiCond7) DPL0 load(1, XDATA, add(CFA_XSP16, literal(-2)))
          CFI (cfiCond7) DPH0 load(1, XDATA, add(CFA_XSP16, literal(-1)))
          CFI (cfiCond7) CFA_SP SP+-2
          CFI (cfiCond7) CFA_XSP16 add(XSP16, 11)
          CFI Block cfiPicker8 Using cfiCommon1
          CFI (cfiPicker8) NoFunction
          CFI (cfiPicker8) Picker
        MOV     DPL,?XSP + 0
        MOV     DPH,?XSP + 1
        CLR     A
          CFI EndBlock cfiCond6
          CFI EndBlock cfiCond7
          CFI EndBlock cfiPicker8
        REQUIRE ??Subroutine5_0
        ; // Fall through to label ??Subroutine5_0

        RSEG BANKED_CODE:CODE:NOROOT(0)
??Subroutine5_0:
          CFI Block cfiCond9 Using cfiCommon0
          CFI Function zgInit
          CFI Conditional ??CrossCallReturnLabel_6
          CFI R6 load(1, XDATA, add(CFA_XSP16, literal(-11)))
          CFI VB load(1, XDATA, add(CFA_XSP16, literal(-10)))
          CFI V0 load(1, XDATA, add(CFA_XSP16, literal(-9)))
          CFI V1 load(1, XDATA, add(CFA_XSP16, literal(-8)))
          CFI V2 load(1, XDATA, add(CFA_XSP16, literal(-7)))
          CFI R7 load(1, XDATA, add(CFA_XSP16, literal(-6)))
          CFI ?RET_LOW load(1, XDATA, add(CFA_XSP16, literal(-5)))
          CFI ?RET_HIGH load(1, XDATA, add(CFA_XSP16, literal(-4)))
          CFI ?BRET_EXT load(1, XDATA, add(CFA_XSP16, literal(-3)))
          CFI DPL0 load(1, XDATA, add(CFA_XSP16, literal(-2)))
          CFI DPH0 load(1, XDATA, add(CFA_XSP16, literal(-1)))
          CFI CFA_SP SP+-2
          CFI CFA_XSP16 add(XSP16, 29)
          CFI Block cfiCond10 Using cfiCommon0
          CFI (cfiCond10) Function zgInit
          CFI (cfiCond10) Conditional ??CrossCallReturnLabel_7
          CFI (cfiCond10) R6 load(1, XDATA, add(CFA_XSP16, literal(-11)))
          CFI (cfiCond10) VB load(1, XDATA, add(CFA_XSP16, literal(-10)))
          CFI (cfiCond10) V0 load(1, XDATA, add(CFA_XSP16, literal(-9)))
          CFI (cfiCond10) V1 load(1, XDATA, add(CFA_XSP16, literal(-8)))
          CFI (cfiCond10) V2 load(1, XDATA, add(CFA_XSP16, literal(-7)))
          CFI (cfiCond10) R7 load(1, XDATA, add(CFA_XSP16, literal(-6)))
          CFI (cfiCond10) ?RET_LOW load(1, XDATA, add(CFA_XSP16, literal(-5)))
          CFI (cfiCond10) ?RET_HIGH load(1, XDATA, add(CFA_XSP16, literal(-4)))
          CFI (cfiCond10) ?BRET_EXT load(1, XDATA, add(CFA_XSP16, literal(-3)))
          CFI (cfiCond10) DPL0 load(1, XDATA, add(CFA_XSP16, literal(-2)))
          CFI (cfiCond10) DPH0 load(1, XDATA, add(CFA_XSP16, literal(-1)))
          CFI (cfiCond10) CFA_SP SP+-2
          CFI (cfiCond10) CFA_XSP16 add(XSP16, 29)
          CFI Block cfiCond11 Using cfiCommon0
          CFI (cfiCond11) Function zgWriteStartupOptions
          CFI (cfiCond11) Conditional ??CrossCallReturnLabel_8
          CFI (cfiCond11) R6 load(1, XDATA, add(CFA_XSP16, literal(-10)))
          CFI (cfiCond11) VB load(1, XDATA, add(CFA_XSP16, literal(-9)))
          CFI (cfiCond11) V0 load(1, XDATA, add(CFA_XSP16, literal(-8)))
          CFI (cfiCond11) V1 load(1, XDATA, add(CFA_XSP16, literal(-7)))
          CFI (cfiCond11) R7 load(1, XDATA, add(CFA_XSP16, literal(-6)))
          CFI (cfiCond11) ?RET_LOW load(1, XDATA, add(CFA_XSP16, literal(-5)))
          CFI (cfiCond11) ?RET_HIGH load(1, XDATA, add(CFA_XSP16, literal(-4)))
          CFI (cfiCond11) ?BRET_EXT load(1, XDATA, add(CFA_XSP16, literal(-3)))
          CFI (cfiCond11) DPL0 load(1, XDATA, add(CFA_XSP16, literal(-2)))
          CFI (cfiCond11) DPH0 load(1, XDATA, add(CFA_XSP16, literal(-1)))
          CFI (cfiCond11) CFA_SP SP+-2
          CFI (cfiCond11) CFA_XSP16 add(XSP16, 11)
          CFI Block cfiCond12 Using cfiCommon0
          CFI (cfiCond12) Function zgReadStartupOptions
          CFI (cfiCond12) Conditional ??CrossCallReturnLabel_4
          CFI (cfiCond12) R6 load(1, XDATA, add(CFA_XSP16, literal(-10)))
          CFI (cfiCond12) VB load(1, XDATA, add(CFA_XSP16, literal(-9)))
          CFI (cfiCond12) V0 load(1, XDATA, add(CFA_XSP16, literal(-8)))
          CFI (cfiCond12) V1 load(1, XDATA, add(CFA_XSP16, literal(-7)))
          CFI (cfiCond12) R7 load(1, XDATA, add(CFA_XSP16, literal(-6)))
          CFI (cfiCond12) ?RET_LOW load(1, XDATA, add(CFA_XSP16, literal(-5)))
          CFI (cfiCond12) ?RET_HIGH load(1, XDATA, add(CFA_XSP16, literal(-4)))
          CFI (cfiCond12) ?BRET_EXT load(1, XDATA, add(CFA_XSP16, literal(-3)))
          CFI (cfiCond12) DPL0 load(1, XDATA, add(CFA_XSP16, literal(-2)))
          CFI (cfiCond12) DPH0 load(1, XDATA, add(CFA_XSP16, literal(-1)))
          CFI (cfiCond12) CFA_SP SP+-2
          CFI (cfiCond12) CFA_XSP16 add(XSP16, 11)
          CFI Block cfiCond13 Using cfiCommon0
          CFI (cfiCond13) Function zgWriteStartupOptions
          CFI (cfiCond13) Conditional ??CrossCallReturnLabel_5
          CFI (cfiCond13) R6 load(1, XDATA, add(CFA_XSP16, literal(-10)))
          CFI (cfiCond13) VB load(1, XDATA, add(CFA_XSP16, literal(-9)))
          CFI (cfiCond13) V0 load(1, XDATA, add(CFA_XSP16, literal(-8)))
          CFI (cfiCond13) V1 load(1, XDATA, add(CFA_XSP16, literal(-7)))
          CFI (cfiCond13) R7 load(1, XDATA, add(CFA_XSP16, literal(-6)))
          CFI (cfiCond13) ?RET_LOW load(1, XDATA, add(CFA_XSP16, literal(-5)))
          CFI (cfiCond13) ?RET_HIGH load(1, XDATA, add(CFA_XSP16, literal(-4)))
          CFI (cfiCond13) ?BRET_EXT load(1, XDATA, add(CFA_XSP16, literal(-3)))
          CFI (cfiCond13) DPL0 load(1, XDATA, add(CFA_XSP16, literal(-2)))
          CFI (cfiCond13) DPH0 load(1, XDATA, add(CFA_XSP16, literal(-1)))
          CFI (cfiCond13) CFA_SP SP+-2
          CFI (cfiCond13) CFA_XSP16 add(XSP16, 11)
          CFI Block cfiPicker14 Using cfiCommon1
          CFI (cfiPicker14) NoFunction
          CFI (cfiPicker14) Picker
        MOVX    @DPTR,A
        ; Setup parameters for call to function osal_nv_item_init
        ; Setup parameters for call to function osal_nv_read
        ; Setup parameters for call to function osal_nv_item_init
        ; Setup parameters for call to function osal_nv_write
        ; Setup parameters for call to function osal_nv_write
        MOV     R0,?XSP + 0
        MOV     R1,?XSP + 1
        MOV     ?V0,R0
        MOV     ?V1,R1
        MOV     R0,#?V0
        RET
          CFI EndBlock cfiCond9
          CFI EndBlock cfiCond10
          CFI EndBlock cfiCond11
          CFI EndBlock cfiCond12
          CFI EndBlock cfiCond13
          CFI EndBlock cfiPicker14
//  671 
//  672 /*********************************************************************
//  673  * @fn          zgSetItem
//  674  *
//  675  * @brief       Set RAM variables from set-NV, if it exist in the zgItemTable
//  676  *
//  677  * @param       id - NV ID
//  678  *              len - NV item length
//  679  *              buf - pointer to the input buffer
//  680  *
//  681  * @return      none
//  682  */

        RSEG BANKED_CODE:CODE:NOROOT(0)
//  683 void zgSetItem( uint16 id, uint16 len, void *buf )
zgSetItem:
          CFI Block cfiBlock15 Using cfiCommon0
          CFI Function zgSetItem
        CODE
//  684 {
        FUNCALL zgSetItem, osal_memcpy
        LOCFRAME ISTACK, 0, STACK
        LOCFRAME PSTACK, 0, STACK
        LOCFRAME XSTACK, 14, STACK
        LOCFRAME IOVERLAY, 0, STATIC
        LOCFRAME DOVERLAY, 0, STATIC
        ARGFRAME ISTACK, 0, STACK
        ARGFRAME PSTACK, 0, STACK
        ARGFRAME XSTACK, 14, STACK
        ARGFRAME IOVERLAY, 0, STATIC
        ARGFRAME DOVERLAY, 0, STATIC
        REQUIRE ?V0
        REQUIRE ?V1
        REQUIRE ?V2
        MOV     A,#-0xb
        LCALL   ?BANKED_ENTER_XDATA
          CFI DPH0 load(1, XDATA, add(CFA_XSP16, literal(-1)))
          CFI DPL0 load(1, XDATA, add(CFA_XSP16, literal(-2)))
          CFI ?BRET_EXT load(1, XDATA, add(CFA_XSP16, literal(-3)))
          CFI ?RET_HIGH load(1, XDATA, add(CFA_XSP16, literal(-4)))
          CFI ?RET_LOW load(1, XDATA, add(CFA_XSP16, literal(-5)))
          CFI R7 load(1, XDATA, add(CFA_XSP16, literal(-6)))
          CFI V2 load(1, XDATA, add(CFA_XSP16, literal(-7)))
          CFI V1 load(1, XDATA, add(CFA_XSP16, literal(-8)))
          CFI V0 load(1, XDATA, add(CFA_XSP16, literal(-9)))
          CFI VB load(1, XDATA, add(CFA_XSP16, literal(-10)))
          CFI R6 load(1, XDATA, add(CFA_XSP16, literal(-11)))
          CFI CFA_SP SP+0
          CFI CFA_XSP16 add(XSP16, 11)
        ; Saved register size: 11
        ; Auto size: 0
//  685 
//  686   uint8  i = 0;
        MOV     R6,#0x0
        SJMP    ??zgSetItem_0
//  687 
//  688   // Look up the NV item table
//  689   while ( zgItemTable[i].id != 0x00 )
//  690   {
//  691     if( zgItemTable[i].id == id )
//  692     {
//  693       if ( zgItemTable[i].len == len )
//  694       {
//  695         osal_memcpy( zgItemTable[i].buf, buf, len );
//  696       }
//  697       break;
//  698     }
//  699     // Move on to the next item
//  700     i++;
??zgSetItem_1:
        INC     R6
??zgSetItem_0:
        MOV     A,R6
        MOV     B,#0x6
        MUL     AB
        MOV     R0,A
        MOV     R7,B
        MOV     A,R7
        LCALL   ?Subroutine3 & 0xFFFF
??CrossCallReturnLabel_1:
        JZ      ??zgSetItem_2
        CLR     A
        MOVC    A,@A+DPTR
        MOV     R0,A
        MOV     A,#0x1
        MOVC    A,@A+DPTR
        MOV     R1,A
        MOV     A,R2
        XRL     A,R0
        JNZ     ??zgSetItem_3
        MOV     A,R3
        XRL     A,R1
??zgSetItem_3:
        JNZ     ??zgSetItem_1
        MOV     A,R6
        MOV     B,#0x6
        MUL     AB
        MOV     R0,A
        MOV     A,R7
        MOV     R1,A
        MOV     A,#(zgItemTable + 2) & 0xff
        ADD     A,R0
        MOV     DPL,A
        MOV     A,#((zgItemTable + 2) >> 8) & 0xff
        LCALL   ?Subroutine4 & 0xFFFF
??CrossCallReturnLabel_2:
        MOV     A,R4
        XRL     A,R0
        JNZ     ??zgSetItem_4
        MOV     A,R5
        XRL     A,R1
??zgSetItem_4:
        JNZ     ??zgSetItem_2
        ; Setup parameters for call to function osal_memcpy
        MOV     A,#0xb
        LCALL   ?XSTACK_DISP0_8
        MOVX    A,@DPTR
        MOV     ?V0,A
        INC     DPTR
        MOVX    A,@DPTR
        MOV     ?V1,A
        MOV     ?V2,#0x0
        MOV     R0,#?V0
        LCALL   ?PUSH_XSTACK_I_THREE
          CFI CFA_XSP16 add(XSP16, 14)
        MOV     A,R6
        MOV     B,#0x6
        MUL     AB
        MOV     R0,A
        MOV     A,R7
        MOV     R1,A
        MOV     A,#(zgItemTable + 4) & 0xff
        ADD     A,R0
        MOV     DPL,A
        MOV     A,#((zgItemTable + 4) >> 8) & 0xff
        ADDC    A,R1
        MOV     DPH,A
        CLR     A
        MOVC    A,@A+DPTR
        MOV     R2,A
        MOV     A,#0x1
        MOVC    A,@A+DPTR
        MOV     R3,A
        LCALL   `??osal_memcpy::?relay`; Banked call to: osal_memcpy
        MOV     A,#0x3
        LCALL   ?DEALLOC_XSTACK8
          CFI CFA_XSP16 add(XSP16, 11)
//  701   }
//  702 }
??zgSetItem_2:
        LJMP    ?Subroutine0 & 0xFFFF
          CFI EndBlock cfiBlock15

        RSEG BANKED_CODE:CODE:NOROOT(0)
?Subroutine3:
          CFI Block cfiCond16 Using cfiCommon0
          CFI Function zgInitItems
          CFI Conditional ??CrossCallReturnLabel_0
          CFI R6 load(1, XDATA, add(CFA_XSP16, literal(-14)))
          CFI VB load(1, XDATA, add(CFA_XSP16, literal(-13)))
          CFI V0 load(1, XDATA, add(CFA_XSP16, literal(-12)))
          CFI V1 load(1, XDATA, add(CFA_XSP16, literal(-11)))
          CFI V2 load(1, XDATA, add(CFA_XSP16, literal(-10)))
          CFI V3 load(1, XDATA, add(CFA_XSP16, literal(-9)))
          CFI V4 load(1, XDATA, add(CFA_XSP16, literal(-8)))
          CFI V5 load(1, XDATA, add(CFA_XSP16, literal(-7)))
          CFI R7 load(1, XDATA, add(CFA_XSP16, literal(-6)))
          CFI ?RET_LOW load(1, XDATA, add(CFA_XSP16, literal(-5)))
          CFI ?RET_HIGH load(1, XDATA, add(CFA_XSP16, literal(-4)))
          CFI ?BRET_EXT load(1, XDATA, add(CFA_XSP16, literal(-3)))
          CFI DPL0 load(1, XDATA, add(CFA_XSP16, literal(-2)))
          CFI DPH0 load(1, XDATA, add(CFA_XSP16, literal(-1)))
          CFI CFA_SP SP+-2
          CFI CFA_XSP16 add(XSP16, 14)
          CFI Block cfiCond17 Using cfiCommon0
          CFI (cfiCond17) Function zgSetItem
          CFI (cfiCond17) Conditional ??CrossCallReturnLabel_1
          CFI (cfiCond17) R6 load(1, XDATA, add(CFA_XSP16, literal(-11)))
          CFI (cfiCond17) VB load(1, XDATA, add(CFA_XSP16, literal(-10)))
          CFI (cfiCond17) V0 load(1, XDATA, add(CFA_XSP16, literal(-9)))
          CFI (cfiCond17) V1 load(1, XDATA, add(CFA_XSP16, literal(-8)))
          CFI (cfiCond17) V2 load(1, XDATA, add(CFA_XSP16, literal(-7)))
          CFI (cfiCond17) R7 load(1, XDATA, add(CFA_XSP16, literal(-6)))
          CFI (cfiCond17) ?RET_LOW load(1, XDATA, add(CFA_XSP16, literal(-5)))
          CFI (cfiCond17) ?RET_HIGH load(1, XDATA, add(CFA_XSP16, literal(-4)))
          CFI (cfiCond17) ?BRET_EXT load(1, XDATA, add(CFA_XSP16, literal(-3)))
          CFI (cfiCond17) DPL0 load(1, XDATA, add(CFA_XSP16, literal(-2)))
          CFI (cfiCond17) DPH0 load(1, XDATA, add(CFA_XSP16, literal(-1)))
          CFI (cfiCond17) CFA_SP SP+-2
          CFI (cfiCond17) CFA_XSP16 add(XSP16, 11)
          CFI Block cfiPicker18 Using cfiCommon1
          CFI (cfiPicker18) NoFunction
          CFI (cfiPicker18) Picker
        MOV     R1,A
        MOV     A,#zgItemTable & 0xff
        ADD     A,R0
        MOV     DPL,A
        MOV     A,#(zgItemTable >> 8) & 0xff
        LCALL   ?Subroutine4 & 0xFFFF
??CrossCallReturnLabel_3:
        MOV     A,R0
        ORL     A,R1
        RET
          CFI EndBlock cfiCond16
          CFI EndBlock cfiCond17
          CFI EndBlock cfiPicker18

        RSEG BANKED_CODE:CODE:NOROOT(0)
?Subroutine4:
          CFI Block cfiCond19 Using cfiCommon0
          CFI Function zgSetItem
          CFI Conditional ??CrossCallReturnLabel_2
          CFI R6 load(1, XDATA, add(CFA_XSP16, literal(-11)))
          CFI VB load(1, XDATA, add(CFA_XSP16, literal(-10)))
          CFI V0 load(1, XDATA, add(CFA_XSP16, literal(-9)))
          CFI V1 load(1, XDATA, add(CFA_XSP16, literal(-8)))
          CFI V2 load(1, XDATA, add(CFA_XSP16, literal(-7)))
          CFI R7 load(1, XDATA, add(CFA_XSP16, literal(-6)))
          CFI ?RET_LOW load(1, XDATA, add(CFA_XSP16, literal(-5)))
          CFI ?RET_HIGH load(1, XDATA, add(CFA_XSP16, literal(-4)))
          CFI ?BRET_EXT load(1, XDATA, add(CFA_XSP16, literal(-3)))
          CFI DPL0 load(1, XDATA, add(CFA_XSP16, literal(-2)))
          CFI DPH0 load(1, XDATA, add(CFA_XSP16, literal(-1)))
          CFI CFA_SP SP+-2
          CFI CFA_XSP16 add(XSP16, 11)
          CFI Block cfiCond20 Using cfiCommon0
          CFI (cfiCond20) Function zgInitItems
          CFI (cfiCond20) Conditional ??CrossCallReturnLabel_3, ??CrossCallReturnLabel_0
          CFI (cfiCond20) R6 load(1, XDATA, add(CFA_XSP16, literal(-14)))
          CFI (cfiCond20) VB load(1, XDATA, add(CFA_XSP16, literal(-13)))
          CFI (cfiCond20) V0 load(1, XDATA, add(CFA_XSP16, literal(-12)))
          CFI (cfiCond20) V1 load(1, XDATA, add(CFA_XSP16, literal(-11)))
          CFI (cfiCond20) V2 load(1, XDATA, add(CFA_XSP16, literal(-10)))
          CFI (cfiCond20) V3 load(1, XDATA, add(CFA_XSP16, literal(-9)))
          CFI (cfiCond20) V4 load(1, XDATA, add(CFA_XSP16, literal(-8)))
          CFI (cfiCond20) V5 load(1, XDATA, add(CFA_XSP16, literal(-7)))
          CFI (cfiCond20) R7 load(1, XDATA, add(CFA_XSP16, literal(-6)))
          CFI (cfiCond20) ?RET_LOW load(1, XDATA, add(CFA_XSP16, literal(-5)))
          CFI (cfiCond20) ?RET_HIGH load(1, XDATA, add(CFA_XSP16, literal(-4)))
          CFI (cfiCond20) ?BRET_EXT load(1, XDATA, add(CFA_XSP16, literal(-3)))
          CFI (cfiCond20) DPL0 load(1, XDATA, add(CFA_XSP16, literal(-2)))
          CFI (cfiCond20) DPH0 load(1, XDATA, add(CFA_XSP16, literal(-1)))
          CFI (cfiCond20) CFA_SP SP+-4
          CFI (cfiCond20) CFA_XSP16 add(XSP16, 14)
          CFI Block cfiCond21 Using cfiCommon0
          CFI (cfiCond21) Function zgSetItem
          CFI (cfiCond21) Conditional ??CrossCallReturnLabel_3, ??CrossCallReturnLabel_1
          CFI (cfiCond21) R6 load(1, XDATA, add(CFA_XSP16, literal(-11)))
          CFI (cfiCond21) VB load(1, XDATA, add(CFA_XSP16, literal(-10)))
          CFI (cfiCond21) V0 load(1, XDATA, add(CFA_XSP16, literal(-9)))
          CFI (cfiCond21) V1 load(1, XDATA, add(CFA_XSP16, literal(-8)))
          CFI (cfiCond21) V2 load(1, XDATA, add(CFA_XSP16, literal(-7)))
          CFI (cfiCond21) R7 load(1, XDATA, add(CFA_XSP16, literal(-6)))
          CFI (cfiCond21) ?RET_LOW load(1, XDATA, add(CFA_XSP16, literal(-5)))
          CFI (cfiCond21) ?RET_HIGH load(1, XDATA, add(CFA_XSP16, literal(-4)))
          CFI (cfiCond21) ?BRET_EXT load(1, XDATA, add(CFA_XSP16, literal(-3)))
          CFI (cfiCond21) DPL0 load(1, XDATA, add(CFA_XSP16, literal(-2)))
          CFI (cfiCond21) DPH0 load(1, XDATA, add(CFA_XSP16, literal(-1)))
          CFI (cfiCond21) CFA_SP SP+-4
          CFI (cfiCond21) CFA_XSP16 add(XSP16, 11)
          CFI Block cfiPicker22 Using cfiCommon1
          CFI (cfiPicker22) NoFunction
          CFI (cfiPicker22) Picker
        ADDC    A,R1
        MOV     DPH,A
        CLR     A
        MOVC    A,@A+DPTR
        MOV     R0,A
        MOV     A,#0x1
        MOVC    A,@A+DPTR
        MOV     R1,A
        RET
          CFI EndBlock cfiCond19
          CFI EndBlock cfiCond20
          CFI EndBlock cfiCond21
          CFI EndBlock cfiPicker22

        RSEG XDATA_ID:CODE:NOROOT(0)
`?<Initializer for zgPollRate>`:
        DATA16
        DW 1000

        RSEG XDATA_ID:CODE:NOROOT(0)
`?<Initializer for zgQueuedPollRate>`:
        DATA16
        DW 100

        RSEG XDATA_ID:CODE:NOROOT(0)
`?<Initializer for zgResponsePollRate>`:
        DATA16
        DW 100

        RSEG XDATA_ID:CODE:NOROOT(0)
`?<Initializer for zgRejoinPollRate>`:
        DATA16
        DW 440

        RSEG XDATA_ID:CODE:NOROOT(0)
`?<Initializer for zgMaxDataRetries>`:
        DATA8
        DB 2

        RSEG XDATA_ID:CODE:NOROOT(0)
`?<Initializer for zgMaxPollFailureRetries>`:
        DATA8
        DB 2

        RSEG XDATA_ID:CODE:NOROOT(0)
`?<Initializer for zgDefaultChannelList>`:
        DATA32
        DD 2048

        RSEG XDATA_ID:CODE:NOROOT(0)
`?<Initializer for zgDefaultStartingScanDuratio`:
        DATA8
        DB 5

        RSEG XDATA_ID:CODE:NOROOT(0)
`?<Initializer for zgStackProfile>`:
        DATA8
        DB 2

        RSEG XDATA_ID:CODE:NOROOT(0)
`?<Initializer for zgIndirectMsgTimeout>`:
        DATA8
        DB 7

        RSEG XDATA_ID:CODE:NOROOT(0)
`?<Initializer for zgSecurityMode>`:
        DATA8
        DB 1

        RSEG XDATA_ID:CODE:NOROOT(0)
`?<Initializer for zgSecurePermitJoin>`:
        DATA8
        DB 1

        RSEG XDATA_ID:CODE:NOROOT(0)
`?<Initializer for zgRouteDiscoveryTime>`:
        DATA8
        DB 5

        RSEG XDATA_ID:CODE:NOROOT(0)
`?<Initializer for zgRouteExpiryTime>`:
        DATA8
        DB 30

        RSEG XDATA_ID:CODE:NOROOT(0)
`?<Initializer for zgMaxBcastRetires>`:
        DATA8
        DB 2

        RSEG XDATA_ID:CODE:NOROOT(0)
`?<Initializer for zgPassiveAckTimeout>`:
        DATA8
        DB 5

        RSEG XDATA_ID:CODE:NOROOT(0)
`?<Initializer for zgBcastDeliveryTime>`:
        DATA8
        DB 30

        RSEG XDATA_ID:CODE:NOROOT(0)
`?<Initializer for zgNwkMode>`:
        DATA8
        DB 2

        RSEG XDATA_ID:CODE:NOROOT(0)
`?<Initializer for zgConcentratorRadius>`:
        DATA8
        DB 10

        RSEG XDATA_ID:CODE:NOROOT(0)
`?<Initializer for zgNwkSrcRtgExpiryTime>`:
        DATA8
        DB 10

        RSEG XDATA_ID:CODE:NOROOT(0)
`?<Initializer for zgNwkLeaveRequestAllowed>`:
        DATA8
        DB 1

        RSEG XDATA_ID:CODE:NOROOT(0)
`?<Initializer for zgApscMaxFrameRetries>`:
        DATA8
        DB 3

        RSEG XDATA_ID:CODE:NOROOT(0)
`?<Initializer for zgApscAckWaitDurationPolled>`:
        DATA16
        DW 3000

        RSEG XDATA_ID:CODE:NOROOT(0)
`?<Initializer for zgApsAckWaitMultiplier>`:
        DATA8
        DB 2

        RSEG XDATA_ID:CODE:NOROOT(0)
`?<Initializer for zgApsDefaultMaxBindingTime>`:
        DATA16
        DW 16000

        RSEG XDATA_ID:CODE:NOROOT(0)
`?<Initializer for zgApsUseInsecureJoin>`:
        DATA8
        DB 1

        RSEG XDATA_ID:CODE:NOROOT(0)
`?<Initializer for zgApsNonMemberRadius>`:
        DATA8
        DB 2

        RSEG XDATA_ID:CODE:NOROOT(0)
`?<Initializer for zgNwkCommissionedNwkAddr>`:
        DATA16
        DW 65534

        RSEG XDATA_ID:CODE:NOROOT(0)
`?<Initializer for zgApscDupRejTimeoutInc>`:
        DATA16
        DW 1000

        RSEG XDATA_ID:CODE:NOROOT(0)
`?<Initializer for zgApscDupRejTimeoutCount>`:
        DATA8
        DB 10

        RSEG XDATA_ID:CODE:NOROOT(0)
`?<Initializer for zgApsMinDupRejTableSize>`:
        DATA16
        DW 5

        RSEG XDATA_ID:CODE:NOROOT(0)
`?<Initializer for zgApsLinkKeyType>`:
        DATA8
        DB 1

        RSEG XDATA_ID:CODE:NOROOT(0)
`?<Initializer for zgConfigPANID>`:
        DATA16
        DW 65535

        RSEG XDATA_ID:CODE:NOROOT(0)
`?<Initializer for zgStartDelay>`:
        DATA8
        DB 10

        RSEG XDATA_ID:CODE:NOROOT(0)
`?<Initializer for zgNwkMgrMinTransmissions>`:
        DATA8
        DB 20

        RSEG XDATA_ID:CODE:NOROOT(0)
`?<Initializer for zgNwkMgrMode>`:
        DATA8
        DB 1

        RSEG XDATA_ID:CODE:NOROOT(0)
`?<Initializer for zgSapiEndpoint>`:
        DATA8
        DB 224

        RSEG BANK_RELAYS:CODE:REORDER:NOROOT(0)
`??zgInit::?relay`:
        CODE
        LCALL   ?BDISPATCH
        DATA24
        DC24    zgInit

        RSEG BANK_RELAYS:CODE:REORDER:NOROOT(0)
`??zgInitItems::?relay`:
        CODE
        LCALL   ?BDISPATCH
        DATA24
        DC24    zgInitItems

        RSEG BANK_RELAYS:CODE:REORDER:NOROOT(0)
`??zgReadStartupOptions::?relay`:
        CODE
        LCALL   ?BDISPATCH
        DATA24
        DC24    zgReadStartupOptions

        RSEG BANK_RELAYS:CODE:REORDER:NOROOT(0)
`??zgWriteStartupOptions::?relay`:
        CODE
        LCALL   ?BDISPATCH
        DATA24
        DC24    zgWriteStartupOptions

        RSEG BANK_RELAYS:CODE:REORDER:NOROOT(0)
`??zgSetItem::?relay`:
        CODE
        LCALL   ?BDISPATCH
        DATA24
        DC24    zgSetItem

        END
//  703 
//  704 #ifndef NONWK
//  705 /*********************************************************************
//  706  * @fn       zgPreconfigKeyInit()
//  707  *
//  708  * @brief
//  709  *
//  710  *   Initialize ZCD_NV_PRECFGKEY NV item. If the item doesn't exist in NV memory,
//  711  *   write the system default (value passed in) into NV memory. But if
//  712  *   it exists do not overwrite it.
//  713  *
//  714  *   Also, if setDefault is TRUE and the item exists, we will write
//  715  *   the default value to NV space.
//  716  *
//  717  * @param   setDefault - TRUE to set default
//  718  *
//  719  * @return  ZSUCCESS if successful, NV_ITEM_UNINIT if item did not
//  720  *          exist in NV, NV_OPER_FAILED if failure.
//  721  */
//  722 static uint8 zgPreconfigKeyInit( uint8 setDefault )
//  723 {
//  724   uint8 zgPreConfigKey[SEC_KEY_LEN];
//  725   uint8 status;
//  726 
//  727   // Initialize the Pre-Configured Key to the default key
//  728   osal_memcpy( zgPreConfigKey, defaultKey, SEC_KEY_LEN );
//  729 
//  730   // If the item doesn't exist in NV memory, create and initialize it
//  731   status = osal_nv_item_init( ZCD_NV_PRECFGKEY, SEC_KEY_LEN, zgPreConfigKey );
//  732   if ( status == ZSUCCESS )
//  733   {
//  734     if ( setDefault )
//  735     {
//  736       // Write the default value back to NV
//  737       status =  osal_nv_write( ZCD_NV_PRECFGKEY, 0, SEC_KEY_LEN, zgPreConfigKey );
//  738     }
//  739   }
//  740 
//  741   // clear local copy of default key
//  742   osal_memset(zgPreConfigKey, 0x00, SEC_KEY_LEN);
//  743 
//  744   return (status);
//  745 }
//  746 #endif
//  747 
//  748 /*********************************************************************
//  749 *********************************************************************/
// 
// 869 bytes in segment BANKED_CODE
//  30 bytes in segment BANK_RELAYS
// 306 bytes in segment CODE_C
//  50 bytes in segment XDATA_I
//  50 bytes in segment XDATA_ID
//  34 bytes in segment XDATA_Z
// 
// 1 255 bytes of CODE  memory
//    84 bytes of XDATA memory
//
//Errors: none
//Warnings: none
