///////////////////////////////////////////////////////////////////////////////
//
// IAR C/C++ Compiler V9.30.1.3056 for 8051               21/Nov/2018  13:52:23
// Copyright 2004-2015 IAR Systems AB.
// Standalone license - IAR Embedded Workbench for 8051
//
//    Core               =  plain
//    Code model         =  banked
//    Data model         =  large
//    Calling convention =  xdata reentrant
//    Constant location  =  data_rom
//    Dptr setup         =  1,16
//                          
//    Source file        =  
//        D:\1.embedded\kit\cc2530\Reference\Z-Stack Mesh
//        1.0.0\Components\zmac\f8w\zmac_cb.c
//    Command line       =  
//        -f "D:\1.embedded\kit\cc2530\Reference\Z-Stack Mesh
//        1.0.0\Projects\zstack\ZNP\CC253x\..\Source\znp.cfg"
//        (-DMAC_CFG_APP_PENDING_QUEUE=TRUE
//        "-DZSTACK_DEVICE_BUILD=(DEVICE_BUILD_COORDINATOR |
//        DEVICE_BUILD_ROUTER | DEVICE_BUILD_ENDDEVICE)" -DNWK_AUTO_POLL
//        -DZNP_RUN_WDOG=FALSE -DZNP_UART_BAUD=HAL_UART_BR_115200 -DZIGBEEPRO
//        -DZIGBEE_FRAGMENTATION -DINTER_PAN -DOSAL_CLOCK -DOSAL_SAPI=FALSE
//        -DSAPI_CB_FUNC=FALSE -DHOLD_AUTO_START -DNV_RESTORE -DNV_INIT
//        -DNUM_DISC_ATTEMPTS=0 -DMT_UTIL_FUNC -DMT_SYS_FUNC -DMT_AF_FUNC
//        -DMT_SAPI_FUNC -DMT_SAPI_CB_FUNC -DMT_ZDO_CB_FUNC -DMT_ZDO_FUNC
//        -DMT_ZDO_MGMT -DMT_ZDO_EXTENSIONS -DMT_APP_FUNC) -f
//        "D:\1.embedded\kit\cc2530\Reference\Z-Stack Mesh
//        1.0.0\Projects\zstack\ZNP\CC253x\..\..\Tools\CC2530DB\f8wConfig.cfg"
//        (-DZIGBEEPRO -DSECURE=1 -DZG_SECURE_DYNAMIC=0 -DREFLECTOR
//        -DDEFAULT_CHANLIST=0x00000800 -DZDAPP_CONFIG_PAN_ID=0xFFFF
//        -DNWK_START_DELAY=100 -DEXTENDED_JOINING_RANDOM_MASK=0x007F
//        -DBEACON_REQUEST_DELAY=100 -DBEACON_REQ_DELAY_MASK=0x00FF
//        -DLINK_STATUS_JITTER_MASK=0x007F -DROUTE_EXPIRY_TIME=30
//        -DAPSC_ACK_WAIT_DURATION_POLLED=3000 -DNWK_INDIRECT_MSG_TIMEOUT=7
//        -DMAX_RREQ_ENTRIES=8 -DAPSC_MAX_FRAME_RETRIES=3
//        -DNWK_MAX_DATA_RETRIES=2 -DMAX_POLL_FAILURE_RETRIES=2 -DMAX_BCAST=9
//        -DAPS_MAX_GROUPS=16 -DMAX_RTG_ENTRIES=40 -DNWK_MAX_BINDING_ENTRIES=4
//        -DMAX_BINDING_CLUSTER_IDS=4 "-DDEFAULT_KEY={0x01, 0x03, 0x05, 0x07,
//        0x09, 0x0B, 0x0D, 0x0F, 0x00, 0x02, 0x04, 0x06, 0x08, 0x0A, 0x0C,
//        0x0D}" -DMAC_MAX_FRAME_SIZE=116 -DZDNWKMGR_MIN_TRANSMISSIONS=20
//        "-DCONST=const __code" -DGENERIC=__generic -DRFD_RCVC_ALWAYS_ON=FALSE
//        -DPOLL_RATE=1000 -DQUEUED_POLL_RATE=100 -DRESPONSE_POLL_RATE=100
//        -DREJOIN_POLL_RATE=440) -f
//        "D:\1.embedded\kit\cc2530\Reference\Z-Stack Mesh
//        1.0.0\Projects\zstack\ZNP\CC253x\..\..\Tools\CC2530DB\f8wZCL.cfg"
//        "D:\1.embedded\kit\cc2530\Reference\Z-Stack Mesh
//        1.0.0\Components\zmac\f8w\zmac_cb.c" -D FEATURE_SYSTEM_STATS -D
//        POWER_SAVING -lC "D:\1.embedded\kit\cc2530\Reference\Z-Stack Mesh
//        1.0.0\Projects\zstack\ZNP\CC253x\CC2530-Debug\List" -lA
//        "D:\1.embedded\kit\cc2530\Reference\Z-Stack Mesh
//        1.0.0\Projects\zstack\ZNP\CC253x\CC2530-Debug\List" --diag_suppress
//        Pe001,Pa010 -o "D:\1.embedded\kit\cc2530\Reference\Z-Stack Mesh
//        1.0.0\Projects\zstack\ZNP\CC253x\CC2530-Debug\Obj" -e
//        --no_code_motion --debug --core=plain --dptr=16,1 --data_model=large
//        --code_model=banked --calling_convention=xdata_reentrant
//        --place_constants=data_rom --nr_virtual_regs 16 -I
//        "D:\1.embedded\kit\cc2530\Reference\Z-Stack Mesh
//        1.0.0\Projects\zstack\ZNP\CC253x\" -I
//        "D:\1.embedded\kit\cc2530\Reference\Z-Stack Mesh
//        1.0.0\Projects\zstack\ZNP\CC253x\Source\" -I
//        "D:\1.embedded\kit\cc2530\Reference\Z-Stack Mesh
//        1.0.0\Projects\zstack\ZNP\CC253x\..\Source\" -I
//        "D:\1.embedded\kit\cc2530\Reference\Z-Stack Mesh
//        1.0.0\Projects\zstack\ZNP\CC253x\..\..\SE\Source\" -I
//        "D:\1.embedded\kit\cc2530\Reference\Z-Stack Mesh
//        1.0.0\Projects\zstack\ZNP\CC253x\..\..\ZMain\TI2530ZNP\" -I
//        "D:\1.embedded\kit\cc2530\Reference\Z-Stack Mesh
//        1.0.0\Projects\zstack\ZNP\CC253x\..\..\..\..\Components\hal\include\"
//        -I "D:\1.embedded\kit\cc2530\Reference\Z-Stack Mesh
//        1.0.0\Projects\zstack\ZNP\CC253x\..\..\..\..\Components\hal\target\CC2530ZNP\"
//        -I "D:\1.embedded\kit\cc2530\Reference\Z-Stack Mesh
//        1.0.0\Projects\zstack\ZNP\CC253x\..\..\..\..\Components\mac\include\"
//        -I "D:\1.embedded\kit\cc2530\Reference\Z-Stack Mesh
//        1.0.0\Projects\zstack\ZNP\CC253x\..\..\..\..\Components\mac\high_level\"
//        -I "D:\1.embedded\kit\cc2530\Reference\Z-Stack Mesh
//        1.0.0\Projects\zstack\ZNP\CC253x\..\..\..\..\Components\mac\low_level\srf04\"
//        -I "D:\1.embedded\kit\cc2530\Reference\Z-Stack Mesh
//        1.0.0\Projects\zstack\ZNP\CC253x\..\..\..\..\Components\mac\low_level\srf04\single_chip\"
//        -I "D:\1.embedded\kit\cc2530\Reference\Z-Stack Mesh
//        1.0.0\Projects\zstack\ZNP\CC253x\..\..\..\..\Components\mt\" -I
//        "D:\1.embedded\kit\cc2530\Reference\Z-Stack Mesh
//        1.0.0\Projects\zstack\ZNP\CC253x\..\..\..\..\Components\osal\include\"
//        -I "D:\1.embedded\kit\cc2530\Reference\Z-Stack Mesh
//        1.0.0\Projects\zstack\ZNP\CC253x\..\..\..\..\Components\services\saddr\"
//        -I "D:\1.embedded\kit\cc2530\Reference\Z-Stack Mesh
//        1.0.0\Projects\zstack\ZNP\CC253x\..\..\..\..\Components\services\sdata\"
//        -I "D:\1.embedded\kit\cc2530\Reference\Z-Stack Mesh
//        1.0.0\Projects\zstack\ZNP\CC253x\..\..\..\..\Components\stack\af\" -I
//        "D:\1.embedded\kit\cc2530\Reference\Z-Stack Mesh
//        1.0.0\Projects\zstack\ZNP\CC253x\..\..\..\..\Components\stack\nwk\"
//        -I "D:\1.embedded\kit\cc2530\Reference\Z-Stack Mesh
//        1.0.0\Projects\zstack\ZNP\CC253x\..\..\..\..\Components\stack\sapi\"
//        -I "D:\1.embedded\kit\cc2530\Reference\Z-Stack Mesh
//        1.0.0\Projects\zstack\ZNP\CC253x\..\..\..\..\Components\stack\sec\"
//        -I "D:\1.embedded\kit\cc2530\Reference\Z-Stack Mesh
//        1.0.0\Projects\zstack\ZNP\CC253x\..\..\..\..\Components\stack\sys\"
//        -I "D:\1.embedded\kit\cc2530\Reference\Z-Stack Mesh
//        1.0.0\Projects\zstack\ZNP\CC253x\..\..\..\..\Components\stack\zcl\"
//        -I "D:\1.embedded\kit\cc2530\Reference\Z-Stack Mesh
//        1.0.0\Projects\zstack\ZNP\CC253x\..\..\..\..\Components\stack\zdo\"
//        -I "D:\1.embedded\kit\cc2530\Reference\Z-Stack Mesh
//        1.0.0\Projects\zstack\ZNP\CC253x\..\..\..\..\Components\zmac\" -I
//        "D:\1.embedded\kit\cc2530\Reference\Z-Stack Mesh
//        1.0.0\Projects\zstack\ZNP\CC253x\..\..\..\..\Components\zmac\f8w\"
//        -Ohz --require_prototypes
//    List file          =  
//        D:\1.embedded\kit\cc2530\Reference\Z-Stack Mesh
//        1.0.0\Projects\zstack\ZNP\CC253x\CC2530-Debug\List\zmac_cb.s51
//
///////////////////////////////////////////////////////////////////////////////

        NAME zmac_cb

        RTMODEL "__SystemLibrary", "CLib"
        RTMODEL "__calling_convention", "xdata_reentrant"
        RTMODEL "__code_model", "banked"
        RTMODEL "__core", "plain"
        RTMODEL "__data_model", "large"
        RTMODEL "__dptr_size", "16"
        RTMODEL "__extended_stack", "disabled"
        RTMODEL "__location_for_constants", "data"
        RTMODEL "__number_of_dptrs", "1"
        RTMODEL "__rt_version", "1"

        RSEG DOVERLAY:DATA:NOROOT(0)
        RSEG IOVERLAY:IDATA:NOROOT(0)
        RSEG ISTACK:IDATA:NOROOT(0)
        RSEG PSTACK:XDATA:NOROOT(0)
        RSEG XSTACK:XDATA:NOROOT(0)

        EXTERN ?V0
        EXTERN ?V1
        EXTERN ?V2
        EXTERN ?V3
        EXTERN ?V4
        EXTERN ?V5
        EXTERN ?V6
        EXTERN ?V7
        EXTERN ?V8
        EXTERN ?V9
        EXTERN ?V10
        EXTERN ?V11
        EXTERN ?ALLOC_XSTACK8
        EXTERN ?BANKED_ENTER_XDATA
        EXTERN ?BANKED_LEAVE_XDATA
        EXTERN ?BDISPATCH
        EXTERN ?BRET
        EXTERN ?CALL_IND
        EXTERN ?DEALLOC_XSTACK8
        EXTERN ?PUSH_XSTACK_I_THREE
        EXTERN ?US_DIV_MOD
        EXTERN ?XSP
        EXTERN ?XSTACK_DISP0_8
        EXTERN ?XSTACK_DISP101_8
        EXTERN __INIT_XDATA_Z

        PUBLIC `??MAC_CbackCheckPending::?relay`
        FUNCTION `??MAC_CbackCheckPending::?relay`,0203H
        PUBLIC `??MAC_CbackEvent::?relay`
        FUNCTION `??MAC_CbackEvent::?relay`,0203H
        PUBLIC `??MAC_CbackQueryRetransmit::?relay`
        FUNCTION `??MAC_CbackQueryRetransmit::?relay`,0203H
        FUNCTION `??ZMacLqiAdjust::?relay`,0203H
        PUBLIC `??ZMacLqiAdjustMode::?relay`
        FUNCTION `??ZMacLqiAdjustMode::?relay`,0203H
        PUBLIC MAC_CbackCheckPending
        FUNCTION MAC_CbackCheckPending,021203H
        ARGFRAME XSTACK, 0, STACK
        LOCFRAME ISTACK, 2, STACK
        PUBLIC MAC_CbackEvent
        FUNCTION MAC_CbackEvent,0a1203H
        ARGFRAME XSTACK, 0, STACK
        LOCFRAME XSTACK, 27, STACK
        PUBLIC MAC_CbackQueryRetransmit
        FUNCTION MAC_CbackQueryRetransmit,0203H
        ARGFRAME XSTACK, 0, STACK
        FUNCTION ZMacLqiAdjust,080203H
        ARGFRAME XSTACK, 24, STACK
        ARGFRAME IOVERLAY, 0, STATIC
        ARGFRAME DOVERLAY, 0, STATIC
        LOCFRAME ISTACK, 1, STACK
        LOCFRAME XSTACK, 10, STACK
        PUBLIC ZMacLqiAdjustMode
        FUNCTION ZMacLqiAdjustMode,0203H
        ARGFRAME XSTACK, 0, STACK
        LOCFRAME ISTACK, 2, STACK
        PUBWEAK _A_IEN0
        PUBLIC pZMac_AppCallback
        PUBLIC zmacCBSizeTable
        
          CFI Names cfiNames0
          CFI StackFrame CFA_SP SP IDATA
          CFI StackFrame CFA_PSP16 PSP16 XDATA
          CFI StackFrame CFA_XSP16 XSP16 XDATA
          CFI StaticOverlayFrame CFA_IOVERLAY IOVERLAY
          CFI StaticOverlayFrame CFA_DOVERLAY DOVERLAY
          CFI Resource `PSW.CY`:1, `B.BR0`:1, `B.BR1`:1, `B.BR2`:1, `B.BR3`:1
          CFI Resource `B.BR4`:1, `B.BR5`:1, `B.BR6`:1, `B.BR7`:1, `VB.BR8`:1
          CFI Resource `VB.BR9`:1, `VB.BR10`:1, `VB.BR11`:1, `VB.BR12`:1
          CFI Resource `VB.BR13`:1, `VB.BR14`:1, `VB.BR15`:1, VB:8, B:8, A:8
          CFI Resource PSW:8, DPL0:8, DPH0:8, R0:8, R1:8, R2:8, R3:8, R4:8, R5:8
          CFI Resource R6:8, R7:8, V0:8, V1:8, V2:8, V3:8, V4:8, V5:8, V6:8, V7:8
          CFI Resource V8:8, V9:8, V10:8, V11:8, V12:8, V13:8, V14:8, V15:8, SP:8
          CFI Resource PSPH:8, PSPL:8, PSP16:16, XSPH:8, XSPL:8, XSP16:16
          CFI VirtualResource ?RET:24
          CFI Resource ?BRET_EXT:8
          CFI VirtualResource ?RET_HIGH:8, ?RET_LOW:8
          CFI ResourceParts PSP16 PSPH, PSPL
          CFI ResourceParts XSP16 XSPH, XSPL
          CFI ResourceParts ?RET ?BRET_EXT, ?RET_HIGH, ?RET_LOW
          CFI EndNames cfiNames0
        
          CFI Common cfiCommon0 Using cfiNames0
          CFI CodeAlign 1
          CFI DataAlign -1
          CFI ReturnAddress ?RET CODE
          CFI CFA_DOVERLAY Used
          CFI CFA_IOVERLAY Used
          CFI CFA_SP SP+-3
          CFI CFA_PSP16 PSP16+0
          CFI CFA_XSP16 XSP16+0
          CFI `PSW.CY` SameValue
          CFI `B.BR0` SameValue
          CFI `B.BR1` SameValue
          CFI `B.BR2` SameValue
          CFI `B.BR3` SameValue
          CFI `B.BR4` SameValue
          CFI `B.BR5` SameValue
          CFI `B.BR6` SameValue
          CFI `B.BR7` SameValue
          CFI `VB.BR8` SameValue
          CFI `VB.BR9` SameValue
          CFI `VB.BR10` SameValue
          CFI `VB.BR11` SameValue
          CFI `VB.BR12` SameValue
          CFI `VB.BR13` SameValue
          CFI `VB.BR14` SameValue
          CFI `VB.BR15` SameValue
          CFI VB SameValue
          CFI B Undefined
          CFI A Undefined
          CFI PSW SameValue
          CFI DPL0 SameValue
          CFI DPH0 SameValue
          CFI R0 Undefined
          CFI R1 Undefined
          CFI R2 Undefined
          CFI R3 Undefined
          CFI R4 Undefined
          CFI R5 Undefined
          CFI R6 SameValue
          CFI R7 SameValue
          CFI V0 SameValue
          CFI V1 SameValue
          CFI V2 SameValue
          CFI V3 SameValue
          CFI V4 SameValue
          CFI V5 SameValue
          CFI V6 SameValue
          CFI V7 SameValue
          CFI V8 SameValue
          CFI V9 SameValue
          CFI V10 SameValue
          CFI V11 SameValue
          CFI V12 SameValue
          CFI V13 SameValue
          CFI V14 SameValue
          CFI V15 SameValue
          CFI PSPH Undefined
          CFI PSPL Undefined
          CFI XSPH Undefined
          CFI XSPL Undefined
          CFI ?RET Concat
          CFI ?BRET_EXT Frame(CFA_SP, 3)
          CFI ?RET_HIGH Frame(CFA_SP, 2)
          CFI ?RET_LOW Frame(CFA_SP, 1)
          CFI EndCommon cfiCommon0
        
        
          CFI Common cfiCommon1 Using cfiNames0
          CFI CodeAlign 1
          CFI DataAlign -1
          CFI ReturnAddress ?RET CODE
          CFI CFA_DOVERLAY Used
          CFI CFA_IOVERLAY Used
          CFI CFA_SP SP+-2
          CFI CFA_PSP16 PSP16+0
          CFI CFA_XSP16 XSP16+0
          CFI `PSW.CY` SameValue
          CFI `B.BR0` SameValue
          CFI `B.BR1` SameValue
          CFI `B.BR2` SameValue
          CFI `B.BR3` SameValue
          CFI `B.BR4` SameValue
          CFI `B.BR5` SameValue
          CFI `B.BR6` SameValue
          CFI `B.BR7` SameValue
          CFI `VB.BR8` SameValue
          CFI `VB.BR9` SameValue
          CFI `VB.BR10` SameValue
          CFI `VB.BR11` SameValue
          CFI `VB.BR12` SameValue
          CFI `VB.BR13` SameValue
          CFI `VB.BR14` SameValue
          CFI `VB.BR15` SameValue
          CFI VB SameValue
          CFI B SameValue
          CFI A SameValue
          CFI PSW SameValue
          CFI DPL0 SameValue
          CFI DPH0 SameValue
          CFI R0 SameValue
          CFI R1 SameValue
          CFI R2 SameValue
          CFI R3 SameValue
          CFI R4 SameValue
          CFI R5 SameValue
          CFI R6 SameValue
          CFI R7 SameValue
          CFI V0 SameValue
          CFI V1 SameValue
          CFI V2 SameValue
          CFI V3 SameValue
          CFI V4 SameValue
          CFI V5 SameValue
          CFI V6 SameValue
          CFI V7 SameValue
          CFI V8 SameValue
          CFI V9 SameValue
          CFI V10 SameValue
          CFI V11 SameValue
          CFI V12 SameValue
          CFI V13 SameValue
          CFI V14 SameValue
          CFI V15 SameValue
          CFI PSPH Undefined
          CFI PSPL Undefined
          CFI XSPH Undefined
          CFI XSPL Undefined
          CFI ?RET Concat
          CFI ?BRET_EXT SameValue
          CFI ?RET_HIGH Frame(CFA_SP, 2)
          CFI ?RET_LOW Frame(CFA_SP, 1)
          CFI EndCommon cfiCommon1
        
MAC_MlmeGetReq      SYMBOL "MAC_MlmeGetReq"
`??MAC_MlmeGetReq::?relay` SYMBOL "?relay", MAC_MlmeGetReq
mac_msg_deallocate  SYMBOL "mac_msg_deallocate"
`??mac_msg_deallocate::?relay` SYMBOL "?relay", mac_msg_deallocate
nwkDB_ReturnIndirectHoldingCnt SYMBOL "nwkDB_ReturnIndirectHoldingCnt"
`??nwkDB_ReturnIndirectHoldingCnt::?relay` SYMBOL "?relay", nwkDB_ReturnIndirectHoldingCnt
nwk_broadcastSend   SYMBOL "nwk_broadcastSend"
`??nwk_broadcastSend::?relay` SYMBOL "?relay", nwk_broadcastSend
osal_mem_free       SYMBOL "osal_mem_free"
`??osal_mem_free::?relay` SYMBOL "?relay", osal_mem_free
osal_memcpy         SYMBOL "osal_memcpy"
`??osal_memcpy::?relay` SYMBOL "?relay", osal_memcpy
osal_msg_allocate   SYMBOL "osal_msg_allocate"
`??osal_msg_allocate::?relay` SYMBOL "?relay", osal_msg_allocate
osal_msg_send       SYMBOL "osal_msg_send"
`??osal_msg_send::?relay` SYMBOL "?relay", osal_msg_send
MAC_CbackCheckPending SYMBOL "MAC_CbackCheckPending"
`??MAC_CbackCheckPending::?relay` SYMBOL "?relay", MAC_CbackCheckPending
MAC_CbackEvent      SYMBOL "MAC_CbackEvent"
`??MAC_CbackEvent::?relay` SYMBOL "?relay", MAC_CbackEvent
MAC_CbackQueryRetransmit SYMBOL "MAC_CbackQueryRetransmit"
`??MAC_CbackQueryRetransmit::?relay` SYMBOL "?relay", MAC_CbackQueryRetransmit
ZMacLqiAdjustMode   SYMBOL "ZMacLqiAdjustMode"
`??ZMacLqiAdjustMode::?relay` SYMBOL "?relay", ZMacLqiAdjustMode

        EXTERN `??MAC_MlmeGetReq::?relay`
        FUNCTION `??MAC_MlmeGetReq::?relay`,00H
        EXTERN `??mac_msg_deallocate::?relay`
        FUNCTION `??mac_msg_deallocate::?relay`,00H
        EXTERN `??nwkDB_ReturnIndirectHoldingCnt::?relay`
        FUNCTION `??nwkDB_ReturnIndirectHoldingCnt::?relay`,00H
        EXTERN `??nwk_broadcastSend::?relay`
        FUNCTION `??nwk_broadcastSend::?relay`,00H
        EXTERN `??osal_mem_free::?relay`
        FUNCTION `??osal_mem_free::?relay`,00H
        EXTERN `??osal_memcpy::?relay`
        FUNCTION `??osal_memcpy::?relay`,00H
        EXTERN `??osal_msg_allocate::?relay`
        FUNCTION `??osal_msg_allocate::?relay`,00H
        EXTERN `??osal_msg_send::?relay`
        FUNCTION `??osal_msg_send::?relay`,00H
        EXTERN MAC_MlmeGetReq
        FUNCTION MAC_MlmeGetReq,0202H
        ARGFRAME ISTACK, 0, STACK
        ARGFRAME PSTACK, 0, STACK
        ARGFRAME XSTACK, 24, STACK
        ARGFRAME IOVERLAY, 0, STATIC
        ARGFRAME DOVERLAY, 0, STATIC
        EXTERN NWK_TaskID
        EXTERN ZMac_ScanBuf
        EXTERN _NIB
        EXTERN mac_msg_deallocate
        FUNCTION mac_msg_deallocate,0202H
        ARGFRAME ISTACK, 0, STACK
        ARGFRAME PSTACK, 0, STACK
        ARGFRAME XSTACK, 24, STACK
        ARGFRAME IOVERLAY, 0, STATIC
        ARGFRAME DOVERLAY, 0, STATIC
        EXTERN nwkDB_ReturnIndirectHoldingCnt
        FUNCTION nwkDB_ReturnIndirectHoldingCnt,0202H
        ARGFRAME ISTACK, 2, STACK
        ARGFRAME PSTACK, 0, STACK
        ARGFRAME XSTACK, 0, STACK
        ARGFRAME IOVERLAY, 0, STATIC
        ARGFRAME DOVERLAY, 0, STATIC
        EXTERN nwk_broadcastSend
        FUNCTION nwk_broadcastSend,0202H
        ARGFRAME ISTACK, 0, STACK
        ARGFRAME PSTACK, 0, STACK
        ARGFRAME XSTACK, 24, STACK
        ARGFRAME IOVERLAY, 0, STATIC
        ARGFRAME DOVERLAY, 0, STATIC
        EXTERN osal_mem_free
        FUNCTION osal_mem_free,0202H
        ARGFRAME ISTACK, 0, STACK
        ARGFRAME PSTACK, 0, STACK
        ARGFRAME XSTACK, 24, STACK
        ARGFRAME IOVERLAY, 0, STATIC
        ARGFRAME DOVERLAY, 0, STATIC
        EXTERN osal_memcpy
        FUNCTION osal_memcpy,0202H
        ARGFRAME ISTACK, 0, STACK
        ARGFRAME PSTACK, 0, STACK
        ARGFRAME XSTACK, 27, STACK
        ARGFRAME IOVERLAY, 0, STATIC
        ARGFRAME DOVERLAY, 0, STATIC
        EXTERN osal_msg_allocate
        FUNCTION osal_msg_allocate,0202H
        ARGFRAME ISTACK, 0, STACK
        ARGFRAME PSTACK, 0, STACK
        ARGFRAME XSTACK, 24, STACK
        ARGFRAME IOVERLAY, 0, STATIC
        ARGFRAME DOVERLAY, 0, STATIC
        EXTERN osal_msg_send
        FUNCTION osal_msg_send,0202H
        ARGFRAME ISTACK, 0, STACK
        ARGFRAME PSTACK, 0, STACK
        ARGFRAME XSTACK, 24, STACK
        ARGFRAME IOVERLAY, 0, STATIC
        ARGFRAME DOVERLAY, 0, STATIC
        EXTERN zgDeviceLogicalType

// D:\1.embedded\kit\cc2530\Reference\Z-Stack Mesh 1.0.0\Components\zmac\f8w\zmac_cb.c
//    1 /**************************************************************************************************
//    2   Filename:       zmac_cb.c
//    3   Revised:        $Date: 2014-06-04 08:52:26 -0700 (Wed, 04 Jun 2014) $
//    4   Revision:       $Revision: 38796 $
//    5 
//    6   Description:    This file contains the NWK functions that the ZMAC calls
//    7 
//    8 
//    9   Copyright 2005-2014 Texas Instruments Incorporated. All rights reserved.
//   10 
//   11   IMPORTANT: Your use of this Software is limited to those specific rights
//   12   granted under the terms of a software license agreement between the user
//   13   who downloaded the software, his/her employer (which must be your employer)
//   14   and Texas Instruments Incorporated (the "License").  You may not use this
//   15   Software unless you agree to abide by the terms of the License. The License
//   16   limits your use, and you acknowledge, that the Software may not be modified,
//   17   copied or distributed unless embedded on a Texas Instruments microcontroller
//   18   or used solely and exclusively in conjunction with a Texas Instruments radio
//   19   frequency transceiver, which is integrated into your product.  Other than for
//   20   the foregoing purpose, you may not use, reproduce, copy, prepare derivative
//   21   works of, modify, distribute, perform, display or sell this Software and/or
//   22   its documentation for any purpose.
//   23 
//   24   YOU FURTHER ACKNOWLEDGE AND AGREE THAT THE SOFTWARE AND DOCUMENTATION ARE
//   25   PROVIDED "AS IS" WITHOUT WARRANTY OF ANY KIND, EITHER EXPRESS OR IMPLIED,
//   26   INCLUDING WITHOUT LIMITATION, ANY WARRANTY OF MERCHANTABILITY, TITLE,
//   27   NON-INFRINGEMENT AND FITNESS FOR A PARTICULAR PURPOSE. IN NO EVENT SHALL
//   28   TEXAS INSTRUMENTS OR ITS LICENSORS BE LIABLE OR OBLIGATED UNDER CONTRACT,
//   29   NEGLIGENCE, STRICT LIABILITY, CONTRIBUTION, BREACH OF WARRANTY, OR OTHER
//   30   LEGAL EQUITABLE THEORY ANY DIRECT OR INDIRECT DAMAGES OR EXPENSES
//   31   INCLUDING BUT NOT LIMITED TO ANY INCIDENTAL, SPECIAL, INDIRECT, PUNITIVE
//   32   OR CONSEQUENTIAL DAMAGES, LOST PROFITS OR LOST DATA, COST OF PROCUREMENT
//   33   OF SUBSTITUTE GOODS, TECHNOLOGY, SERVICES, OR ANY CLAIMS BY THIRD PARTIES
//   34   (INCLUDING BUT NOT LIMITED TO ANY DEFENSE THEREOF), OR OTHER SIMILAR COSTS.
//   35 
//   36   Should you have any questions regarding your right to use this Software,
//   37   contact Texas Instruments Incorporated at www.TI.com.
//   38 **************************************************************************************************/
//   39 
//   40 /********************************************************************************************************
//   41  *                                               INCLUDES
//   42  ********************************************************************************************************/
//   43 
//   44 #include "ZComDef.h"
//   45 #include "OSAL.h"
//   46 #include "ZMAC.h"
//   47 #include "MT_MAC.h"
//   48 #include "hal_mcu.h"

        ASEGN SFR_AN:DATA:NOROOT,0a8H
// union <unnamed> volatile __sfr _A_IEN0
_A_IEN0:
        DATA8
        DS 1
//   49 
//   50 #if !defined NONWK
//   51 #include "nwk.h"
//   52 #include "nwk_bufs.h"
//   53 #include "ZGlobals.h"
//   54 #endif
//   55 
//   56 #if defined( MACSIM )
//   57   #include "mac_sim.h"
//   58 #endif
//   59 
//   60 #include "mac_security.h"
//   61 
//   62 #include "mac_main.h"
//   63 extern void *ZMac_ScanBuf;
//   64 
//   65 /********************************************************************************************************
//   66  *                                               CONSTANTS
//   67  ********************************************************************************************************/
//   68 
//   69 #if !defined NONWK
//   70 /* Lookup table for size of structures. Must match with the order of MAC callback events */

        RSEG CODE_C:CODE:REORDER:NOROOT(0)
        DATA8
//   71 const uint8 CODE zmacCBSizeTable [] = {
zmacCBSizeTable:
        DB 0
        DB 22
        DB 15
        DB 0
        DB 0
        DB 11
        DB 21
        DB 11
        DB 2
        DB 0
        DB 2
        DB 34
        DB 15
        DB 51
        DB 0
        DB 0
        DB 14
//   72   0,
//   73   sizeof(ZMacAssociateInd_t),       // MAC_MLME_ASSOCIATE_IND      1   Associate indication
//   74   sizeof(ZMacAssociateCnf_t),       // MAC_MLME_ASSOCIATE_CNF      2   Associate confirm
//   75   0,                                // MAC_MLME_DISASSOCIATE_IND   3   Disassociate indication
//   76   0,                                // MAC_MLME_DISASSOCIATE_CNF   4   Disassociate confirm
//   77   sizeof(macMlmeBeaconNotifyInd_t), // MAC_MLME_BEACON_NOTIFY_IND  5   con notify indication
//   78   sizeof(ZMacOrphanInd_t),          // MAC_MLME_ORPHAN_IND         6   Orphan indication
//   79   sizeof(ZMacScanCnf_t),            // MAC_MLME_SCAN_CNF           7   Scan confirm
//   80   sizeof(ZMacStartCnf_t),           // MAC_MLME_START_CNF          8   Start confirm
//   81   0,                                // MAC_MLME_SYNC_LOSS_IND      9   Sync loss indication
//   82   sizeof(ZMacPollCnf_t),            // MAC_MLME_POLL_CNF           10  Poll confirm
//   83   sizeof(ZMacCommStatusInd_t),      // MAC_MLME_COMM_STATUS_IND    11  Comm status indication
//   84   sizeof(ZMacDataCnf_t),            // MAC_MCPS_DATA_CNF           12  Data confirm
//   85   sizeof(macMcpsDataInd_t),         // MAC_MCPS_DATA_IND           13  Data indication
//   86   0,                                // MAC_MCPS_PURGE_CNF          14  Purge confirm
//   87   0,                                // MAC_PWR_ON_CNF              15  Power on confirm
//   88   sizeof(ZMacPollInd_t)             // MAC_MLME_POLL_IND           16  Poll indication
//   89 };
//   90 #endif /* !defined NONWK */
//   91 
//   92 /********************************************************************************************************
//   93  *                                               LOCALS
//   94  ********************************************************************************************************/
//   95 
//   96 /* LQI Adjustment Mode */

        RSEG XDATA_Z:XDATA:NOROOT(0)
        DATA8
//   97 static ZMacLqiAdjust_t lqiAdjMode = LQI_ADJ_OFF;
lqiAdjMode:
        DS 1
        REQUIRE __INIT_XDATA_Z
//   98 
//   99 #if !defined NONWK
//  100 /* LQI Adjustment Function */
//  101 static void ZMacLqiAdjust( uint8 corr, uint8* lqi );
//  102 #endif
//  103 
//  104 /*********************************************************************
//  105  * ZMAC Function Pointers
//  106  */
//  107 
//  108 /*
//  109  * ZMac Application callback function. This function will be called
//  110  * for every MAC message that is received over-the-air or generated
//  111  * locally by MAC for the application.
//  112  *
//  113  * The callback function should return TRUE if it has handled the
//  114  * MAC message and no further action should be taken with it. It
//  115  * should return FALSE if it has not handled the MAC message and
//  116  * normal processing should take place.
//  117  *
//  118  * NOTE: The processing in this function should be kept to the
//  119  *       minimum.
//  120  */

        RSEG XDATA_Z:XDATA:NOROOT(0)
        DATA16
//  121 uint8 (*pZMac_AppCallback)( uint8 *msgPtr ) = (void*)NULL;
pZMac_AppCallback:
        DS 2
        REQUIRE __INIT_XDATA_Z
//  122 
//  123 
//  124 /*********************************************************************
//  125  * ZMAC Functions
//  126  */
//  127 
//  128 /**************************************************************************************************
//  129  * @fn       MAC_CbackEvent()
//  130  *
//  131  * @brief    convert MAC data confirm and indication to ZMac and send to NWK
//  132  *
//  133  * @param    pData - pointer to macCbackEvent_t
//  134  *
//  135  * @return   none
//  136  *************************************************************************************************/

        RSEG BANKED_CODE:CODE:NOROOT(0)
//  137 void MAC_CbackEvent(macCbackEvent_t *pData)
MAC_CbackEvent:
          CFI Block cfiBlock0 Using cfiCommon0
          CFI Function MAC_CbackEvent
        CODE
//  138 #ifndef MT_MAC_CB_FUNC
//  139 {
        FUNCALL MAC_CbackEvent, MAC_MlmeGetReq
        LOCFRAME ISTACK, 0, STACK
        LOCFRAME PSTACK, 0, STACK
        LOCFRAME XSTACK, 24, STACK
        LOCFRAME IOVERLAY, 0, STATIC
        LOCFRAME DOVERLAY, 0, STATIC
        ARGFRAME ISTACK, 0, STACK
        ARGFRAME PSTACK, 0, STACK
        ARGFRAME XSTACK, 24, STACK
        ARGFRAME IOVERLAY, 0, STATIC
        ARGFRAME DOVERLAY, 0, STATIC
        FUNCALL MAC_CbackEvent, osal_msg_allocate
        LOCFRAME ISTACK, 0, STACK
        LOCFRAME PSTACK, 0, STACK
        LOCFRAME XSTACK, 24, STACK
        LOCFRAME IOVERLAY, 0, STATIC
        LOCFRAME DOVERLAY, 0, STATIC
        ARGFRAME ISTACK, 0, STACK
        ARGFRAME PSTACK, 0, STACK
        ARGFRAME XSTACK, 24, STACK
        ARGFRAME IOVERLAY, 0, STATIC
        ARGFRAME DOVERLAY, 0, STATIC
        FUNCALL MAC_CbackEvent, mac_msg_deallocate
        LOCFRAME ISTACK, 0, STACK
        LOCFRAME PSTACK, 0, STACK
        LOCFRAME XSTACK, 24, STACK
        LOCFRAME IOVERLAY, 0, STATIC
        LOCFRAME DOVERLAY, 0, STATIC
        ARGFRAME ISTACK, 0, STACK
        ARGFRAME PSTACK, 0, STACK
        ARGFRAME XSTACK, 24, STACK
        ARGFRAME IOVERLAY, 0, STATIC
        ARGFRAME DOVERLAY, 0, STATIC
        FUNCALL MAC_CbackEvent, osal_msg_allocate
        LOCFRAME ISTACK, 0, STACK
        LOCFRAME PSTACK, 0, STACK
        LOCFRAME XSTACK, 24, STACK
        LOCFRAME IOVERLAY, 0, STATIC
        LOCFRAME DOVERLAY, 0, STATIC
        ARGFRAME ISTACK, 0, STACK
        ARGFRAME PSTACK, 0, STACK
        ARGFRAME XSTACK, 24, STACK
        ARGFRAME IOVERLAY, 0, STATIC
        ARGFRAME DOVERLAY, 0, STATIC
        FUNCALL MAC_CbackEvent, osal_memcpy
        LOCFRAME ISTACK, 0, STACK
        LOCFRAME PSTACK, 0, STACK
        LOCFRAME XSTACK, 27, STACK
        LOCFRAME IOVERLAY, 0, STATIC
        LOCFRAME DOVERLAY, 0, STATIC
        ARGFRAME ISTACK, 0, STACK
        ARGFRAME PSTACK, 0, STACK
        ARGFRAME XSTACK, 27, STACK
        ARGFRAME IOVERLAY, 0, STATIC
        ARGFRAME DOVERLAY, 0, STATIC
        FUNCALL MAC_CbackEvent, osal_memcpy
        LOCFRAME ISTACK, 0, STACK
        LOCFRAME PSTACK, 0, STACK
        LOCFRAME XSTACK, 27, STACK
        LOCFRAME IOVERLAY, 0, STATIC
        LOCFRAME DOVERLAY, 0, STATIC
        ARGFRAME ISTACK, 0, STACK
        ARGFRAME PSTACK, 0, STACK
        ARGFRAME XSTACK, 27, STACK
        ARGFRAME IOVERLAY, 0, STATIC
        ARGFRAME DOVERLAY, 0, STATIC
        FUNCALL MAC_CbackEvent, osal_memcpy
        LOCFRAME ISTACK, 0, STACK
        LOCFRAME PSTACK, 0, STACK
        LOCFRAME XSTACK, 27, STACK
        LOCFRAME IOVERLAY, 0, STATIC
        LOCFRAME DOVERLAY, 0, STATIC
        ARGFRAME ISTACK, 0, STACK
        ARGFRAME PSTACK, 0, STACK
        ARGFRAME XSTACK, 27, STACK
        ARGFRAME IOVERLAY, 0, STATIC
        ARGFRAME DOVERLAY, 0, STATIC
        FUNCALL MAC_CbackEvent, osal_memcpy
        LOCFRAME ISTACK, 0, STACK
        LOCFRAME PSTACK, 0, STACK
        LOCFRAME XSTACK, 27, STACK
        LOCFRAME IOVERLAY, 0, STATIC
        LOCFRAME DOVERLAY, 0, STATIC
        ARGFRAME ISTACK, 0, STACK
        ARGFRAME PSTACK, 0, STACK
        ARGFRAME XSTACK, 27, STACK
        ARGFRAME IOVERLAY, 0, STATIC
        ARGFRAME DOVERLAY, 0, STATIC
        FUNCALL MAC_CbackEvent, osal_memcpy
        LOCFRAME ISTACK, 0, STACK
        LOCFRAME PSTACK, 0, STACK
        LOCFRAME XSTACK, 27, STACK
        LOCFRAME IOVERLAY, 0, STATIC
        LOCFRAME DOVERLAY, 0, STATIC
        ARGFRAME ISTACK, 0, STACK
        ARGFRAME PSTACK, 0, STACK
        ARGFRAME XSTACK, 27, STACK
        ARGFRAME IOVERLAY, 0, STATIC
        ARGFRAME DOVERLAY, 0, STATIC
        FUNCALL MAC_CbackEvent, osal_mem_free
        LOCFRAME ISTACK, 0, STACK
        LOCFRAME PSTACK, 0, STACK
        LOCFRAME XSTACK, 24, STACK
        LOCFRAME IOVERLAY, 0, STATIC
        LOCFRAME DOVERLAY, 0, STATIC
        ARGFRAME ISTACK, 0, STACK
        ARGFRAME PSTACK, 0, STACK
        ARGFRAME XSTACK, 24, STACK
        ARGFRAME IOVERLAY, 0, STATIC
        ARGFRAME DOVERLAY, 0, STATIC
        FUNCALL MAC_CbackEvent, mac_msg_deallocate
        LOCFRAME ISTACK, 0, STACK
        LOCFRAME PSTACK, 0, STACK
        LOCFRAME XSTACK, 24, STACK
        LOCFRAME IOVERLAY, 0, STATIC
        LOCFRAME DOVERLAY, 0, STATIC
        ARGFRAME ISTACK, 0, STACK
        ARGFRAME PSTACK, 0, STACK
        ARGFRAME XSTACK, 24, STACK
        ARGFRAME IOVERLAY, 0, STATIC
        ARGFRAME DOVERLAY, 0, STATIC
        FUNCALL MAC_CbackEvent, ZMacLqiAdjust
        LOCFRAME ISTACK, 0, STACK
        LOCFRAME PSTACK, 0, STACK
        LOCFRAME XSTACK, 24, STACK
        LOCFRAME IOVERLAY, 0, STATIC
        LOCFRAME DOVERLAY, 0, STATIC
        ARGFRAME ISTACK, 0, STACK
        ARGFRAME PSTACK, 0, STACK
        ARGFRAME XSTACK, 24, STACK
        ARGFRAME IOVERLAY, 0, STATIC
        ARGFRAME DOVERLAY, 0, STATIC
        FUNCALL MAC_CbackEvent, nwk_broadcastSend
        LOCFRAME ISTACK, 0, STACK
        LOCFRAME PSTACK, 0, STACK
        LOCFRAME XSTACK, 24, STACK
        LOCFRAME IOVERLAY, 0, STATIC
        LOCFRAME DOVERLAY, 0, STATIC
        ARGFRAME ISTACK, 0, STACK
        ARGFRAME PSTACK, 0, STACK
        ARGFRAME XSTACK, 24, STACK
        ARGFRAME IOVERLAY, 0, STATIC
        ARGFRAME DOVERLAY, 0, STATIC
        FUNCALL MAC_CbackEvent, mac_msg_deallocate
        LOCFRAME ISTACK, 0, STACK
        LOCFRAME PSTACK, 0, STACK
        LOCFRAME XSTACK, 24, STACK
        LOCFRAME IOVERLAY, 0, STATIC
        LOCFRAME DOVERLAY, 0, STATIC
        ARGFRAME ISTACK, 0, STACK
        ARGFRAME PSTACK, 0, STACK
        ARGFRAME XSTACK, 24, STACK
        ARGFRAME IOVERLAY, 0, STATIC
        ARGFRAME DOVERLAY, 0, STATIC
        FUNCALL MAC_CbackEvent, ZMacLqiAdjust
        LOCFRAME ISTACK, 0, STACK
        LOCFRAME PSTACK, 0, STACK
        LOCFRAME XSTACK, 24, STACK
        LOCFRAME IOVERLAY, 0, STATIC
        LOCFRAME DOVERLAY, 0, STATIC
        ARGFRAME ISTACK, 0, STACK
        ARGFRAME PSTACK, 0, STACK
        ARGFRAME XSTACK, 24, STACK
        ARGFRAME IOVERLAY, 0, STATIC
        ARGFRAME DOVERLAY, 0, STATIC
        FUNCALL MAC_CbackEvent, osal_msg_send
        LOCFRAME ISTACK, 0, STACK
        LOCFRAME PSTACK, 0, STACK
        LOCFRAME XSTACK, 24, STACK
        LOCFRAME IOVERLAY, 0, STATIC
        LOCFRAME DOVERLAY, 0, STATIC
        ARGFRAME ISTACK, 0, STACK
        ARGFRAME PSTACK, 0, STACK
        ARGFRAME XSTACK, 24, STACK
        ARGFRAME IOVERLAY, 0, STATIC
        ARGFRAME DOVERLAY, 0, STATIC
        FUNCALL MAC_CbackEvent, mac_msg_deallocate
        LOCFRAME ISTACK, 0, STACK
        LOCFRAME PSTACK, 0, STACK
        LOCFRAME XSTACK, 24, STACK
        LOCFRAME IOVERLAY, 0, STATIC
        LOCFRAME DOVERLAY, 0, STATIC
        ARGFRAME ISTACK, 0, STACK
        ARGFRAME PSTACK, 0, STACK
        ARGFRAME XSTACK, 24, STACK
        ARGFRAME IOVERLAY, 0, STATIC
        ARGFRAME DOVERLAY, 0, STATIC
        REQUIRE ?V0
        REQUIRE ?V1
        REQUIRE ?V2
        REQUIRE ?V3
        REQUIRE ?V4
        REQUIRE ?V5
        REQUIRE ?V6
        REQUIRE ?V7
        REQUIRE ?V8
        REQUIRE ?V9
        REQUIRE ?V10
        REQUIRE ?V11
        MOV     A,#-0x14
        LCALL   ?BANKED_ENTER_XDATA
          CFI DPH0 load(1, XDATA, add(CFA_XSP16, literal(-1)))
          CFI DPL0 load(1, XDATA, add(CFA_XSP16, literal(-2)))
          CFI ?BRET_EXT load(1, XDATA, add(CFA_XSP16, literal(-3)))
          CFI ?RET_HIGH load(1, XDATA, add(CFA_XSP16, literal(-4)))
          CFI ?RET_LOW load(1, XDATA, add(CFA_XSP16, literal(-5)))
          CFI R7 load(1, XDATA, add(CFA_XSP16, literal(-6)))
          CFI V11 load(1, XDATA, add(CFA_XSP16, literal(-7)))
          CFI V10 load(1, XDATA, add(CFA_XSP16, literal(-8)))
          CFI V9 load(1, XDATA, add(CFA_XSP16, literal(-9)))
          CFI V8 load(1, XDATA, add(CFA_XSP16, literal(-10)))
          CFI V7 load(1, XDATA, add(CFA_XSP16, literal(-11)))
          CFI V6 load(1, XDATA, add(CFA_XSP16, literal(-12)))
          CFI V5 load(1, XDATA, add(CFA_XSP16, literal(-13)))
          CFI V4 load(1, XDATA, add(CFA_XSP16, literal(-14)))
          CFI V3 load(1, XDATA, add(CFA_XSP16, literal(-15)))
          CFI V2 load(1, XDATA, add(CFA_XSP16, literal(-16)))
          CFI V1 load(1, XDATA, add(CFA_XSP16, literal(-17)))
          CFI V0 load(1, XDATA, add(CFA_XSP16, literal(-18)))
          CFI VB load(1, XDATA, add(CFA_XSP16, literal(-19)))
          CFI R6 load(1, XDATA, add(CFA_XSP16, literal(-20)))
          CFI CFA_SP SP+0
          CFI CFA_XSP16 add(XSP16, 20)
        ; Saved register size: 20
        ; Auto size: 4
        MOV     A,#-0x4
        LCALL   ?ALLOC_XSTACK8
          CFI CFA_XSP16 add(XSP16, 24)
        MOV     DPL,?XSP + 0
        MOV     DPH,?XSP + 1
        MOV     A,R2
        MOVX    @DPTR,A
        INC     DPTR
        MOV     A,R3
        MOVX    @DPTR,A
//  140 #if !defined NONWK
//  141   uint8 event = pData->hdr.event;
        LCALL   ?Subroutine7 & 0xFFFF
??CrossCallReturnLabel_11:
        MOVX    A,@DPTR
        MOV     ?V7,A
//  142   uint16 tmp = zmacCBSizeTable[event];
        MOV     R0,A
        LCALL   ?Subroutine8 & 0xFFFF
??CrossCallReturnLabel_13:
        MOV     R0,A
        MOV     A,#0x2
        LCALL   ?XSTACK_DISP0_8
        MOV     A,R0
        MOVX    @DPTR,A
        INC     DPTR
        CLR     A
        MOVX    @DPTR,A
//  143   macCbackEvent_t *msgPtr;
//  144 
//  145   /* If the Network layer will handle a new MAC callback, a non-zero value must be entered in the
//  146    * corresponding location in the zmacCBSizeTable[] - thus the table acts as "should handle"?
//  147    */
//  148   if (tmp == 0)
        MOV     A,#0x2
        LCALL   ?XSTACK_DISP0_8
        MOVX    A,@DPTR
        JNZ     $+5
        LJMP    ??MAC_CbackEvent_0 & 0xFFFF
//  149   {
//  150     return;
//  151   }
//  152 
//  153   // MAC_MCPS_DATA_IND is very special - it is the only event where the MAC does not free *pData.
//  154   if ( event == MAC_MCPS_DATA_IND )
        MOV     A,#0xd
        XRL     A,?V7
        JNZ     ??MAC_CbackEvent_1
//  155   {
//  156 #if defined ( ZMAC_MAX_DATA_IND ) && ( ZMAC_MAX_DATA_IND >= 1 )
//  157     // This feature limits the number of unprocessed MAC Data Indications that can be queued
//  158     // into the Network Task's OSAL message queue. To enable ZMAC_MAX_DATA_IND filtering, the
//  159     // command-line option specifies the threshold setting where MAC_MCPS_DATD_IND callback
//  160     // messages will be dropped. For example, adding ZMAC_MAX_DATA_IND=5 to the commnad-line
//  161     // options allows up to five messages to be passed up and queued in the NWK layer buffer.
//  162     uint8 diCount = osal_msg_count( NWK_TaskID, MAC_MCPS_DATA_IND );
//  163 #endif // ZMAC_MAX_DATA_IND
//  164     MAC_MlmeGetReq( MAC_SHORT_ADDRESS, &tmp );
        ; Setup parameters for call to function MAC_MlmeGetReq
        MOV     A,#0x2
        LCALL   ?XSTACK_DISP101_8
        MOV     R1,#0x53
        LCALL   `??MAC_MlmeGetReq::?relay`; Banked call to: MAC_MlmeGetReq
//  165     if ( (tmp == INVALID_NODE_ADDR) ||
//  166          (tmp == NWK_BROADCAST_SHORTADDR_DEVALL) ||
//  167 #if defined ( ZMAC_MAX_DATA_IND ) && ( ZMAC_MAX_DATA_IND >= 1 )
//  168          (diCount > ZMAC_MAX_DATA_IND) ||
//  169 #endif // ZMAC_MAX_DATA_IND
//  170          (pData->dataInd.msdu.len == 0) )
        MOV     A,#0x2
        LCALL   ?XSTACK_DISP0_8
        MOVX    A,@DPTR
        XRL     A,#0xfe
        JNZ     ??MAC_CbackEvent_2
        INC     DPTR
        MOVX    A,@DPTR
        CPL     A
??MAC_CbackEvent_2:
        JNZ     $+5
        LJMP    ??MAC_CbackEvent_3 & 0xFFFF
        MOV     A,#0x2
        LCALL   ?XSTACK_DISP0_8
        MOVX    A,@DPTR
        CPL     A
        JNZ     ??MAC_CbackEvent_4
        INC     DPTR
        MOVX    A,@DPTR
        CPL     A
??MAC_CbackEvent_4:
        JNZ     $+5
        LJMP    ??MAC_CbackEvent_3 & 0xFFFF
        LCALL   ?Subroutine5 & 0xFFFF
??CrossCallReturnLabel_7:
        INC     DPTR
        INC     DPTR
        MOVX    A,@DPTR
        JNZ     $+5
        LJMP    ??MAC_CbackEvent_3 & 0xFFFF
//  171     {
//  172       mac_msg_deallocate( (uint8 **)&pData );
//  173       return;
//  174     }
//  175     msgPtr = pData;
        MOV     DPL,?XSP + 0
        MOV     DPH,?XSP + 1
        MOVX    A,@DPTR
        MOV     R6,A
        INC     DPTR
        MOVX    A,@DPTR
        MOV     R7,A
        LJMP    ??MAC_CbackEvent_5 & 0xFFFF
//  176   }
//  177   else
//  178   {
//  179     if (event == MAC_MLME_BEACON_NOTIFY_IND )
??MAC_CbackEvent_1:
        MOV     A,#0x5
        XRL     A,?V7
        JNZ     ??MAC_CbackEvent_6
//  180     {
//  181       tmp += sizeof(macPanDesc_t) + pData->beaconNotifyInd.sduLength;
        MOV     DPL,?XSP + 0
        MOV     DPH,?XSP + 1
        MOVX    A,@DPTR
        MOV     R0,A
        LCALL   ?Subroutine4 & 0xFFFF
//  182     }
??CrossCallReturnLabel_5:
        MOV     R1,#0x0
        ADD     A,#0x21
        MOV     R0,A
        JNC     ??MAC_CbackEvent_7
        INC     R1
        SJMP    ??MAC_CbackEvent_7
//  183     else if (event == MAC_MLME_SCAN_CNF)
??MAC_CbackEvent_6:
        MOV     A,#0x7
        XRL     A,?V7
        JNZ     ??MAC_CbackEvent_8
//  184     {
//  185       if (pData->scanCnf.scanType == ZMAC_ED_SCAN)
        LCALL   ?Subroutine5 & 0xFFFF
??CrossCallReturnLabel_8:
        MOVX    A,@DPTR
        JNZ     ??MAC_CbackEvent_9
//  186       {
//  187         tmp += ZMAC_ED_SCAN_MAXCHANNELS;
        MOV     A,#0x2
        LCALL   ?XSTACK_DISP0_8
        MOVX    A,@DPTR
        ADD     A,#0x1b
        MOVX    @DPTR,A
        INC     DPTR
        MOVX    A,@DPTR
        ADDC    A,#0x0
        SJMP    ??MAC_CbackEvent_10
//  188       }
//  189       else
//  190       {
//  191         tmp += sizeof( ZMacPanDesc_t ) * pData->scanCnf.resultListSize;
??MAC_CbackEvent_9:
        MOV     DPL,?XSP + 0
        MOV     DPH,?XSP + 1
        LCALL   ?Subroutine4 & 0xFFFF
//  192       }
//  193     }
??CrossCallReturnLabel_6:
        MOV     B,#0x21
        MUL     AB
        MOV     R0,A
        MOV     R1,B
??MAC_CbackEvent_7:
        MOV     A,#0x2
        LCALL   ?XSTACK_DISP0_8
        MOVX    A,@DPTR
        ADD     A,R0
        MOVX    @DPTR,A
        INC     DPTR
        MOVX    A,@DPTR
        ADDC    A,R1
??MAC_CbackEvent_10:
        MOVX    @DPTR,A
//  194 
//  195     if ( !(msgPtr = (macCbackEvent_t *)osal_msg_allocate(tmp)) )
??MAC_CbackEvent_8:
        ; Setup parameters for call to function osal_msg_allocate
        MOV     A,#0x2
        LCALL   ?XSTACK_DISP0_8
        MOVX    A,@DPTR
        MOV     R2,A
        INC     DPTR
        MOVX    A,@DPTR
        MOV     R3,A
        LCALL   `??osal_msg_allocate::?relay`; Banked call to: osal_msg_allocate
        MOV     ?V0,R2
        MOV     ?V1,R3
        MOV     R6,?V0
        MOV     R7,?V1
        MOV     A,R6
        ORL     A,R7
        JNZ     ??MAC_CbackEvent_11
//  196     {
//  197       // Not enough memory. If data confirm - try again
//  198       if ((event == MAC_MCPS_DATA_CNF) && (pData->dataCnf.pDataReq != NULL))
        MOV     A,#0xc
        XRL     A,?V7
        JZ      $+5
        LJMP    ??MAC_CbackEvent_0 & 0xFFFF
        LCALL   ?Subroutine3 & 0xFFFF
??CrossCallReturnLabel_27:
        JNZ     $+5
        LJMP    ??MAC_CbackEvent_0 & 0xFFFF
//  199       {
//  200         halIntState_t intState;
//  201 
//  202         // This is not normally deallocated here because the pZMac_AppCallback()
//  203         // application may need it.
//  204         HAL_ENTER_CRITICAL_SECTION( intState );  // Hold off interrupts.
        MOV     C,0xa8.7
        CLR     A
        RLC     A
        MOV     ?V0,A
        CLR     0xa8.7
//  205 
//  206         mac_msg_deallocate( (uint8**)&(pData->dataCnf.pDataReq) );
        ; Setup parameters for call to function mac_msg_deallocate
        LCALL   ?Subroutine6 & 0xFFFF
??CrossCallReturnLabel_9:
        LCALL   `??mac_msg_deallocate::?relay`; Banked call to: mac_msg_deallocate
//  207         if ( !(msgPtr = (macCbackEvent_t *)osal_msg_allocate(tmp)) )
        ; Setup parameters for call to function osal_msg_allocate
        MOV     A,#0x2
        LCALL   ?XSTACK_DISP0_8
        MOVX    A,@DPTR
        MOV     R2,A
        INC     DPTR
        MOVX    A,@DPTR
        MOV     R3,A
        LCALL   `??osal_msg_allocate::?relay`; Banked call to: osal_msg_allocate
        MOV     ?V2,R2
        MOV     ?V3,R3
        MOV     R6,?V2
        MOV     R7,?V3
        MOV     A,R6
        ORL     A,R7
        JNZ     ??MAC_CbackEvent_12
//  208         {
//  209           // Still no allocation, something is wrong
//  210           HAL_EXIT_CRITICAL_SECTION( intState );   // Re-enable interrupts.
        MOV     A,?V0
        MOV     C,0xE0 /* A   */.0
        MOV     0xa8.7,C
//  211           return;
        LJMP    ??MAC_CbackEvent_0 & 0xFFFF
//  212         }
//  213         HAL_EXIT_CRITICAL_SECTION( intState );   // Re-enable interrupts.
??MAC_CbackEvent_12:
        MOV     A,?V0
        MOV     C,0xE0 /* A   */.0
        MOV     0xa8.7,C
//  214       }
//  215       else
//  216       {
//  217         // This message is dropped
//  218         return;
//  219       }
//  220     }
//  221     osal_memcpy(msgPtr, pData, zmacCBSizeTable[event]);
??MAC_CbackEvent_11:
        ; Setup parameters for call to function osal_memcpy
        MOV     DPL,?XSP + 0
        MOV     DPH,?XSP + 1
        MOVX    A,@DPTR
        MOV     ?V0,A
        INC     DPTR
        MOVX    A,@DPTR
        MOV     ?V1,A
        MOV     ?V2,#0x0
        MOV     R0,#?V0
        LCALL   ?PUSH_XSTACK_I_THREE
          CFI CFA_XSP16 add(XSP16, 27)
        MOV     R0,?V7
        LCALL   ?Subroutine8 & 0xFFFF
//  222   }
??CrossCallReturnLabel_14:
        MOV     R4,A
        MOV     R5,#0x0
        MOV     A,R6
        MOV     R2,A
        MOV     A,R7
        MOV     R3,A
        LCALL   `??osal_memcpy::?relay`; Banked call to: osal_memcpy
        MOV     A,#0x3
        LCALL   ?DEALLOC_XSTACK8
          CFI CFA_XSP16 add(XSP16, 24)
//  223 
//  224   if ( event == MAC_MLME_BEACON_NOTIFY_IND )
        MOV     A,#0x5
        XRL     A,?V7
        JZ      $+5
        LJMP    ??MAC_CbackEvent_13 & 0xFFFF
//  225   {
//  226     macMlmeBeaconNotifyInd_t *pBeacon = (macMlmeBeaconNotifyInd_t*)msgPtr;
//  227 
//  228     osal_memcpy(pBeacon+1, pBeacon->pPanDesc, sizeof(macPanDesc_t));
        LCALL   ?Subroutine9 & 0xFFFF
??CrossCallReturnLabel_15:
        ADD     A,#0x3
        MOV     ?V8,A
        CLR     A
        ADDC    A,R7
        MOV     ?V9,A
        ; Setup parameters for call to function osal_memcpy
        MOV     DPL,?V8
        MOV     DPH,A
        MOVX    A,@DPTR
        MOV     ?V4,A
        INC     DPTR
        MOVX    A,@DPTR
        MOV     ?V5,A
        MOV     ?V6,#0x0
        MOV     R0,#?V4
        LCALL   ?PUSH_XSTACK_I_THREE
          CFI CFA_XSP16 add(XSP16, 27)
        MOV     R4,#0x21
        MOV     R5,#0x0
        MOV     R2,?V0
        MOV     R3,?V1
        LCALL   `??osal_memcpy::?relay`; Banked call to: osal_memcpy
        MOV     A,#0x3
        LCALL   ?DEALLOC_XSTACK8
          CFI CFA_XSP16 add(XSP16, 24)
//  229     pBeacon->pPanDesc = (macPanDesc_t *)(pBeacon+1);
        MOV     DPL,?V8
        MOV     DPH,?V9
        MOV     A,?V0
        MOVX    @DPTR,A
        INC     DPTR
        MOV     A,?V1
        MOVX    @DPTR,A
//  230     osal_memcpy(pBeacon->pPanDesc+1, pBeacon->pSdu, pBeacon->sduLength);
        MOV     A,R6
        ADD     A,#0x9
        MOV     ?V2,A
        CLR     A
        ADDC    A,R7
        MOV     ?V3,A
        ; Setup parameters for call to function osal_memcpy
        MOV     DPL,?V2
        MOV     DPH,A
        MOVX    A,@DPTR
        MOV     ?V4,A
        INC     DPTR
        MOVX    A,@DPTR
        MOV     ?V5,A
        MOV     R0,#?V4
        LCALL   ?PUSH_XSTACK_I_THREE
          CFI CFA_XSP16 add(XSP16, 27)
        MOV     DPL,R6
        MOV     DPH,R7
        INC     DPTR
        INC     DPTR
        INC     DPTR
        INC     DPTR
        INC     DPTR
        INC     DPTR
        INC     DPTR
        INC     DPTR
        MOVX    A,@DPTR
        MOV     R4,A
        MOV     R5,#0x0
        MOV     A,?V0
        ADD     A,#0x21
        MOV     R2,A
        CLR     A
        ADDC    A,?V1
        MOV     R3,A
        LCALL   `??osal_memcpy::?relay`; Banked call to: osal_memcpy
        MOV     A,#0x3
        LCALL   ?DEALLOC_XSTACK8
          CFI CFA_XSP16 add(XSP16, 24)
//  231     pBeacon->pSdu = (uint8 *)(pBeacon->pPanDesc+1);
        MOV     DPL,?V8
        MOV     DPH,?V9
        MOVX    A,@DPTR
        ADD     A,#0x21
        MOV     R0,A
        INC     DPTR
        MOVX    A,@DPTR
        ADDC    A,#0x0
        MOV     R1,A
        MOV     DPL,?V2
        MOV     DPH,?V3
        MOV     A,R0
        MOVX    @DPTR,A
        INC     DPTR
        MOV     A,R1
        MOVX    @DPTR,A
        SJMP    ??MAC_CbackEvent_5
//  232   }
//  233   else if (event == MAC_MLME_SCAN_CNF)
??MAC_CbackEvent_13:
        MOV     A,#0x7
        XRL     A,?V7
        JNZ     ??MAC_CbackEvent_5
//  234   {
//  235     macMlmeScanCnf_t *pScan = (macMlmeScanCnf_t*)msgPtr;
//  236 
//  237     if (ZMac_ScanBuf != NULL)
        MOV     DPTR,#ZMac_ScanBuf
        LCALL   ??Subroutine14_0 & 0xFFFF
??CrossCallReturnLabel_24:
        JZ      ??MAC_CbackEvent_5
//  238     {
//  239       void *pTmp = ZMac_ScanBuf;
        MOV     DPTR,#ZMac_ScanBuf
        MOVX    A,@DPTR
        MOV     ?V8,A
        INC     DPTR
        MOVX    A,@DPTR
        MOV     ?V9,A
//  240       ZMac_ScanBuf = NULL;
        MOV     DPTR,#ZMac_ScanBuf
        CLR     A
        MOVX    @DPTR,A
        INC     DPTR
        MOVX    @DPTR,A
//  241 
//  242       if (pScan->scanType == ZMAC_ED_SCAN)
        MOV     DPL,R6
        MOV     DPH,R7
        INC     DPTR
        INC     DPTR
        MOVX    A,@DPTR
        JNZ     ??MAC_CbackEvent_14
//  243       {
//  244         pScan->result.pEnergyDetect = (uint8*) (pScan + 1);
        LCALL   ?Subroutine9 & 0xFFFF
//  245         osal_memcpy(pScan->result.pEnergyDetect, pTmp, ZMAC_ED_SCAN_MAXCHANNELS);
//  246       }
??CrossCallReturnLabel_16:
        ADD     A,#0x9
        MOV     ?V2,A
        CLR     A
        ADDC    A,R7
        MOV     DPL,?V2
        MOV     DPH,A
        LCALL   ?Subroutine1 & 0xFFFF
??CrossCallReturnLabel_0:
        LCALL   ?PUSH_XSTACK_I_THREE
          CFI CFA_XSP16 add(XSP16, 27)
        MOV     R4,#0x1b
        MOV     R5,#0x0
        SJMP    ??MAC_CbackEvent_15
          CFI CFA_XSP16 add(XSP16, 24)
//  247       else
//  248       {
//  249         pScan->result.pPanDescriptor = (macPanDesc_t*) (pScan + 1);
??MAC_CbackEvent_14:
        LCALL   ?Subroutine11 & 0xFFFF
//  250         osal_memcpy(pScan + 1, pTmp, sizeof( ZMacPanDesc_t ) * pScan->resultListSize);
//  251       }
??CrossCallReturnLabel_17:
        MOV     DPL,R6
        MOV     DPH,R7
        INC     DPTR
        INC     DPTR
        INC     DPTR
        INC     DPTR
        INC     DPTR
        INC     DPTR
        INC     DPTR
        INC     DPTR
        INC     DPTR
        LCALL   ?Subroutine1 & 0xFFFF
??CrossCallReturnLabel_1:
        LCALL   ?PUSH_XSTACK_I_THREE
          CFI CFA_XSP16 add(XSP16, 27)
        MOV     DPL,R6
        MOV     DPH,R7
        INC     DPTR
        INC     DPTR
        INC     DPTR
        INC     DPTR
        INC     DPTR
        INC     DPTR
        INC     DPTR
        INC     DPTR
        MOVX    A,@DPTR
        MOV     B,#0x21
        MUL     AB
        MOV     R4,A
        MOV     R5,B
??MAC_CbackEvent_15:
        MOV     R2,?V0
        MOV     R3,?V1
        LCALL   `??osal_memcpy::?relay`; Banked call to: osal_memcpy
        MOV     A,#0x3
        LCALL   ?DEALLOC_XSTACK8
          CFI CFA_XSP16 add(XSP16, 24)
//  252 
//  253       osal_mem_free(pTmp);
        ; Setup parameters for call to function osal_mem_free
        MOV     R2,?V8
        MOV     R3,?V9
        LCALL   `??osal_mem_free::?relay`; Banked call to: osal_mem_free
//  254     }
//  255   }
//  256 
//  257   if ( ( pZMac_AppCallback == NULL ) || ( pZMac_AppCallback( (uint8 *)msgPtr ) == FALSE ) )
??MAC_CbackEvent_5:
        MOV     DPTR,#pZMac_AppCallback
        LCALL   ??Subroutine14_0 & 0xFFFF
??CrossCallReturnLabel_25:
        JZ      ??MAC_CbackEvent_16
        ; Setup parameters for indirect call
        MOV     A,R6
        MOV     R2,A
        MOV     A,R7
        MOV     R3,A
        LCALL   ??Subroutine12_0 & 0xFFFF
??CrossCallReturnLabel_19:
        LCALL   ?CALL_IND
        MOV     A,R1
        JZ      $+5
        LJMP    ??MAC_CbackEvent_17 & 0xFFFF
//  258   {
//  259     // Filter out non-zigbee packets
//  260     if ( event == MAC_MCPS_DATA_IND )
??MAC_CbackEvent_16:
        MOV     A,#0xd
        XRL     A,?V7
        JZ      $+5
        LJMP    ??MAC_CbackEvent_18 & 0xFFFF
//  261     {
//  262       uint8 fcFrameType = (pData->dataInd.msdu.p[0] & 0x03);
//  263       uint8 fcProtoVer = ((pData->dataInd.msdu.p[0] >> 2) & 0x0F);
//  264       uint8 fcReserve = (pData->dataInd.msdu.p[1] & 0xE0);
        LCALL   ?Subroutine2 & 0xFFFF
??CrossCallReturnLabel_2:
        MOV     R1,A
        MOV     DPL,R0
        MOV     DPH,R1
        INC     DPTR
        MOVX    A,@DPTR
        ANL     A,#0xe0
        MOV     R2,A
//  265       if ( (fcFrameType > 0x01) || (fcProtoVer != _NIB.nwkProtocolVersion) || (fcReserve != 0)
//  266           || (pData->dataInd.mac.srcAddr.addrMode != SADDR_MODE_SHORT) )
        MOV     DPL,R0
        MOV     DPH,R1
        MOVX    A,@DPTR
        ANL     A,#0x3
        CLR     C
        SUBB    A,#0x2
        JNC     ??MAC_CbackEvent_3
        LCALL   ?Subroutine2 & 0xFFFF
??CrossCallReturnLabel_3:
        MOV     DPH,A
        MOV     DPL,R0
        MOVX    A,@DPTR
        RRC     A
        RRC     A
        ANL     A,#0x3f
        ANL     A,#0xf
        MOV     R0,A
        MOV     DPTR,#_NIB + 17
        MOVX    A,@DPTR
        XRL     A,R0
        JNZ     ??MAC_CbackEvent_3
        MOV     A,R2
        JNZ     ??MAC_CbackEvent_3
        MOV     DPL,?XSP + 0
        MOV     DPH,?XSP + 1
        MOVX    A,@DPTR
        MOV     R0,A
        INC     DPTR
        MOVX    A,@DPTR
        XCH     A,R0
        ADD     A,#0x1b
        MOV     DPL,A
        CLR     A
        ADDC    A,R0
        MOV     DPH,A
        MOVX    A,@DPTR
        XRL     A,#0x2
        JZ      ??MAC_CbackEvent_19
//  267       {
//  268         // Drop the message
//  269         mac_msg_deallocate( (uint8 **)&pData );
??MAC_CbackEvent_3:
        ; Setup parameters for call to function mac_msg_deallocate
        MOV     R2,?XSP + 0
        MOV     R3,?XSP + 1
        LJMP    ??CrossCallReturnLabel_10 & 0xFFFF
//  270         return;
//  271       }
//  272       else
//  273       {
//  274         macDataInd_t *pInd = &msgPtr->dataInd.mac;
??MAC_CbackEvent_19:
        MOV     A,R6
        ADD     A,#0x13
        MOV     R0,A
        CLR     A
        ADDC    A,R7
        MOV     R1,A
//  275         // See if LQI needs adjustment due to frame correlation
//  276         ZMacLqiAdjust( pInd->correlation, &pInd->mpduLinkQuality );
        ; Setup parameters for call to function ZMacLqiAdjust
        MOV     A,R0
        ADD     A,#0x1c
        MOV     R2,A
        CLR     A
        ADDC    A,R1
        MOV     R3,A
        MOV     A,R0
        ADD     A,#0x1d
        MOV     DPL,A
        CLR     A
        ADDC    A,R1
        MOV     DPH,A
        MOVX    A,@DPTR
        MOV     R1,A
        LCALL   `??ZMacLqiAdjust::?relay`; Banked call to: ZMacLqiAdjust
//  277 
//  278         // Look for broadcast message that has a radius of greater 1
//  279         if ( (pData->dataInd.mac.dstAddr.addr.shortAddr == 0xFFFF)
//  280                && (pData->dataInd.msdu.p[6] > 1) )
        MOV     DPL,?XSP + 0
        MOV     DPH,?XSP + 1
        MOVX    A,@DPTR
        MOV     R0,A
        INC     DPTR
        MOVX    A,@DPTR
        XCH     A,R0
        ADD     A,#0x1c
        MOV     DPL,A
        CLR     A
        ADDC    A,R0
        MOV     DPH,A
        MOVX    A,@DPTR
        CPL     A
        JNZ     ??MAC_CbackEvent_20
        INC     DPTR
        MOVX    A,@DPTR
        CPL     A
??MAC_CbackEvent_20:
        JNZ     ??MAC_CbackEvent_21
        LCALL   ?Subroutine2 & 0xFFFF
??CrossCallReturnLabel_4:
        XCH     A,R0
        ADD     A,#0x6
        MOV     DPL,A
        CLR     A
        ADDC    A,R0
        MOV     DPH,A
        MOVX    A,@DPTR
        CLR     C
        SUBB    A,#0x2
        JC      ??MAC_CbackEvent_21
//  281         {
//  282           // Send the messsage to a special broadcast queue
//  283           if ( nwk_broadcastSend( (uint8 *)msgPtr ) != SUCCESS )
        ; Setup parameters for call to function nwk_broadcastSend
        MOV     A,R6
        MOV     R2,A
        MOV     A,R7
        MOV     R3,A
        LCALL   `??nwk_broadcastSend::?relay`; Banked call to: nwk_broadcastSend
        MOV     A,R1
        JZ      ??MAC_CbackEvent_0
//  284           {
//  285             // Drop the message, too many broadcast messages to process
//  286             mac_msg_deallocate( (uint8 **)&pData );
        ; Setup parameters for call to function mac_msg_deallocate
        MOV     R2,?XSP + 0
        MOV     R3,?XSP + 1
        LCALL   `??mac_msg_deallocate::?relay`; Banked call to: mac_msg_deallocate
//  287           }
//  288           return;
??MAC_CbackEvent_22:
        SJMP    ??MAC_CbackEvent_0
//  289         }
//  290       }
//  291     }
//  292     else if ((event == MAC_MCPS_DATA_CNF) && (pData->hdr.status != MAC_NO_RESOURCES))
??MAC_CbackEvent_18:
        MOV     A,#0xc
        XRL     A,?V7
        JNZ     ??MAC_CbackEvent_21
        LCALL   ?Subroutine7 & 0xFFFF
??CrossCallReturnLabel_12:
        INC     DPTR
        MOVX    A,@DPTR
        XRL     A,#0x1a
        JZ      ??MAC_CbackEvent_21
//  293     {
//  294       macMcpsDataCnf_t *pCnf = &msgPtr->dataCnf;
//  295       
//  296       if ( pCnf->pDataReq && (pCnf->pDataReq->internal.txOptions & MAC_TXOPTION_ACK) )
        MOV     DPL,R6
        MOV     DPH,R7
        LCALL   ??Subroutine13_0 & 0xFFFF
??CrossCallReturnLabel_26:
        JZ      ??MAC_CbackEvent_21
        MOV     DPL,R6
        MOV     DPH,R7
        INC     DPTR
        INC     DPTR
        INC     DPTR
        INC     DPTR
        MOVX    A,@DPTR
        XCH     A,R0
        ADD     A,#0xe
        MOV     DPL,A
        CLR     A
        ADDC    A,R0
        MOV     DPH,A
        MOVX    A,@DPTR
        MOV     C,0xE0 /* A   */.0
        JNC     ??MAC_CbackEvent_21
//  297       {
//  298         // See if LQI needs adjustment due to frame correlation
//  299         ZMacLqiAdjust( pCnf->correlation, &pCnf->mpduLinkQuality );
        ; Setup parameters for call to function ZMacLqiAdjust
        MOV     A,R6
        ADD     A,#0xc
        MOV     R2,A
        CLR     A
        ADDC    A,R7
        MOV     R3,A
        MOV     A,R6
        ADD     A,#0xd
        MOV     DPL,A
        CLR     A
        ADDC    A,R7
        MOV     DPH,A
        MOVX    A,@DPTR
        MOV     R1,A
        LCALL   `??ZMacLqiAdjust::?relay`; Banked call to: ZMacLqiAdjust
//  300       }
//  301     }
//  302 
//  303     // Application hasn't already processed this message. Send it to NWK task.
//  304     osal_msg_send( NWK_TaskID, (uint8 *)msgPtr );
??MAC_CbackEvent_21:
        ; Setup parameters for call to function osal_msg_send
        MOV     A,R6
        MOV     R2,A
        MOV     A,R7
        MOV     R3,A
        MOV     DPTR,#NWK_TaskID
        MOVX    A,@DPTR
        MOV     R1,A
        LCALL   `??osal_msg_send::?relay`; Banked call to: osal_msg_send
//  305   }
//  306 
//  307   if ((event == MAC_MCPS_DATA_CNF) && (pData->dataCnf.pDataReq != NULL))
??MAC_CbackEvent_17:
        MOV     A,#0xc
        XRL     A,?V7
        JNZ     ??MAC_CbackEvent_0
        LCALL   ?Subroutine3 & 0xFFFF
??CrossCallReturnLabel_28:
        JZ      ??MAC_CbackEvent_0
//  308   {
//  309     // If the application needs 'pDataReq' then we cannot free it here.
//  310     // The application must free it after using it. Note that 'pDataReq'
//  311     // is of macMcpsDataReq_t (and not ZMacDataReq_t) type.
//  312 
//  313     mac_msg_deallocate( (uint8**)&(pData->dataCnf.pDataReq) );
        ; Setup parameters for call to function mac_msg_deallocate
        LCALL   ?Subroutine6 & 0xFFFF
//  314   }
??CrossCallReturnLabel_10:
        LCALL   `??mac_msg_deallocate::?relay`; Banked call to: mac_msg_deallocate
//  315 #endif
//  316 }
??MAC_CbackEvent_0:
        MOV     A,#0x4
        LCALL   ?DEALLOC_XSTACK8
          CFI CFA_XSP16 add(XSP16, 20)
        MOV     R7,#0xc
        LJMP    ?BANKED_LEAVE_XDATA
          CFI EndBlock cfiBlock0
        REQUIRE _A_IEN0

        RSEG BANKED_CODE:CODE:NOROOT(0)
?Subroutine9:
          CFI Block cfiCond1 Using cfiCommon0
          CFI Function MAC_CbackEvent
          CFI Conditional ??CrossCallReturnLabel_15
          CFI R6 load(1, XDATA, add(CFA_XSP16, literal(-20)))
          CFI VB load(1, XDATA, add(CFA_XSP16, literal(-19)))
          CFI V0 load(1, XDATA, add(CFA_XSP16, literal(-18)))
          CFI V1 load(1, XDATA, add(CFA_XSP16, literal(-17)))
          CFI V2 load(1, XDATA, add(CFA_XSP16, literal(-16)))
          CFI V3 load(1, XDATA, add(CFA_XSP16, literal(-15)))
          CFI V4 load(1, XDATA, add(CFA_XSP16, literal(-14)))
          CFI V5 load(1, XDATA, add(CFA_XSP16, literal(-13)))
          CFI V6 load(1, XDATA, add(CFA_XSP16, literal(-12)))
          CFI V7 load(1, XDATA, add(CFA_XSP16, literal(-11)))
          CFI V8 load(1, XDATA, add(CFA_XSP16, literal(-10)))
          CFI V9 load(1, XDATA, add(CFA_XSP16, literal(-9)))
          CFI V10 load(1, XDATA, add(CFA_XSP16, literal(-8)))
          CFI V11 load(1, XDATA, add(CFA_XSP16, literal(-7)))
          CFI R7 load(1, XDATA, add(CFA_XSP16, literal(-6)))
          CFI ?RET_LOW load(1, XDATA, add(CFA_XSP16, literal(-5)))
          CFI ?RET_HIGH load(1, XDATA, add(CFA_XSP16, literal(-4)))
          CFI ?BRET_EXT load(1, XDATA, add(CFA_XSP16, literal(-3)))
          CFI DPL0 load(1, XDATA, add(CFA_XSP16, literal(-2)))
          CFI DPH0 load(1, XDATA, add(CFA_XSP16, literal(-1)))
          CFI CFA_SP SP+-2
          CFI CFA_XSP16 add(XSP16, 24)
          CFI Block cfiCond2 Using cfiCommon0
          CFI (cfiCond2) Function MAC_CbackEvent
          CFI (cfiCond2) Conditional ??CrossCallReturnLabel_16
          CFI (cfiCond2) R6 load(1, XDATA, add(CFA_XSP16, literal(-20)))
          CFI (cfiCond2) VB load(1, XDATA, add(CFA_XSP16, literal(-19)))
          CFI (cfiCond2) V0 load(1, XDATA, add(CFA_XSP16, literal(-18)))
          CFI (cfiCond2) V1 load(1, XDATA, add(CFA_XSP16, literal(-17)))
          CFI (cfiCond2) V2 load(1, XDATA, add(CFA_XSP16, literal(-16)))
          CFI (cfiCond2) V3 load(1, XDATA, add(CFA_XSP16, literal(-15)))
          CFI (cfiCond2) V4 load(1, XDATA, add(CFA_XSP16, literal(-14)))
          CFI (cfiCond2) V5 load(1, XDATA, add(CFA_XSP16, literal(-13)))
          CFI (cfiCond2) V6 load(1, XDATA, add(CFA_XSP16, literal(-12)))
          CFI (cfiCond2) V7 load(1, XDATA, add(CFA_XSP16, literal(-11)))
          CFI (cfiCond2) V8 load(1, XDATA, add(CFA_XSP16, literal(-10)))
          CFI (cfiCond2) V9 load(1, XDATA, add(CFA_XSP16, literal(-9)))
          CFI (cfiCond2) V10 load(1, XDATA, add(CFA_XSP16, literal(-8)))
          CFI (cfiCond2) V11 load(1, XDATA, add(CFA_XSP16, literal(-7)))
          CFI (cfiCond2) R7 load(1, XDATA, add(CFA_XSP16, literal(-6)))
          CFI (cfiCond2) ?RET_LOW load(1, XDATA, add(CFA_XSP16, literal(-5)))
          CFI (cfiCond2) ?RET_HIGH load(1, XDATA, add(CFA_XSP16, literal(-4)))
          CFI (cfiCond2) ?BRET_EXT load(1, XDATA, add(CFA_XSP16, literal(-3)))
          CFI (cfiCond2) DPL0 load(1, XDATA, add(CFA_XSP16, literal(-2)))
          CFI (cfiCond2) DPH0 load(1, XDATA, add(CFA_XSP16, literal(-1)))
          CFI (cfiCond2) CFA_SP SP+-2
          CFI (cfiCond2) CFA_XSP16 add(XSP16, 24)
          CFI Block cfiPicker3 Using cfiCommon1
          CFI (cfiPicker3) NoFunction
          CFI (cfiPicker3) Picker
        LCALL   ?Subroutine11 & 0xFFFF
??CrossCallReturnLabel_18:
        MOV     A,R6
        RET
          CFI EndBlock cfiCond1
          CFI EndBlock cfiCond2
          CFI EndBlock cfiPicker3

        RSEG BANKED_CODE:CODE:NOROOT(0)
?Subroutine11:
          CFI Block cfiCond4 Using cfiCommon0
          CFI Function MAC_CbackEvent
          CFI Conditional ??CrossCallReturnLabel_17
          CFI R6 load(1, XDATA, add(CFA_XSP16, literal(-20)))
          CFI VB load(1, XDATA, add(CFA_XSP16, literal(-19)))
          CFI V0 load(1, XDATA, add(CFA_XSP16, literal(-18)))
          CFI V1 load(1, XDATA, add(CFA_XSP16, literal(-17)))
          CFI V2 load(1, XDATA, add(CFA_XSP16, literal(-16)))
          CFI V3 load(1, XDATA, add(CFA_XSP16, literal(-15)))
          CFI V4 load(1, XDATA, add(CFA_XSP16, literal(-14)))
          CFI V5 load(1, XDATA, add(CFA_XSP16, literal(-13)))
          CFI V6 load(1, XDATA, add(CFA_XSP16, literal(-12)))
          CFI V7 load(1, XDATA, add(CFA_XSP16, literal(-11)))
          CFI V8 load(1, XDATA, add(CFA_XSP16, literal(-10)))
          CFI V9 load(1, XDATA, add(CFA_XSP16, literal(-9)))
          CFI V10 load(1, XDATA, add(CFA_XSP16, literal(-8)))
          CFI V11 load(1, XDATA, add(CFA_XSP16, literal(-7)))
          CFI R7 load(1, XDATA, add(CFA_XSP16, literal(-6)))
          CFI ?RET_LOW load(1, XDATA, add(CFA_XSP16, literal(-5)))
          CFI ?RET_HIGH load(1, XDATA, add(CFA_XSP16, literal(-4)))
          CFI ?BRET_EXT load(1, XDATA, add(CFA_XSP16, literal(-3)))
          CFI DPL0 load(1, XDATA, add(CFA_XSP16, literal(-2)))
          CFI DPH0 load(1, XDATA, add(CFA_XSP16, literal(-1)))
          CFI CFA_SP SP+-2
          CFI CFA_XSP16 add(XSP16, 24)
          CFI Block cfiCond5 Using cfiCommon0
          CFI (cfiCond5) Function MAC_CbackEvent
          CFI (cfiCond5) Conditional ??CrossCallReturnLabel_18, ??CrossCallReturnLabel_15
          CFI (cfiCond5) R6 load(1, XDATA, add(CFA_XSP16, literal(-20)))
          CFI (cfiCond5) VB load(1, XDATA, add(CFA_XSP16, literal(-19)))
          CFI (cfiCond5) V0 load(1, XDATA, add(CFA_XSP16, literal(-18)))
          CFI (cfiCond5) V1 load(1, XDATA, add(CFA_XSP16, literal(-17)))
          CFI (cfiCond5) V2 load(1, XDATA, add(CFA_XSP16, literal(-16)))
          CFI (cfiCond5) V3 load(1, XDATA, add(CFA_XSP16, literal(-15)))
          CFI (cfiCond5) V4 load(1, XDATA, add(CFA_XSP16, literal(-14)))
          CFI (cfiCond5) V5 load(1, XDATA, add(CFA_XSP16, literal(-13)))
          CFI (cfiCond5) V6 load(1, XDATA, add(CFA_XSP16, literal(-12)))
          CFI (cfiCond5) V7 load(1, XDATA, add(CFA_XSP16, literal(-11)))
          CFI (cfiCond5) V8 load(1, XDATA, add(CFA_XSP16, literal(-10)))
          CFI (cfiCond5) V9 load(1, XDATA, add(CFA_XSP16, literal(-9)))
          CFI (cfiCond5) V10 load(1, XDATA, add(CFA_XSP16, literal(-8)))
          CFI (cfiCond5) V11 load(1, XDATA, add(CFA_XSP16, literal(-7)))
          CFI (cfiCond5) R7 load(1, XDATA, add(CFA_XSP16, literal(-6)))
          CFI (cfiCond5) ?RET_LOW load(1, XDATA, add(CFA_XSP16, literal(-5)))
          CFI (cfiCond5) ?RET_HIGH load(1, XDATA, add(CFA_XSP16, literal(-4)))
          CFI (cfiCond5) ?BRET_EXT load(1, XDATA, add(CFA_XSP16, literal(-3)))
          CFI (cfiCond5) DPL0 load(1, XDATA, add(CFA_XSP16, literal(-2)))
          CFI (cfiCond5) DPH0 load(1, XDATA, add(CFA_XSP16, literal(-1)))
          CFI (cfiCond5) CFA_SP SP+-4
          CFI (cfiCond5) CFA_XSP16 add(XSP16, 24)
          CFI Block cfiCond6 Using cfiCommon0
          CFI (cfiCond6) Function MAC_CbackEvent
          CFI (cfiCond6) Conditional ??CrossCallReturnLabel_18, ??CrossCallReturnLabel_16
          CFI (cfiCond6) R6 load(1, XDATA, add(CFA_XSP16, literal(-20)))
          CFI (cfiCond6) VB load(1, XDATA, add(CFA_XSP16, literal(-19)))
          CFI (cfiCond6) V0 load(1, XDATA, add(CFA_XSP16, literal(-18)))
          CFI (cfiCond6) V1 load(1, XDATA, add(CFA_XSP16, literal(-17)))
          CFI (cfiCond6) V2 load(1, XDATA, add(CFA_XSP16, literal(-16)))
          CFI (cfiCond6) V3 load(1, XDATA, add(CFA_XSP16, literal(-15)))
          CFI (cfiCond6) V4 load(1, XDATA, add(CFA_XSP16, literal(-14)))
          CFI (cfiCond6) V5 load(1, XDATA, add(CFA_XSP16, literal(-13)))
          CFI (cfiCond6) V6 load(1, XDATA, add(CFA_XSP16, literal(-12)))
          CFI (cfiCond6) V7 load(1, XDATA, add(CFA_XSP16, literal(-11)))
          CFI (cfiCond6) V8 load(1, XDATA, add(CFA_XSP16, literal(-10)))
          CFI (cfiCond6) V9 load(1, XDATA, add(CFA_XSP16, literal(-9)))
          CFI (cfiCond6) V10 load(1, XDATA, add(CFA_XSP16, literal(-8)))
          CFI (cfiCond6) V11 load(1, XDATA, add(CFA_XSP16, literal(-7)))
          CFI (cfiCond6) R7 load(1, XDATA, add(CFA_XSP16, literal(-6)))
          CFI (cfiCond6) ?RET_LOW load(1, XDATA, add(CFA_XSP16, literal(-5)))
          CFI (cfiCond6) ?RET_HIGH load(1, XDATA, add(CFA_XSP16, literal(-4)))
          CFI (cfiCond6) ?BRET_EXT load(1, XDATA, add(CFA_XSP16, literal(-3)))
          CFI (cfiCond6) DPL0 load(1, XDATA, add(CFA_XSP16, literal(-2)))
          CFI (cfiCond6) DPH0 load(1, XDATA, add(CFA_XSP16, literal(-1)))
          CFI (cfiCond6) CFA_SP SP+-4
          CFI (cfiCond6) CFA_XSP16 add(XSP16, 24)
          CFI Block cfiPicker7 Using cfiCommon1
          CFI (cfiPicker7) NoFunction
          CFI (cfiPicker7) Picker
        MOV     A,R6
        ADD     A,#0xb
        MOV     ?V0,A
        CLR     A
        ADDC    A,R7
        MOV     ?V1,A
        RET
          CFI EndBlock cfiCond4
          CFI EndBlock cfiCond5
          CFI EndBlock cfiCond6
          CFI EndBlock cfiPicker7

        RSEG BANKED_CODE:CODE:NOROOT(0)
?Subroutine8:
          CFI Block cfiCond8 Using cfiCommon0
          CFI Function MAC_CbackEvent
          CFI Conditional ??CrossCallReturnLabel_13
          CFI R6 load(1, XDATA, add(CFA_XSP16, literal(-20)))
          CFI VB load(1, XDATA, add(CFA_XSP16, literal(-19)))
          CFI V0 load(1, XDATA, add(CFA_XSP16, literal(-18)))
          CFI V1 load(1, XDATA, add(CFA_XSP16, literal(-17)))
          CFI V2 load(1, XDATA, add(CFA_XSP16, literal(-16)))
          CFI V3 load(1, XDATA, add(CFA_XSP16, literal(-15)))
          CFI V4 load(1, XDATA, add(CFA_XSP16, literal(-14)))
          CFI V5 load(1, XDATA, add(CFA_XSP16, literal(-13)))
          CFI V6 load(1, XDATA, add(CFA_XSP16, literal(-12)))
          CFI V7 load(1, XDATA, add(CFA_XSP16, literal(-11)))
          CFI V8 load(1, XDATA, add(CFA_XSP16, literal(-10)))
          CFI V9 load(1, XDATA, add(CFA_XSP16, literal(-9)))
          CFI V10 load(1, XDATA, add(CFA_XSP16, literal(-8)))
          CFI V11 load(1, XDATA, add(CFA_XSP16, literal(-7)))
          CFI R7 load(1, XDATA, add(CFA_XSP16, literal(-6)))
          CFI ?RET_LOW load(1, XDATA, add(CFA_XSP16, literal(-5)))
          CFI ?RET_HIGH load(1, XDATA, add(CFA_XSP16, literal(-4)))
          CFI ?BRET_EXT load(1, XDATA, add(CFA_XSP16, literal(-3)))
          CFI DPL0 load(1, XDATA, add(CFA_XSP16, literal(-2)))
          CFI DPH0 load(1, XDATA, add(CFA_XSP16, literal(-1)))
          CFI CFA_SP SP+-2
          CFI CFA_XSP16 add(XSP16, 24)
          CFI Block cfiCond9 Using cfiCommon0
          CFI (cfiCond9) Function MAC_CbackEvent
          CFI (cfiCond9) Conditional ??CrossCallReturnLabel_14
          CFI (cfiCond9) R6 load(1, XDATA, add(CFA_XSP16, literal(-20)))
          CFI (cfiCond9) VB load(1, XDATA, add(CFA_XSP16, literal(-19)))
          CFI (cfiCond9) V0 load(1, XDATA, add(CFA_XSP16, literal(-18)))
          CFI (cfiCond9) V1 load(1, XDATA, add(CFA_XSP16, literal(-17)))
          CFI (cfiCond9) V2 load(1, XDATA, add(CFA_XSP16, literal(-16)))
          CFI (cfiCond9) V3 load(1, XDATA, add(CFA_XSP16, literal(-15)))
          CFI (cfiCond9) V4 load(1, XDATA, add(CFA_XSP16, literal(-14)))
          CFI (cfiCond9) V5 load(1, XDATA, add(CFA_XSP16, literal(-13)))
          CFI (cfiCond9) V6 load(1, XDATA, add(CFA_XSP16, literal(-12)))
          CFI (cfiCond9) V7 load(1, XDATA, add(CFA_XSP16, literal(-11)))
          CFI (cfiCond9) V8 load(1, XDATA, add(CFA_XSP16, literal(-10)))
          CFI (cfiCond9) V9 load(1, XDATA, add(CFA_XSP16, literal(-9)))
          CFI (cfiCond9) V10 load(1, XDATA, add(CFA_XSP16, literal(-8)))
          CFI (cfiCond9) V11 load(1, XDATA, add(CFA_XSP16, literal(-7)))
          CFI (cfiCond9) R7 load(1, XDATA, add(CFA_XSP16, literal(-6)))
          CFI (cfiCond9) ?RET_LOW load(1, XDATA, add(CFA_XSP16, literal(-5)))
          CFI (cfiCond9) ?RET_HIGH load(1, XDATA, add(CFA_XSP16, literal(-4)))
          CFI (cfiCond9) ?BRET_EXT load(1, XDATA, add(CFA_XSP16, literal(-3)))
          CFI (cfiCond9) DPL0 load(1, XDATA, add(CFA_XSP16, literal(-2)))
          CFI (cfiCond9) DPH0 load(1, XDATA, add(CFA_XSP16, literal(-1)))
          CFI (cfiCond9) CFA_SP SP+-2
          CFI (cfiCond9) CFA_XSP16 add(XSP16, 27)
          CFI Block cfiPicker10 Using cfiCommon1
          CFI (cfiPicker10) NoFunction
          CFI (cfiPicker10) Picker
        MOV     A,#zmacCBSizeTable & 0xff
        ADD     A,R0
        MOV     DPL,A
        CLR     A
        ADDC    A,#(zmacCBSizeTable >> 8) & 0xff
        MOV     DPH,A
        CLR     A
        MOVC    A,@A+DPTR
        RET
          CFI EndBlock cfiCond8
          CFI EndBlock cfiCond9
          CFI EndBlock cfiPicker10

        RSEG BANKED_CODE:CODE:NOROOT(0)
?Subroutine7:
          CFI Block cfiCond11 Using cfiCommon0
          CFI Function MAC_CbackEvent
          CFI Conditional ??CrossCallReturnLabel_11
          CFI R6 load(1, XDATA, add(CFA_XSP16, literal(-20)))
          CFI VB load(1, XDATA, add(CFA_XSP16, literal(-19)))
          CFI V0 load(1, XDATA, add(CFA_XSP16, literal(-18)))
          CFI V1 load(1, XDATA, add(CFA_XSP16, literal(-17)))
          CFI V2 load(1, XDATA, add(CFA_XSP16, literal(-16)))
          CFI V3 load(1, XDATA, add(CFA_XSP16, literal(-15)))
          CFI V4 load(1, XDATA, add(CFA_XSP16, literal(-14)))
          CFI V5 load(1, XDATA, add(CFA_XSP16, literal(-13)))
          CFI V6 load(1, XDATA, add(CFA_XSP16, literal(-12)))
          CFI V7 load(1, XDATA, add(CFA_XSP16, literal(-11)))
          CFI V8 load(1, XDATA, add(CFA_XSP16, literal(-10)))
          CFI V9 load(1, XDATA, add(CFA_XSP16, literal(-9)))
          CFI V10 load(1, XDATA, add(CFA_XSP16, literal(-8)))
          CFI V11 load(1, XDATA, add(CFA_XSP16, literal(-7)))
          CFI R7 load(1, XDATA, add(CFA_XSP16, literal(-6)))
          CFI ?RET_LOW load(1, XDATA, add(CFA_XSP16, literal(-5)))
          CFI ?RET_HIGH load(1, XDATA, add(CFA_XSP16, literal(-4)))
          CFI ?BRET_EXT load(1, XDATA, add(CFA_XSP16, literal(-3)))
          CFI DPL0 load(1, XDATA, add(CFA_XSP16, literal(-2)))
          CFI DPH0 load(1, XDATA, add(CFA_XSP16, literal(-1)))
          CFI CFA_SP SP+-2
          CFI CFA_XSP16 add(XSP16, 24)
          CFI Block cfiCond12 Using cfiCommon0
          CFI (cfiCond12) Function MAC_CbackEvent
          CFI (cfiCond12) Conditional ??CrossCallReturnLabel_12
          CFI (cfiCond12) R6 load(1, XDATA, add(CFA_XSP16, literal(-20)))
          CFI (cfiCond12) VB load(1, XDATA, add(CFA_XSP16, literal(-19)))
          CFI (cfiCond12) V0 load(1, XDATA, add(CFA_XSP16, literal(-18)))
          CFI (cfiCond12) V1 load(1, XDATA, add(CFA_XSP16, literal(-17)))
          CFI (cfiCond12) V2 load(1, XDATA, add(CFA_XSP16, literal(-16)))
          CFI (cfiCond12) V3 load(1, XDATA, add(CFA_XSP16, literal(-15)))
          CFI (cfiCond12) V4 load(1, XDATA, add(CFA_XSP16, literal(-14)))
          CFI (cfiCond12) V5 load(1, XDATA, add(CFA_XSP16, literal(-13)))
          CFI (cfiCond12) V6 load(1, XDATA, add(CFA_XSP16, literal(-12)))
          CFI (cfiCond12) V7 load(1, XDATA, add(CFA_XSP16, literal(-11)))
          CFI (cfiCond12) V8 load(1, XDATA, add(CFA_XSP16, literal(-10)))
          CFI (cfiCond12) V9 load(1, XDATA, add(CFA_XSP16, literal(-9)))
          CFI (cfiCond12) V10 load(1, XDATA, add(CFA_XSP16, literal(-8)))
          CFI (cfiCond12) V11 load(1, XDATA, add(CFA_XSP16, literal(-7)))
          CFI (cfiCond12) R7 load(1, XDATA, add(CFA_XSP16, literal(-6)))
          CFI (cfiCond12) ?RET_LOW load(1, XDATA, add(CFA_XSP16, literal(-5)))
          CFI (cfiCond12) ?RET_HIGH load(1, XDATA, add(CFA_XSP16, literal(-4)))
          CFI (cfiCond12) ?BRET_EXT load(1, XDATA, add(CFA_XSP16, literal(-3)))
          CFI (cfiCond12) DPL0 load(1, XDATA, add(CFA_XSP16, literal(-2)))
          CFI (cfiCond12) DPH0 load(1, XDATA, add(CFA_XSP16, literal(-1)))
          CFI (cfiCond12) CFA_SP SP+-2
          CFI (cfiCond12) CFA_XSP16 add(XSP16, 24)
          CFI Block cfiPicker13 Using cfiCommon1
          CFI (cfiPicker13) NoFunction
          CFI (cfiPicker13) Picker
        LCALL   ?Subroutine10 & 0xFFFF
??CrossCallReturnLabel_23:
        RET
          CFI EndBlock cfiCond11
          CFI EndBlock cfiCond12
          CFI EndBlock cfiPicker13

        RSEG BANKED_CODE:CODE:NOROOT(0)
?Subroutine10:
          CFI Block cfiCond14 Using cfiCommon0
          CFI Function MAC_CbackEvent
          CFI Conditional ??CrossCallReturnLabel_23, ??CrossCallReturnLabel_11
          CFI R6 load(1, XDATA, add(CFA_XSP16, literal(-20)))
          CFI VB load(1, XDATA, add(CFA_XSP16, literal(-19)))
          CFI V0 load(1, XDATA, add(CFA_XSP16, literal(-18)))
          CFI V1 load(1, XDATA, add(CFA_XSP16, literal(-17)))
          CFI V2 load(1, XDATA, add(CFA_XSP16, literal(-16)))
          CFI V3 load(1, XDATA, add(CFA_XSP16, literal(-15)))
          CFI V4 load(1, XDATA, add(CFA_XSP16, literal(-14)))
          CFI V5 load(1, XDATA, add(CFA_XSP16, literal(-13)))
          CFI V6 load(1, XDATA, add(CFA_XSP16, literal(-12)))
          CFI V7 load(1, XDATA, add(CFA_XSP16, literal(-11)))
          CFI V8 load(1, XDATA, add(CFA_XSP16, literal(-10)))
          CFI V9 load(1, XDATA, add(CFA_XSP16, literal(-9)))
          CFI V10 load(1, XDATA, add(CFA_XSP16, literal(-8)))
          CFI V11 load(1, XDATA, add(CFA_XSP16, literal(-7)))
          CFI R7 load(1, XDATA, add(CFA_XSP16, literal(-6)))
          CFI ?RET_LOW load(1, XDATA, add(CFA_XSP16, literal(-5)))
          CFI ?RET_HIGH load(1, XDATA, add(CFA_XSP16, literal(-4)))
          CFI ?BRET_EXT load(1, XDATA, add(CFA_XSP16, literal(-3)))
          CFI DPL0 load(1, XDATA, add(CFA_XSP16, literal(-2)))
          CFI DPH0 load(1, XDATA, add(CFA_XSP16, literal(-1)))
          CFI CFA_SP SP+-4
          CFI CFA_XSP16 add(XSP16, 24)
          CFI Block cfiCond15 Using cfiCommon0
          CFI (cfiCond15) Function MAC_CbackEvent
          CFI (cfiCond15) Conditional ??CrossCallReturnLabel_23, ??CrossCallReturnLabel_12
          CFI (cfiCond15) R6 load(1, XDATA, add(CFA_XSP16, literal(-20)))
          CFI (cfiCond15) VB load(1, XDATA, add(CFA_XSP16, literal(-19)))
          CFI (cfiCond15) V0 load(1, XDATA, add(CFA_XSP16, literal(-18)))
          CFI (cfiCond15) V1 load(1, XDATA, add(CFA_XSP16, literal(-17)))
          CFI (cfiCond15) V2 load(1, XDATA, add(CFA_XSP16, literal(-16)))
          CFI (cfiCond15) V3 load(1, XDATA, add(CFA_XSP16, literal(-15)))
          CFI (cfiCond15) V4 load(1, XDATA, add(CFA_XSP16, literal(-14)))
          CFI (cfiCond15) V5 load(1, XDATA, add(CFA_XSP16, literal(-13)))
          CFI (cfiCond15) V6 load(1, XDATA, add(CFA_XSP16, literal(-12)))
          CFI (cfiCond15) V7 load(1, XDATA, add(CFA_XSP16, literal(-11)))
          CFI (cfiCond15) V8 load(1, XDATA, add(CFA_XSP16, literal(-10)))
          CFI (cfiCond15) V9 load(1, XDATA, add(CFA_XSP16, literal(-9)))
          CFI (cfiCond15) V10 load(1, XDATA, add(CFA_XSP16, literal(-8)))
          CFI (cfiCond15) V11 load(1, XDATA, add(CFA_XSP16, literal(-7)))
          CFI (cfiCond15) R7 load(1, XDATA, add(CFA_XSP16, literal(-6)))
          CFI (cfiCond15) ?RET_LOW load(1, XDATA, add(CFA_XSP16, literal(-5)))
          CFI (cfiCond15) ?RET_HIGH load(1, XDATA, add(CFA_XSP16, literal(-4)))
          CFI (cfiCond15) ?BRET_EXT load(1, XDATA, add(CFA_XSP16, literal(-3)))
          CFI (cfiCond15) DPL0 load(1, XDATA, add(CFA_XSP16, literal(-2)))
          CFI (cfiCond15) DPH0 load(1, XDATA, add(CFA_XSP16, literal(-1)))
          CFI (cfiCond15) CFA_SP SP+-4
          CFI (cfiCond15) CFA_XSP16 add(XSP16, 24)
          CFI Block cfiCond16 Using cfiCommon0
          CFI (cfiCond16) Function MAC_CbackEvent
          CFI (cfiCond16) Conditional ??CrossCallReturnLabel_22, ??CrossCallReturnLabel_7
          CFI (cfiCond16) R6 load(1, XDATA, add(CFA_XSP16, literal(-20)))
          CFI (cfiCond16) VB load(1, XDATA, add(CFA_XSP16, literal(-19)))
          CFI (cfiCond16) V0 load(1, XDATA, add(CFA_XSP16, literal(-18)))
          CFI (cfiCond16) V1 load(1, XDATA, add(CFA_XSP16, literal(-17)))
          CFI (cfiCond16) V2 load(1, XDATA, add(CFA_XSP16, literal(-16)))
          CFI (cfiCond16) V3 load(1, XDATA, add(CFA_XSP16, literal(-15)))
          CFI (cfiCond16) V4 load(1, XDATA, add(CFA_XSP16, literal(-14)))
          CFI (cfiCond16) V5 load(1, XDATA, add(CFA_XSP16, literal(-13)))
          CFI (cfiCond16) V6 load(1, XDATA, add(CFA_XSP16, literal(-12)))
          CFI (cfiCond16) V7 load(1, XDATA, add(CFA_XSP16, literal(-11)))
          CFI (cfiCond16) V8 load(1, XDATA, add(CFA_XSP16, literal(-10)))
          CFI (cfiCond16) V9 load(1, XDATA, add(CFA_XSP16, literal(-9)))
          CFI (cfiCond16) V10 load(1, XDATA, add(CFA_XSP16, literal(-8)))
          CFI (cfiCond16) V11 load(1, XDATA, add(CFA_XSP16, literal(-7)))
          CFI (cfiCond16) R7 load(1, XDATA, add(CFA_XSP16, literal(-6)))
          CFI (cfiCond16) ?RET_LOW load(1, XDATA, add(CFA_XSP16, literal(-5)))
          CFI (cfiCond16) ?RET_HIGH load(1, XDATA, add(CFA_XSP16, literal(-4)))
          CFI (cfiCond16) ?BRET_EXT load(1, XDATA, add(CFA_XSP16, literal(-3)))
          CFI (cfiCond16) DPL0 load(1, XDATA, add(CFA_XSP16, literal(-2)))
          CFI (cfiCond16) DPH0 load(1, XDATA, add(CFA_XSP16, literal(-1)))
          CFI (cfiCond16) CFA_SP SP+-4
          CFI (cfiCond16) CFA_XSP16 add(XSP16, 24)
          CFI Block cfiCond17 Using cfiCommon0
          CFI (cfiCond17) Function MAC_CbackEvent
          CFI (cfiCond17) Conditional ??CrossCallReturnLabel_22, ??CrossCallReturnLabel_8
          CFI (cfiCond17) R6 load(1, XDATA, add(CFA_XSP16, literal(-20)))
          CFI (cfiCond17) VB load(1, XDATA, add(CFA_XSP16, literal(-19)))
          CFI (cfiCond17) V0 load(1, XDATA, add(CFA_XSP16, literal(-18)))
          CFI (cfiCond17) V1 load(1, XDATA, add(CFA_XSP16, literal(-17)))
          CFI (cfiCond17) V2 load(1, XDATA, add(CFA_XSP16, literal(-16)))
          CFI (cfiCond17) V3 load(1, XDATA, add(CFA_XSP16, literal(-15)))
          CFI (cfiCond17) V4 load(1, XDATA, add(CFA_XSP16, literal(-14)))
          CFI (cfiCond17) V5 load(1, XDATA, add(CFA_XSP16, literal(-13)))
          CFI (cfiCond17) V6 load(1, XDATA, add(CFA_XSP16, literal(-12)))
          CFI (cfiCond17) V7 load(1, XDATA, add(CFA_XSP16, literal(-11)))
          CFI (cfiCond17) V8 load(1, XDATA, add(CFA_XSP16, literal(-10)))
          CFI (cfiCond17) V9 load(1, XDATA, add(CFA_XSP16, literal(-9)))
          CFI (cfiCond17) V10 load(1, XDATA, add(CFA_XSP16, literal(-8)))
          CFI (cfiCond17) V11 load(1, XDATA, add(CFA_XSP16, literal(-7)))
          CFI (cfiCond17) R7 load(1, XDATA, add(CFA_XSP16, literal(-6)))
          CFI (cfiCond17) ?RET_LOW load(1, XDATA, add(CFA_XSP16, literal(-5)))
          CFI (cfiCond17) ?RET_HIGH load(1, XDATA, add(CFA_XSP16, literal(-4)))
          CFI (cfiCond17) ?BRET_EXT load(1, XDATA, add(CFA_XSP16, literal(-3)))
          CFI (cfiCond17) DPL0 load(1, XDATA, add(CFA_XSP16, literal(-2)))
          CFI (cfiCond17) DPH0 load(1, XDATA, add(CFA_XSP16, literal(-1)))
          CFI (cfiCond17) CFA_SP SP+-4
          CFI (cfiCond17) CFA_XSP16 add(XSP16, 24)
          CFI Block cfiCond18 Using cfiCommon0
          CFI (cfiCond18) Function MAC_CbackEvent
          CFI (cfiCond18) Conditional ??CrossCallReturnLabel_21, ??CrossCallReturnLabel_27
          CFI (cfiCond18) R6 load(1, XDATA, add(CFA_XSP16, literal(-20)))
          CFI (cfiCond18) VB load(1, XDATA, add(CFA_XSP16, literal(-19)))
          CFI (cfiCond18) V0 load(1, XDATA, add(CFA_XSP16, literal(-18)))
          CFI (cfiCond18) V1 load(1, XDATA, add(CFA_XSP16, literal(-17)))
          CFI (cfiCond18) V2 load(1, XDATA, add(CFA_XSP16, literal(-16)))
          CFI (cfiCond18) V3 load(1, XDATA, add(CFA_XSP16, literal(-15)))
          CFI (cfiCond18) V4 load(1, XDATA, add(CFA_XSP16, literal(-14)))
          CFI (cfiCond18) V5 load(1, XDATA, add(CFA_XSP16, literal(-13)))
          CFI (cfiCond18) V6 load(1, XDATA, add(CFA_XSP16, literal(-12)))
          CFI (cfiCond18) V7 load(1, XDATA, add(CFA_XSP16, literal(-11)))
          CFI (cfiCond18) V8 load(1, XDATA, add(CFA_XSP16, literal(-10)))
          CFI (cfiCond18) V9 load(1, XDATA, add(CFA_XSP16, literal(-9)))
          CFI (cfiCond18) V10 load(1, XDATA, add(CFA_XSP16, literal(-8)))
          CFI (cfiCond18) V11 load(1, XDATA, add(CFA_XSP16, literal(-7)))
          CFI (cfiCond18) R7 load(1, XDATA, add(CFA_XSP16, literal(-6)))
          CFI (cfiCond18) ?RET_LOW load(1, XDATA, add(CFA_XSP16, literal(-5)))
          CFI (cfiCond18) ?RET_HIGH load(1, XDATA, add(CFA_XSP16, literal(-4)))
          CFI (cfiCond18) ?BRET_EXT load(1, XDATA, add(CFA_XSP16, literal(-3)))
          CFI (cfiCond18) DPL0 load(1, XDATA, add(CFA_XSP16, literal(-2)))
          CFI (cfiCond18) DPH0 load(1, XDATA, add(CFA_XSP16, literal(-1)))
          CFI (cfiCond18) CFA_SP SP+-4
          CFI (cfiCond18) CFA_XSP16 add(XSP16, 24)
          CFI Block cfiCond19 Using cfiCommon0
          CFI (cfiCond19) Function MAC_CbackEvent
          CFI (cfiCond19) Conditional ??CrossCallReturnLabel_21, ??CrossCallReturnLabel_28
          CFI (cfiCond19) R6 load(1, XDATA, add(CFA_XSP16, literal(-20)))
          CFI (cfiCond19) VB load(1, XDATA, add(CFA_XSP16, literal(-19)))
          CFI (cfiCond19) V0 load(1, XDATA, add(CFA_XSP16, literal(-18)))
          CFI (cfiCond19) V1 load(1, XDATA, add(CFA_XSP16, literal(-17)))
          CFI (cfiCond19) V2 load(1, XDATA, add(CFA_XSP16, literal(-16)))
          CFI (cfiCond19) V3 load(1, XDATA, add(CFA_XSP16, literal(-15)))
          CFI (cfiCond19) V4 load(1, XDATA, add(CFA_XSP16, literal(-14)))
          CFI (cfiCond19) V5 load(1, XDATA, add(CFA_XSP16, literal(-13)))
          CFI (cfiCond19) V6 load(1, XDATA, add(CFA_XSP16, literal(-12)))
          CFI (cfiCond19) V7 load(1, XDATA, add(CFA_XSP16, literal(-11)))
          CFI (cfiCond19) V8 load(1, XDATA, add(CFA_XSP16, literal(-10)))
          CFI (cfiCond19) V9 load(1, XDATA, add(CFA_XSP16, literal(-9)))
          CFI (cfiCond19) V10 load(1, XDATA, add(CFA_XSP16, literal(-8)))
          CFI (cfiCond19) V11 load(1, XDATA, add(CFA_XSP16, literal(-7)))
          CFI (cfiCond19) R7 load(1, XDATA, add(CFA_XSP16, literal(-6)))
          CFI (cfiCond19) ?RET_LOW load(1, XDATA, add(CFA_XSP16, literal(-5)))
          CFI (cfiCond19) ?RET_HIGH load(1, XDATA, add(CFA_XSP16, literal(-4)))
          CFI (cfiCond19) ?BRET_EXT load(1, XDATA, add(CFA_XSP16, literal(-3)))
          CFI (cfiCond19) DPL0 load(1, XDATA, add(CFA_XSP16, literal(-2)))
          CFI (cfiCond19) DPH0 load(1, XDATA, add(CFA_XSP16, literal(-1)))
          CFI (cfiCond19) CFA_SP SP+-4
          CFI (cfiCond19) CFA_XSP16 add(XSP16, 24)
          CFI Block cfiCond20 Using cfiCommon0
          CFI (cfiCond20) Function MAC_CbackEvent
          CFI (cfiCond20) Conditional ??CrossCallReturnLabel_20, ??CrossCallReturnLabel_2
          CFI (cfiCond20) R6 load(1, XDATA, add(CFA_XSP16, literal(-20)))
          CFI (cfiCond20) VB load(1, XDATA, add(CFA_XSP16, literal(-19)))
          CFI (cfiCond20) V0 load(1, XDATA, add(CFA_XSP16, literal(-18)))
          CFI (cfiCond20) V1 load(1, XDATA, add(CFA_XSP16, literal(-17)))
          CFI (cfiCond20) V2 load(1, XDATA, add(CFA_XSP16, literal(-16)))
          CFI (cfiCond20) V3 load(1, XDATA, add(CFA_XSP16, literal(-15)))
          CFI (cfiCond20) V4 load(1, XDATA, add(CFA_XSP16, literal(-14)))
          CFI (cfiCond20) V5 load(1, XDATA, add(CFA_XSP16, literal(-13)))
          CFI (cfiCond20) V6 load(1, XDATA, add(CFA_XSP16, literal(-12)))
          CFI (cfiCond20) V7 load(1, XDATA, add(CFA_XSP16, literal(-11)))
          CFI (cfiCond20) V8 load(1, XDATA, add(CFA_XSP16, literal(-10)))
          CFI (cfiCond20) V9 load(1, XDATA, add(CFA_XSP16, literal(-9)))
          CFI (cfiCond20) V10 load(1, XDATA, add(CFA_XSP16, literal(-8)))
          CFI (cfiCond20) V11 load(1, XDATA, add(CFA_XSP16, literal(-7)))
          CFI (cfiCond20) R7 load(1, XDATA, add(CFA_XSP16, literal(-6)))
          CFI (cfiCond20) ?RET_LOW load(1, XDATA, add(CFA_XSP16, literal(-5)))
          CFI (cfiCond20) ?RET_HIGH load(1, XDATA, add(CFA_XSP16, literal(-4)))
          CFI (cfiCond20) ?BRET_EXT load(1, XDATA, add(CFA_XSP16, literal(-3)))
          CFI (cfiCond20) DPL0 load(1, XDATA, add(CFA_XSP16, literal(-2)))
          CFI (cfiCond20) DPH0 load(1, XDATA, add(CFA_XSP16, literal(-1)))
          CFI (cfiCond20) CFA_SP SP+-4
          CFI (cfiCond20) CFA_XSP16 add(XSP16, 24)
          CFI Block cfiCond21 Using cfiCommon0
          CFI (cfiCond21) Function MAC_CbackEvent
          CFI (cfiCond21) Conditional ??CrossCallReturnLabel_20, ??CrossCallReturnLabel_3
          CFI (cfiCond21) R6 load(1, XDATA, add(CFA_XSP16, literal(-20)))
          CFI (cfiCond21) VB load(1, XDATA, add(CFA_XSP16, literal(-19)))
          CFI (cfiCond21) V0 load(1, XDATA, add(CFA_XSP16, literal(-18)))
          CFI (cfiCond21) V1 load(1, XDATA, add(CFA_XSP16, literal(-17)))
          CFI (cfiCond21) V2 load(1, XDATA, add(CFA_XSP16, literal(-16)))
          CFI (cfiCond21) V3 load(1, XDATA, add(CFA_XSP16, literal(-15)))
          CFI (cfiCond21) V4 load(1, XDATA, add(CFA_XSP16, literal(-14)))
          CFI (cfiCond21) V5 load(1, XDATA, add(CFA_XSP16, literal(-13)))
          CFI (cfiCond21) V6 load(1, XDATA, add(CFA_XSP16, literal(-12)))
          CFI (cfiCond21) V7 load(1, XDATA, add(CFA_XSP16, literal(-11)))
          CFI (cfiCond21) V8 load(1, XDATA, add(CFA_XSP16, literal(-10)))
          CFI (cfiCond21) V9 load(1, XDATA, add(CFA_XSP16, literal(-9)))
          CFI (cfiCond21) V10 load(1, XDATA, add(CFA_XSP16, literal(-8)))
          CFI (cfiCond21) V11 load(1, XDATA, add(CFA_XSP16, literal(-7)))
          CFI (cfiCond21) R7 load(1, XDATA, add(CFA_XSP16, literal(-6)))
          CFI (cfiCond21) ?RET_LOW load(1, XDATA, add(CFA_XSP16, literal(-5)))
          CFI (cfiCond21) ?RET_HIGH load(1, XDATA, add(CFA_XSP16, literal(-4)))
          CFI (cfiCond21) ?BRET_EXT load(1, XDATA, add(CFA_XSP16, literal(-3)))
          CFI (cfiCond21) DPL0 load(1, XDATA, add(CFA_XSP16, literal(-2)))
          CFI (cfiCond21) DPH0 load(1, XDATA, add(CFA_XSP16, literal(-1)))
          CFI (cfiCond21) CFA_SP SP+-4
          CFI (cfiCond21) CFA_XSP16 add(XSP16, 24)
          CFI Block cfiCond22 Using cfiCommon0
          CFI (cfiCond22) Function MAC_CbackEvent
          CFI (cfiCond22) Conditional ??CrossCallReturnLabel_20, ??CrossCallReturnLabel_4
          CFI (cfiCond22) R6 load(1, XDATA, add(CFA_XSP16, literal(-20)))
          CFI (cfiCond22) VB load(1, XDATA, add(CFA_XSP16, literal(-19)))
          CFI (cfiCond22) V0 load(1, XDATA, add(CFA_XSP16, literal(-18)))
          CFI (cfiCond22) V1 load(1, XDATA, add(CFA_XSP16, literal(-17)))
          CFI (cfiCond22) V2 load(1, XDATA, add(CFA_XSP16, literal(-16)))
          CFI (cfiCond22) V3 load(1, XDATA, add(CFA_XSP16, literal(-15)))
          CFI (cfiCond22) V4 load(1, XDATA, add(CFA_XSP16, literal(-14)))
          CFI (cfiCond22) V5 load(1, XDATA, add(CFA_XSP16, literal(-13)))
          CFI (cfiCond22) V6 load(1, XDATA, add(CFA_XSP16, literal(-12)))
          CFI (cfiCond22) V7 load(1, XDATA, add(CFA_XSP16, literal(-11)))
          CFI (cfiCond22) V8 load(1, XDATA, add(CFA_XSP16, literal(-10)))
          CFI (cfiCond22) V9 load(1, XDATA, add(CFA_XSP16, literal(-9)))
          CFI (cfiCond22) V10 load(1, XDATA, add(CFA_XSP16, literal(-8)))
          CFI (cfiCond22) V11 load(1, XDATA, add(CFA_XSP16, literal(-7)))
          CFI (cfiCond22) R7 load(1, XDATA, add(CFA_XSP16, literal(-6)))
          CFI (cfiCond22) ?RET_LOW load(1, XDATA, add(CFA_XSP16, literal(-5)))
          CFI (cfiCond22) ?RET_HIGH load(1, XDATA, add(CFA_XSP16, literal(-4)))
          CFI (cfiCond22) ?BRET_EXT load(1, XDATA, add(CFA_XSP16, literal(-3)))
          CFI (cfiCond22) DPL0 load(1, XDATA, add(CFA_XSP16, literal(-2)))
          CFI (cfiCond22) DPH0 load(1, XDATA, add(CFA_XSP16, literal(-1)))
          CFI (cfiCond22) CFA_SP SP+-4
          CFI (cfiCond22) CFA_XSP16 add(XSP16, 24)
          CFI Block cfiPicker23 Using cfiCommon1
          CFI (cfiPicker23) NoFunction
          CFI (cfiPicker23) Picker
        MOV     DPL,?XSP + 0
        MOV     DPH,?XSP + 1
        MOVX    A,@DPTR
        MOV     R0,A
        INC     DPTR
          CFI EndBlock cfiCond14
          CFI EndBlock cfiCond15
          CFI EndBlock cfiCond16
          CFI EndBlock cfiCond17
          CFI EndBlock cfiCond18
          CFI EndBlock cfiCond19
          CFI EndBlock cfiCond20
          CFI EndBlock cfiCond21
          CFI EndBlock cfiCond22
          CFI EndBlock cfiPicker23
        REQUIRE ??Subroutine12_0
        ; // Fall through to label ??Subroutine12_0

        RSEG BANKED_CODE:CODE:NOROOT(0)
??Subroutine12_0:
          CFI Block cfiCond24 Using cfiCommon0
          CFI Function MAC_CbackEvent
          CFI Conditional ??CrossCallReturnLabel_19
          CFI R6 load(1, XDATA, add(CFA_XSP16, literal(-20)))
          CFI VB load(1, XDATA, add(CFA_XSP16, literal(-19)))
          CFI V0 load(1, XDATA, add(CFA_XSP16, literal(-18)))
          CFI V1 load(1, XDATA, add(CFA_XSP16, literal(-17)))
          CFI V2 load(1, XDATA, add(CFA_XSP16, literal(-16)))
          CFI V3 load(1, XDATA, add(CFA_XSP16, literal(-15)))
          CFI V4 load(1, XDATA, add(CFA_XSP16, literal(-14)))
          CFI V5 load(1, XDATA, add(CFA_XSP16, literal(-13)))
          CFI V6 load(1, XDATA, add(CFA_XSP16, literal(-12)))
          CFI V7 load(1, XDATA, add(CFA_XSP16, literal(-11)))
          CFI V8 load(1, XDATA, add(CFA_XSP16, literal(-10)))
          CFI V9 load(1, XDATA, add(CFA_XSP16, literal(-9)))
          CFI V10 load(1, XDATA, add(CFA_XSP16, literal(-8)))
          CFI V11 load(1, XDATA, add(CFA_XSP16, literal(-7)))
          CFI R7 load(1, XDATA, add(CFA_XSP16, literal(-6)))
          CFI ?RET_LOW load(1, XDATA, add(CFA_XSP16, literal(-5)))
          CFI ?RET_HIGH load(1, XDATA, add(CFA_XSP16, literal(-4)))
          CFI ?BRET_EXT load(1, XDATA, add(CFA_XSP16, literal(-3)))
          CFI DPL0 load(1, XDATA, add(CFA_XSP16, literal(-2)))
          CFI DPH0 load(1, XDATA, add(CFA_XSP16, literal(-1)))
          CFI CFA_SP SP+-2
          CFI CFA_XSP16 add(XSP16, 24)
          CFI Block cfiCond25 Using cfiCommon0
          CFI (cfiCond25) Function MAC_CbackEvent
          CFI (cfiCond25) Conditional ??CrossCallReturnLabel_23, ??CrossCallReturnLabel_11
          CFI (cfiCond25) R6 load(1, XDATA, add(CFA_XSP16, literal(-20)))
          CFI (cfiCond25) VB load(1, XDATA, add(CFA_XSP16, literal(-19)))
          CFI (cfiCond25) V0 load(1, XDATA, add(CFA_XSP16, literal(-18)))
          CFI (cfiCond25) V1 load(1, XDATA, add(CFA_XSP16, literal(-17)))
          CFI (cfiCond25) V2 load(1, XDATA, add(CFA_XSP16, literal(-16)))
          CFI (cfiCond25) V3 load(1, XDATA, add(CFA_XSP16, literal(-15)))
          CFI (cfiCond25) V4 load(1, XDATA, add(CFA_XSP16, literal(-14)))
          CFI (cfiCond25) V5 load(1, XDATA, add(CFA_XSP16, literal(-13)))
          CFI (cfiCond25) V6 load(1, XDATA, add(CFA_XSP16, literal(-12)))
          CFI (cfiCond25) V7 load(1, XDATA, add(CFA_XSP16, literal(-11)))
          CFI (cfiCond25) V8 load(1, XDATA, add(CFA_XSP16, literal(-10)))
          CFI (cfiCond25) V9 load(1, XDATA, add(CFA_XSP16, literal(-9)))
          CFI (cfiCond25) V10 load(1, XDATA, add(CFA_XSP16, literal(-8)))
          CFI (cfiCond25) V11 load(1, XDATA, add(CFA_XSP16, literal(-7)))
          CFI (cfiCond25) R7 load(1, XDATA, add(CFA_XSP16, literal(-6)))
          CFI (cfiCond25) ?RET_LOW load(1, XDATA, add(CFA_XSP16, literal(-5)))
          CFI (cfiCond25) ?RET_HIGH load(1, XDATA, add(CFA_XSP16, literal(-4)))
          CFI (cfiCond25) ?BRET_EXT load(1, XDATA, add(CFA_XSP16, literal(-3)))
          CFI (cfiCond25) DPL0 load(1, XDATA, add(CFA_XSP16, literal(-2)))
          CFI (cfiCond25) DPH0 load(1, XDATA, add(CFA_XSP16, literal(-1)))
          CFI (cfiCond25) CFA_SP SP+-4
          CFI (cfiCond25) CFA_XSP16 add(XSP16, 24)
          CFI Block cfiCond26 Using cfiCommon0
          CFI (cfiCond26) Function MAC_CbackEvent
          CFI (cfiCond26) Conditional ??CrossCallReturnLabel_23, ??CrossCallReturnLabel_12
          CFI (cfiCond26) R6 load(1, XDATA, add(CFA_XSP16, literal(-20)))
          CFI (cfiCond26) VB load(1, XDATA, add(CFA_XSP16, literal(-19)))
          CFI (cfiCond26) V0 load(1, XDATA, add(CFA_XSP16, literal(-18)))
          CFI (cfiCond26) V1 load(1, XDATA, add(CFA_XSP16, literal(-17)))
          CFI (cfiCond26) V2 load(1, XDATA, add(CFA_XSP16, literal(-16)))
          CFI (cfiCond26) V3 load(1, XDATA, add(CFA_XSP16, literal(-15)))
          CFI (cfiCond26) V4 load(1, XDATA, add(CFA_XSP16, literal(-14)))
          CFI (cfiCond26) V5 load(1, XDATA, add(CFA_XSP16, literal(-13)))
          CFI (cfiCond26) V6 load(1, XDATA, add(CFA_XSP16, literal(-12)))
          CFI (cfiCond26) V7 load(1, XDATA, add(CFA_XSP16, literal(-11)))
          CFI (cfiCond26) V8 load(1, XDATA, add(CFA_XSP16, literal(-10)))
          CFI (cfiCond26) V9 load(1, XDATA, add(CFA_XSP16, literal(-9)))
          CFI (cfiCond26) V10 load(1, XDATA, add(CFA_XSP16, literal(-8)))
          CFI (cfiCond26) V11 load(1, XDATA, add(CFA_XSP16, literal(-7)))
          CFI (cfiCond26) R7 load(1, XDATA, add(CFA_XSP16, literal(-6)))
          CFI (cfiCond26) ?RET_LOW load(1, XDATA, add(CFA_XSP16, literal(-5)))
          CFI (cfiCond26) ?RET_HIGH load(1, XDATA, add(CFA_XSP16, literal(-4)))
          CFI (cfiCond26) ?BRET_EXT load(1, XDATA, add(CFA_XSP16, literal(-3)))
          CFI (cfiCond26) DPL0 load(1, XDATA, add(CFA_XSP16, literal(-2)))
          CFI (cfiCond26) DPH0 load(1, XDATA, add(CFA_XSP16, literal(-1)))
          CFI (cfiCond26) CFA_SP SP+-4
          CFI (cfiCond26) CFA_XSP16 add(XSP16, 24)
          CFI Block cfiCond27 Using cfiCommon0
          CFI (cfiCond27) Function MAC_CbackEvent
          CFI (cfiCond27) Conditional ??CrossCallReturnLabel_22, ??CrossCallReturnLabel_7
          CFI (cfiCond27) R6 load(1, XDATA, add(CFA_XSP16, literal(-20)))
          CFI (cfiCond27) VB load(1, XDATA, add(CFA_XSP16, literal(-19)))
          CFI (cfiCond27) V0 load(1, XDATA, add(CFA_XSP16, literal(-18)))
          CFI (cfiCond27) V1 load(1, XDATA, add(CFA_XSP16, literal(-17)))
          CFI (cfiCond27) V2 load(1, XDATA, add(CFA_XSP16, literal(-16)))
          CFI (cfiCond27) V3 load(1, XDATA, add(CFA_XSP16, literal(-15)))
          CFI (cfiCond27) V4 load(1, XDATA, add(CFA_XSP16, literal(-14)))
          CFI (cfiCond27) V5 load(1, XDATA, add(CFA_XSP16, literal(-13)))
          CFI (cfiCond27) V6 load(1, XDATA, add(CFA_XSP16, literal(-12)))
          CFI (cfiCond27) V7 load(1, XDATA, add(CFA_XSP16, literal(-11)))
          CFI (cfiCond27) V8 load(1, XDATA, add(CFA_XSP16, literal(-10)))
          CFI (cfiCond27) V9 load(1, XDATA, add(CFA_XSP16, literal(-9)))
          CFI (cfiCond27) V10 load(1, XDATA, add(CFA_XSP16, literal(-8)))
          CFI (cfiCond27) V11 load(1, XDATA, add(CFA_XSP16, literal(-7)))
          CFI (cfiCond27) R7 load(1, XDATA, add(CFA_XSP16, literal(-6)))
          CFI (cfiCond27) ?RET_LOW load(1, XDATA, add(CFA_XSP16, literal(-5)))
          CFI (cfiCond27) ?RET_HIGH load(1, XDATA, add(CFA_XSP16, literal(-4)))
          CFI (cfiCond27) ?BRET_EXT load(1, XDATA, add(CFA_XSP16, literal(-3)))
          CFI (cfiCond27) DPL0 load(1, XDATA, add(CFA_XSP16, literal(-2)))
          CFI (cfiCond27) DPH0 load(1, XDATA, add(CFA_XSP16, literal(-1)))
          CFI (cfiCond27) CFA_SP SP+-4
          CFI (cfiCond27) CFA_XSP16 add(XSP16, 24)
          CFI Block cfiCond28 Using cfiCommon0
          CFI (cfiCond28) Function MAC_CbackEvent
          CFI (cfiCond28) Conditional ??CrossCallReturnLabel_22, ??CrossCallReturnLabel_8
          CFI (cfiCond28) R6 load(1, XDATA, add(CFA_XSP16, literal(-20)))
          CFI (cfiCond28) VB load(1, XDATA, add(CFA_XSP16, literal(-19)))
          CFI (cfiCond28) V0 load(1, XDATA, add(CFA_XSP16, literal(-18)))
          CFI (cfiCond28) V1 load(1, XDATA, add(CFA_XSP16, literal(-17)))
          CFI (cfiCond28) V2 load(1, XDATA, add(CFA_XSP16, literal(-16)))
          CFI (cfiCond28) V3 load(1, XDATA, add(CFA_XSP16, literal(-15)))
          CFI (cfiCond28) V4 load(1, XDATA, add(CFA_XSP16, literal(-14)))
          CFI (cfiCond28) V5 load(1, XDATA, add(CFA_XSP16, literal(-13)))
          CFI (cfiCond28) V6 load(1, XDATA, add(CFA_XSP16, literal(-12)))
          CFI (cfiCond28) V7 load(1, XDATA, add(CFA_XSP16, literal(-11)))
          CFI (cfiCond28) V8 load(1, XDATA, add(CFA_XSP16, literal(-10)))
          CFI (cfiCond28) V9 load(1, XDATA, add(CFA_XSP16, literal(-9)))
          CFI (cfiCond28) V10 load(1, XDATA, add(CFA_XSP16, literal(-8)))
          CFI (cfiCond28) V11 load(1, XDATA, add(CFA_XSP16, literal(-7)))
          CFI (cfiCond28) R7 load(1, XDATA, add(CFA_XSP16, literal(-6)))
          CFI (cfiCond28) ?RET_LOW load(1, XDATA, add(CFA_XSP16, literal(-5)))
          CFI (cfiCond28) ?RET_HIGH load(1, XDATA, add(CFA_XSP16, literal(-4)))
          CFI (cfiCond28) ?BRET_EXT load(1, XDATA, add(CFA_XSP16, literal(-3)))
          CFI (cfiCond28) DPL0 load(1, XDATA, add(CFA_XSP16, literal(-2)))
          CFI (cfiCond28) DPH0 load(1, XDATA, add(CFA_XSP16, literal(-1)))
          CFI (cfiCond28) CFA_SP SP+-4
          CFI (cfiCond28) CFA_XSP16 add(XSP16, 24)
          CFI Block cfiCond29 Using cfiCommon0
          CFI (cfiCond29) Function MAC_CbackEvent
          CFI (cfiCond29) Conditional ??CrossCallReturnLabel_21, ??CrossCallReturnLabel_27
          CFI (cfiCond29) R6 load(1, XDATA, add(CFA_XSP16, literal(-20)))
          CFI (cfiCond29) VB load(1, XDATA, add(CFA_XSP16, literal(-19)))
          CFI (cfiCond29) V0 load(1, XDATA, add(CFA_XSP16, literal(-18)))
          CFI (cfiCond29) V1 load(1, XDATA, add(CFA_XSP16, literal(-17)))
          CFI (cfiCond29) V2 load(1, XDATA, add(CFA_XSP16, literal(-16)))
          CFI (cfiCond29) V3 load(1, XDATA, add(CFA_XSP16, literal(-15)))
          CFI (cfiCond29) V4 load(1, XDATA, add(CFA_XSP16, literal(-14)))
          CFI (cfiCond29) V5 load(1, XDATA, add(CFA_XSP16, literal(-13)))
          CFI (cfiCond29) V6 load(1, XDATA, add(CFA_XSP16, literal(-12)))
          CFI (cfiCond29) V7 load(1, XDATA, add(CFA_XSP16, literal(-11)))
          CFI (cfiCond29) V8 load(1, XDATA, add(CFA_XSP16, literal(-10)))
          CFI (cfiCond29) V9 load(1, XDATA, add(CFA_XSP16, literal(-9)))
          CFI (cfiCond29) V10 load(1, XDATA, add(CFA_XSP16, literal(-8)))
          CFI (cfiCond29) V11 load(1, XDATA, add(CFA_XSP16, literal(-7)))
          CFI (cfiCond29) R7 load(1, XDATA, add(CFA_XSP16, literal(-6)))
          CFI (cfiCond29) ?RET_LOW load(1, XDATA, add(CFA_XSP16, literal(-5)))
          CFI (cfiCond29) ?RET_HIGH load(1, XDATA, add(CFA_XSP16, literal(-4)))
          CFI (cfiCond29) ?BRET_EXT load(1, XDATA, add(CFA_XSP16, literal(-3)))
          CFI (cfiCond29) DPL0 load(1, XDATA, add(CFA_XSP16, literal(-2)))
          CFI (cfiCond29) DPH0 load(1, XDATA, add(CFA_XSP16, literal(-1)))
          CFI (cfiCond29) CFA_SP SP+-4
          CFI (cfiCond29) CFA_XSP16 add(XSP16, 24)
          CFI Block cfiCond30 Using cfiCommon0
          CFI (cfiCond30) Function MAC_CbackEvent
          CFI (cfiCond30) Conditional ??CrossCallReturnLabel_21, ??CrossCallReturnLabel_28
          CFI (cfiCond30) R6 load(1, XDATA, add(CFA_XSP16, literal(-20)))
          CFI (cfiCond30) VB load(1, XDATA, add(CFA_XSP16, literal(-19)))
          CFI (cfiCond30) V0 load(1, XDATA, add(CFA_XSP16, literal(-18)))
          CFI (cfiCond30) V1 load(1, XDATA, add(CFA_XSP16, literal(-17)))
          CFI (cfiCond30) V2 load(1, XDATA, add(CFA_XSP16, literal(-16)))
          CFI (cfiCond30) V3 load(1, XDATA, add(CFA_XSP16, literal(-15)))
          CFI (cfiCond30) V4 load(1, XDATA, add(CFA_XSP16, literal(-14)))
          CFI (cfiCond30) V5 load(1, XDATA, add(CFA_XSP16, literal(-13)))
          CFI (cfiCond30) V6 load(1, XDATA, add(CFA_XSP16, literal(-12)))
          CFI (cfiCond30) V7 load(1, XDATA, add(CFA_XSP16, literal(-11)))
          CFI (cfiCond30) V8 load(1, XDATA, add(CFA_XSP16, literal(-10)))
          CFI (cfiCond30) V9 load(1, XDATA, add(CFA_XSP16, literal(-9)))
          CFI (cfiCond30) V10 load(1, XDATA, add(CFA_XSP16, literal(-8)))
          CFI (cfiCond30) V11 load(1, XDATA, add(CFA_XSP16, literal(-7)))
          CFI (cfiCond30) R7 load(1, XDATA, add(CFA_XSP16, literal(-6)))
          CFI (cfiCond30) ?RET_LOW load(1, XDATA, add(CFA_XSP16, literal(-5)))
          CFI (cfiCond30) ?RET_HIGH load(1, XDATA, add(CFA_XSP16, literal(-4)))
          CFI (cfiCond30) ?BRET_EXT load(1, XDATA, add(CFA_XSP16, literal(-3)))
          CFI (cfiCond30) DPL0 load(1, XDATA, add(CFA_XSP16, literal(-2)))
          CFI (cfiCond30) DPH0 load(1, XDATA, add(CFA_XSP16, literal(-1)))
          CFI (cfiCond30) CFA_SP SP+-4
          CFI (cfiCond30) CFA_XSP16 add(XSP16, 24)
          CFI Block cfiCond31 Using cfiCommon0
          CFI (cfiCond31) Function MAC_CbackEvent
          CFI (cfiCond31) Conditional ??CrossCallReturnLabel_20, ??CrossCallReturnLabel_2
          CFI (cfiCond31) R6 load(1, XDATA, add(CFA_XSP16, literal(-20)))
          CFI (cfiCond31) VB load(1, XDATA, add(CFA_XSP16, literal(-19)))
          CFI (cfiCond31) V0 load(1, XDATA, add(CFA_XSP16, literal(-18)))
          CFI (cfiCond31) V1 load(1, XDATA, add(CFA_XSP16, literal(-17)))
          CFI (cfiCond31) V2 load(1, XDATA, add(CFA_XSP16, literal(-16)))
          CFI (cfiCond31) V3 load(1, XDATA, add(CFA_XSP16, literal(-15)))
          CFI (cfiCond31) V4 load(1, XDATA, add(CFA_XSP16, literal(-14)))
          CFI (cfiCond31) V5 load(1, XDATA, add(CFA_XSP16, literal(-13)))
          CFI (cfiCond31) V6 load(1, XDATA, add(CFA_XSP16, literal(-12)))
          CFI (cfiCond31) V7 load(1, XDATA, add(CFA_XSP16, literal(-11)))
          CFI (cfiCond31) V8 load(1, XDATA, add(CFA_XSP16, literal(-10)))
          CFI (cfiCond31) V9 load(1, XDATA, add(CFA_XSP16, literal(-9)))
          CFI (cfiCond31) V10 load(1, XDATA, add(CFA_XSP16, literal(-8)))
          CFI (cfiCond31) V11 load(1, XDATA, add(CFA_XSP16, literal(-7)))
          CFI (cfiCond31) R7 load(1, XDATA, add(CFA_XSP16, literal(-6)))
          CFI (cfiCond31) ?RET_LOW load(1, XDATA, add(CFA_XSP16, literal(-5)))
          CFI (cfiCond31) ?RET_HIGH load(1, XDATA, add(CFA_XSP16, literal(-4)))
          CFI (cfiCond31) ?BRET_EXT load(1, XDATA, add(CFA_XSP16, literal(-3)))
          CFI (cfiCond31) DPL0 load(1, XDATA, add(CFA_XSP16, literal(-2)))
          CFI (cfiCond31) DPH0 load(1, XDATA, add(CFA_XSP16, literal(-1)))
          CFI (cfiCond31) CFA_SP SP+-4
          CFI (cfiCond31) CFA_XSP16 add(XSP16, 24)
          CFI Block cfiCond32 Using cfiCommon0
          CFI (cfiCond32) Function MAC_CbackEvent
          CFI (cfiCond32) Conditional ??CrossCallReturnLabel_20, ??CrossCallReturnLabel_3
          CFI (cfiCond32) R6 load(1, XDATA, add(CFA_XSP16, literal(-20)))
          CFI (cfiCond32) VB load(1, XDATA, add(CFA_XSP16, literal(-19)))
          CFI (cfiCond32) V0 load(1, XDATA, add(CFA_XSP16, literal(-18)))
          CFI (cfiCond32) V1 load(1, XDATA, add(CFA_XSP16, literal(-17)))
          CFI (cfiCond32) V2 load(1, XDATA, add(CFA_XSP16, literal(-16)))
          CFI (cfiCond32) V3 load(1, XDATA, add(CFA_XSP16, literal(-15)))
          CFI (cfiCond32) V4 load(1, XDATA, add(CFA_XSP16, literal(-14)))
          CFI (cfiCond32) V5 load(1, XDATA, add(CFA_XSP16, literal(-13)))
          CFI (cfiCond32) V6 load(1, XDATA, add(CFA_XSP16, literal(-12)))
          CFI (cfiCond32) V7 load(1, XDATA, add(CFA_XSP16, literal(-11)))
          CFI (cfiCond32) V8 load(1, XDATA, add(CFA_XSP16, literal(-10)))
          CFI (cfiCond32) V9 load(1, XDATA, add(CFA_XSP16, literal(-9)))
          CFI (cfiCond32) V10 load(1, XDATA, add(CFA_XSP16, literal(-8)))
          CFI (cfiCond32) V11 load(1, XDATA, add(CFA_XSP16, literal(-7)))
          CFI (cfiCond32) R7 load(1, XDATA, add(CFA_XSP16, literal(-6)))
          CFI (cfiCond32) ?RET_LOW load(1, XDATA, add(CFA_XSP16, literal(-5)))
          CFI (cfiCond32) ?RET_HIGH load(1, XDATA, add(CFA_XSP16, literal(-4)))
          CFI (cfiCond32) ?BRET_EXT load(1, XDATA, add(CFA_XSP16, literal(-3)))
          CFI (cfiCond32) DPL0 load(1, XDATA, add(CFA_XSP16, literal(-2)))
          CFI (cfiCond32) DPH0 load(1, XDATA, add(CFA_XSP16, literal(-1)))
          CFI (cfiCond32) CFA_SP SP+-4
          CFI (cfiCond32) CFA_XSP16 add(XSP16, 24)
          CFI Block cfiCond33 Using cfiCommon0
          CFI (cfiCond33) Function MAC_CbackEvent
          CFI (cfiCond33) Conditional ??CrossCallReturnLabel_20, ??CrossCallReturnLabel_4
          CFI (cfiCond33) R6 load(1, XDATA, add(CFA_XSP16, literal(-20)))
          CFI (cfiCond33) VB load(1, XDATA, add(CFA_XSP16, literal(-19)))
          CFI (cfiCond33) V0 load(1, XDATA, add(CFA_XSP16, literal(-18)))
          CFI (cfiCond33) V1 load(1, XDATA, add(CFA_XSP16, literal(-17)))
          CFI (cfiCond33) V2 load(1, XDATA, add(CFA_XSP16, literal(-16)))
          CFI (cfiCond33) V3 load(1, XDATA, add(CFA_XSP16, literal(-15)))
          CFI (cfiCond33) V4 load(1, XDATA, add(CFA_XSP16, literal(-14)))
          CFI (cfiCond33) V5 load(1, XDATA, add(CFA_XSP16, literal(-13)))
          CFI (cfiCond33) V6 load(1, XDATA, add(CFA_XSP16, literal(-12)))
          CFI (cfiCond33) V7 load(1, XDATA, add(CFA_XSP16, literal(-11)))
          CFI (cfiCond33) V8 load(1, XDATA, add(CFA_XSP16, literal(-10)))
          CFI (cfiCond33) V9 load(1, XDATA, add(CFA_XSP16, literal(-9)))
          CFI (cfiCond33) V10 load(1, XDATA, add(CFA_XSP16, literal(-8)))
          CFI (cfiCond33) V11 load(1, XDATA, add(CFA_XSP16, literal(-7)))
          CFI (cfiCond33) R7 load(1, XDATA, add(CFA_XSP16, literal(-6)))
          CFI (cfiCond33) ?RET_LOW load(1, XDATA, add(CFA_XSP16, literal(-5)))
          CFI (cfiCond33) ?RET_HIGH load(1, XDATA, add(CFA_XSP16, literal(-4)))
          CFI (cfiCond33) ?BRET_EXT load(1, XDATA, add(CFA_XSP16, literal(-3)))
          CFI (cfiCond33) DPL0 load(1, XDATA, add(CFA_XSP16, literal(-2)))
          CFI (cfiCond33) DPH0 load(1, XDATA, add(CFA_XSP16, literal(-1)))
          CFI (cfiCond33) CFA_SP SP+-4
          CFI (cfiCond33) CFA_XSP16 add(XSP16, 24)
          CFI Block cfiPicker34 Using cfiCommon1
          CFI (cfiPicker34) NoFunction
          CFI (cfiPicker34) Picker
        MOVX    A,@DPTR
        MOV     DPH,A
        MOV     DPL,R0
        RET
          CFI EndBlock cfiCond24
          CFI EndBlock cfiCond25
          CFI EndBlock cfiCond26
          CFI EndBlock cfiCond27
          CFI EndBlock cfiCond28
          CFI EndBlock cfiCond29
          CFI EndBlock cfiCond30
          CFI EndBlock cfiCond31
          CFI EndBlock cfiCond32
          CFI EndBlock cfiCond33
          CFI EndBlock cfiPicker34

        RSEG BANKED_CODE:CODE:NOROOT(0)
?Subroutine6:
          CFI Block cfiCond35 Using cfiCommon0
          CFI Function MAC_CbackEvent
          CFI Conditional ??CrossCallReturnLabel_9
          CFI R6 load(1, XDATA, add(CFA_XSP16, literal(-20)))
          CFI VB load(1, XDATA, add(CFA_XSP16, literal(-19)))
          CFI V0 load(1, XDATA, add(CFA_XSP16, literal(-18)))
          CFI V1 load(1, XDATA, add(CFA_XSP16, literal(-17)))
          CFI V2 load(1, XDATA, add(CFA_XSP16, literal(-16)))
          CFI V3 load(1, XDATA, add(CFA_XSP16, literal(-15)))
          CFI V4 load(1, XDATA, add(CFA_XSP16, literal(-14)))
          CFI V5 load(1, XDATA, add(CFA_XSP16, literal(-13)))
          CFI V6 load(1, XDATA, add(CFA_XSP16, literal(-12)))
          CFI V7 load(1, XDATA, add(CFA_XSP16, literal(-11)))
          CFI V8 load(1, XDATA, add(CFA_XSP16, literal(-10)))
          CFI V9 load(1, XDATA, add(CFA_XSP16, literal(-9)))
          CFI V10 load(1, XDATA, add(CFA_XSP16, literal(-8)))
          CFI V11 load(1, XDATA, add(CFA_XSP16, literal(-7)))
          CFI R7 load(1, XDATA, add(CFA_XSP16, literal(-6)))
          CFI ?RET_LOW load(1, XDATA, add(CFA_XSP16, literal(-5)))
          CFI ?RET_HIGH load(1, XDATA, add(CFA_XSP16, literal(-4)))
          CFI ?BRET_EXT load(1, XDATA, add(CFA_XSP16, literal(-3)))
          CFI DPL0 load(1, XDATA, add(CFA_XSP16, literal(-2)))
          CFI DPH0 load(1, XDATA, add(CFA_XSP16, literal(-1)))
          CFI CFA_SP SP+-2
          CFI CFA_XSP16 add(XSP16, 24)
          CFI Block cfiCond36 Using cfiCommon0
          CFI (cfiCond36) Function MAC_CbackEvent
          CFI (cfiCond36) Conditional ??CrossCallReturnLabel_10
          CFI (cfiCond36) R6 load(1, XDATA, add(CFA_XSP16, literal(-20)))
          CFI (cfiCond36) VB load(1, XDATA, add(CFA_XSP16, literal(-19)))
          CFI (cfiCond36) V0 load(1, XDATA, add(CFA_XSP16, literal(-18)))
          CFI (cfiCond36) V1 load(1, XDATA, add(CFA_XSP16, literal(-17)))
          CFI (cfiCond36) V2 load(1, XDATA, add(CFA_XSP16, literal(-16)))
          CFI (cfiCond36) V3 load(1, XDATA, add(CFA_XSP16, literal(-15)))
          CFI (cfiCond36) V4 load(1, XDATA, add(CFA_XSP16, literal(-14)))
          CFI (cfiCond36) V5 load(1, XDATA, add(CFA_XSP16, literal(-13)))
          CFI (cfiCond36) V6 load(1, XDATA, add(CFA_XSP16, literal(-12)))
          CFI (cfiCond36) V7 load(1, XDATA, add(CFA_XSP16, literal(-11)))
          CFI (cfiCond36) V8 load(1, XDATA, add(CFA_XSP16, literal(-10)))
          CFI (cfiCond36) V9 load(1, XDATA, add(CFA_XSP16, literal(-9)))
          CFI (cfiCond36) V10 load(1, XDATA, add(CFA_XSP16, literal(-8)))
          CFI (cfiCond36) V11 load(1, XDATA, add(CFA_XSP16, literal(-7)))
          CFI (cfiCond36) R7 load(1, XDATA, add(CFA_XSP16, literal(-6)))
          CFI (cfiCond36) ?RET_LOW load(1, XDATA, add(CFA_XSP16, literal(-5)))
          CFI (cfiCond36) ?RET_HIGH load(1, XDATA, add(CFA_XSP16, literal(-4)))
          CFI (cfiCond36) ?BRET_EXT load(1, XDATA, add(CFA_XSP16, literal(-3)))
          CFI (cfiCond36) DPL0 load(1, XDATA, add(CFA_XSP16, literal(-2)))
          CFI (cfiCond36) DPH0 load(1, XDATA, add(CFA_XSP16, literal(-1)))
          CFI (cfiCond36) CFA_SP SP+-2
          CFI (cfiCond36) CFA_XSP16 add(XSP16, 24)
          CFI Block cfiPicker37 Using cfiCommon1
          CFI (cfiPicker37) NoFunction
          CFI (cfiPicker37) Picker
        MOV     DPL,?XSP + 0
        MOV     DPH,?XSP + 1
        MOVX    A,@DPTR
        ADD     A,#0x3
        MOV     R2,A
        INC     DPTR
        MOVX    A,@DPTR
        ADDC    A,#0x0
        MOV     R3,A
        RET
          CFI EndBlock cfiCond35
          CFI EndBlock cfiCond36
          CFI EndBlock cfiPicker37

        RSEG BANKED_CODE:CODE:NOROOT(0)
?Subroutine5:
          CFI Block cfiCond38 Using cfiCommon0
          CFI Function MAC_CbackEvent
          CFI Conditional ??CrossCallReturnLabel_7
          CFI R6 load(1, XDATA, add(CFA_XSP16, literal(-20)))
          CFI VB load(1, XDATA, add(CFA_XSP16, literal(-19)))
          CFI V0 load(1, XDATA, add(CFA_XSP16, literal(-18)))
          CFI V1 load(1, XDATA, add(CFA_XSP16, literal(-17)))
          CFI V2 load(1, XDATA, add(CFA_XSP16, literal(-16)))
          CFI V3 load(1, XDATA, add(CFA_XSP16, literal(-15)))
          CFI V4 load(1, XDATA, add(CFA_XSP16, literal(-14)))
          CFI V5 load(1, XDATA, add(CFA_XSP16, literal(-13)))
          CFI V6 load(1, XDATA, add(CFA_XSP16, literal(-12)))
          CFI V7 load(1, XDATA, add(CFA_XSP16, literal(-11)))
          CFI V8 load(1, XDATA, add(CFA_XSP16, literal(-10)))
          CFI V9 load(1, XDATA, add(CFA_XSP16, literal(-9)))
          CFI V10 load(1, XDATA, add(CFA_XSP16, literal(-8)))
          CFI V11 load(1, XDATA, add(CFA_XSP16, literal(-7)))
          CFI R7 load(1, XDATA, add(CFA_XSP16, literal(-6)))
          CFI ?RET_LOW load(1, XDATA, add(CFA_XSP16, literal(-5)))
          CFI ?RET_HIGH load(1, XDATA, add(CFA_XSP16, literal(-4)))
          CFI ?BRET_EXT load(1, XDATA, add(CFA_XSP16, literal(-3)))
          CFI DPL0 load(1, XDATA, add(CFA_XSP16, literal(-2)))
          CFI DPH0 load(1, XDATA, add(CFA_XSP16, literal(-1)))
          CFI CFA_SP SP+-2
          CFI CFA_XSP16 add(XSP16, 24)
          CFI Block cfiCond39 Using cfiCommon0
          CFI (cfiCond39) Function MAC_CbackEvent
          CFI (cfiCond39) Conditional ??CrossCallReturnLabel_8
          CFI (cfiCond39) R6 load(1, XDATA, add(CFA_XSP16, literal(-20)))
          CFI (cfiCond39) VB load(1, XDATA, add(CFA_XSP16, literal(-19)))
          CFI (cfiCond39) V0 load(1, XDATA, add(CFA_XSP16, literal(-18)))
          CFI (cfiCond39) V1 load(1, XDATA, add(CFA_XSP16, literal(-17)))
          CFI (cfiCond39) V2 load(1, XDATA, add(CFA_XSP16, literal(-16)))
          CFI (cfiCond39) V3 load(1, XDATA, add(CFA_XSP16, literal(-15)))
          CFI (cfiCond39) V4 load(1, XDATA, add(CFA_XSP16, literal(-14)))
          CFI (cfiCond39) V5 load(1, XDATA, add(CFA_XSP16, literal(-13)))
          CFI (cfiCond39) V6 load(1, XDATA, add(CFA_XSP16, literal(-12)))
          CFI (cfiCond39) V7 load(1, XDATA, add(CFA_XSP16, literal(-11)))
          CFI (cfiCond39) V8 load(1, XDATA, add(CFA_XSP16, literal(-10)))
          CFI (cfiCond39) V9 load(1, XDATA, add(CFA_XSP16, literal(-9)))
          CFI (cfiCond39) V10 load(1, XDATA, add(CFA_XSP16, literal(-8)))
          CFI (cfiCond39) V11 load(1, XDATA, add(CFA_XSP16, literal(-7)))
          CFI (cfiCond39) R7 load(1, XDATA, add(CFA_XSP16, literal(-6)))
          CFI (cfiCond39) ?RET_LOW load(1, XDATA, add(CFA_XSP16, literal(-5)))
          CFI (cfiCond39) ?RET_HIGH load(1, XDATA, add(CFA_XSP16, literal(-4)))
          CFI (cfiCond39) ?BRET_EXT load(1, XDATA, add(CFA_XSP16, literal(-3)))
          CFI (cfiCond39) DPL0 load(1, XDATA, add(CFA_XSP16, literal(-2)))
          CFI (cfiCond39) DPH0 load(1, XDATA, add(CFA_XSP16, literal(-1)))
          CFI (cfiCond39) CFA_SP SP+-2
          CFI (cfiCond39) CFA_XSP16 add(XSP16, 24)
          CFI Block cfiPicker40 Using cfiCommon1
          CFI (cfiPicker40) NoFunction
          CFI (cfiPicker40) Picker
        LCALL   ?Subroutine10 & 0xFFFF
??CrossCallReturnLabel_22:
        INC     DPTR
        INC     DPTR
        RET
          CFI EndBlock cfiCond38
          CFI EndBlock cfiCond39
          CFI EndBlock cfiPicker40

        RSEG BANKED_CODE:CODE:NOROOT(0)
?Subroutine4:
          CFI Block cfiCond41 Using cfiCommon0
          CFI Function MAC_CbackEvent
          CFI Conditional ??CrossCallReturnLabel_5
          CFI R6 load(1, XDATA, add(CFA_XSP16, literal(-20)))
          CFI VB load(1, XDATA, add(CFA_XSP16, literal(-19)))
          CFI V0 load(1, XDATA, add(CFA_XSP16, literal(-18)))
          CFI V1 load(1, XDATA, add(CFA_XSP16, literal(-17)))
          CFI V2 load(1, XDATA, add(CFA_XSP16, literal(-16)))
          CFI V3 load(1, XDATA, add(CFA_XSP16, literal(-15)))
          CFI V4 load(1, XDATA, add(CFA_XSP16, literal(-14)))
          CFI V5 load(1, XDATA, add(CFA_XSP16, literal(-13)))
          CFI V6 load(1, XDATA, add(CFA_XSP16, literal(-12)))
          CFI V7 load(1, XDATA, add(CFA_XSP16, literal(-11)))
          CFI V8 load(1, XDATA, add(CFA_XSP16, literal(-10)))
          CFI V9 load(1, XDATA, add(CFA_XSP16, literal(-9)))
          CFI V10 load(1, XDATA, add(CFA_XSP16, literal(-8)))
          CFI V11 load(1, XDATA, add(CFA_XSP16, literal(-7)))
          CFI R7 load(1, XDATA, add(CFA_XSP16, literal(-6)))
          CFI ?RET_LOW load(1, XDATA, add(CFA_XSP16, literal(-5)))
          CFI ?RET_HIGH load(1, XDATA, add(CFA_XSP16, literal(-4)))
          CFI ?BRET_EXT load(1, XDATA, add(CFA_XSP16, literal(-3)))
          CFI DPL0 load(1, XDATA, add(CFA_XSP16, literal(-2)))
          CFI DPH0 load(1, XDATA, add(CFA_XSP16, literal(-1)))
          CFI CFA_SP SP+-2
          CFI CFA_XSP16 add(XSP16, 24)
          CFI Block cfiCond42 Using cfiCommon0
          CFI (cfiCond42) Function MAC_CbackEvent
          CFI (cfiCond42) Conditional ??CrossCallReturnLabel_6
          CFI (cfiCond42) R6 load(1, XDATA, add(CFA_XSP16, literal(-20)))
          CFI (cfiCond42) VB load(1, XDATA, add(CFA_XSP16, literal(-19)))
          CFI (cfiCond42) V0 load(1, XDATA, add(CFA_XSP16, literal(-18)))
          CFI (cfiCond42) V1 load(1, XDATA, add(CFA_XSP16, literal(-17)))
          CFI (cfiCond42) V2 load(1, XDATA, add(CFA_XSP16, literal(-16)))
          CFI (cfiCond42) V3 load(1, XDATA, add(CFA_XSP16, literal(-15)))
          CFI (cfiCond42) V4 load(1, XDATA, add(CFA_XSP16, literal(-14)))
          CFI (cfiCond42) V5 load(1, XDATA, add(CFA_XSP16, literal(-13)))
          CFI (cfiCond42) V6 load(1, XDATA, add(CFA_XSP16, literal(-12)))
          CFI (cfiCond42) V7 load(1, XDATA, add(CFA_XSP16, literal(-11)))
          CFI (cfiCond42) V8 load(1, XDATA, add(CFA_XSP16, literal(-10)))
          CFI (cfiCond42) V9 load(1, XDATA, add(CFA_XSP16, literal(-9)))
          CFI (cfiCond42) V10 load(1, XDATA, add(CFA_XSP16, literal(-8)))
          CFI (cfiCond42) V11 load(1, XDATA, add(CFA_XSP16, literal(-7)))
          CFI (cfiCond42) R7 load(1, XDATA, add(CFA_XSP16, literal(-6)))
          CFI (cfiCond42) ?RET_LOW load(1, XDATA, add(CFA_XSP16, literal(-5)))
          CFI (cfiCond42) ?RET_HIGH load(1, XDATA, add(CFA_XSP16, literal(-4)))
          CFI (cfiCond42) ?BRET_EXT load(1, XDATA, add(CFA_XSP16, literal(-3)))
          CFI (cfiCond42) DPL0 load(1, XDATA, add(CFA_XSP16, literal(-2)))
          CFI (cfiCond42) DPH0 load(1, XDATA, add(CFA_XSP16, literal(-1)))
          CFI (cfiCond42) CFA_SP SP+-2
          CFI (cfiCond42) CFA_XSP16 add(XSP16, 24)
          CFI Block cfiPicker43 Using cfiCommon1
          CFI (cfiPicker43) NoFunction
          CFI (cfiPicker43) Picker
        INC     DPTR
        MOVX    A,@DPTR
        XCH     A,R0
        ADD     A,#0x8
        MOV     DPL,A
        CLR     A
        ADDC    A,R0
        MOV     DPH,A
        MOVX    A,@DPTR
        RET
          CFI EndBlock cfiCond41
          CFI EndBlock cfiCond42
          CFI EndBlock cfiPicker43

        RSEG BANKED_CODE:CODE:NOROOT(0)
?Subroutine3:
          CFI Block cfiCond44 Using cfiCommon0
          CFI Function MAC_CbackEvent
          CFI Conditional ??CrossCallReturnLabel_27
          CFI R6 load(1, XDATA, add(CFA_XSP16, literal(-20)))
          CFI VB load(1, XDATA, add(CFA_XSP16, literal(-19)))
          CFI V0 load(1, XDATA, add(CFA_XSP16, literal(-18)))
          CFI V1 load(1, XDATA, add(CFA_XSP16, literal(-17)))
          CFI V2 load(1, XDATA, add(CFA_XSP16, literal(-16)))
          CFI V3 load(1, XDATA, add(CFA_XSP16, literal(-15)))
          CFI V4 load(1, XDATA, add(CFA_XSP16, literal(-14)))
          CFI V5 load(1, XDATA, add(CFA_XSP16, literal(-13)))
          CFI V6 load(1, XDATA, add(CFA_XSP16, literal(-12)))
          CFI V7 load(1, XDATA, add(CFA_XSP16, literal(-11)))
          CFI V8 load(1, XDATA, add(CFA_XSP16, literal(-10)))
          CFI V9 load(1, XDATA, add(CFA_XSP16, literal(-9)))
          CFI V10 load(1, XDATA, add(CFA_XSP16, literal(-8)))
          CFI V11 load(1, XDATA, add(CFA_XSP16, literal(-7)))
          CFI R7 load(1, XDATA, add(CFA_XSP16, literal(-6)))
          CFI ?RET_LOW load(1, XDATA, add(CFA_XSP16, literal(-5)))
          CFI ?RET_HIGH load(1, XDATA, add(CFA_XSP16, literal(-4)))
          CFI ?BRET_EXT load(1, XDATA, add(CFA_XSP16, literal(-3)))
          CFI DPL0 load(1, XDATA, add(CFA_XSP16, literal(-2)))
          CFI DPH0 load(1, XDATA, add(CFA_XSP16, literal(-1)))
          CFI CFA_SP SP+-2
          CFI CFA_XSP16 add(XSP16, 24)
          CFI Block cfiCond45 Using cfiCommon0
          CFI (cfiCond45) Function MAC_CbackEvent
          CFI (cfiCond45) Conditional ??CrossCallReturnLabel_28
          CFI (cfiCond45) R6 load(1, XDATA, add(CFA_XSP16, literal(-20)))
          CFI (cfiCond45) VB load(1, XDATA, add(CFA_XSP16, literal(-19)))
          CFI (cfiCond45) V0 load(1, XDATA, add(CFA_XSP16, literal(-18)))
          CFI (cfiCond45) V1 load(1, XDATA, add(CFA_XSP16, literal(-17)))
          CFI (cfiCond45) V2 load(1, XDATA, add(CFA_XSP16, literal(-16)))
          CFI (cfiCond45) V3 load(1, XDATA, add(CFA_XSP16, literal(-15)))
          CFI (cfiCond45) V4 load(1, XDATA, add(CFA_XSP16, literal(-14)))
          CFI (cfiCond45) V5 load(1, XDATA, add(CFA_XSP16, literal(-13)))
          CFI (cfiCond45) V6 load(1, XDATA, add(CFA_XSP16, literal(-12)))
          CFI (cfiCond45) V7 load(1, XDATA, add(CFA_XSP16, literal(-11)))
          CFI (cfiCond45) V8 load(1, XDATA, add(CFA_XSP16, literal(-10)))
          CFI (cfiCond45) V9 load(1, XDATA, add(CFA_XSP16, literal(-9)))
          CFI (cfiCond45) V10 load(1, XDATA, add(CFA_XSP16, literal(-8)))
          CFI (cfiCond45) V11 load(1, XDATA, add(CFA_XSP16, literal(-7)))
          CFI (cfiCond45) R7 load(1, XDATA, add(CFA_XSP16, literal(-6)))
          CFI (cfiCond45) ?RET_LOW load(1, XDATA, add(CFA_XSP16, literal(-5)))
          CFI (cfiCond45) ?RET_HIGH load(1, XDATA, add(CFA_XSP16, literal(-4)))
          CFI (cfiCond45) ?BRET_EXT load(1, XDATA, add(CFA_XSP16, literal(-3)))
          CFI (cfiCond45) DPL0 load(1, XDATA, add(CFA_XSP16, literal(-2)))
          CFI (cfiCond45) DPH0 load(1, XDATA, add(CFA_XSP16, literal(-1)))
          CFI (cfiCond45) CFA_SP SP+-2
          CFI (cfiCond45) CFA_XSP16 add(XSP16, 24)
          CFI Block cfiPicker46 Using cfiCommon1
          CFI (cfiPicker46) NoFunction
          CFI (cfiPicker46) Picker
        LCALL   ?Subroutine10 & 0xFFFF
??CrossCallReturnLabel_21:
          CFI EndBlock cfiCond44
          CFI EndBlock cfiCond45
          CFI EndBlock cfiPicker46
        REQUIRE ??Subroutine13_0
        ; // Fall through to label ??Subroutine13_0

        RSEG BANKED_CODE:CODE:NOROOT(0)
??Subroutine13_0:
          CFI Block cfiCond47 Using cfiCommon0
          CFI Function MAC_CbackEvent
          CFI Conditional ??CrossCallReturnLabel_26
          CFI R6 load(1, XDATA, add(CFA_XSP16, literal(-20)))
          CFI VB load(1, XDATA, add(CFA_XSP16, literal(-19)))
          CFI V0 load(1, XDATA, add(CFA_XSP16, literal(-18)))
          CFI V1 load(1, XDATA, add(CFA_XSP16, literal(-17)))
          CFI V2 load(1, XDATA, add(CFA_XSP16, literal(-16)))
          CFI V3 load(1, XDATA, add(CFA_XSP16, literal(-15)))
          CFI V4 load(1, XDATA, add(CFA_XSP16, literal(-14)))
          CFI V5 load(1, XDATA, add(CFA_XSP16, literal(-13)))
          CFI V6 load(1, XDATA, add(CFA_XSP16, literal(-12)))
          CFI V7 load(1, XDATA, add(CFA_XSP16, literal(-11)))
          CFI V8 load(1, XDATA, add(CFA_XSP16, literal(-10)))
          CFI V9 load(1, XDATA, add(CFA_XSP16, literal(-9)))
          CFI V10 load(1, XDATA, add(CFA_XSP16, literal(-8)))
          CFI V11 load(1, XDATA, add(CFA_XSP16, literal(-7)))
          CFI R7 load(1, XDATA, add(CFA_XSP16, literal(-6)))
          CFI ?RET_LOW load(1, XDATA, add(CFA_XSP16, literal(-5)))
          CFI ?RET_HIGH load(1, XDATA, add(CFA_XSP16, literal(-4)))
          CFI ?BRET_EXT load(1, XDATA, add(CFA_XSP16, literal(-3)))
          CFI DPL0 load(1, XDATA, add(CFA_XSP16, literal(-2)))
          CFI DPH0 load(1, XDATA, add(CFA_XSP16, literal(-1)))
          CFI CFA_SP SP+-2
          CFI CFA_XSP16 add(XSP16, 24)
          CFI Block cfiCond48 Using cfiCommon0
          CFI (cfiCond48) Function MAC_CbackEvent
          CFI (cfiCond48) Conditional ??CrossCallReturnLabel_27
          CFI (cfiCond48) R6 load(1, XDATA, add(CFA_XSP16, literal(-20)))
          CFI (cfiCond48) VB load(1, XDATA, add(CFA_XSP16, literal(-19)))
          CFI (cfiCond48) V0 load(1, XDATA, add(CFA_XSP16, literal(-18)))
          CFI (cfiCond48) V1 load(1, XDATA, add(CFA_XSP16, literal(-17)))
          CFI (cfiCond48) V2 load(1, XDATA, add(CFA_XSP16, literal(-16)))
          CFI (cfiCond48) V3 load(1, XDATA, add(CFA_XSP16, literal(-15)))
          CFI (cfiCond48) V4 load(1, XDATA, add(CFA_XSP16, literal(-14)))
          CFI (cfiCond48) V5 load(1, XDATA, add(CFA_XSP16, literal(-13)))
          CFI (cfiCond48) V6 load(1, XDATA, add(CFA_XSP16, literal(-12)))
          CFI (cfiCond48) V7 load(1, XDATA, add(CFA_XSP16, literal(-11)))
          CFI (cfiCond48) V8 load(1, XDATA, add(CFA_XSP16, literal(-10)))
          CFI (cfiCond48) V9 load(1, XDATA, add(CFA_XSP16, literal(-9)))
          CFI (cfiCond48) V10 load(1, XDATA, add(CFA_XSP16, literal(-8)))
          CFI (cfiCond48) V11 load(1, XDATA, add(CFA_XSP16, literal(-7)))
          CFI (cfiCond48) R7 load(1, XDATA, add(CFA_XSP16, literal(-6)))
          CFI (cfiCond48) ?RET_LOW load(1, XDATA, add(CFA_XSP16, literal(-5)))
          CFI (cfiCond48) ?RET_HIGH load(1, XDATA, add(CFA_XSP16, literal(-4)))
          CFI (cfiCond48) ?BRET_EXT load(1, XDATA, add(CFA_XSP16, literal(-3)))
          CFI (cfiCond48) DPL0 load(1, XDATA, add(CFA_XSP16, literal(-2)))
          CFI (cfiCond48) DPH0 load(1, XDATA, add(CFA_XSP16, literal(-1)))
          CFI (cfiCond48) CFA_SP SP+-2
          CFI (cfiCond48) CFA_XSP16 add(XSP16, 24)
          CFI Block cfiCond49 Using cfiCommon0
          CFI (cfiCond49) Function MAC_CbackEvent
          CFI (cfiCond49) Conditional ??CrossCallReturnLabel_28
          CFI (cfiCond49) R6 load(1, XDATA, add(CFA_XSP16, literal(-20)))
          CFI (cfiCond49) VB load(1, XDATA, add(CFA_XSP16, literal(-19)))
          CFI (cfiCond49) V0 load(1, XDATA, add(CFA_XSP16, literal(-18)))
          CFI (cfiCond49) V1 load(1, XDATA, add(CFA_XSP16, literal(-17)))
          CFI (cfiCond49) V2 load(1, XDATA, add(CFA_XSP16, literal(-16)))
          CFI (cfiCond49) V3 load(1, XDATA, add(CFA_XSP16, literal(-15)))
          CFI (cfiCond49) V4 load(1, XDATA, add(CFA_XSP16, literal(-14)))
          CFI (cfiCond49) V5 load(1, XDATA, add(CFA_XSP16, literal(-13)))
          CFI (cfiCond49) V6 load(1, XDATA, add(CFA_XSP16, literal(-12)))
          CFI (cfiCond49) V7 load(1, XDATA, add(CFA_XSP16, literal(-11)))
          CFI (cfiCond49) V8 load(1, XDATA, add(CFA_XSP16, literal(-10)))
          CFI (cfiCond49) V9 load(1, XDATA, add(CFA_XSP16, literal(-9)))
          CFI (cfiCond49) V10 load(1, XDATA, add(CFA_XSP16, literal(-8)))
          CFI (cfiCond49) V11 load(1, XDATA, add(CFA_XSP16, literal(-7)))
          CFI (cfiCond49) R7 load(1, XDATA, add(CFA_XSP16, literal(-6)))
          CFI (cfiCond49) ?RET_LOW load(1, XDATA, add(CFA_XSP16, literal(-5)))
          CFI (cfiCond49) ?RET_HIGH load(1, XDATA, add(CFA_XSP16, literal(-4)))
          CFI (cfiCond49) ?BRET_EXT load(1, XDATA, add(CFA_XSP16, literal(-3)))
          CFI (cfiCond49) DPL0 load(1, XDATA, add(CFA_XSP16, literal(-2)))
          CFI (cfiCond49) DPH0 load(1, XDATA, add(CFA_XSP16, literal(-1)))
          CFI (cfiCond49) CFA_SP SP+-2
          CFI (cfiCond49) CFA_XSP16 add(XSP16, 24)
          CFI Block cfiPicker50 Using cfiCommon1
          CFI (cfiPicker50) NoFunction
          CFI (cfiPicker50) Picker
        INC     DPTR
        INC     DPTR
        INC     DPTR
          CFI EndBlock cfiCond47
          CFI EndBlock cfiCond48
          CFI EndBlock cfiCond49
          CFI EndBlock cfiPicker50
        REQUIRE ??Subroutine14_0
        ; // Fall through to label ??Subroutine14_0

        RSEG BANKED_CODE:CODE:NOROOT(0)
??Subroutine14_0:
          CFI Block cfiCond51 Using cfiCommon0
          CFI Function MAC_CbackEvent
          CFI Conditional ??CrossCallReturnLabel_24
          CFI R6 load(1, XDATA, add(CFA_XSP16, literal(-20)))
          CFI VB load(1, XDATA, add(CFA_XSP16, literal(-19)))
          CFI V0 load(1, XDATA, add(CFA_XSP16, literal(-18)))
          CFI V1 load(1, XDATA, add(CFA_XSP16, literal(-17)))
          CFI V2 load(1, XDATA, add(CFA_XSP16, literal(-16)))
          CFI V3 load(1, XDATA, add(CFA_XSP16, literal(-15)))
          CFI V4 load(1, XDATA, add(CFA_XSP16, literal(-14)))
          CFI V5 load(1, XDATA, add(CFA_XSP16, literal(-13)))
          CFI V6 load(1, XDATA, add(CFA_XSP16, literal(-12)))
          CFI V7 load(1, XDATA, add(CFA_XSP16, literal(-11)))
          CFI V8 load(1, XDATA, add(CFA_XSP16, literal(-10)))
          CFI V9 load(1, XDATA, add(CFA_XSP16, literal(-9)))
          CFI V10 load(1, XDATA, add(CFA_XSP16, literal(-8)))
          CFI V11 load(1, XDATA, add(CFA_XSP16, literal(-7)))
          CFI R7 load(1, XDATA, add(CFA_XSP16, literal(-6)))
          CFI ?RET_LOW load(1, XDATA, add(CFA_XSP16, literal(-5)))
          CFI ?RET_HIGH load(1, XDATA, add(CFA_XSP16, literal(-4)))
          CFI ?BRET_EXT load(1, XDATA, add(CFA_XSP16, literal(-3)))
          CFI DPL0 load(1, XDATA, add(CFA_XSP16, literal(-2)))
          CFI DPH0 load(1, XDATA, add(CFA_XSP16, literal(-1)))
          CFI CFA_SP SP+-2
          CFI CFA_XSP16 add(XSP16, 24)
          CFI Block cfiCond52 Using cfiCommon0
          CFI (cfiCond52) Function MAC_CbackEvent
          CFI (cfiCond52) Conditional ??CrossCallReturnLabel_25
          CFI (cfiCond52) R6 load(1, XDATA, add(CFA_XSP16, literal(-20)))
          CFI (cfiCond52) VB load(1, XDATA, add(CFA_XSP16, literal(-19)))
          CFI (cfiCond52) V0 load(1, XDATA, add(CFA_XSP16, literal(-18)))
          CFI (cfiCond52) V1 load(1, XDATA, add(CFA_XSP16, literal(-17)))
          CFI (cfiCond52) V2 load(1, XDATA, add(CFA_XSP16, literal(-16)))
          CFI (cfiCond52) V3 load(1, XDATA, add(CFA_XSP16, literal(-15)))
          CFI (cfiCond52) V4 load(1, XDATA, add(CFA_XSP16, literal(-14)))
          CFI (cfiCond52) V5 load(1, XDATA, add(CFA_XSP16, literal(-13)))
          CFI (cfiCond52) V6 load(1, XDATA, add(CFA_XSP16, literal(-12)))
          CFI (cfiCond52) V7 load(1, XDATA, add(CFA_XSP16, literal(-11)))
          CFI (cfiCond52) V8 load(1, XDATA, add(CFA_XSP16, literal(-10)))
          CFI (cfiCond52) V9 load(1, XDATA, add(CFA_XSP16, literal(-9)))
          CFI (cfiCond52) V10 load(1, XDATA, add(CFA_XSP16, literal(-8)))
          CFI (cfiCond52) V11 load(1, XDATA, add(CFA_XSP16, literal(-7)))
          CFI (cfiCond52) R7 load(1, XDATA, add(CFA_XSP16, literal(-6)))
          CFI (cfiCond52) ?RET_LOW load(1, XDATA, add(CFA_XSP16, literal(-5)))
          CFI (cfiCond52) ?RET_HIGH load(1, XDATA, add(CFA_XSP16, literal(-4)))
          CFI (cfiCond52) ?BRET_EXT load(1, XDATA, add(CFA_XSP16, literal(-3)))
          CFI (cfiCond52) DPL0 load(1, XDATA, add(CFA_XSP16, literal(-2)))
          CFI (cfiCond52) DPH0 load(1, XDATA, add(CFA_XSP16, literal(-1)))
          CFI (cfiCond52) CFA_SP SP+-2
          CFI (cfiCond52) CFA_XSP16 add(XSP16, 24)
          CFI Block cfiCond53 Using cfiCommon0
          CFI (cfiCond53) Function MAC_CbackEvent
          CFI (cfiCond53) Conditional ??CrossCallReturnLabel_26
          CFI (cfiCond53) R6 load(1, XDATA, add(CFA_XSP16, literal(-20)))
          CFI (cfiCond53) VB load(1, XDATA, add(CFA_XSP16, literal(-19)))
          CFI (cfiCond53) V0 load(1, XDATA, add(CFA_XSP16, literal(-18)))
          CFI (cfiCond53) V1 load(1, XDATA, add(CFA_XSP16, literal(-17)))
          CFI (cfiCond53) V2 load(1, XDATA, add(CFA_XSP16, literal(-16)))
          CFI (cfiCond53) V3 load(1, XDATA, add(CFA_XSP16, literal(-15)))
          CFI (cfiCond53) V4 load(1, XDATA, add(CFA_XSP16, literal(-14)))
          CFI (cfiCond53) V5 load(1, XDATA, add(CFA_XSP16, literal(-13)))
          CFI (cfiCond53) V6 load(1, XDATA, add(CFA_XSP16, literal(-12)))
          CFI (cfiCond53) V7 load(1, XDATA, add(CFA_XSP16, literal(-11)))
          CFI (cfiCond53) V8 load(1, XDATA, add(CFA_XSP16, literal(-10)))
          CFI (cfiCond53) V9 load(1, XDATA, add(CFA_XSP16, literal(-9)))
          CFI (cfiCond53) V10 load(1, XDATA, add(CFA_XSP16, literal(-8)))
          CFI (cfiCond53) V11 load(1, XDATA, add(CFA_XSP16, literal(-7)))
          CFI (cfiCond53) R7 load(1, XDATA, add(CFA_XSP16, literal(-6)))
          CFI (cfiCond53) ?RET_LOW load(1, XDATA, add(CFA_XSP16, literal(-5)))
          CFI (cfiCond53) ?RET_HIGH load(1, XDATA, add(CFA_XSP16, literal(-4)))
          CFI (cfiCond53) ?BRET_EXT load(1, XDATA, add(CFA_XSP16, literal(-3)))
          CFI (cfiCond53) DPL0 load(1, XDATA, add(CFA_XSP16, literal(-2)))
          CFI (cfiCond53) DPH0 load(1, XDATA, add(CFA_XSP16, literal(-1)))
          CFI (cfiCond53) CFA_SP SP+-2
          CFI (cfiCond53) CFA_XSP16 add(XSP16, 24)
          CFI Block cfiCond54 Using cfiCommon0
          CFI (cfiCond54) Function MAC_CbackEvent
          CFI (cfiCond54) Conditional ??CrossCallReturnLabel_27
          CFI (cfiCond54) R6 load(1, XDATA, add(CFA_XSP16, literal(-20)))
          CFI (cfiCond54) VB load(1, XDATA, add(CFA_XSP16, literal(-19)))
          CFI (cfiCond54) V0 load(1, XDATA, add(CFA_XSP16, literal(-18)))
          CFI (cfiCond54) V1 load(1, XDATA, add(CFA_XSP16, literal(-17)))
          CFI (cfiCond54) V2 load(1, XDATA, add(CFA_XSP16, literal(-16)))
          CFI (cfiCond54) V3 load(1, XDATA, add(CFA_XSP16, literal(-15)))
          CFI (cfiCond54) V4 load(1, XDATA, add(CFA_XSP16, literal(-14)))
          CFI (cfiCond54) V5 load(1, XDATA, add(CFA_XSP16, literal(-13)))
          CFI (cfiCond54) V6 load(1, XDATA, add(CFA_XSP16, literal(-12)))
          CFI (cfiCond54) V7 load(1, XDATA, add(CFA_XSP16, literal(-11)))
          CFI (cfiCond54) V8 load(1, XDATA, add(CFA_XSP16, literal(-10)))
          CFI (cfiCond54) V9 load(1, XDATA, add(CFA_XSP16, literal(-9)))
          CFI (cfiCond54) V10 load(1, XDATA, add(CFA_XSP16, literal(-8)))
          CFI (cfiCond54) V11 load(1, XDATA, add(CFA_XSP16, literal(-7)))
          CFI (cfiCond54) R7 load(1, XDATA, add(CFA_XSP16, literal(-6)))
          CFI (cfiCond54) ?RET_LOW load(1, XDATA, add(CFA_XSP16, literal(-5)))
          CFI (cfiCond54) ?RET_HIGH load(1, XDATA, add(CFA_XSP16, literal(-4)))
          CFI (cfiCond54) ?BRET_EXT load(1, XDATA, add(CFA_XSP16, literal(-3)))
          CFI (cfiCond54) DPL0 load(1, XDATA, add(CFA_XSP16, literal(-2)))
          CFI (cfiCond54) DPH0 load(1, XDATA, add(CFA_XSP16, literal(-1)))
          CFI (cfiCond54) CFA_SP SP+-2
          CFI (cfiCond54) CFA_XSP16 add(XSP16, 24)
          CFI Block cfiCond55 Using cfiCommon0
          CFI (cfiCond55) Function MAC_CbackEvent
          CFI (cfiCond55) Conditional ??CrossCallReturnLabel_28
          CFI (cfiCond55) R6 load(1, XDATA, add(CFA_XSP16, literal(-20)))
          CFI (cfiCond55) VB load(1, XDATA, add(CFA_XSP16, literal(-19)))
          CFI (cfiCond55) V0 load(1, XDATA, add(CFA_XSP16, literal(-18)))
          CFI (cfiCond55) V1 load(1, XDATA, add(CFA_XSP16, literal(-17)))
          CFI (cfiCond55) V2 load(1, XDATA, add(CFA_XSP16, literal(-16)))
          CFI (cfiCond55) V3 load(1, XDATA, add(CFA_XSP16, literal(-15)))
          CFI (cfiCond55) V4 load(1, XDATA, add(CFA_XSP16, literal(-14)))
          CFI (cfiCond55) V5 load(1, XDATA, add(CFA_XSP16, literal(-13)))
          CFI (cfiCond55) V6 load(1, XDATA, add(CFA_XSP16, literal(-12)))
          CFI (cfiCond55) V7 load(1, XDATA, add(CFA_XSP16, literal(-11)))
          CFI (cfiCond55) V8 load(1, XDATA, add(CFA_XSP16, literal(-10)))
          CFI (cfiCond55) V9 load(1, XDATA, add(CFA_XSP16, literal(-9)))
          CFI (cfiCond55) V10 load(1, XDATA, add(CFA_XSP16, literal(-8)))
          CFI (cfiCond55) V11 load(1, XDATA, add(CFA_XSP16, literal(-7)))
          CFI (cfiCond55) R7 load(1, XDATA, add(CFA_XSP16, literal(-6)))
          CFI (cfiCond55) ?RET_LOW load(1, XDATA, add(CFA_XSP16, literal(-5)))
          CFI (cfiCond55) ?RET_HIGH load(1, XDATA, add(CFA_XSP16, literal(-4)))
          CFI (cfiCond55) ?BRET_EXT load(1, XDATA, add(CFA_XSP16, literal(-3)))
          CFI (cfiCond55) DPL0 load(1, XDATA, add(CFA_XSP16, literal(-2)))
          CFI (cfiCond55) DPH0 load(1, XDATA, add(CFA_XSP16, literal(-1)))
          CFI (cfiCond55) CFA_SP SP+-2
          CFI (cfiCond55) CFA_XSP16 add(XSP16, 24)
          CFI Block cfiPicker56 Using cfiCommon1
          CFI (cfiPicker56) NoFunction
          CFI (cfiPicker56) Picker
        MOVX    A,@DPTR
        MOV     R0,A
        INC     DPTR
        MOVX    A,@DPTR
        MOV     R1,A
        MOV     A,R0
        ORL     A,R1
        RET
          CFI EndBlock cfiCond51
          CFI EndBlock cfiCond52
          CFI EndBlock cfiCond53
          CFI EndBlock cfiCond54
          CFI EndBlock cfiCond55
          CFI EndBlock cfiPicker56

        RSEG BANKED_CODE:CODE:NOROOT(0)
?Subroutine2:
          CFI Block cfiCond57 Using cfiCommon0
          CFI Function MAC_CbackEvent
          CFI Conditional ??CrossCallReturnLabel_2
          CFI R6 load(1, XDATA, add(CFA_XSP16, literal(-20)))
          CFI VB load(1, XDATA, add(CFA_XSP16, literal(-19)))
          CFI V0 load(1, XDATA, add(CFA_XSP16, literal(-18)))
          CFI V1 load(1, XDATA, add(CFA_XSP16, literal(-17)))
          CFI V2 load(1, XDATA, add(CFA_XSP16, literal(-16)))
          CFI V3 load(1, XDATA, add(CFA_XSP16, literal(-15)))
          CFI V4 load(1, XDATA, add(CFA_XSP16, literal(-14)))
          CFI V5 load(1, XDATA, add(CFA_XSP16, literal(-13)))
          CFI V6 load(1, XDATA, add(CFA_XSP16, literal(-12)))
          CFI V7 load(1, XDATA, add(CFA_XSP16, literal(-11)))
          CFI V8 load(1, XDATA, add(CFA_XSP16, literal(-10)))
          CFI V9 load(1, XDATA, add(CFA_XSP16, literal(-9)))
          CFI V10 load(1, XDATA, add(CFA_XSP16, literal(-8)))
          CFI V11 load(1, XDATA, add(CFA_XSP16, literal(-7)))
          CFI R7 load(1, XDATA, add(CFA_XSP16, literal(-6)))
          CFI ?RET_LOW load(1, XDATA, add(CFA_XSP16, literal(-5)))
          CFI ?RET_HIGH load(1, XDATA, add(CFA_XSP16, literal(-4)))
          CFI ?BRET_EXT load(1, XDATA, add(CFA_XSP16, literal(-3)))
          CFI DPL0 load(1, XDATA, add(CFA_XSP16, literal(-2)))
          CFI DPH0 load(1, XDATA, add(CFA_XSP16, literal(-1)))
          CFI CFA_SP SP+-2
          CFI CFA_XSP16 add(XSP16, 24)
          CFI Block cfiCond58 Using cfiCommon0
          CFI (cfiCond58) Function MAC_CbackEvent
          CFI (cfiCond58) Conditional ??CrossCallReturnLabel_3
          CFI (cfiCond58) R6 load(1, XDATA, add(CFA_XSP16, literal(-20)))
          CFI (cfiCond58) VB load(1, XDATA, add(CFA_XSP16, literal(-19)))
          CFI (cfiCond58) V0 load(1, XDATA, add(CFA_XSP16, literal(-18)))
          CFI (cfiCond58) V1 load(1, XDATA, add(CFA_XSP16, literal(-17)))
          CFI (cfiCond58) V2 load(1, XDATA, add(CFA_XSP16, literal(-16)))
          CFI (cfiCond58) V3 load(1, XDATA, add(CFA_XSP16, literal(-15)))
          CFI (cfiCond58) V4 load(1, XDATA, add(CFA_XSP16, literal(-14)))
          CFI (cfiCond58) V5 load(1, XDATA, add(CFA_XSP16, literal(-13)))
          CFI (cfiCond58) V6 load(1, XDATA, add(CFA_XSP16, literal(-12)))
          CFI (cfiCond58) V7 load(1, XDATA, add(CFA_XSP16, literal(-11)))
          CFI (cfiCond58) V8 load(1, XDATA, add(CFA_XSP16, literal(-10)))
          CFI (cfiCond58) V9 load(1, XDATA, add(CFA_XSP16, literal(-9)))
          CFI (cfiCond58) V10 load(1, XDATA, add(CFA_XSP16, literal(-8)))
          CFI (cfiCond58) V11 load(1, XDATA, add(CFA_XSP16, literal(-7)))
          CFI (cfiCond58) R7 load(1, XDATA, add(CFA_XSP16, literal(-6)))
          CFI (cfiCond58) ?RET_LOW load(1, XDATA, add(CFA_XSP16, literal(-5)))
          CFI (cfiCond58) ?RET_HIGH load(1, XDATA, add(CFA_XSP16, literal(-4)))
          CFI (cfiCond58) ?BRET_EXT load(1, XDATA, add(CFA_XSP16, literal(-3)))
          CFI (cfiCond58) DPL0 load(1, XDATA, add(CFA_XSP16, literal(-2)))
          CFI (cfiCond58) DPH0 load(1, XDATA, add(CFA_XSP16, literal(-1)))
          CFI (cfiCond58) CFA_SP SP+-2
          CFI (cfiCond58) CFA_XSP16 add(XSP16, 24)
          CFI Block cfiCond59 Using cfiCommon0
          CFI (cfiCond59) Function MAC_CbackEvent
          CFI (cfiCond59) Conditional ??CrossCallReturnLabel_4
          CFI (cfiCond59) R6 load(1, XDATA, add(CFA_XSP16, literal(-20)))
          CFI (cfiCond59) VB load(1, XDATA, add(CFA_XSP16, literal(-19)))
          CFI (cfiCond59) V0 load(1, XDATA, add(CFA_XSP16, literal(-18)))
          CFI (cfiCond59) V1 load(1, XDATA, add(CFA_XSP16, literal(-17)))
          CFI (cfiCond59) V2 load(1, XDATA, add(CFA_XSP16, literal(-16)))
          CFI (cfiCond59) V3 load(1, XDATA, add(CFA_XSP16, literal(-15)))
          CFI (cfiCond59) V4 load(1, XDATA, add(CFA_XSP16, literal(-14)))
          CFI (cfiCond59) V5 load(1, XDATA, add(CFA_XSP16, literal(-13)))
          CFI (cfiCond59) V6 load(1, XDATA, add(CFA_XSP16, literal(-12)))
          CFI (cfiCond59) V7 load(1, XDATA, add(CFA_XSP16, literal(-11)))
          CFI (cfiCond59) V8 load(1, XDATA, add(CFA_XSP16, literal(-10)))
          CFI (cfiCond59) V9 load(1, XDATA, add(CFA_XSP16, literal(-9)))
          CFI (cfiCond59) V10 load(1, XDATA, add(CFA_XSP16, literal(-8)))
          CFI (cfiCond59) V11 load(1, XDATA, add(CFA_XSP16, literal(-7)))
          CFI (cfiCond59) R7 load(1, XDATA, add(CFA_XSP16, literal(-6)))
          CFI (cfiCond59) ?RET_LOW load(1, XDATA, add(CFA_XSP16, literal(-5)))
          CFI (cfiCond59) ?RET_HIGH load(1, XDATA, add(CFA_XSP16, literal(-4)))
          CFI (cfiCond59) ?BRET_EXT load(1, XDATA, add(CFA_XSP16, literal(-3)))
          CFI (cfiCond59) DPL0 load(1, XDATA, add(CFA_XSP16, literal(-2)))
          CFI (cfiCond59) DPH0 load(1, XDATA, add(CFA_XSP16, literal(-1)))
          CFI (cfiCond59) CFA_SP SP+-2
          CFI (cfiCond59) CFA_XSP16 add(XSP16, 24)
          CFI Block cfiPicker60 Using cfiCommon1
          CFI (cfiPicker60) NoFunction
          CFI (cfiPicker60) Picker
        LCALL   ?Subroutine10 & 0xFFFF
??CrossCallReturnLabel_20:
        INC     DPTR
        INC     DPTR
        MOVX    A,@DPTR
        MOV     R0,A
        INC     DPTR
        MOVX    A,@DPTR
        RET
          CFI EndBlock cfiCond57
          CFI EndBlock cfiCond58
          CFI EndBlock cfiCond59
          CFI EndBlock cfiPicker60

        RSEG BANKED_CODE:CODE:NOROOT(0)
?Subroutine1:
          CFI Block cfiCond61 Using cfiCommon0
          CFI Function MAC_CbackEvent
          CFI Conditional ??CrossCallReturnLabel_0
          CFI R6 load(1, XDATA, add(CFA_XSP16, literal(-20)))
          CFI VB load(1, XDATA, add(CFA_XSP16, literal(-19)))
          CFI V0 load(1, XDATA, add(CFA_XSP16, literal(-18)))
          CFI V1 load(1, XDATA, add(CFA_XSP16, literal(-17)))
          CFI V2 load(1, XDATA, add(CFA_XSP16, literal(-16)))
          CFI V3 load(1, XDATA, add(CFA_XSP16, literal(-15)))
          CFI V4 load(1, XDATA, add(CFA_XSP16, literal(-14)))
          CFI V5 load(1, XDATA, add(CFA_XSP16, literal(-13)))
          CFI V6 load(1, XDATA, add(CFA_XSP16, literal(-12)))
          CFI V7 load(1, XDATA, add(CFA_XSP16, literal(-11)))
          CFI V8 load(1, XDATA, add(CFA_XSP16, literal(-10)))
          CFI V9 load(1, XDATA, add(CFA_XSP16, literal(-9)))
          CFI V10 load(1, XDATA, add(CFA_XSP16, literal(-8)))
          CFI V11 load(1, XDATA, add(CFA_XSP16, literal(-7)))
          CFI R7 load(1, XDATA, add(CFA_XSP16, literal(-6)))
          CFI ?RET_LOW load(1, XDATA, add(CFA_XSP16, literal(-5)))
          CFI ?RET_HIGH load(1, XDATA, add(CFA_XSP16, literal(-4)))
          CFI ?BRET_EXT load(1, XDATA, add(CFA_XSP16, literal(-3)))
          CFI DPL0 load(1, XDATA, add(CFA_XSP16, literal(-2)))
          CFI DPH0 load(1, XDATA, add(CFA_XSP16, literal(-1)))
          CFI CFA_SP SP+-2
          CFI CFA_XSP16 add(XSP16, 24)
          CFI Block cfiCond62 Using cfiCommon0
          CFI (cfiCond62) Function MAC_CbackEvent
          CFI (cfiCond62) Conditional ??CrossCallReturnLabel_1
          CFI (cfiCond62) R6 load(1, XDATA, add(CFA_XSP16, literal(-20)))
          CFI (cfiCond62) VB load(1, XDATA, add(CFA_XSP16, literal(-19)))
          CFI (cfiCond62) V0 load(1, XDATA, add(CFA_XSP16, literal(-18)))
          CFI (cfiCond62) V1 load(1, XDATA, add(CFA_XSP16, literal(-17)))
          CFI (cfiCond62) V2 load(1, XDATA, add(CFA_XSP16, literal(-16)))
          CFI (cfiCond62) V3 load(1, XDATA, add(CFA_XSP16, literal(-15)))
          CFI (cfiCond62) V4 load(1, XDATA, add(CFA_XSP16, literal(-14)))
          CFI (cfiCond62) V5 load(1, XDATA, add(CFA_XSP16, literal(-13)))
          CFI (cfiCond62) V6 load(1, XDATA, add(CFA_XSP16, literal(-12)))
          CFI (cfiCond62) V7 load(1, XDATA, add(CFA_XSP16, literal(-11)))
          CFI (cfiCond62) V8 load(1, XDATA, add(CFA_XSP16, literal(-10)))
          CFI (cfiCond62) V9 load(1, XDATA, add(CFA_XSP16, literal(-9)))
          CFI (cfiCond62) V10 load(1, XDATA, add(CFA_XSP16, literal(-8)))
          CFI (cfiCond62) V11 load(1, XDATA, add(CFA_XSP16, literal(-7)))
          CFI (cfiCond62) R7 load(1, XDATA, add(CFA_XSP16, literal(-6)))
          CFI (cfiCond62) ?RET_LOW load(1, XDATA, add(CFA_XSP16, literal(-5)))
          CFI (cfiCond62) ?RET_HIGH load(1, XDATA, add(CFA_XSP16, literal(-4)))
          CFI (cfiCond62) ?BRET_EXT load(1, XDATA, add(CFA_XSP16, literal(-3)))
          CFI (cfiCond62) DPL0 load(1, XDATA, add(CFA_XSP16, literal(-2)))
          CFI (cfiCond62) DPH0 load(1, XDATA, add(CFA_XSP16, literal(-1)))
          CFI (cfiCond62) CFA_SP SP+-2
          CFI (cfiCond62) CFA_XSP16 add(XSP16, 24)
          CFI Block cfiPicker63 Using cfiCommon1
          CFI (cfiPicker63) NoFunction
          CFI (cfiPicker63) Picker
        MOV     A,?V0
        MOVX    @DPTR,A
        INC     DPTR
        MOV     A,?V1
        MOVX    @DPTR,A
        ; Setup parameters for call to function osal_memcpy
        ; Setup parameters for call to function osal_memcpy
        MOV     ?V4,R0
        MOV     ?V5,R1
        MOV     ?V6,#0x0
        MOV     R0,#?V4
        RET
          CFI EndBlock cfiCond61
          CFI EndBlock cfiCond62
          CFI EndBlock cfiPicker63
//  317 #else  // ifdef MT_MAC_CB_FUNC
//  318 {
//  319   /* Check if MT has subscribed for this callback If so, pass it as an event to MonitorTest */
//  320   switch (pData->hdr.event)
//  321   {
//  322     case MAC_MLME_ASSOCIATE_IND:
//  323       if ( _macCallbackSub & CB_ID_NWK_ASSOCIATE_IND )
//  324         nwk_MTCallbackSubNwkAssociateInd ( (ZMacAssociateInd_t *)pData );
//  325       break;
//  326 
//  327     case MAC_MLME_ASSOCIATE_CNF:
//  328       if ( _macCallbackSub & CB_ID_NWK_ASSOCIATE_CNF )
//  329         nwk_MTCallbackSubNwkAssociateCnf ( (ZMacAssociateCnf_t *)pData );
//  330       break;
//  331 
//  332     case MAC_MLME_DISASSOCIATE_IND:
//  333       if ( _macCallbackSub & CB_ID_NWK_DISASSOCIATE_IND )
//  334         nwk_MTCallbackSubNwkDisassociateInd ( (ZMacDisassociateInd_t *)pData );
//  335       break;
//  336 
//  337     case MAC_MLME_DISASSOCIATE_CNF:
//  338       if ( _macCallbackSub & CB_ID_NWK_DISASSOCIATE_CNF )
//  339         nwk_MTCallbackSubNwkDisassociateCnf ( (ZMacDisassociateCnf_t *)pData );
//  340       break;
//  341 
//  342     case MAC_MLME_BEACON_NOTIFY_IND:
//  343       if ( _macCallbackSub & CB_ID_NWK_BEACON_NOTIFY_IND )
//  344         nwk_MTCallbackSubNwkBeaconNotifyInd( (ZMacBeaconNotifyInd_t *)pData );
//  345       break;
//  346 
//  347     case MAC_MLME_ORPHAN_IND:
//  348       if ( _macCallbackSub & CB_ID_NWK_ORPHAN_IND )
//  349         nwk_MTCallbackSubNwkOrphanInd( (ZMacOrphanInd_t *) pData );
//  350       break;
//  351 
//  352     case MAC_MLME_SCAN_CNF:
//  353       if ( _macCallbackSub & CB_ID_NWK_SCAN_CNF )
//  354       {
//  355         pData->scanCnf.result.pEnergyDetect = ZMac_ScanBuf;
//  356         nwk_MTCallbackSubNwkScanCnf ( (ZMacScanCnf_t *) pData );
//  357       }
//  358 
//  359       if (ZMac_ScanBuf != NULL)
//  360       {
//  361         void *pTmp = ZMac_ScanBuf;
//  362         ZMac_ScanBuf = NULL;
//  363         osal_mem_free(pTmp);
//  364       }
//  365       break;
//  366 
//  367     case MAC_MLME_START_CNF:
//  368       if ( _macCallbackSub & CB_ID_NWK_START_CNF )
//  369         nwk_MTCallbackSubNwkStartCnf ( pData->hdr.status );
//  370       break;
//  371 
//  372     case MAC_MLME_SYNC_LOSS_IND:
//  373       if ( _macCallbackSub & CB_ID_NWK_SYNC_LOSS_IND )
//  374        nwk_MTCallbackSubNwkSyncLossInd( (ZMacSyncLossInd_t *) pData );
//  375       break;
//  376 
//  377     case MAC_MLME_POLL_CNF:
//  378       if ( _macCallbackSub & CB_ID_NWK_POLL_CNF )
//  379          nwk_MTCallbackSubNwkPollCnf( pData->hdr.status );
//  380       break;
//  381 
//  382     case MAC_MLME_COMM_STATUS_IND:
//  383       if ( _macCallbackSub & CB_ID_NWK_COMM_STATUS_IND )
//  384         nwk_MTCallbackSubCommStatusInd ( (ZMacCommStatusInd_t *) pData );
//  385       break;
//  386 
//  387     case MAC_MCPS_DATA_CNF:
//  388       if (pData->dataCnf.pDataReq != NULL)
//  389         mac_msg_deallocate((uint8**)&pData->dataCnf.pDataReq);
//  390 
//  391       if ( _macCallbackSub & CB_ID_NWK_DATA_CNF )
//  392         nwk_MTCallbackSubNwkDataCnf( (ZMacDataCnf_t *) pData );
//  393       break;
//  394 
//  395     case MAC_MCPS_DATA_IND:
//  396       {
//  397         /*
//  398            Data Ind is unconventional: to save an alloc/copy, reuse the MAC
//  399            buffer and re-organize the contents into ZMAC format.
//  400         */
//  401         ZMacDataInd_t *pDataInd = (ZMacDataInd_t *) pData;
//  402         uint8 event, status, len, *msdu;
//  403 
//  404         /* Store parameters */
//  405         event = pData->hdr.event;
//  406         status = pData->hdr.status;
//  407         len = pData->dataInd.msdu.len;
//  408         msdu = pData->dataInd.msdu.p;
//  409 
//  410         /* Copy security fields */
//  411         osal_memcpy(&pDataInd->Sec, &pData->dataInd.sec, sizeof(ZMacSec_t));
//  412         
//  413         /* Copy mac fields one by one since the two buffers overlap. */
//  414         osal_memcpy(&pDataInd->SrcAddr, &pData->dataInd.mac.srcAddr, sizeof(zAddrType_t));
//  415         osal_memcpy(&pDataInd->DstAddr, &pData->dataInd.mac.dstAddr, sizeof(zAddrType_t));
//  416         pDataInd->Timestamp = pData->dataInd.mac.timestamp;
//  417         pDataInd->Timestamp2 = pData->dataInd.mac.timestamp2;
//  418         pDataInd->SrcPANId = pData->dataInd.mac.srcPanId;
//  419         pDataInd->DstPANId = pData->dataInd.mac.dstPanId;
//  420         pDataInd->mpduLinkQuality = pData->dataInd.mac.mpduLinkQuality;
//  421         pDataInd->Correlation = pData->dataInd.mac.correlation;
//  422         pDataInd->Rssi = pData->dataInd.mac.rssi;
//  423         pDataInd->Dsn = pData->dataInd.mac.dsn;
//  424 
//  425         /* Restore parameters */
//  426         pDataInd->hdr.Status = status;
//  427         pDataInd->hdr.Event = event;
//  428         pDataInd->msduLength = len;
//  429 
//  430         if (len)
//  431           pDataInd->msdu = msdu;
//  432         else
//  433           pDataInd->msdu = NULL;
//  434 
//  435         if ( _macCallbackSub & CB_ID_NWK_DATA_IND )
//  436           nwk_MTCallbackSubNwkDataInd ( pDataInd );
//  437       }
//  438 
//  439       /* free buffer */
//  440       mac_msg_deallocate( (uint8 **)&pData );
//  441       break;
//  442 
//  443     case MAC_MCPS_PURGE_CNF:
//  444       if ( _macCallbackSub & CB_ID_NWK_PURGE_CNF )
//  445         nwk_MTCallbackSubNwkPurgeCnf( (ZMacPurgeCnf_t *) pData);
//  446       break;
//  447 
//  448     case MAC_MLME_POLL_IND:
//  449       if ( _macCallbackSub & CB_ID_NWK_ASSOCIATE_IND )
//  450          nwk_MTCallbackSubNwkPollInd( (ZMacPollInd_t *)pData );
//  451       break;
//  452 
//  453     default:
//  454       break;
//  455   }
//  456 }
//  457 #endif
//  458 
//  459 /********************************************************************************************************
//  460  * @fn      MAC_CbackCheckPending
//  461  *
//  462  * @brief   Return number of pending indirect msg
//  463  *
//  464  * @param   None
//  465  *
//  466  * @return  Number of indirect msg holding
//  467  ********************************************************************************************************/

        RSEG BANKED_CODE:CODE:NOROOT(0)
//  468 uint8 MAC_CbackCheckPending(void)
MAC_CbackCheckPending:
          CFI Block cfiBlock64 Using cfiCommon0
          CFI Function MAC_CbackCheckPending
        CODE
//  469 {
        FUNCALL MAC_CbackCheckPending, nwkDB_ReturnIndirectHoldingCnt
        LOCFRAME ISTACK, 2, STACK
        LOCFRAME PSTACK, 0, STACK
        LOCFRAME XSTACK, 0, STACK
        LOCFRAME IOVERLAY, 0, STATIC
        LOCFRAME DOVERLAY, 0, STATIC
        ARGFRAME ISTACK, 2, STACK
        ARGFRAME PSTACK, 0, STACK
        ARGFRAME XSTACK, 0, STACK
        ARGFRAME IOVERLAY, 0, STATIC
        ARGFRAME DOVERLAY, 0, STATIC
        PUSH    DPL
          CFI DPL0 Frame(CFA_SP, 4)
          CFI CFA_SP SP+-4
        PUSH    DPH
          CFI DPH0 Frame(CFA_SP, 5)
          CFI CFA_SP SP+-5
        ; Saved register size: 2
        ; Auto size: 0
//  470 #if !defined (NONWK)
//  471   if ( ZSTACK_ROUTER_BUILD )
        MOV     DPTR,#zgDeviceLogicalType
        MOVX    A,@DPTR
        JZ      ??MAC_CbackCheckPending_0
        XRL     A,#0x1
        JNZ     ??MAC_CbackCheckPending_1
//  472   {
//  473     return (nwkDB_ReturnIndirectHoldingCnt());
??MAC_CbackCheckPending_0:
        ; Setup parameters for call to function nwkDB_ReturnIndirectHoldingCnt
        LCALL   `??nwkDB_ReturnIndirectHoldingCnt::?relay`; Banked call to: nwkDB_ReturnIndirectHoldingCnt
        SJMP    ??MAC_CbackCheckPending_2
//  474   }
//  475   else
//  476   {
//  477     return (0);
??MAC_CbackCheckPending_1:
        MOV     R1,#0x0
//  478   }
??MAC_CbackCheckPending_2:
          CFI EndBlock cfiBlock64
        REQUIRE ?Subroutine0
        ; // Fall through to label ?Subroutine0
//  479 #else
//  480   return (0);
//  481 #endif
//  482 }

        RSEG BANKED_CODE:CODE:NOROOT(0)
?Subroutine0:
          CFI Block cfiBlock65 Using cfiCommon0
          CFI NoFunction
          CFI CFA_SP SP+-5
          CFI DPL0 Frame(CFA_SP, 4)
          CFI DPH0 Frame(CFA_SP, 5)
        POP     DPH
          CFI CFA_SP SP+-4
          CFI DPH0 SameValue
        POP     DPL
          CFI CFA_SP SP+-3
          CFI DPL0 SameValue
        LJMP    ?BRET
          CFI EndBlock cfiBlock65
//  483 
//  484 /**************************************************************************************************
//  485  * @fn          MAC_CbackQueryRetransmit
//  486  *
//  487  * @brief       This function callback function returns whether or not to continue MAC
//  488  *              retransmission.
//  489  *              A return value '0x00' will indicate no continuation of retry and a return value
//  490  *              '0x01' will indicate to continue retransmission. This callback function shall be
//  491  *              used to stop continuing retransmission for RF4CE.
//  492  *              MAC shall call this callback function whenever it finishes transmitting a packet
//  493  *              for macMaxFrameRetries times.
//  494  *
//  495  * input parameters
//  496  *
//  497  * None.
//  498  *
//  499  * output parameters
//  500  *
//  501  * None.
//  502  *
//  503  * @return      0x00 to stop retransmission, 0x01 to continue retransmission.
//  504  **************************************************************************************************
//  505 */

        RSEG BANKED_CODE:CODE:NOROOT(0)
//  506 uint8 MAC_CbackQueryRetransmit(void)
MAC_CbackQueryRetransmit:
          CFI Block cfiBlock66 Using cfiCommon0
          CFI Function MAC_CbackQueryRetransmit
        CODE
//  507 {
        ; Saved register size: 0
        ; Auto size: 0
//  508   return(0);
        MOV     R1,#0x0
        LJMP    ?BRET
//  509 }
          CFI EndBlock cfiBlock66
//  510 
//  511 /********************************************************************************************************
//  512  * @fn      ZMacLqiAdjustMode
//  513  *
//  514  * @brief   Sets/return LQI adjust mode
//  515  *
//  516  * @param   mode - LQI_ADJ_GET = return current mode only
//  517  *                 LQI_ADJ_OFF = disable LQI adjusts
//  518  *                 LQI_ADJ_MODEx = set to LQI adjust MODEx
//  519  *
//  520  * @return  current LQI adjust mode
//  521  ********************************************************************************************************/

        RSEG BANKED_CODE:CODE:NOROOT(0)
//  522 ZMacLqiAdjust_t ZMacLqiAdjustMode( ZMacLqiAdjust_t mode )
ZMacLqiAdjustMode:
          CFI Block cfiBlock67 Using cfiCommon0
          CFI Function ZMacLqiAdjustMode
        CODE
//  523 {
        PUSH    DPL
          CFI DPL0 Frame(CFA_SP, 4)
          CFI CFA_SP SP+-4
        PUSH    DPH
          CFI DPH0 Frame(CFA_SP, 5)
          CFI CFA_SP SP+-5
        ; Saved register size: 2
        ; Auto size: 0
        MOV     A,R1
        MOV     R0,A
//  524   if ( mode != LQI_ADJ_GET )
        MOV     A,#-0x1
        XRL     A,R0
        JZ      ??ZMacLqiAdjustMode_0
//  525   {
//  526     lqiAdjMode = mode;
        MOV     A,R0
        MOV     DPTR,#lqiAdjMode
        MOVX    @DPTR,A
//  527   }
//  528   return ( lqiAdjMode );
??ZMacLqiAdjustMode_0:
        MOV     DPTR,#lqiAdjMode
        MOVX    A,@DPTR
        MOV     R1,A
        SJMP    ?Subroutine0
//  529 }
          CFI EndBlock cfiBlock67
//  530 
//  531 #if !defined NONWK
//  532 /********************************************************************************************************
//  533  * @fn      ZMacLqiAdjust
//  534  *
//  535  * @brief   Adjust LQI according to correlation value
//  536  *
//  537  * @notes - the IEEE 802.15.4 specification provides some general statements on
//  538  *          the subject of LQI. Section 6.7.8: "The minimum and maximum LQI values
//  539  *          (0x00 and 0xFF) should be associated with the lowest and highest IEEE
//  540  *          802.15.4 signals detectable by the receiver, and LQ values should be
//  541  *          uniformly distributed between these two limits." Section E.2.3: "The
//  542  *          LQI (see 6.7.8) measures the received energy and/or SNR for each
//  543  *          received packet. When energy level and SNR information are combined,
//  544  *          they can indicate whether a corrupt packet resulted from low signal
//  545  *          strength or from high signal strength plus interference."
//  546  *        - LQI Adjustment Mode1 provided below is a simple algorithm to use the
//  547  *          packet correlation value (related to SNR) to scale incoming LQI value
//  548  *          (related to signal strength) to 'derate' noisy packets.
//  549  *        - LQI Adjustment Mode2 provided below is a location for a developer to
//  550  *          implement their own proprietary LQI adjustment algorithm.
//  551  *
//  552  * @param   corr - packet correlation value
//  553  * @param   lqi  - ptr to link quality (scaled rssi)
//  554  *
//  555  * @return  *lqi - adjusted link quality
//  556  ********************************************************************************************************/

        RSEG BANKED_CODE:CODE:NOROOT(0)
//  557 static void ZMacLqiAdjust( uint8 corr, uint8 *lqi )
ZMacLqiAdjust:
          CFI Block cfiBlock68 Using cfiCommon0
          CFI Function ZMacLqiAdjust
        CODE
//  558 {
        REQUIRE ?V0
        REQUIRE ?V1
        MOV     A,#-0xa
        LCALL   ?BANKED_ENTER_XDATA
          CFI DPH0 load(1, XDATA, add(CFA_XSP16, literal(-1)))
          CFI DPL0 load(1, XDATA, add(CFA_XSP16, literal(-2)))
          CFI ?BRET_EXT load(1, XDATA, add(CFA_XSP16, literal(-3)))
          CFI ?RET_HIGH load(1, XDATA, add(CFA_XSP16, literal(-4)))
          CFI ?RET_LOW load(1, XDATA, add(CFA_XSP16, literal(-5)))
          CFI R7 load(1, XDATA, add(CFA_XSP16, literal(-6)))
          CFI V1 load(1, XDATA, add(CFA_XSP16, literal(-7)))
          CFI V0 load(1, XDATA, add(CFA_XSP16, literal(-8)))
          CFI VB load(1, XDATA, add(CFA_XSP16, literal(-9)))
          CFI R6 load(1, XDATA, add(CFA_XSP16, literal(-10)))
          CFI CFA_SP SP+0
          CFI CFA_XSP16 add(XSP16, 10)
        ; Saved register size: 10
        ; Auto size: 0
        MOV     A,R1
        MOV     R6,A
        MOV     A,R2
        MOV     R4,A
        MOV     A,R3
        MOV     R5,A
//  559   if ( lqiAdjMode != LQI_ADJ_OFF )
        MOV     DPTR,#lqiAdjMode
        MOVX    A,@DPTR
        JZ      ??ZMacLqiAdjust_0
//  560   {
//  561     uint16 adjLqi = *lqi;
        MOV     DPL,R4
        MOV     DPH,R5
        MOVX    A,@DPTR
        MOV     R0,A
        MOV     R1,#0x0
//  562 
//  563     // Keep correlation within theoretical limits
//  564     if ( corr < LQI_CORR_MIN )
        MOV     A,R6
        CLR     C
        SUBB    A,#0x32
        JNC     ??ZMacLqiAdjust_1
//  565     {
//  566        corr = LQI_CORR_MIN;
        MOV     R6,#0x32
        SJMP    ??ZMacLqiAdjust_2
//  567     }
//  568     else if ( corr > LQI_CORR_MAX )
??ZMacLqiAdjust_1:
        MOV     A,R6
        CLR     C
        SUBB    A,#0x6f
        JC      ??ZMacLqiAdjust_2
//  569     {
//  570        corr = LQI_CORR_MAX;
        MOV     R6,#0x6e
//  571     }
//  572 
//  573     if ( lqiAdjMode == LQI_ADJ_MODE1 )
??ZMacLqiAdjust_2:
        MOV     DPTR,#lqiAdjMode
        MOVX    A,@DPTR
        XRL     A,#0x1
        JNZ     ??ZMacLqiAdjust_3
//  574     {
//  575       /* MODE1 - linear scaling of incoming LQI with a "correlation percentage"
//  576                  which is computed from the incoming correlation value between
//  577                  theorectical minimum/maximum values. This is a very simple way
//  578                  of 'derating' the incoming LQI as correlation value drops. */
//  579       adjLqi = (adjLqi * (corr - LQI_CORR_MIN)) / (LQI_CORR_MAX - LQI_CORR_MIN);
        MOV     A,R6
        ADD     A,#-0x32
        MOV     ?V0,A
        CLR     A
        ADDC    A,#-0x1
        MOV     ?V1,A
        MOV     A,R0
        MOV     B,?V0
        MUL     AB
        XCH     A,R0
        MOV     R2,B
        MOV     B,?V1
        MUL     AB
        ADD     A,R2
        MOV     R1,A
        MOV     R2,#0x3c
        MOV     R3,#0x0
        LCALL   ?US_DIV_MOD
//  580     }
//  581     else if ( lqiAdjMode == LQI_ADJ_MODE2 )
//  582     {
//  583       /* MODE2 - location for developer to implement a proprietary algorithm */
//  584     }
//  585 
//  586     // Replace incoming LQI with scaled value
//  587     *lqi = (adjLqi > 255) ? 255 : (uint8)adjLqi;
??ZMacLqiAdjust_3:
        CLR     C
        MOV     A,R1
        SUBB    A,#0x1
        JC      ??ZMacLqiAdjust_4
        MOV     A,#-0x1
        SJMP    ??ZMacLqiAdjust_5
??ZMacLqiAdjust_4:
        MOV     A,R0
??ZMacLqiAdjust_5:
        MOV     DPL,R4
        MOV     DPH,R5
        MOVX    @DPTR,A
//  588   }
//  589 }
??ZMacLqiAdjust_0:
        MOV     R7,#0x2
        LJMP    ?BANKED_LEAVE_XDATA
          CFI EndBlock cfiBlock68

        RSEG BANK_RELAYS:CODE:REORDER:NOROOT(0)
`??MAC_CbackEvent::?relay`:
        CODE
        LCALL   ?BDISPATCH
        DATA24
        DC24    MAC_CbackEvent

        RSEG BANK_RELAYS:CODE:REORDER:NOROOT(0)
`??MAC_CbackCheckPending::?relay`:
        CODE
        LCALL   ?BDISPATCH
        DATA24
        DC24    MAC_CbackCheckPending

        RSEG BANK_RELAYS:CODE:REORDER:NOROOT(0)
`??MAC_CbackQueryRetransmit::?relay`:
        CODE
        LCALL   ?BDISPATCH
        DATA24
        DC24    MAC_CbackQueryRetransmit

        RSEG BANK_RELAYS:CODE:REORDER:NOROOT(0)
`??ZMacLqiAdjustMode::?relay`:
        CODE
        LCALL   ?BDISPATCH
        DATA24
        DC24    ZMacLqiAdjustMode

        RSEG BANK_RELAYS:CODE:REORDER:NOROOT(0)
`??ZMacLqiAdjust::?relay`:
        CODE
        LCALL   ?BDISPATCH
        DATA24
        DC24    ZMacLqiAdjust

        END
//  590 #endif
// 
// 1 227 bytes in segment BANKED_CODE
//    30 bytes in segment BANK_RELAYS
//    17 bytes in segment CODE_C
//     1 byte  in segment SFR_AN
//     3 bytes in segment XDATA_Z
// 
// 1 274 bytes of CODE  memory
//     0 bytes of DATA  memory (+ 1 byte shared)
//     3 bytes of XDATA memory
//
//Errors: none
//Warnings: none
